ARM GAS  /tmp/ccGioAca.s 			page 1


   1              		.cpu cortex-m0
   2              		.fpu softvfp
   3              		.eabi_attribute 20, 1
   4              		.eabi_attribute 21, 1
   5              		.eabi_attribute 23, 3
   6              		.eabi_attribute 24, 1
   7              		.eabi_attribute 25, 1
   8              		.eabi_attribute 26, 2
   9              		.eabi_attribute 30, 2
  10              		.eabi_attribute 34, 0
  11              		.eabi_attribute 18, 4
  12              		.code	16
  13              		.file	"adc.c"
  14              		.text
  15              	.Ltext0:
  16              		.cfi_sections	.debug_frame
  17              		.section	.text.adcInit,"ax",%progbits
  18              		.align	2
  19              		.p2align 4,,15
  20              		.global	adcInit
  21              		.code	16
  22              		.thumb_func
  23              		.type	adcInit, %function
  24              	adcInit:
  25              	.LFB81:
  26              		.file 1 "../os/hal/src/adc.c"
  27              		.loc 1 56 0
  28              		.cfi_startproc
  29 0000 08B5     		push	{r3, lr}
  30              		.cfi_def_cfa_offset 8
  31              		.cfi_offset 3, -8
  32              		.cfi_offset 14, -4
  33              		.loc 1 58 0
  34 0002 FFF7FEFF 		bl	adc_lld_init
  35              	.LVL0:
  36              		.loc 1 59 0
  37              		@ sp needed
  38 0006 08BD     		pop	{r3, pc}
  39              		.cfi_endproc
  40              	.LFE81:
  41              		.size	adcInit, .-adcInit
  42 0008 C046C046 		.section	.text.adcObjectInit,"ax",%progbits
  42      C046C046 
  43              		.align	2
  44              		.p2align 4,,15
  45              		.global	adcObjectInit
  46              		.code	16
  47              		.thumb_func
  48              		.type	adcObjectInit, %function
  49              	adcObjectInit:
  50              	.LFB82:
  51              		.loc 1 68 0
  52              		.cfi_startproc
  53              	.LVL1:
  54              		.loc 1 70 0
  55 0000 0123     		mov	r3, #1
  56 0002 0360     		str	r3, [r0]
ARM GAS  /tmp/ccGioAca.s 			page 2


  57              		.loc 1 71 0
  58 0004 0023     		mov	r3, #0
  59              		.loc 1 84 0
  60              		@ sp needed
  61              		.loc 1 71 0
  62 0006 4360     		str	r3, [r0, #4]
  63              		.loc 1 72 0
  64 0008 8360     		str	r3, [r0, #8]
  65              		.loc 1 73 0
  66 000a C360     		str	r3, [r0, #12]
  67              		.loc 1 74 0
  68 000c 0361     		str	r3, [r0, #16]
  69              		.loc 1 84 0
  70 000e 7047     		bx	lr
  71              		.cfi_endproc
  72              	.LFE82:
  73              		.size	adcObjectInit, .-adcObjectInit
  74              		.section	.text.adcStart,"ax",%progbits
  75              		.align	2
  76              		.p2align 4,,15
  77              		.global	adcStart
  78              		.code	16
  79              		.thumb_func
  80              		.type	adcStart, %function
  81              	adcStart:
  82              	.LFB83:
  83              		.loc 1 95 0
  84              		.cfi_startproc
  85              	.LVL2:
  86 0000 10B5     		push	{r4, lr}
  87              		.cfi_def_cfa_offset 8
  88              		.cfi_offset 4, -8
  89              		.cfi_offset 14, -4
  90              		.loc 1 95 0
  91 0002 041C     		mov	r4, r0
  92              	.LBB56:
  93              	.LBB57:
  94              	.LBB58:
  95              	.LBB59:
  96              		.file 2 "../os/ext/CMSIS/include/core_cmFunc.h"
  97              		.loc 2 344 0
  98              	#APP
  99              	@ 344 "../os/ext/CMSIS/include/core_cmFunc.h" 1
 100 0004 72B6     		cpsid i
 101              	@ 0 "" 2
 102              		.code	16
 103              	.LBE59:
 104              	.LBE58:
 105              	.LBE57:
 106              	.LBE56:
 107              		.loc 1 102 0
 108 0006 4160     		str	r1, [r0, #4]
 109              		.loc 1 103 0
 110 0008 FFF7FEFF 		bl	adc_lld_start
 111              	.LVL3:
 112              		.loc 1 104 0
 113 000c 0223     		mov	r3, #2
ARM GAS  /tmp/ccGioAca.s 			page 3


 114 000e 2360     		str	r3, [r4]
 115              	.LBB60:
 116              	.LBB61:
 117              	.LBB62:
 118              	.LBB63:
 119              		.loc 2 333 0
 120              	#APP
 121              	@ 333 "../os/ext/CMSIS/include/core_cmFunc.h" 1
 122 0010 62B6     		cpsie i
 123              	@ 0 "" 2
 124              		.code	16
 125              	.LBE63:
 126              	.LBE62:
 127              	.LBE61:
 128              	.LBE60:
 129              		.loc 1 106 0
 130              		@ sp needed
 131              	.LVL4:
 132 0012 10BD     		pop	{r4, pc}
 133              		.cfi_endproc
 134              	.LFE83:
 135              		.size	adcStart, .-adcStart
 136 0014 C046C046 		.section	.text.adcStop,"ax",%progbits
 136      C046C046 
 136      C046C046 
 137              		.align	2
 138              		.p2align 4,,15
 139              		.global	adcStop
 140              		.code	16
 141              		.thumb_func
 142              		.type	adcStop, %function
 143              	adcStop:
 144              	.LFB84:
 145              		.loc 1 115 0
 146              		.cfi_startproc
 147              	.LVL5:
 148 0000 10B5     		push	{r4, lr}
 149              		.cfi_def_cfa_offset 8
 150              		.cfi_offset 4, -8
 151              		.cfi_offset 14, -4
 152              		.loc 1 115 0
 153 0002 041C     		mov	r4, r0
 154              	.LBB64:
 155              	.LBB65:
 156              	.LBB66:
 157              	.LBB67:
 158              		.loc 2 344 0
 159              	#APP
 160              	@ 344 "../os/ext/CMSIS/include/core_cmFunc.h" 1
 161 0004 72B6     		cpsid i
 162              	@ 0 "" 2
 163              		.code	16
 164              	.LBE67:
 165              	.LBE66:
 166              	.LBE65:
 167              	.LBE64:
 168              		.loc 1 122 0
ARM GAS  /tmp/ccGioAca.s 			page 4


 169 0006 FFF7FEFF 		bl	adc_lld_stop
 170              	.LVL6:
 171              		.loc 1 123 0
 172 000a 0123     		mov	r3, #1
 173 000c 2360     		str	r3, [r4]
 174              	.LBB68:
 175              	.LBB69:
 176              	.LBB70:
 177              	.LBB71:
 178              		.loc 2 333 0
 179              	#APP
 180              	@ 333 "../os/ext/CMSIS/include/core_cmFunc.h" 1
 181 000e 62B6     		cpsie i
 182              	@ 0 "" 2
 183              		.code	16
 184              	.LBE71:
 185              	.LBE70:
 186              	.LBE69:
 187              	.LBE68:
 188              		.loc 1 125 0
 189              		@ sp needed
 190              	.LVL7:
 191 0010 10BD     		pop	{r4, pc}
 192              		.cfi_endproc
 193              	.LFE84:
 194              		.size	adcStop, .-adcStop
 195 0012 C046C046 		.section	.text.adcStartConversion,"ax",%progbits
 195      C046C046 
 195      C046C046 
 195      C046
 196              		.align	2
 197              		.p2align 4,,15
 198              		.global	adcStartConversion
 199              		.code	16
 200              		.thumb_func
 201              		.type	adcStartConversion, %function
 202              	adcStartConversion:
 203              	.LFB85:
 204              		.loc 1 146 0
 205              		.cfi_startproc
 206              	.LVL8:
 207 0000 08B5     		push	{r3, lr}
 208              		.cfi_def_cfa_offset 8
 209              		.cfi_offset 3, -8
 210              		.cfi_offset 14, -4
 211              	.LBB72:
 212              	.LBB73:
 213              	.LBB74:
 214              	.LBB75:
 215              		.loc 2 344 0
 216              	#APP
 217              	@ 344 "../os/ext/CMSIS/include/core_cmFunc.h" 1
 218 0002 72B6     		cpsid i
 219              	@ 0 "" 2
 220              	.LVL9:
 221              		.code	16
 222              	.LBE75:
ARM GAS  /tmp/ccGioAca.s 			page 5


 223              	.LBE74:
 224              	.LBE73:
 225              	.LBE72:
 226              	.LBB76:
 227              	.LBB77:
 228              		.loc 1 185 0
 229 0004 C360     		str	r3, [r0, #12]
 230              		.loc 1 187 0
 231 0006 0323     		mov	r3, #3
 232              	.LVL10:
 233              		.loc 1 184 0
 234 0008 8260     		str	r2, [r0, #8]
 235              		.loc 1 186 0
 236 000a 0161     		str	r1, [r0, #16]
 237              		.loc 1 187 0
 238 000c 0360     		str	r3, [r0]
 239              		.loc 1 188 0
 240 000e FFF7FEFF 		bl	adc_lld_start_conversion
 241              	.LVL11:
 242              	.LBE77:
 243              	.LBE76:
 244              	.LBB78:
 245              	.LBB79:
 246              	.LBB80:
 247              	.LBB81:
 248              		.loc 2 333 0
 249              	#APP
 250              	@ 333 "../os/ext/CMSIS/include/core_cmFunc.h" 1
 251 0012 62B6     		cpsie i
 252              	@ 0 "" 2
 253              		.code	16
 254              	.LBE81:
 255              	.LBE80:
 256              	.LBE79:
 257              	.LBE78:
 258              		.loc 1 151 0
 259              		@ sp needed
 260 0014 08BD     		pop	{r3, pc}
 261              		.cfi_endproc
 262              	.LFE85:
 263              		.size	adcStartConversion, .-adcStartConversion
 264 0016 C046C046 		.section	.text.adcStartConversionI,"ax",%progbits
 264      C046C046 
 264      C046
 265              		.align	2
 266              		.p2align 4,,15
 267              		.global	adcStartConversionI
 268              		.code	16
 269              		.thumb_func
 270              		.type	adcStartConversionI, %function
 271              	adcStartConversionI:
 272              	.LFB86:
 273              		.loc 1 174 0
 274              		.cfi_startproc
 275              	.LVL12:
 276 0000 08B5     		push	{r3, lr}
 277              		.cfi_def_cfa_offset 8
ARM GAS  /tmp/ccGioAca.s 			page 6


 278              		.cfi_offset 3, -8
 279              		.cfi_offset 14, -4
 280              		.loc 1 185 0
 281 0002 C360     		str	r3, [r0, #12]
 282              		.loc 1 187 0
 283 0004 0323     		mov	r3, #3
 284              	.LVL13:
 285              		.loc 1 184 0
 286 0006 8260     		str	r2, [r0, #8]
 287              		.loc 1 186 0
 288 0008 0161     		str	r1, [r0, #16]
 289              		.loc 1 187 0
 290 000a 0360     		str	r3, [r0]
 291              		.loc 1 188 0
 292 000c FFF7FEFF 		bl	adc_lld_start_conversion
 293              	.LVL14:
 294              		.loc 1 189 0
 295              		@ sp needed
 296 0010 08BD     		pop	{r3, pc}
 297              		.cfi_endproc
 298              	.LFE86:
 299              		.size	adcStartConversionI, .-adcStartConversionI
 300 0012 C046C046 		.section	.text.adcStopConversion,"ax",%progbits
 300      C046C046 
 300      C046C046 
 300      C046
 301              		.align	2
 302              		.p2align 4,,15
 303              		.global	adcStopConversion
 304              		.code	16
 305              		.thumb_func
 306              		.type	adcStopConversion, %function
 307              	adcStopConversion:
 308              	.LFB87:
 309              		.loc 1 201 0
 310              		.cfi_startproc
 311              	.LVL15:
 312 0000 10B5     		push	{r4, lr}
 313              		.cfi_def_cfa_offset 8
 314              		.cfi_offset 4, -8
 315              		.cfi_offset 14, -4
 316              	.LBB82:
 317              	.LBB83:
 318              	.LBB84:
 319              	.LBB85:
 320              		.loc 2 344 0
 321              	#APP
 322              	@ 344 "../os/ext/CMSIS/include/core_cmFunc.h" 1
 323 0002 72B6     		cpsid i
 324              	@ 0 "" 2
 325              		.code	16
 326              	.LBE85:
 327              	.LBE84:
 328              	.LBE83:
 329              	.LBE82:
 330              		.loc 1 208 0
 331 0004 0368     		ldr	r3, [r0]
ARM GAS  /tmp/ccGioAca.s 			page 7


 332 0006 022B     		cmp	r3, #2
 333 0008 06D0     		beq	.L8
 334 000a 041C     		mov	r4, r0
 335              		.loc 1 209 0
 336 000c FFF7FEFF 		bl	adc_lld_stop_conversion
 337              	.LVL16:
 338              		.loc 1 210 0
 339 0010 0023     		mov	r3, #0
 340 0012 2361     		str	r3, [r4, #16]
 341              		.loc 1 211 0
 342 0014 0223     		mov	r3, #2
 343 0016 2360     		str	r3, [r4]
 344              	.LVL17:
 345              	.L8:
 346              	.LBB86:
 347              	.LBB87:
 348              	.LBB88:
 349              	.LBB89:
 350              		.loc 2 333 0
 351              	#APP
 352              	@ 333 "../os/ext/CMSIS/include/core_cmFunc.h" 1
 353 0018 62B6     		cpsie i
 354              	@ 0 "" 2
 355              		.code	16
 356              	.LBE89:
 357              	.LBE88:
 358              	.LBE87:
 359              	.LBE86:
 360              		.loc 1 215 0
 361              		@ sp needed
 362 001a 10BD     		pop	{r4, pc}
 363              		.cfi_endproc
 364              	.LFE87:
 365              		.size	adcStopConversion, .-adcStopConversion
 366 001c C046C046 		.section	.text.adcStopConversionI,"ax",%progbits
 367              		.align	2
 368              		.p2align 4,,15
 369              		.global	adcStopConversionI
 370              		.code	16
 371              		.thumb_func
 372              		.type	adcStopConversionI, %function
 373              	adcStopConversionI:
 374              	.LFB88:
 375              		.loc 1 227 0
 376              		.cfi_startproc
 377              	.LVL18:
 378              		.loc 1 236 0
 379 0000 0368     		ldr	r3, [r0]
 380              		.loc 1 227 0
 381 0002 10B5     		push	{r4, lr}
 382              		.cfi_def_cfa_offset 8
 383              		.cfi_offset 4, -8
 384              		.cfi_offset 14, -4
 385              		.loc 1 236 0
 386 0004 022B     		cmp	r3, #2
 387 0006 06D0     		beq	.L13
 388 0008 041C     		mov	r4, r0
ARM GAS  /tmp/ccGioAca.s 			page 8


 389              		.loc 1 237 0
 390 000a FFF7FEFF 		bl	adc_lld_stop_conversion
 391              	.LVL19:
 392              		.loc 1 238 0
 393 000e 0023     		mov	r3, #0
 394 0010 2361     		str	r3, [r4, #16]
 395              		.loc 1 239 0
 396 0012 0223     		mov	r3, #2
 397 0014 2360     		str	r3, [r4]
 398              	.LVL20:
 399              	.L13:
 400              		.loc 1 242 0
 401              		@ sp needed
 402 0016 10BD     		pop	{r4, pc}
 403              		.cfi_endproc
 404              	.LFE88:
 405              		.size	adcStopConversionI, .-adcStopConversionI
 406 0018 C046C046 		.text
 406      C046C046 
 407              	.Letext0:
 408              		.file 3 "/usr/lib/gcc/arm-linux-gnueabihf/4.9/include/stddef.h"
 409              		.file 4 "/usr/include/stdint.h"
 410              		.file 5 "../os/nil/include/nil.h"
 411              		.file 6 "../os/nil/ports/ARMCMx/compilers/GCC/niltypes.h"
 412              		.file 7 "../os/ext/CMSIS/KINETIS/kl02x.h"
 413              		.file 8 "../os/nil/ports/ARMCMx/nilcore.h"
 414              		.file 9 "../os/nil/ports/ARMCMx/nilcore_v6m.h"
 415              		.file 10 "../os/hal/include/adc.h"
 416              		.file 11 "../os/hal/ports/KINETIS/LLD/adc_lld.h"
 417              		.file 12 "../os/hal/osal/nil/osal.h"
 2990              		.section	.note.GNU-stack,"",%progbits
ARM GAS  /tmp/ccGioAca.s 			page 59

