ARM GAS  /tmp/ccDb0AN5.s 			page 1


   1              		.cpu cortex-m0
   2              		.fpu softvfp
   3              		.eabi_attribute 20, 1
   4              		.eabi_attribute 21, 1
   5              		.eabi_attribute 23, 3
   6              		.eabi_attribute 24, 1
   7              		.eabi_attribute 25, 1
   8              		.eabi_attribute 26, 2
   9              		.eabi_attribute 30, 2
  10              		.eabi_attribute 34, 0
  11              		.eabi_attribute 18, 4
  12              		.code	16
  13              		.file	"adc_lld.c"
  14              		.text
  15              	.Ltext0:
  16              		.cfi_sections	.debug_frame
  17              		.section	.text.Vector7C,"ax",%progbits
  18              		.align	2
  19              		.p2align 4,,15
  20              		.global	Vector7C
  21              		.code	16
  22              		.thumb_func
  23              		.type	Vector7C, %function
  24              	Vector7C:
  25              	.LFB83:
  26              		.file 1 "../os/hal/ports/KINETIS/LLD/adc_lld.c"
  27              		.loc 1 93 0
  28              		.cfi_startproc
  29              	.LVL0:
  30              		.loc 1 100 0
  31 0000 4023     		mov	r3, #64
  32 0002 194A     		ldr	r2, .L10
  33              		.loc 1 93 0
  34 0004 10B5     		push	{r4, lr}
  35              		.cfi_def_cfa_offset 8
  36              		.cfi_offset 4, -8
  37              		.cfi_offset 14, -4
  38              		.loc 1 100 0
  39 0006 5168     		ldr	r1, [r2, #4]
  40              		.loc 1 102 0
  41 0008 184C     		ldr	r4, .L10+4
  42              		.loc 1 100 0
  43 000a 0B43     		orr	r3, r1
  44 000c 5360     		str	r3, [r2, #4]
  45              		.loc 1 102 0
  46 000e 6169     		ldr	r1, [r4, #20]
  47 0010 E369     		ldr	r3, [r4, #28]
  48 0012 A068     		ldr	r0, [r4, #8]
  49 0014 0969     		ldr	r1, [r1, #16]
  50 0016 5A1C     		add	r2, r3, #1
  51 0018 5B00     		lsl	r3, r3, #1
  52 001a E261     		str	r2, [r4, #28]
  53 001c 1952     		strh	r1, [r3, r0]
  54              		.loc 1 105 0
  55 001e A369     		ldr	r3, [r4, #24]
  56 0020 9A42     		cmp	r2, r3
  57 0022 12D0     		beq	.L8
ARM GAS  /tmp/ccDb0AN5.s 			page 2


  58              	.L2:
  59              		.loc 1 110 0
  60 0024 5B08     		lsr	r3, r3, #1
  61 0026 9342     		cmp	r3, r2
  62 0028 05D0     		beq	.L9
  63              	.L3:
  64              		.loc 1 113 0
  65 002a 4023     		mov	r3, #64
  66 002c 0E4A     		ldr	r2, .L10
  67              		.loc 1 118 0
  68              		@ sp needed
  69              		.loc 1 113 0
  70 002e 9168     		ldr	r1, [r2, #8]
  71 0030 0B43     		orr	r3, r1
  72 0032 9360     		str	r3, [r2, #8]
  73              		.loc 1 118 0
  74 0034 10BD     		pop	{r4, pc}
  75              	.L9:
  76              		.loc 1 111 0
  77 0036 2369     		ldr	r3, [r4, #16]
  78 0038 5B68     		ldr	r3, [r3, #4]
  79 003a 002B     		cmp	r3, #0
  80 003c F5D0     		beq	.L3
  81              		.loc 1 111 0 is_stmt 0 discriminator 1
  82 003e E268     		ldr	r2, [r4, #12]
  83 0040 A168     		ldr	r1, [r4, #8]
  84 0042 5208     		lsr	r2, r2, #1
  85 0044 201C     		mov	r0, r4
  86 0046 9847     		blx	r3
  87              	.LVL1:
  88 0048 EFE7     		b	.L3
  89              	.L8:
  90              	.LBB2:
  91              		.loc 1 106 0 is_stmt 1
  92 004a E368     		ldr	r3, [r4, #12]
  93 004c 5A08     		lsr	r2, r3, #1
  94              	.LVL2:
  95 004e 2369     		ldr	r3, [r4, #16]
  96              	.LVL3:
  97 0050 5988     		ldrh	r1, [r3, #2]
  98 0052 5B68     		ldr	r3, [r3, #4]
  99              	.LVL4:
 100 0054 5143     		mul	r1, r2
 101              	.LVL5:
 102 0056 4900     		lsl	r1, r1, #1
 103              	.LVL6:
 104 0058 4118     		add	r1, r0, r1
 105 005a 201C     		mov	r0, r4
 106 005c 9847     		blx	r3
 107              	.LVL7:
 108              	.LBE2:
 109              		.loc 1 107 0
 110 005e 0023     		mov	r3, #0
 111 0060 0022     		mov	r2, #0
 112 0062 E361     		str	r3, [r4, #28]
 113 0064 A369     		ldr	r3, [r4, #24]
 114 0066 DDE7     		b	.L2
ARM GAS  /tmp/ccDb0AN5.s 			page 3


 115              	.L11:
 116              		.align	2
 117              	.L10:
 118 0068 40F00F40 		.word	1074786368
 119 006c 00000000 		.word	.LANCHOR0
 120              		.cfi_endproc
 121              	.LFE83:
 122              		.size	Vector7C, .-Vector7C
 123              		.section	.text.adc_lld_init,"ax",%progbits
 124              		.align	2
 125              		.p2align 4,,15
 126              		.global	adc_lld_init
 127              		.code	16
 128              		.thumb_func
 129              		.type	adc_lld_init, %function
 130              	adc_lld_init:
 131              	.LFB84:
 132              		.loc 1 130 0
 133              		.cfi_startproc
 134 0000 08B5     		push	{r3, lr}
 135              		.cfi_def_cfa_offset 8
 136              		.cfi_offset 3, -8
 137              		.cfi_offset 14, -4
 138              		.loc 1 134 0
 139 0002 0448     		ldr	r0, .L13
 140 0004 FFF7FEFF 		bl	adcObjectInit
 141              	.LVL8:
 142              		.loc 1 139 0
 143 0008 0F20     		mov	r0, #15
 144 000a 0021     		mov	r1, #0
 145 000c FFF7FEFF 		bl	nvicEnableVector
 146              	.LVL9:
 147              		.loc 1 140 0
 148              		@ sp needed
 149 0010 08BD     		pop	{r3, pc}
 150              	.L14:
 151 0012 C046     		.align	2
 152              	.L13:
 153 0014 00000000 		.word	.LANCHOR0
 154              		.cfi_endproc
 155              	.LFE84:
 156              		.size	adc_lld_init, .-adc_lld_init
 157 0018 C046C046 		.section	.text.adc_lld_start,"ax",%progbits
 157      C046C046 
 158              		.align	2
 159              		.p2align 4,,15
 160              		.global	adc_lld_start
 161              		.code	16
 162              		.thumb_func
 163              		.type	adc_lld_start, %function
 164              	adc_lld_start:
 165              	.LFB85:
 166              		.loc 1 149 0
 167              		.cfi_startproc
 168              	.LVL10:
 169              		.loc 1 152 0
 170 0000 0368     		ldr	r3, [r0]
ARM GAS  /tmp/ccDb0AN5.s 			page 4


 171              		.loc 1 149 0
 172 0002 F0B5     		push	{r4, r5, r6, r7, lr}
 173              		.cfi_def_cfa_offset 20
 174              		.cfi_offset 4, -20
 175              		.cfi_offset 5, -16
 176              		.cfi_offset 6, -12
 177              		.cfi_offset 7, -8
 178              		.cfi_offset 14, -4
 179              		.loc 1 152 0
 180 0004 012B     		cmp	r3, #1
 181 0006 00D0     		beq	.L25
 182              	.LVL11:
 183              	.L15:
 184              		.loc 1 164 0
 185              		@ sp needed
 186 0008 F0BD     		pop	{r4, r5, r6, r7, pc}
 187              	.LVL12:
 188              	.L25:
 189              		.loc 1 153 0
 190 000a 8024     		mov	r4, #128
 191 000c 1C49     		ldr	r1, .L26
 192 000e 1D4A     		ldr	r2, .L26+4
 193 0010 2405     		lsl	r4, r4, #20
 194 0012 8B58     		ldr	r3, [r1, r2]
 195 0014 2343     		orr	r3, r4
 196 0016 8B50     		str	r3, [r1, r2]
 197              		.loc 1 156 0
 198 0018 1B4B     		ldr	r3, .L26+8
 199 001a 9842     		cmp	r0, r3
 200 001c F4D1     		bne	.L15
 201              		.loc 1 158 0
 202 001e 4368     		ldr	r3, [r0, #4]
 203              		.loc 1 157 0
 204 0020 1A49     		ldr	r1, .L26+12
 205              		.loc 1 158 0
 206 0022 1B78     		ldrb	r3, [r3]
 207              		.loc 1 157 0
 208 0024 4161     		str	r1, [r0, #20]
 209              		.loc 1 158 0
 210 0026 002B     		cmp	r3, #0
 211 0028 EED0     		beq	.L15
 212              	.LVL13:
 213              	.LBB5:
 214              	.LBB6:
 215              		.loc 1 57 0
 216 002a 6123     		mov	r3, #97
 217 002c 8B60     		str	r3, [r1, #8]
 218              		.loc 1 61 0
 219 002e 0023     		mov	r3, #0
 220 0030 0B62     		str	r3, [r1, #32]
 221              		.loc 1 64 0
 222 0032 8723     		mov	r3, #135
 223              		.loc 1 70 0
 224 0034 8020     		mov	r0, #128
 225              	.LVL14:
 226              		.loc 1 64 0
 227 0036 4B62     		str	r3, [r1, #36]
ARM GAS  /tmp/ccDb0AN5.s 			page 5


 228              	.L19:
 229              		.loc 1 70 0
 230 0038 0A68     		ldr	r2, [r1]
 231 003a 144B     		ldr	r3, .L26+12
 232 003c 1042     		tst	r0, r2
 233 003e FBD0     		beq	.L19
 234              		.loc 1 73 0
 235 0040 D96C     		ldr	r1, [r3, #76]
 236 0042 9E6C     		ldr	r6, [r3, #72]
 237 0044 5D6C     		ldr	r5, [r3, #68]
 238 0046 7118     		add	r1, r6, r1
 239              		.loc 1 74 0
 240 0048 1C6C     		ldr	r4, [r3, #64]
 241              		.loc 1 73 0
 242 004a 4919     		add	r1, r1, r5
 243              		.loc 1 74 0
 244 004c D86B     		ldr	r0, [r3, #60]
 245              		.loc 1 73 0
 246 004e 0919     		add	r1, r1, r4
 247              		.loc 1 74 0
 248 0050 9A6B     		ldr	r2, [r3, #56]
 249              	.LVL15:
 250 0052 0918     		add	r1, r1, r0
 251 0054 8918     		add	r1, r1, r2
 252              		.loc 1 73 0
 253 0056 0E4E     		ldr	r6, .L26+16
 254              		.loc 1 74 0
 255 0058 4908     		lsr	r1, r1, #1
 256              		.loc 1 73 0
 257 005a 3143     		orr	r1, r6
 258              		.loc 1 75 0
 259 005c 89B2     		uxth	r1, r1
 260 005e D962     		str	r1, [r3, #44]
 261              		.loc 1 77 0
 262 0060 D86E     		ldr	r0, [r3, #108]
 263 0062 9F6E     		ldr	r7, [r3, #104]
 264 0064 5A6E     		ldr	r2, [r3, #100]
 265 0066 3818     		add	r0, r7, r0
 266              		.loc 1 78 0
 267 0068 1D6E     		ldr	r5, [r3, #96]
 268              		.loc 1 77 0
 269 006a 8018     		add	r0, r0, r2
 270              		.loc 1 78 0
 271 006c DC6D     		ldr	r4, [r3, #92]
 272              		.loc 1 77 0
 273 006e 4019     		add	r0, r0, r5
 274              		.loc 1 78 0
 275 0070 996D     		ldr	r1, [r3, #88]
 276 0072 0019     		add	r0, r0, r4
 277 0074 4218     		add	r2, r0, r1
 278 0076 5208     		lsr	r2, r2, #1
 279              		.loc 1 77 0
 280 0078 3243     		orr	r2, r6
 281              		.loc 1 79 0
 282 007a 92B2     		uxth	r2, r2
 283 007c 1A63     		str	r2, [r3, #48]
 284 007e C3E7     		b	.L15
ARM GAS  /tmp/ccDb0AN5.s 			page 6


 285              	.L27:
 286              		.align	2
 287              	.L26:
 288 0080 00700440 		.word	1074032640
 289 0084 3C100000 		.word	4156
 290 0088 00000000 		.word	.LANCHOR0
 291 008c 00B00340 		.word	1073983488
 292 0090 0080FFFF 		.word	-32768
 293              	.LBE6:
 294              	.LBE5:
 295              		.cfi_endproc
 296              	.LFE85:
 297              		.size	adc_lld_start, .-adc_lld_start
 298 0094 C046C046 		.section	.text.adc_lld_stop,"ax",%progbits
 298      C046C046 
 298      C046C046 
 299              		.align	2
 300              		.p2align 4,,15
 301              		.global	adc_lld_stop
 302              		.code	16
 303              		.thumb_func
 304              		.type	adc_lld_stop, %function
 305              	adc_lld_stop:
 306              	.LFB86:
 307              		.loc 1 173 0
 308              		.cfi_startproc
 309              	.LVL16:
 310              		.loc 1 176 0
 311 0000 0368     		ldr	r3, [r0]
 312              		.loc 1 173 0
 313 0002 10B5     		push	{r4, lr}
 314              		.cfi_def_cfa_offset 8
 315              		.cfi_offset 4, -8
 316              		.cfi_offset 14, -4
 317              		.loc 1 176 0
 318 0004 022B     		cmp	r3, #2
 319 0006 00D0     		beq	.L32
 320              	.L28:
 321              		.loc 1 186 0
 322              		@ sp needed
 323 0008 10BD     		pop	{r4, pc}
 324              	.L32:
 325              		.loc 1 177 0
 326 000a 0649     		ldr	r1, .L33
 327 000c 064A     		ldr	r2, .L33+4
 328 000e 074B     		ldr	r3, .L33+8
 329 0010 8C58     		ldr	r4, [r1, r2]
 330 0012 2340     		and	r3, r4
 331 0014 8B50     		str	r3, [r1, r2]
 332              		.loc 1 180 0
 333 0016 064B     		ldr	r3, .L33+12
 334 0018 9842     		cmp	r0, r3
 335 001a F5D1     		bne	.L28
 336              		.loc 1 182 0
 337 001c 1F22     		mov	r2, #31
 338 001e 4369     		ldr	r3, [r0, #20]
 339 0020 1A60     		str	r2, [r3]
ARM GAS  /tmp/ccDb0AN5.s 			page 7


 340 0022 F1E7     		b	.L28
 341              	.L34:
 342              		.align	2
 343              	.L33:
 344 0024 00700440 		.word	1074032640
 345 0028 3C100000 		.word	4156
 346 002c FFFFFFF7 		.word	-134217729
 347 0030 00000000 		.word	.LANCHOR0
 348              		.cfi_endproc
 349              	.LFE86:
 350              		.size	adc_lld_stop, .-adc_lld_stop
 351 0034 C046C046 		.section	.text.adc_lld_start_conversion,"ax",%progbits
 351      C046C046 
 351      C046C046 
 352              		.align	2
 353              		.p2align 4,,15
 354              		.global	adc_lld_start_conversion
 355              		.code	16
 356              		.thumb_func
 357              		.type	adc_lld_start_conversion, %function
 358              	adc_lld_start_conversion:
 359              	.LFB87:
 360              		.loc 1 195 0
 361              		.cfi_startproc
 362              	.LVL17:
 363 0000 70B5     		push	{r4, r5, r6, lr}
 364              		.cfi_def_cfa_offset 16
 365              		.cfi_offset 4, -16
 366              		.cfi_offset 5, -12
 367              		.cfi_offset 6, -8
 368              		.cfi_offset 14, -4
 369              		.loc 1 196 0
 370 0002 0669     		ldr	r6, [r0, #16]
 371              	.LVL18:
 372 0004 F168     		ldr	r1, [r6, #12]
 373              		.loc 1 199 0
 374 0006 0B01     		lsl	r3, r1, #4
 375 0008 05D5     		bpl	.L36
 376              		.loc 1 200 0
 377 000a 0123     		mov	r3, #1
 378 000c 114A     		ldr	r2, .L44
 379 000e 9178     		ldrb	r1, [r2, #2]
 380 0010 0B43     		orr	r3, r1
 381 0012 9370     		strb	r3, [r2, #2]
 382 0014 F168     		ldr	r1, [r6, #12]
 383              	.L36:
 384              		.loc 1 203 0
 385 0016 7388     		ldrh	r3, [r6, #2]
 386 0018 C268     		ldr	r2, [r0, #12]
 387 001a 5343     		mul	r3, r2
 388 001c 8361     		str	r3, [r0, #24]
 389              		.loc 1 204 0
 390 001e 0023     		mov	r3, #0
 391 0020 C361     		str	r3, [r0, #28]
 392              		.loc 1 207 0
 393 0022 0362     		str	r3, [r0, #32]
 394              		.loc 1 208 0
ARM GAS  /tmp/ccDb0AN5.s 			page 8


 395 0024 0123     		mov	r3, #1
 396 0026 0B40     		and	r3, r1
 397 0028 11D1     		bne	.L40
 398              		.loc 1 209 0
 399 002a 1F25     		mov	r5, #31
 400              		.loc 1 208 0
 401 002c 0124     		mov	r4, #1
 402              	.L38:
 403 002e 221C     		mov	r2, r4
 404              		.loc 1 209 0
 405 0030 0133     		add	r3, r3, #1
 406 0032 2B40     		and	r3, r5
 407              		.loc 1 208 0
 408 0034 9A40     		lsl	r2, r2, r3
 409 0036 0A42     		tst	r2, r1
 410 0038 F9D0     		beq	.L38
 411 003a 4022     		mov	r2, #64
 412 003c 0362     		str	r3, [r0, #32]
 413 003e 1343     		orr	r3, r2
 414              	.L37:
 415              		.loc 1 213 0
 416 0040 3169     		ldr	r1, [r6, #16]
 417 0042 4269     		ldr	r2, [r0, #20]
 418              		.loc 1 220 0
 419              		@ sp needed
 420              		.loc 1 213 0
 421 0044 9160     		str	r1, [r2, #8]
 422              		.loc 1 216 0
 423 0046 7169     		ldr	r1, [r6, #20]
 424 0048 5162     		str	r1, [r2, #36]
 425              		.loc 1 219 0
 426 004a 1360     		str	r3, [r2]
 427              	.LVL19:
 428              		.loc 1 220 0
 429 004c 70BD     		pop	{r4, r5, r6, pc}
 430              	.LVL20:
 431              	.L40:
 432              		.loc 1 208 0
 433 004e 4023     		mov	r3, #64
 434 0050 F6E7     		b	.L37
 435              	.L45:
 436 0052 C046     		.align	2
 437              	.L44:
 438 0054 00D00740 		.word	1074253824
 439              		.cfi_endproc
 440              	.LFE87:
 441              		.size	adc_lld_start_conversion, .-adc_lld_start_conversion
 442 0058 C046C046 		.section	.text.adc_lld_stop_conversion,"ax",%progbits
 442      C046C046 
 443              		.align	2
 444              		.p2align 4,,15
 445              		.global	adc_lld_stop_conversion
 446              		.code	16
 447              		.thumb_func
 448              		.type	adc_lld_stop_conversion, %function
 449              	adc_lld_stop_conversion:
 450              	.LFB88:
ARM GAS  /tmp/ccDb0AN5.s 			page 9


 451              		.loc 1 229 0
 452              		.cfi_startproc
 453              	.LVL21:
 454              		.loc 1 233 0
 455 0000 0369     		ldr	r3, [r0, #16]
 456 0002 DB68     		ldr	r3, [r3, #12]
 457 0004 1B01     		lsl	r3, r3, #4
 458 0006 04D5     		bpl	.L46
 459              		.loc 1 235 0
 460 0008 0921     		mov	r1, #9
 461 000a 024A     		ldr	r2, .L51
 462 000c 9378     		ldrb	r3, [r2, #2]
 463 000e 8B43     		bic	r3, r1
 464 0010 9370     		strb	r3, [r2, #2]
 465              	.LVL22:
 466              	.L46:
 467              		.loc 1 238 0
 468              		@ sp needed
 469 0012 7047     		bx	lr
 470              	.L52:
 471              		.align	2
 472              	.L51:
 473 0014 00D00740 		.word	1074253824
 474              		.cfi_endproc
 475              	.LFE88:
 476              		.size	adc_lld_stop_conversion, .-adc_lld_stop_conversion
 477              		.global	ADCD1
 478 0018 C046C046 		.section	.bss.ADCD1,"aw",%nobits
 478      C046C046 
 479              		.align	2
 480              	.LANCHOR0 = . + 0
 481              		.type	ADCD1, %object
 482              		.size	ADCD1, 36
 483              	ADCD1:
 484 0000 00000000 		.space	36
 484      00000000 
 484      00000000 
 484      00000000 
 484      00000000 
 485              		.text
 486              	.Letext0:
 487              		.file 2 "/usr/lib/gcc/arm-linux-gnueabihf/4.9/include/stddef.h"
 488              		.file 3 "/usr/include/stdint.h"
 489              		.file 4 "../os/nil/include/nil.h"
 490              		.file 5 "../os/nil/ports/ARMCMx/compilers/GCC/niltypes.h"
 491              		.file 6 "../os/ext/CMSIS/KINETIS/kl02x.h"
 492              		.file 7 "../os/nil/ports/ARMCMx/nilcore.h"
 493              		.file 8 "../os/nil/ports/ARMCMx/nilcore_v6m.h"
 494              		.file 9 "../os/hal/include/adc.h"
 495              		.file 10 "../os/hal/ports/KINETIS/LLD/adc_lld.h"
 496              		.file 11 "../os/hal/ports/common/ARMCMx/nvic.h"
 3126              		.section	.note.GNU-stack,"",%progbits
ARM GAS  /tmp/ccDb0AN5.s 			page 63

