ARM GAS  /tmp/ccnMLYoJ.s 			page 1


   1              		.cpu cortex-m0
   2              		.fpu softvfp
   3              		.eabi_attribute 20, 1
   4              		.eabi_attribute 21, 1
   5              		.eabi_attribute 23, 3
   6              		.eabi_attribute 24, 1
   7              		.eabi_attribute 25, 1
   8              		.eabi_attribute 26, 2
   9              		.eabi_attribute 30, 2
  10              		.eabi_attribute 34, 0
  11              		.eabi_attribute 18, 4
  12              		.code	16
  13              		.file	"analog.c"
  14              		.text
  15              	.Ltext0:
  16              		.cfi_sections	.debug_frame
  17              		.section	.text.adc_mic_end_cb,"ax",%progbits
  18              		.align	2
  19              		.p2align 4,,15
  20              		.code	16
  21              		.thumb_func
  22              		.type	adc_mic_end_cb, %function
  23              	adc_mic_end_cb:
  24              	.LFB82:
  25              		.file 1 "analog.c"
  26              		.loc 1 16 0
  27              		.cfi_startproc
  28              	.LVL0:
  29              		.loc 1 25 0
  30 0000 0120     		mov	r0, #1
  31              	.LVL1:
  32 0002 034B     		ldr	r3, .L2
  33              		.loc 1 29 0
  34              		@ sp needed
  35              		.loc 1 25 0
  36 0004 1870     		strb	r0, [r3]
  37              		.loc 1 26 0
  38 0006 034B     		ldr	r3, .L2+4
  39 0008 1960     		str	r1, [r3]
  40              		.loc 1 27 0
  41 000a 034B     		ldr	r3, .L2+8
  42 000c 1A60     		str	r2, [r3]
  43              		.loc 1 29 0
  44 000e 7047     		bx	lr
  45              	.L3:
  46              		.align	2
  47              	.L2:
  48 0010 00000000 		.word	dataReadyFlag
  49 0014 00000000 		.word	bufloc
  50 0018 00000000 		.word	buf_n
  51              		.cfi_endproc
  52              	.LFE82:
  53              		.size	adc_mic_end_cb, .-adc_mic_end_cb
  54 001c C046C046 		.section	.text.analogUpdateMic,"ax",%progbits
  55              		.align	2
  56              		.p2align 4,,15
  57              		.global	analogUpdateMic
ARM GAS  /tmp/ccnMLYoJ.s 			page 2


  58              		.code	16
  59              		.thumb_func
  60              		.type	analogUpdateMic, %function
  61              	analogUpdateMic:
  62              	.LFB83:
  63              		.loc 1 70 0
  64              		.cfi_startproc
  65 0000 08B5     		push	{r3, lr}
  66              		.cfi_def_cfa_offset 8
  67              		.cfi_offset 3, -8
  68              		.cfi_offset 14, -4
  69              		.loc 1 73 0
  70 0002 8023     		mov	r3, #128
  71 0004 0348     		ldr	r0, .L5
  72 0006 0449     		ldr	r1, .L5+4
  73 0008 044A     		ldr	r2, .L5+8
  74 000a 9B00     		lsl	r3, r3, #2
  75 000c FFF7FEFF 		bl	adcStartConversion
  76              	.LVL2:
  77              		.loc 1 75 0
  78              		@ sp needed
  79 0010 08BD     		pop	{r3, pc}
  80              	.L6:
  81 0012 C046     		.align	2
  82              	.L5:
  83 0014 00000000 		.word	ADCD1
  84 0018 00000000 		.word	.LANCHOR0
  85 001c 00000000 		.word	.LANCHOR1
  86              		.cfi_endproc
  87              	.LFE83:
  88              		.size	analogUpdateMic, .-analogUpdateMic
  89              		.section	.text.analogStart,"ax",%progbits
  90              		.align	2
  91              		.p2align 4,,15
  92              		.global	analogStart
  93              		.code	16
  94              		.thumb_func
  95              		.type	analogStart, %function
  96              	analogStart:
  97              	.LFB84:
  98              		.loc 1 77 0
  99              		.cfi_startproc
 100              		.loc 1 79 0
 101              		@ sp needed
 102 0000 7047     		bx	lr
 103              		.cfi_endproc
 104              	.LFE84:
 105              		.size	analogStart, .-analogStart
 106 0002 C046C046 		.section	.rodata.adcgrpmic,"a",%progbits
 106      C046C046 
 106      C046C046 
 106      C046
 107              		.align	2
 108              	.LANCHOR0 = . + 0
 109              		.type	adcgrpmic, %object
 110              		.size	adcgrpmic, 24
 111              	adcgrpmic:
ARM GAS  /tmp/ccnMLYoJ.s 			page 3


 112 0000 01       		.byte	1
 113 0001 00       		.space	1
 114 0002 0100     		.short	1
 115 0004 00000000 		.word	adc_mic_end_cb
 116 0008 00000000 		.word	0
 117 000c 01000000 		.word	1
 118 0010 25000000 		.word	37
 119 0014 0C000000 		.word	12
 120              		.section	.bss.mic_sample,"aw",%nobits
 121              		.align	2
 122              	.LANCHOR1 = . + 0
 123              		.type	mic_sample, %object
 124              		.size	mic_sample, 1024
 125              	mic_sample:
 126 0000 00000000 		.space	1024
 126      00000000 
 126      00000000 
 126      00000000 
 126      00000000 
 127              		.text
 128              	.Letext0:
 129              		.file 2 "../os/nil/include/nil.h"
 130              		.file 3 "/usr/lib/gcc/arm-linux-gnueabihf/4.9/include/stddef.h"
 131              		.file 4 "/usr/include/stdint.h"
 132              		.file 5 "../os/nil/ports/ARMCMx/compilers/GCC/niltypes.h"
 133              		.file 6 "../os/ext/CMSIS/KINETIS/kl02x.h"
 134              		.file 7 "../os/nil/ports/ARMCMx/nilcore.h"
 135              		.file 8 "../os/nil/ports/ARMCMx/nilcore_v6m.h"
 136              		.file 9 "../os/hal/include/adc.h"
 137              		.file 10 "../os/hal/ports/KINETIS/LLD/adc_lld.h"
 138              		.section	.debug_info,"",%progbits
 139              	.Ldebug_info0:
 140 0000 91070000 		.4byte	0x791
 141 0004 0400     		.2byte	0x4
 142 0006 00000000 		.4byte	.Ldebug_abbrev0
 143 000a 04       		.byte	0x4
 144 000b 01       		.uleb128 0x1
 145 000c DF030000 		.4byte	.LASF103
 146 0010 01       		.byte	0x1
 147 0011 A4000000 		.4byte	.LASF104
 148 0015 BB000000 		.4byte	.LASF105
 149 0019 00000000 		.4byte	.Ldebug_ranges0+0
 150 001d 00000000 		.4byte	0
 151 0021 00000000 		.4byte	.Ldebug_line0
 152 0025 02       		.uleb128 0x2
 153 0026 78010000 		.4byte	.LASF5
 154 002a 02       		.byte	0x2
 155 002b 25       		.byte	0x25
 156 002c 30000000 		.4byte	0x30
 157 0030 03       		.uleb128 0x3
 158 0031 EC040000 		.4byte	.LASF47
 159 0035 18       		.byte	0x18
 160 0036 02       		.byte	0x2
 161 0037 6201     		.2byte	0x162
 162 0039 8B000000 		.4byte	0x8b
 163 003d 04       		.uleb128 0x4
 164 003e 1B030000 		.4byte	.LASF0
ARM GAS  /tmp/ccnMLYoJ.s 			page 4


 165 0042 02       		.byte	0x2
 166 0043 6301     		.2byte	0x163
 167 0045 FE030000 		.4byte	0x3fe
 168 0049 00       		.byte	0
 169 004a 04       		.uleb128 0x4
 170 004b E6040000 		.4byte	.LASF1
 171 004f 02       		.byte	0x2
 172 0050 6401     		.2byte	0x164
 173 0052 05010000 		.4byte	0x105
 174 0056 04       		.byte	0x4
 175 0057 05       		.uleb128 0x5
 176 0058 753100   		.ascii	"u1\000"
 177 005b 02       		.byte	0x2
 178 005c 6F01     		.2byte	0x16f
 179 005e AE030000 		.4byte	0x3ae
 180 0062 08       		.byte	0x8
 181 0063 04       		.uleb128 0x4
 182 0064 DE040000 		.4byte	.LASF2
 183 0068 02       		.byte	0x2
 184 0069 7001     		.2byte	0x170
 185 006b 04040000 		.4byte	0x404
 186 006f 0C       		.byte	0xc
 187 0070 04       		.uleb128 0x4
 188 0071 84020000 		.4byte	.LASF3
 189 0075 02       		.byte	0x2
 190 0076 7301     		.2byte	0x173
 191 0078 1B010000 		.4byte	0x11b
 192 007c 10       		.byte	0x10
 193 007d 04       		.uleb128 0x4
 194 007e 51010000 		.4byte	.LASF4
 195 0082 02       		.byte	0x2
 196 0083 7601     		.2byte	0x176
 197 0085 84030000 		.4byte	0x384
 198 0089 14       		.byte	0x14
 199 008a 00       		.byte	0
 200 008b 06       		.uleb128 0x6
 201 008c 04       		.byte	0x4
 202 008d 05       		.byte	0x5
 203 008e 696E7400 		.ascii	"int\000"
 204 0092 02       		.uleb128 0x2
 205 0093 93010000 		.4byte	.LASF6
 206 0097 03       		.byte	0x3
 207 0098 D4       		.byte	0xd4
 208 0099 9D000000 		.4byte	0x9d
 209 009d 07       		.uleb128 0x7
 210 009e 04       		.byte	0x4
 211 009f 07       		.byte	0x7
 212 00a0 60000000 		.4byte	.LASF7
 213 00a4 07       		.uleb128 0x7
 214 00a5 01       		.byte	0x1
 215 00a6 06       		.byte	0x6
 216 00a7 F7040000 		.4byte	.LASF8
 217 00ab 07       		.uleb128 0x7
 218 00ac 02       		.byte	0x2
 219 00ad 05       		.byte	0x5
 220 00ae FE020000 		.4byte	.LASF9
 221 00b2 02       		.uleb128 0x2
ARM GAS  /tmp/ccnMLYoJ.s 			page 5


 222 00b3 BF030000 		.4byte	.LASF10
 223 00b7 04       		.byte	0x4
 224 00b8 26       		.byte	0x26
 225 00b9 8B000000 		.4byte	0x8b
 226 00bd 07       		.uleb128 0x7
 227 00be 08       		.byte	0x8
 228 00bf 05       		.byte	0x5
 229 00c0 44020000 		.4byte	.LASF11
 230 00c4 02       		.uleb128 0x2
 231 00c5 FE010000 		.4byte	.LASF12
 232 00c9 04       		.byte	0x4
 233 00ca 30       		.byte	0x30
 234 00cb CF000000 		.4byte	0xcf
 235 00cf 07       		.uleb128 0x7
 236 00d0 01       		.byte	0x1
 237 00d1 08       		.byte	0x8
 238 00d2 C7030000 		.4byte	.LASF13
 239 00d6 02       		.uleb128 0x2
 240 00d7 CA020000 		.4byte	.LASF14
 241 00db 04       		.byte	0x4
 242 00dc 31       		.byte	0x31
 243 00dd E1000000 		.4byte	0xe1
 244 00e1 07       		.uleb128 0x7
 245 00e2 02       		.byte	0x2
 246 00e3 07       		.byte	0x7
 247 00e4 03050000 		.4byte	.LASF15
 248 00e8 02       		.uleb128 0x2
 249 00e9 E3000000 		.4byte	.LASF16
 250 00ed 04       		.byte	0x4
 251 00ee 33       		.byte	0x33
 252 00ef 9D000000 		.4byte	0x9d
 253 00f3 02       		.uleb128 0x2
 254 00f4 60030000 		.4byte	.LASF17
 255 00f8 04       		.byte	0x4
 256 00f9 3A       		.byte	0x3a
 257 00fa FE000000 		.4byte	0xfe
 258 00fe 07       		.uleb128 0x7
 259 00ff 08       		.byte	0x8
 260 0100 07       		.byte	0x7
 261 0101 25010000 		.4byte	.LASF18
 262 0105 02       		.uleb128 0x2
 263 0106 F5010000 		.4byte	.LASF19
 264 010a 05       		.byte	0x5
 265 010b 37       		.byte	0x37
 266 010c C4000000 		.4byte	0xc4
 267 0110 02       		.uleb128 0x2
 268 0111 5D020000 		.4byte	.LASF20
 269 0115 05       		.byte	0x5
 270 0116 38       		.byte	0x38
 271 0117 B2000000 		.4byte	0xb2
 272 011b 02       		.uleb128 0x2
 273 011c FF000000 		.4byte	.LASF21
 274 0120 05       		.byte	0x5
 275 0121 39       		.byte	0x39
 276 0122 E8000000 		.4byte	0xe8
 277 0126 02       		.uleb128 0x2
 278 0127 58010000 		.4byte	.LASF22
ARM GAS  /tmp/ccnMLYoJ.s 			page 6


 279 012b 05       		.byte	0x5
 280 012c 3A       		.byte	0x3a
 281 012d B2000000 		.4byte	0xb2
 282 0131 02       		.uleb128 0x2
 283 0132 36000000 		.4byte	.LASF23
 284 0136 05       		.byte	0x5
 285 0137 41       		.byte	0x41
 286 0138 E8000000 		.4byte	0xe8
 287 013c 08       		.uleb128 0x8
 288 013d E8000000 		.4byte	0xe8
 289 0141 4C010000 		.4byte	0x14c
 290 0145 09       		.uleb128 0x9
 291 0146 4C010000 		.4byte	0x14c
 292 014a 00       		.byte	0
 293 014b 00       		.byte	0
 294 014c 07       		.uleb128 0x7
 295 014d 04       		.byte	0x4
 296 014e 07       		.byte	0x7
 297 014f 94030000 		.4byte	.LASF24
 298 0153 0A       		.uleb128 0xa
 299 0154 58010000 		.4byte	0x158
 300 0158 0B       		.uleb128 0xb
 301 0159 E8000000 		.4byte	0xe8
 302 015d 0B       		.uleb128 0xb
 303 015e C4000000 		.4byte	0xc4
 304 0162 0C       		.uleb128 0xc
 305 0163 70       		.byte	0x70
 306 0164 06       		.byte	0x6
 307 0165 CA       		.byte	0xca
 308 0166 B7020000 		.4byte	0x2b7
 309 016a 0D       		.uleb128 0xd
 310 016b 3C010000 		.4byte	.LASF25
 311 016f 06       		.byte	0x6
 312 0170 CC       		.byte	0xcc
 313 0171 58010000 		.4byte	0x158
 314 0175 00       		.byte	0
 315 0176 0D       		.uleb128 0xd
 316 0177 81010000 		.4byte	.LASF26
 317 017b 06       		.byte	0x6
 318 017c CD       		.byte	0xcd
 319 017d 58010000 		.4byte	0x158
 320 0181 04       		.byte	0x4
 321 0182 0D       		.uleb128 0xd
 322 0183 51030000 		.4byte	.LASF27
 323 0187 06       		.byte	0x6
 324 0188 CE       		.byte	0xce
 325 0189 58010000 		.4byte	0x158
 326 018d 08       		.byte	0x8
 327 018e 0D       		.uleb128 0xd
 328 018f 56030000 		.4byte	.LASF28
 329 0193 06       		.byte	0x6
 330 0194 CF       		.byte	0xcf
 331 0195 58010000 		.4byte	0x158
 332 0199 0C       		.byte	0xc
 333 019a 0E       		.uleb128 0xe
 334 019b 524100   		.ascii	"RA\000"
 335 019e 06       		.byte	0x6
ARM GAS  /tmp/ccnMLYoJ.s 			page 7


 336 019f D0       		.byte	0xd0
 337 01a0 53010000 		.4byte	0x153
 338 01a4 10       		.byte	0x10
 339 01a5 0E       		.uleb128 0xe
 340 01a6 524200   		.ascii	"RB\000"
 341 01a9 06       		.byte	0x6
 342 01aa D1       		.byte	0xd1
 343 01ab 53010000 		.4byte	0x153
 344 01af 14       		.byte	0x14
 345 01b0 0E       		.uleb128 0xe
 346 01b1 43563100 		.ascii	"CV1\000"
 347 01b5 06       		.byte	0x6
 348 01b6 D2       		.byte	0xd2
 349 01b7 58010000 		.4byte	0x158
 350 01bb 18       		.byte	0x18
 351 01bc 0E       		.uleb128 0xe
 352 01bd 43563200 		.ascii	"CV2\000"
 353 01c1 06       		.byte	0x6
 354 01c2 D3       		.byte	0xd3
 355 01c3 58010000 		.4byte	0x158
 356 01c7 1C       		.byte	0x1c
 357 01c8 0E       		.uleb128 0xe
 358 01c9 53433200 		.ascii	"SC2\000"
 359 01cd 06       		.byte	0x6
 360 01ce D4       		.byte	0xd4
 361 01cf 58010000 		.4byte	0x158
 362 01d3 20       		.byte	0x20
 363 01d4 0E       		.uleb128 0xe
 364 01d5 53433300 		.ascii	"SC3\000"
 365 01d9 06       		.byte	0x6
 366 01da D5       		.byte	0xd5
 367 01db 58010000 		.4byte	0x158
 368 01df 24       		.byte	0x24
 369 01e0 0E       		.uleb128 0xe
 370 01e1 4F465300 		.ascii	"OFS\000"
 371 01e5 06       		.byte	0x6
 372 01e6 D6       		.byte	0xd6
 373 01e7 58010000 		.4byte	0x158
 374 01eb 28       		.byte	0x28
 375 01ec 0E       		.uleb128 0xe
 376 01ed 504700   		.ascii	"PG\000"
 377 01f0 06       		.byte	0x6
 378 01f1 D7       		.byte	0xd7
 379 01f2 58010000 		.4byte	0x158
 380 01f6 2C       		.byte	0x2c
 381 01f7 0E       		.uleb128 0xe
 382 01f8 4D4700   		.ascii	"MG\000"
 383 01fb 06       		.byte	0x6
 384 01fc D8       		.byte	0xd8
 385 01fd 58010000 		.4byte	0x158
 386 0201 30       		.byte	0x30
 387 0202 0D       		.uleb128 0xd
 388 0203 20030000 		.4byte	.LASF29
 389 0207 06       		.byte	0x6
 390 0208 D9       		.byte	0xd9
 391 0209 58010000 		.4byte	0x158
 392 020d 34       		.byte	0x34
ARM GAS  /tmp/ccnMLYoJ.s 			page 8


 393 020e 0D       		.uleb128 0xd
 394 020f 5B030000 		.4byte	.LASF30
 395 0213 06       		.byte	0x6
 396 0214 DA       		.byte	0xda
 397 0215 58010000 		.4byte	0x158
 398 0219 38       		.byte	0x38
 399 021a 0D       		.uleb128 0xd
 400 021b F9020000 		.4byte	.LASF31
 401 021f 06       		.byte	0x6
 402 0220 DB       		.byte	0xdb
 403 0221 58010000 		.4byte	0x158
 404 0225 3C       		.byte	0x3c
 405 0226 0D       		.uleb128 0xd
 406 0227 F4020000 		.4byte	.LASF32
 407 022b 06       		.byte	0x6
 408 022c DC       		.byte	0xdc
 409 022d 58010000 		.4byte	0x158
 410 0231 40       		.byte	0x40
 411 0232 0D       		.uleb128 0xd
 412 0233 EF020000 		.4byte	.LASF33
 413 0237 06       		.byte	0x6
 414 0238 DD       		.byte	0xdd
 415 0239 58010000 		.4byte	0x158
 416 023d 44       		.byte	0x44
 417 023e 0D       		.uleb128 0xd
 418 023f EA020000 		.4byte	.LASF34
 419 0243 06       		.byte	0x6
 420 0244 DE       		.byte	0xde
 421 0245 58010000 		.4byte	0x158
 422 0249 48       		.byte	0x48
 423 024a 0D       		.uleb128 0xd
 424 024b E5020000 		.4byte	.LASF35
 425 024f 06       		.byte	0x6
 426 0250 DF       		.byte	0xdf
 427 0251 58010000 		.4byte	0x158
 428 0255 4C       		.byte	0x4c
 429 0256 0D       		.uleb128 0xd
 430 0257 2E050000 		.4byte	.LASF36
 431 025b 06       		.byte	0x6
 432 025c E0       		.byte	0xe0
 433 025d 3C010000 		.4byte	0x13c
 434 0261 50       		.byte	0x50
 435 0262 0D       		.uleb128 0xd
 436 0263 2B020000 		.4byte	.LASF37
 437 0267 06       		.byte	0x6
 438 0268 E1       		.byte	0xe1
 439 0269 58010000 		.4byte	0x158
 440 026d 54       		.byte	0x54
 441 026e 0D       		.uleb128 0xd
 442 026f 52020000 		.4byte	.LASF38
 443 0273 06       		.byte	0x6
 444 0274 E2       		.byte	0xe2
 445 0275 58010000 		.4byte	0x158
 446 0279 58       		.byte	0x58
 447 027a 0D       		.uleb128 0xd
 448 027b 26020000 		.4byte	.LASF39
 449 027f 06       		.byte	0x6
ARM GAS  /tmp/ccnMLYoJ.s 			page 9


 450 0280 E3       		.byte	0xe3
 451 0281 58010000 		.4byte	0x158
 452 0285 5C       		.byte	0x5c
 453 0286 0D       		.uleb128 0xd
 454 0287 21020000 		.4byte	.LASF40
 455 028b 06       		.byte	0x6
 456 028c E4       		.byte	0xe4
 457 028d 58010000 		.4byte	0x158
 458 0291 60       		.byte	0x60
 459 0292 0D       		.uleb128 0xd
 460 0293 1C020000 		.4byte	.LASF41
 461 0297 06       		.byte	0x6
 462 0298 E5       		.byte	0xe5
 463 0299 58010000 		.4byte	0x158
 464 029d 64       		.byte	0x64
 465 029e 0D       		.uleb128 0xd
 466 029f 17020000 		.4byte	.LASF42
 467 02a3 06       		.byte	0x6
 468 02a4 E6       		.byte	0xe6
 469 02a5 58010000 		.4byte	0x158
 470 02a9 68       		.byte	0x68
 471 02aa 0D       		.uleb128 0xd
 472 02ab 12020000 		.4byte	.LASF43
 473 02af 06       		.byte	0x6
 474 02b0 E7       		.byte	0xe7
 475 02b1 58010000 		.4byte	0x158
 476 02b5 6C       		.byte	0x6c
 477 02b6 00       		.byte	0
 478 02b7 02       		.uleb128 0x2
 479 02b8 38020000 		.4byte	.LASF44
 480 02bc 06       		.byte	0x6
 481 02bd E8       		.byte	0xe8
 482 02be 62010000 		.4byte	0x162
 483 02c2 02       		.uleb128 0x2
 484 02c3 2D000000 		.4byte	.LASF45
 485 02c7 07       		.byte	0x7
 486 02c8 65       		.byte	0x65
 487 02c9 CD020000 		.4byte	0x2cd
 488 02cd 0F       		.uleb128 0xf
 489 02ce 04       		.byte	0x4
 490 02cf 02       		.uleb128 0x2
 491 02d0 16050000 		.4byte	.LASF46
 492 02d4 07       		.byte	0x7
 493 02d5 6D       		.byte	0x6d
 494 02d6 F3000000 		.4byte	0xf3
 495 02da 10       		.uleb128 0x10
 496 02db 25030000 		.4byte	.LASF48
 497 02df 24       		.byte	0x24
 498 02e0 08       		.byte	0x8
 499 02e1 A4       		.byte	0xa4
 500 02e2 4C030000 		.4byte	0x34c
 501 02e6 0E       		.uleb128 0xe
 502 02e7 723800   		.ascii	"r8\000"
 503 02ea 08       		.byte	0x8
 504 02eb A5       		.byte	0xa5
 505 02ec C2020000 		.4byte	0x2c2
 506 02f0 00       		.byte	0
ARM GAS  /tmp/ccnMLYoJ.s 			page 10


 507 02f1 0E       		.uleb128 0xe
 508 02f2 723900   		.ascii	"r9\000"
 509 02f5 08       		.byte	0x8
 510 02f6 A6       		.byte	0xa6
 511 02f7 C2020000 		.4byte	0x2c2
 512 02fb 04       		.byte	0x4
 513 02fc 0E       		.uleb128 0xe
 514 02fd 72313000 		.ascii	"r10\000"
 515 0301 08       		.byte	0x8
 516 0302 A7       		.byte	0xa7
 517 0303 C2020000 		.4byte	0x2c2
 518 0307 08       		.byte	0x8
 519 0308 0E       		.uleb128 0xe
 520 0309 72313100 		.ascii	"r11\000"
 521 030d 08       		.byte	0x8
 522 030e A8       		.byte	0xa8
 523 030f C2020000 		.4byte	0x2c2
 524 0313 0C       		.byte	0xc
 525 0314 0E       		.uleb128 0xe
 526 0315 723400   		.ascii	"r4\000"
 527 0318 08       		.byte	0x8
 528 0319 A9       		.byte	0xa9
 529 031a C2020000 		.4byte	0x2c2
 530 031e 10       		.byte	0x10
 531 031f 0E       		.uleb128 0xe
 532 0320 723500   		.ascii	"r5\000"
 533 0323 08       		.byte	0x8
 534 0324 AA       		.byte	0xaa
 535 0325 C2020000 		.4byte	0x2c2
 536 0329 14       		.byte	0x14
 537 032a 0E       		.uleb128 0xe
 538 032b 723600   		.ascii	"r6\000"
 539 032e 08       		.byte	0x8
 540 032f AB       		.byte	0xab
 541 0330 C2020000 		.4byte	0x2c2
 542 0334 18       		.byte	0x18
 543 0335 0E       		.uleb128 0xe
 544 0336 723700   		.ascii	"r7\000"
 545 0339 08       		.byte	0x8
 546 033a AC       		.byte	0xac
 547 033b C2020000 		.4byte	0x2c2
 548 033f 1C       		.byte	0x1c
 549 0340 0E       		.uleb128 0xe
 550 0341 6C7200   		.ascii	"lr\000"
 551 0344 08       		.byte	0x8
 552 0345 AD       		.byte	0xad
 553 0346 C2020000 		.4byte	0x2c2
 554 034a 20       		.byte	0x20
 555 034b 00       		.byte	0
 556 034c 11       		.uleb128 0x11
 557 034d 7B020000 		.4byte	.LASF49
 558 0351 02       		.byte	0x2
 559 0352 3701     		.2byte	0x137
 560 0354 DA020000 		.4byte	0x2da
 561 0358 11       		.uleb128 0x11
 562 0359 6C010000 		.4byte	.LASF50
 563 035d 02       		.byte	0x2
ARM GAS  /tmp/ccnMLYoJ.s 			page 11


 564 035e 3C01     		.2byte	0x13c
 565 0360 64030000 		.4byte	0x364
 566 0364 03       		.uleb128 0x3
 567 0365 AD000000 		.4byte	.LASF51
 568 0369 04       		.byte	0x4
 569 036a 02       		.byte	0x2
 570 036b 4101     		.2byte	0x141
 571 036d 7F030000 		.4byte	0x37f
 572 0371 05       		.uleb128 0x5
 573 0372 636E7400 		.ascii	"cnt\000"
 574 0376 02       		.byte	0x2
 575 0377 4201     		.2byte	0x142
 576 0379 7F030000 		.4byte	0x37f
 577 037d 00       		.byte	0
 578 037e 00       		.byte	0
 579 037f 0B       		.uleb128 0xb
 580 0380 26010000 		.4byte	0x126
 581 0384 12       		.uleb128 0x12
 582 0385 04       		.byte	0x4
 583 0386 CF020000 		.4byte	0x2cf
 584 038a 12       		.uleb128 0x12
 585 038b 04       		.byte	0x4
 586 038c 90030000 		.4byte	0x390
 587 0390 0A       		.uleb128 0xa
 588 0391 95030000 		.4byte	0x395
 589 0395 07       		.uleb128 0x7
 590 0396 01       		.byte	0x1
 591 0397 08       		.byte	0x8
 592 0398 D2010000 		.4byte	.LASF52
 593 039c 11       		.uleb128 0x11
 594 039d E2010000 		.4byte	.LASF53
 595 03a1 02       		.byte	0x2
 596 03a2 5D01     		.2byte	0x15d
 597 03a4 A8030000 		.4byte	0x3a8
 598 03a8 12       		.uleb128 0x12
 599 03a9 04       		.byte	0x4
 600 03aa 25000000 		.4byte	0x25
 601 03ae 13       		.uleb128 0x13
 602 03af 04       		.byte	0x4
 603 03b0 02       		.byte	0x2
 604 03b1 6701     		.2byte	0x167
 605 03b3 F2030000 		.4byte	0x3f2
 606 03b7 14       		.uleb128 0x14
 607 03b8 6D736700 		.ascii	"msg\000"
 608 03bc 02       		.byte	0x2
 609 03bd 6801     		.2byte	0x168
 610 03bf 10010000 		.4byte	0x110
 611 03c3 14       		.uleb128 0x14
 612 03c4 7000     		.ascii	"p\000"
 613 03c6 02       		.byte	0x2
 614 03c7 6901     		.2byte	0x169
 615 03c9 CD020000 		.4byte	0x2cd
 616 03cd 14       		.uleb128 0x14
 617 03ce 74727000 		.ascii	"trp\000"
 618 03d2 02       		.byte	0x2
 619 03d3 6A01     		.2byte	0x16a
 620 03d5 F2030000 		.4byte	0x3f2
ARM GAS  /tmp/ccnMLYoJ.s 			page 12


 621 03d9 15       		.uleb128 0x15
 622 03da 8D000000 		.4byte	.LASF54
 623 03de 02       		.byte	0x2
 624 03df 6B01     		.2byte	0x16b
 625 03e1 F8030000 		.4byte	0x3f8
 626 03e5 15       		.uleb128 0x15
 627 03e6 9D000000 		.4byte	.LASF55
 628 03ea 02       		.byte	0x2
 629 03eb 6D01     		.2byte	0x16d
 630 03ed 1B010000 		.4byte	0x11b
 631 03f1 00       		.byte	0
 632 03f2 12       		.uleb128 0x12
 633 03f3 04       		.byte	0x4
 634 03f4 9C030000 		.4byte	0x39c
 635 03f8 12       		.uleb128 0x12
 636 03f9 04       		.byte	0x4
 637 03fa 58030000 		.4byte	0x358
 638 03fe 12       		.uleb128 0x12
 639 03ff 04       		.byte	0x4
 640 0400 4C030000 		.4byte	0x34c
 641 0404 0B       		.uleb128 0xb
 642 0405 31010000 		.4byte	0x131
 643 0409 11       		.uleb128 0x11
 644 040a 74030000 		.4byte	.LASF56
 645 040e 02       		.byte	0x2
 646 040f 7F01     		.2byte	0x17f
 647 0411 15040000 		.4byte	0x415
 648 0415 03       		.uleb128 0x3
 649 0416 92000000 		.4byte	.LASF57
 650 041a 40       		.byte	0x40
 651 041b 02       		.byte	0x2
 652 041c 8601     		.2byte	0x186
 653 041e 64040000 		.4byte	0x464
 654 0422 04       		.uleb128 0x4
 655 0423 21050000 		.4byte	.LASF58
 656 0427 02       		.byte	0x2
 657 0428 8A01     		.2byte	0x18a
 658 042a A8030000 		.4byte	0x3a8
 659 042e 00       		.byte	0
 660 042f 04       		.uleb128 0x4
 661 0430 6D000000 		.4byte	.LASF59
 662 0434 02       		.byte	0x2
 663 0435 9001     		.2byte	0x190
 664 0437 A8030000 		.4byte	0x3a8
 665 043b 04       		.byte	0x4
 666 043c 04       		.uleb128 0x4
 667 043d 9E020000 		.4byte	.LASF60
 668 0441 02       		.byte	0x2
 669 0442 9501     		.2byte	0x195
 670 0444 04040000 		.4byte	0x404
 671 0448 08       		.byte	0x8
 672 0449 04       		.uleb128 0x4
 673 044a A7030000 		.4byte	.LASF61
 674 044e 02       		.byte	0x2
 675 044f A401     		.2byte	0x1a4
 676 0451 64040000 		.4byte	0x464
 677 0455 0C       		.byte	0xc
ARM GAS  /tmp/ccnMLYoJ.s 			page 13


 678 0456 04       		.uleb128 0x4
 679 0457 5E010000 		.4byte	.LASF62
 680 045b 02       		.byte	0x2
 681 045c AD01     		.2byte	0x1ad
 682 045e 74040000 		.4byte	0x474
 683 0462 3C       		.byte	0x3c
 684 0463 00       		.byte	0
 685 0464 08       		.uleb128 0x8
 686 0465 25000000 		.4byte	0x25
 687 0469 74040000 		.4byte	0x474
 688 046d 09       		.uleb128 0x9
 689 046e 4C010000 		.4byte	0x14c
 690 0472 01       		.byte	0x1
 691 0473 00       		.byte	0
 692 0474 0B       		.uleb128 0xb
 693 0475 8A030000 		.4byte	0x38a
 694 0479 07       		.uleb128 0x7
 695 047a 01       		.byte	0x1
 696 047b 02       		.byte	0x2
 697 047c A4010000 		.4byte	.LASF63
 698 0480 16       		.uleb128 0x16
 699 0481 04       		.byte	0x4
 700 0482 09       		.byte	0x9
 701 0483 46       		.byte	0x46
 702 0484 AD040000 		.4byte	0x4ad
 703 0488 17       		.uleb128 0x17
 704 0489 69030000 		.4byte	.LASF64
 705 048d 00       		.sleb128 0
 706 048e 17       		.uleb128 0x17
 707 048f 38050000 		.4byte	.LASF65
 708 0493 01       		.sleb128 1
 709 0494 17       		.uleb128 0x17
 710 0495 9D030000 		.4byte	.LASF66
 711 0499 02       		.sleb128 2
 712 049a 17       		.uleb128 0x17
 713 049b D3020000 		.4byte	.LASF67
 714 049f 03       		.sleb128 3
 715 04a0 17       		.uleb128 0x17
 716 04a1 BB010000 		.4byte	.LASF68
 717 04a5 04       		.sleb128 4
 718 04a6 17       		.uleb128 0x17
 719 04a7 C8010000 		.4byte	.LASF69
 720 04ab 05       		.sleb128 5
 721 04ac 00       		.byte	0
 722 04ad 02       		.uleb128 0x2
 723 04ae AF030000 		.4byte	.LASF70
 724 04b2 09       		.byte	0x9
 725 04b3 4D       		.byte	0x4d
 726 04b4 80040000 		.4byte	0x480
 727 04b8 02       		.uleb128 0x2
 728 04b9 A6020000 		.4byte	.LASF71
 729 04bd 0A       		.byte	0xa
 730 04be B8       		.byte	0xb8
 731 04bf D6000000 		.4byte	0xd6
 732 04c3 02       		.uleb128 0x2
 733 04c4 08030000 		.4byte	.LASF72
 734 04c8 0A       		.byte	0xa
ARM GAS  /tmp/ccnMLYoJ.s 			page 14


 735 04c9 BD       		.byte	0xbd
 736 04ca D6000000 		.4byte	0xd6
 737 04ce 16       		.uleb128 0x16
 738 04cf 04       		.byte	0x4
 739 04d0 0A       		.byte	0xa
 740 04d1 C4       		.byte	0xc4
 741 04d2 E3040000 		.4byte	0x4e3
 742 04d6 17       		.uleb128 0x17
 743 04d7 81030000 		.4byte	.LASF73
 744 04db 00       		.sleb128 0
 745 04dc 17       		.uleb128 0x17
 746 04dd AA010000 		.4byte	.LASF74
 747 04e1 01       		.sleb128 1
 748 04e2 00       		.byte	0
 749 04e3 02       		.uleb128 0x2
 750 04e4 55000000 		.4byte	.LASF75
 751 04e8 0A       		.byte	0xa
 752 04e9 C7       		.byte	0xc7
 753 04ea CE040000 		.4byte	0x4ce
 754 04ee 02       		.uleb128 0x2
 755 04ef 9A010000 		.4byte	.LASF76
 756 04f3 0A       		.byte	0xa
 757 04f4 CC       		.byte	0xcc
 758 04f5 F9040000 		.4byte	0x4f9
 759 04f9 03       		.uleb128 0x3
 760 04fa 9A010000 		.4byte	.LASF76
 761 04fe 24       		.byte	0x24
 762 04ff 0A       		.byte	0xa
 763 0500 1401     		.2byte	0x114
 764 0502 7C050000 		.4byte	0x57c
 765 0506 04       		.uleb128 0x4
 766 0507 E6040000 		.4byte	.LASF1
 767 050b 0A       		.byte	0xa
 768 050c 1801     		.2byte	0x118
 769 050e AD040000 		.4byte	0x4ad
 770 0512 00       		.byte	0
 771 0513 04       		.uleb128 0x4
 772 0514 DE020000 		.4byte	.LASF77
 773 0518 0A       		.byte	0xa
 774 0519 1C01     		.2byte	0x11c
 775 051b 5D060000 		.4byte	0x65d
 776 051f 04       		.byte	0x4
 777 0520 04       		.uleb128 0x4
 778 0521 30020000 		.4byte	.LASF78
 779 0525 0A       		.byte	0xa
 780 0526 2001     		.2byte	0x120
 781 0528 A8050000 		.4byte	0x5a8
 782 052c 08       		.byte	0x8
 783 052d 04       		.uleb128 0x4
 784 052e 57020000 		.4byte	.LASF79
 785 0532 0A       		.byte	0xa
 786 0533 2401     		.2byte	0x124
 787 0535 92000000 		.4byte	0x92
 788 0539 0C       		.byte	0xc
 789 053a 04       		.uleb128 0x4
 790 053b 29050000 		.4byte	.LASF80
 791 053f 0A       		.byte	0xa
ARM GAS  /tmp/ccnMLYoJ.s 			page 15


 792 0540 2801     		.2byte	0x128
 793 0542 68060000 		.4byte	0x668
 794 0546 10       		.byte	0x10
 795 0547 05       		.uleb128 0x5
 796 0548 61646300 		.ascii	"adc\000"
 797 054c 0A       		.byte	0xa
 798 054d 3C01     		.2byte	0x13c
 799 054f 73060000 		.4byte	0x673
 800 0553 14       		.byte	0x14
 801 0554 04       		.uleb128 0x4
 802 0555 B8020000 		.4byte	.LASF81
 803 0559 0A       		.byte	0xa
 804 055a 4001     		.2byte	0x140
 805 055c 92000000 		.4byte	0x92
 806 0560 18       		.byte	0x18
 807 0561 04       		.uleb128 0x4
 808 0562 0F000000 		.4byte	.LASF82
 809 0566 0A       		.byte	0xa
 810 0567 4401     		.2byte	0x144
 811 0569 92000000 		.4byte	0x92
 812 056d 1C       		.byte	0x1c
 813 056e 04       		.uleb128 0x4
 814 056f 1D000000 		.4byte	.LASF83
 815 0573 0A       		.byte	0xa
 816 0574 4801     		.2byte	0x148
 817 0576 92000000 		.4byte	0x92
 818 057a 20       		.byte	0x20
 819 057b 00       		.byte	0
 820 057c 02       		.uleb128 0x2
 821 057d 6D020000 		.4byte	.LASF84
 822 0581 0A       		.byte	0xa
 823 0582 D6       		.byte	0xd6
 824 0583 87050000 		.4byte	0x587
 825 0587 12       		.uleb128 0x12
 826 0588 04       		.byte	0x4
 827 0589 8D050000 		.4byte	0x58d
 828 058d 18       		.uleb128 0x18
 829 058e A2050000 		.4byte	0x5a2
 830 0592 19       		.uleb128 0x19
 831 0593 A2050000 		.4byte	0x5a2
 832 0597 19       		.uleb128 0x19
 833 0598 A8050000 		.4byte	0x5a8
 834 059c 19       		.uleb128 0x19
 835 059d 92000000 		.4byte	0x92
 836 05a1 00       		.byte	0
 837 05a2 12       		.uleb128 0x12
 838 05a3 04       		.byte	0x4
 839 05a4 EE040000 		.4byte	0x4ee
 840 05a8 12       		.uleb128 0x12
 841 05a9 04       		.byte	0x4
 842 05aa B8040000 		.4byte	0x4b8
 843 05ae 02       		.uleb128 0x2
 844 05af EC000000 		.4byte	.LASF85
 845 05b3 0A       		.byte	0xa
 846 05b4 DF       		.byte	0xdf
 847 05b5 B9050000 		.4byte	0x5b9
 848 05b9 12       		.uleb128 0x12
ARM GAS  /tmp/ccnMLYoJ.s 			page 16


 849 05ba 04       		.byte	0x4
 850 05bb BF050000 		.4byte	0x5bf
 851 05bf 18       		.uleb128 0x18
 852 05c0 CF050000 		.4byte	0x5cf
 853 05c4 19       		.uleb128 0x19
 854 05c5 A2050000 		.4byte	0x5a2
 855 05c9 19       		.uleb128 0x19
 856 05ca E3040000 		.4byte	0x4e3
 857 05ce 00       		.byte	0
 858 05cf 0C       		.uleb128 0xc
 859 05d0 18       		.byte	0x18
 860 05d1 0A       		.byte	0xa
 861 05d2 E6       		.byte	0xe6
 862 05d3 2E060000 		.4byte	0x62e
 863 05d7 0D       		.uleb128 0xd
 864 05d8 1C010000 		.4byte	.LASF86
 865 05dc 0A       		.byte	0xa
 866 05dd EA       		.byte	0xea
 867 05de 79040000 		.4byte	0x479
 868 05e2 00       		.byte	0
 869 05e3 0D       		.uleb128 0xd
 870 05e4 44030000 		.4byte	.LASF87
 871 05e8 0A       		.byte	0xa
 872 05e9 EE       		.byte	0xee
 873 05ea C3040000 		.4byte	0x4c3
 874 05ee 02       		.byte	0x2
 875 05ef 0D       		.uleb128 0xd
 876 05f0 15010000 		.4byte	.LASF88
 877 05f4 0A       		.byte	0xa
 878 05f5 F2       		.byte	0xf2
 879 05f6 7C050000 		.4byte	0x57c
 880 05fa 04       		.byte	0x4
 881 05fb 0D       		.uleb128 0xd
 882 05fc 84000000 		.4byte	.LASF89
 883 0600 0A       		.byte	0xa
 884 0601 F6       		.byte	0xf6
 885 0602 AE050000 		.4byte	0x5ae
 886 0606 08       		.byte	0x8
 887 0607 0D       		.uleb128 0xd
 888 0608 86010000 		.4byte	.LASF90
 889 060c 0A       		.byte	0xa
 890 060d FB       		.byte	0xfb
 891 060e E8000000 		.4byte	0xe8
 892 0612 0C       		.byte	0xc
 893 0613 04       		.uleb128 0x4
 894 0614 79000000 		.4byte	.LASF91
 895 0618 0A       		.byte	0xa
 896 0619 0001     		.2byte	0x100
 897 061b E8000000 		.4byte	0xe8
 898 061f 10       		.byte	0x10
 899 0620 05       		.uleb128 0x5
 900 0621 73633300 		.ascii	"sc3\000"
 901 0625 0A       		.byte	0xa
 902 0626 0501     		.2byte	0x105
 903 0628 E8000000 		.4byte	0xe8
 904 062c 14       		.byte	0x14
 905 062d 00       		.byte	0
ARM GAS  /tmp/ccnMLYoJ.s 			page 17


 906 062e 11       		.uleb128 0x11
 907 062f 31030000 		.4byte	.LASF92
 908 0633 0A       		.byte	0xa
 909 0634 0601     		.2byte	0x106
 910 0636 CF050000 		.4byte	0x5cf
 911 063a 1A       		.uleb128 0x1a
 912 063b 01       		.byte	0x1
 913 063c 0A       		.byte	0xa
 914 063d 0C01     		.2byte	0x10c
 915 063f 51060000 		.4byte	0x651
 916 0643 04       		.uleb128 0x4
 917 0644 0B010000 		.4byte	.LASF93
 918 0648 0A       		.byte	0xa
 919 0649 0E01     		.2byte	0x10e
 920 064b 79040000 		.4byte	0x479
 921 064f 00       		.byte	0
 922 0650 00       		.byte	0
 923 0651 11       		.uleb128 0x11
 924 0652 63020000 		.4byte	.LASF94
 925 0656 0A       		.byte	0xa
 926 0657 0F01     		.2byte	0x10f
 927 0659 3A060000 		.4byte	0x63a
 928 065d 12       		.uleb128 0x12
 929 065e 04       		.byte	0x4
 930 065f 63060000 		.4byte	0x663
 931 0663 0A       		.uleb128 0xa
 932 0664 51060000 		.4byte	0x651
 933 0668 12       		.uleb128 0x12
 934 0669 04       		.byte	0x4
 935 066a 6E060000 		.4byte	0x66e
 936 066e 0A       		.uleb128 0xa
 937 066f 2E060000 		.4byte	0x62e
 938 0673 12       		.uleb128 0x12
 939 0674 04       		.byte	0x4
 940 0675 B7020000 		.4byte	0x2b7
 941 0679 1B       		.uleb128 0x1b
 942 067a 00000000 		.4byte	.LASF106
 943 067e 01       		.byte	0x1
 944 067f 10       		.byte	0x10
 945 0680 00000000 		.4byte	.LFB82
 946 0684 1C000000 		.4byte	.LFE82-.LFB82
 947 0688 01       		.uleb128 0x1
 948 0689 9C       		.byte	0x9c
 949 068a B6060000 		.4byte	0x6b6
 950 068e 1C       		.uleb128 0x1c
 951 068f BA030000 		.4byte	.LASF95
 952 0693 01       		.byte	0x1
 953 0694 10       		.byte	0x10
 954 0695 A2050000 		.4byte	0x5a2
 955 0699 00000000 		.4byte	.LLST0
 956 069d 1D       		.uleb128 0x1d
 957 069e 4E000000 		.4byte	.LASF96
 958 06a2 01       		.byte	0x1
 959 06a3 10       		.byte	0x10
 960 06a4 A8050000 		.4byte	0x5a8
 961 06a8 01       		.uleb128 0x1
 962 06a9 51       		.byte	0x51
ARM GAS  /tmp/ccnMLYoJ.s 			page 18


 963 06aa 1E       		.uleb128 0x1e
 964 06ab 6E00     		.ascii	"n\000"
 965 06ad 01       		.byte	0x1
 966 06ae 10       		.byte	0x10
 967 06af 92000000 		.4byte	0x92
 968 06b3 01       		.uleb128 0x1
 969 06b4 52       		.byte	0x52
 970 06b5 00       		.byte	0
 971 06b6 1F       		.uleb128 0x1f
 972 06b7 41010000 		.4byte	.LASF107
 973 06bb 01       		.byte	0x1
 974 06bc 46       		.byte	0x46
 975 06bd 00000000 		.4byte	.LFB83
 976 06c1 20000000 		.4byte	.LFE83-.LFB83
 977 06c5 01       		.uleb128 0x1
 978 06c6 9C       		.byte	0x9c
 979 06c7 EF060000 		.4byte	0x6ef
 980 06cb 20       		.uleb128 0x20
 981 06cc 10000000 		.4byte	.LVL2
 982 06d0 77070000 		.4byte	0x777
 983 06d4 21       		.uleb128 0x21
 984 06d5 01       		.uleb128 0x1
 985 06d6 53       		.byte	0x53
 986 06d7 03       		.uleb128 0x3
 987 06d8 0A       		.byte	0xa
 988 06d9 0002     		.2byte	0x200
 989 06db 21       		.uleb128 0x21
 990 06dc 01       		.uleb128 0x1
 991 06dd 52       		.byte	0x52
 992 06de 05       		.uleb128 0x5
 993 06df 03       		.byte	0x3
 994 06e0 00000000 		.4byte	.LANCHOR1
 995 06e4 21       		.uleb128 0x21
 996 06e5 01       		.uleb128 0x1
 997 06e6 51       		.byte	0x51
 998 06e7 05       		.uleb128 0x5
 999 06e8 03       		.byte	0x3
 1000 06e9 00000000 		.4byte	.LANCHOR0
 1001 06ed 00       		.byte	0
 1002 06ee 00       		.byte	0
 1003 06ef 22       		.uleb128 0x22
 1004 06f0 06020000 		.4byte	.LASF108
 1005 06f4 01       		.byte	0x1
 1006 06f5 4D       		.byte	0x4d
 1007 06f6 00000000 		.4byte	.LFB84
 1008 06fa 02000000 		.4byte	.LFE84-.LFB84
 1009 06fe 01       		.uleb128 0x1
 1010 06ff 9C       		.byte	0x9c
 1011 0700 08       		.uleb128 0x8
 1012 0701 B8040000 		.4byte	0x4b8
 1013 0705 11070000 		.4byte	0x711
 1014 0709 23       		.uleb128 0x23
 1015 070a 4C010000 		.4byte	0x14c
 1016 070e FF01     		.2byte	0x1ff
 1017 0710 00       		.byte	0
 1018 0711 24       		.uleb128 0x24
 1019 0712 D7010000 		.4byte	.LASF97
ARM GAS  /tmp/ccnMLYoJ.s 			page 19


 1020 0716 01       		.byte	0x1
 1021 0717 0A       		.byte	0xa
 1022 0718 00070000 		.4byte	0x700
 1023 071c 05       		.uleb128 0x5
 1024 071d 03       		.byte	0x3
 1025 071e 00000000 		.4byte	mic_sample
 1026 0722 24       		.uleb128 0x24
 1027 0723 D5030000 		.4byte	.LASF98
 1028 0727 01       		.byte	0x1
 1029 0728 24       		.byte	0x24
 1030 0729 6E060000 		.4byte	0x66e
 1031 072d 05       		.uleb128 0x5
 1032 072e 03       		.byte	0x3
 1033 072f 00000000 		.4byte	adcgrpmic
 1034 0733 25       		.uleb128 0x25
 1035 0734 6E696C00 		.ascii	"nil\000"
 1036 0738 02       		.byte	0x2
 1037 0739 C203     		.2byte	0x3c2
 1038 073b 09040000 		.4byte	0x409
 1039 073f 26       		.uleb128 0x26
 1040 0740 B2020000 		.4byte	.LASF99
 1041 0744 0A       		.byte	0xa
 1042 0745 5501     		.2byte	0x155
 1043 0747 EE040000 		.4byte	0x4ee
 1044 074b 27       		.uleb128 0x27
 1045 074c 40000000 		.4byte	.LASF100
 1046 0750 01       		.byte	0x1
 1047 0751 0C       		.byte	0xc
 1048 0752 5D010000 		.4byte	0x15d
 1049 0756 27       		.uleb128 0x27
 1050 0757 72000000 		.4byte	.LASF101
 1051 075b 01       		.byte	0x1
 1052 075c 0D       		.byte	0xd
 1053 075d 61070000 		.4byte	0x761
 1054 0761 12       		.uleb128 0x12
 1055 0762 04       		.byte	0x4
 1056 0763 67070000 		.4byte	0x767
 1057 0767 0B       		.uleb128 0xb
 1058 0768 B8040000 		.4byte	0x4b8
 1059 076c 27       		.uleb128 0x27
 1060 076d 7E000000 		.4byte	.LASF102
 1061 0771 01       		.byte	0x1
 1062 0772 0E       		.byte	0xe
 1063 0773 92000000 		.4byte	0x92
 1064 0777 28       		.uleb128 0x28
 1065 0778 8B020000 		.4byte	.LASF109
 1066 077c 09       		.byte	0x9
 1067 077d 0501     		.2byte	0x105
 1068 077f 19       		.uleb128 0x19
 1069 0780 A2050000 		.4byte	0x5a2
 1070 0784 19       		.uleb128 0x19
 1071 0785 68060000 		.4byte	0x668
 1072 0789 19       		.uleb128 0x19
 1073 078a A8050000 		.4byte	0x5a8
 1074 078e 19       		.uleb128 0x19
 1075 078f 92000000 		.4byte	0x92
 1076 0793 00       		.byte	0
ARM GAS  /tmp/ccnMLYoJ.s 			page 20


 1077 0794 00       		.byte	0
 1078              		.section	.debug_abbrev,"",%progbits
 1079              	.Ldebug_abbrev0:
 1080 0000 01       		.uleb128 0x1
 1081 0001 11       		.uleb128 0x11
 1082 0002 01       		.byte	0x1
 1083 0003 25       		.uleb128 0x25
 1084 0004 0E       		.uleb128 0xe
 1085 0005 13       		.uleb128 0x13
 1086 0006 0B       		.uleb128 0xb
 1087 0007 03       		.uleb128 0x3
 1088 0008 0E       		.uleb128 0xe
 1089 0009 1B       		.uleb128 0x1b
 1090 000a 0E       		.uleb128 0xe
 1091 000b 55       		.uleb128 0x55
 1092 000c 17       		.uleb128 0x17
 1093 000d 11       		.uleb128 0x11
 1094 000e 01       		.uleb128 0x1
 1095 000f 10       		.uleb128 0x10
 1096 0010 17       		.uleb128 0x17
 1097 0011 00       		.byte	0
 1098 0012 00       		.byte	0
 1099 0013 02       		.uleb128 0x2
 1100 0014 16       		.uleb128 0x16
 1101 0015 00       		.byte	0
 1102 0016 03       		.uleb128 0x3
 1103 0017 0E       		.uleb128 0xe
 1104 0018 3A       		.uleb128 0x3a
 1105 0019 0B       		.uleb128 0xb
 1106 001a 3B       		.uleb128 0x3b
 1107 001b 0B       		.uleb128 0xb
 1108 001c 49       		.uleb128 0x49
 1109 001d 13       		.uleb128 0x13
 1110 001e 00       		.byte	0
 1111 001f 00       		.byte	0
 1112 0020 03       		.uleb128 0x3
 1113 0021 13       		.uleb128 0x13
 1114 0022 01       		.byte	0x1
 1115 0023 03       		.uleb128 0x3
 1116 0024 0E       		.uleb128 0xe
 1117 0025 0B       		.uleb128 0xb
 1118 0026 0B       		.uleb128 0xb
 1119 0027 3A       		.uleb128 0x3a
 1120 0028 0B       		.uleb128 0xb
 1121 0029 3B       		.uleb128 0x3b
 1122 002a 05       		.uleb128 0x5
 1123 002b 01       		.uleb128 0x1
 1124 002c 13       		.uleb128 0x13
 1125 002d 00       		.byte	0
 1126 002e 00       		.byte	0
 1127 002f 04       		.uleb128 0x4
 1128 0030 0D       		.uleb128 0xd
 1129 0031 00       		.byte	0
 1130 0032 03       		.uleb128 0x3
 1131 0033 0E       		.uleb128 0xe
 1132 0034 3A       		.uleb128 0x3a
 1133 0035 0B       		.uleb128 0xb
ARM GAS  /tmp/ccnMLYoJ.s 			page 21


 1134 0036 3B       		.uleb128 0x3b
 1135 0037 05       		.uleb128 0x5
 1136 0038 49       		.uleb128 0x49
 1137 0039 13       		.uleb128 0x13
 1138 003a 38       		.uleb128 0x38
 1139 003b 0B       		.uleb128 0xb
 1140 003c 00       		.byte	0
 1141 003d 00       		.byte	0
 1142 003e 05       		.uleb128 0x5
 1143 003f 0D       		.uleb128 0xd
 1144 0040 00       		.byte	0
 1145 0041 03       		.uleb128 0x3
 1146 0042 08       		.uleb128 0x8
 1147 0043 3A       		.uleb128 0x3a
 1148 0044 0B       		.uleb128 0xb
 1149 0045 3B       		.uleb128 0x3b
 1150 0046 05       		.uleb128 0x5
 1151 0047 49       		.uleb128 0x49
 1152 0048 13       		.uleb128 0x13
 1153 0049 38       		.uleb128 0x38
 1154 004a 0B       		.uleb128 0xb
 1155 004b 00       		.byte	0
 1156 004c 00       		.byte	0
 1157 004d 06       		.uleb128 0x6
 1158 004e 24       		.uleb128 0x24
 1159 004f 00       		.byte	0
 1160 0050 0B       		.uleb128 0xb
 1161 0051 0B       		.uleb128 0xb
 1162 0052 3E       		.uleb128 0x3e
 1163 0053 0B       		.uleb128 0xb
 1164 0054 03       		.uleb128 0x3
 1165 0055 08       		.uleb128 0x8
 1166 0056 00       		.byte	0
 1167 0057 00       		.byte	0
 1168 0058 07       		.uleb128 0x7
 1169 0059 24       		.uleb128 0x24
 1170 005a 00       		.byte	0
 1171 005b 0B       		.uleb128 0xb
 1172 005c 0B       		.uleb128 0xb
 1173 005d 3E       		.uleb128 0x3e
 1174 005e 0B       		.uleb128 0xb
 1175 005f 03       		.uleb128 0x3
 1176 0060 0E       		.uleb128 0xe
 1177 0061 00       		.byte	0
 1178 0062 00       		.byte	0
 1179 0063 08       		.uleb128 0x8
 1180 0064 01       		.uleb128 0x1
 1181 0065 01       		.byte	0x1
 1182 0066 49       		.uleb128 0x49
 1183 0067 13       		.uleb128 0x13
 1184 0068 01       		.uleb128 0x1
 1185 0069 13       		.uleb128 0x13
 1186 006a 00       		.byte	0
 1187 006b 00       		.byte	0
 1188 006c 09       		.uleb128 0x9
 1189 006d 21       		.uleb128 0x21
 1190 006e 00       		.byte	0
ARM GAS  /tmp/ccnMLYoJ.s 			page 22


 1191 006f 49       		.uleb128 0x49
 1192 0070 13       		.uleb128 0x13
 1193 0071 2F       		.uleb128 0x2f
 1194 0072 0B       		.uleb128 0xb
 1195 0073 00       		.byte	0
 1196 0074 00       		.byte	0
 1197 0075 0A       		.uleb128 0xa
 1198 0076 26       		.uleb128 0x26
 1199 0077 00       		.byte	0
 1200 0078 49       		.uleb128 0x49
 1201 0079 13       		.uleb128 0x13
 1202 007a 00       		.byte	0
 1203 007b 00       		.byte	0
 1204 007c 0B       		.uleb128 0xb
 1205 007d 35       		.uleb128 0x35
 1206 007e 00       		.byte	0
 1207 007f 49       		.uleb128 0x49
 1208 0080 13       		.uleb128 0x13
 1209 0081 00       		.byte	0
 1210 0082 00       		.byte	0
 1211 0083 0C       		.uleb128 0xc
 1212 0084 13       		.uleb128 0x13
 1213 0085 01       		.byte	0x1
 1214 0086 0B       		.uleb128 0xb
 1215 0087 0B       		.uleb128 0xb
 1216 0088 3A       		.uleb128 0x3a
 1217 0089 0B       		.uleb128 0xb
 1218 008a 3B       		.uleb128 0x3b
 1219 008b 0B       		.uleb128 0xb
 1220 008c 01       		.uleb128 0x1
 1221 008d 13       		.uleb128 0x13
 1222 008e 00       		.byte	0
 1223 008f 00       		.byte	0
 1224 0090 0D       		.uleb128 0xd
 1225 0091 0D       		.uleb128 0xd
 1226 0092 00       		.byte	0
 1227 0093 03       		.uleb128 0x3
 1228 0094 0E       		.uleb128 0xe
 1229 0095 3A       		.uleb128 0x3a
 1230 0096 0B       		.uleb128 0xb
 1231 0097 3B       		.uleb128 0x3b
 1232 0098 0B       		.uleb128 0xb
 1233 0099 49       		.uleb128 0x49
 1234 009a 13       		.uleb128 0x13
 1235 009b 38       		.uleb128 0x38
 1236 009c 0B       		.uleb128 0xb
 1237 009d 00       		.byte	0
 1238 009e 00       		.byte	0
 1239 009f 0E       		.uleb128 0xe
 1240 00a0 0D       		.uleb128 0xd
 1241 00a1 00       		.byte	0
 1242 00a2 03       		.uleb128 0x3
 1243 00a3 08       		.uleb128 0x8
 1244 00a4 3A       		.uleb128 0x3a
 1245 00a5 0B       		.uleb128 0xb
 1246 00a6 3B       		.uleb128 0x3b
 1247 00a7 0B       		.uleb128 0xb
ARM GAS  /tmp/ccnMLYoJ.s 			page 23


 1248 00a8 49       		.uleb128 0x49
 1249 00a9 13       		.uleb128 0x13
 1250 00aa 38       		.uleb128 0x38
 1251 00ab 0B       		.uleb128 0xb
 1252 00ac 00       		.byte	0
 1253 00ad 00       		.byte	0
 1254 00ae 0F       		.uleb128 0xf
 1255 00af 0F       		.uleb128 0xf
 1256 00b0 00       		.byte	0
 1257 00b1 0B       		.uleb128 0xb
 1258 00b2 0B       		.uleb128 0xb
 1259 00b3 00       		.byte	0
 1260 00b4 00       		.byte	0
 1261 00b5 10       		.uleb128 0x10
 1262 00b6 13       		.uleb128 0x13
 1263 00b7 01       		.byte	0x1
 1264 00b8 03       		.uleb128 0x3
 1265 00b9 0E       		.uleb128 0xe
 1266 00ba 0B       		.uleb128 0xb
 1267 00bb 0B       		.uleb128 0xb
 1268 00bc 3A       		.uleb128 0x3a
 1269 00bd 0B       		.uleb128 0xb
 1270 00be 3B       		.uleb128 0x3b
 1271 00bf 0B       		.uleb128 0xb
 1272 00c0 01       		.uleb128 0x1
 1273 00c1 13       		.uleb128 0x13
 1274 00c2 00       		.byte	0
 1275 00c3 00       		.byte	0
 1276 00c4 11       		.uleb128 0x11
 1277 00c5 16       		.uleb128 0x16
 1278 00c6 00       		.byte	0
 1279 00c7 03       		.uleb128 0x3
 1280 00c8 0E       		.uleb128 0xe
 1281 00c9 3A       		.uleb128 0x3a
 1282 00ca 0B       		.uleb128 0xb
 1283 00cb 3B       		.uleb128 0x3b
 1284 00cc 05       		.uleb128 0x5
 1285 00cd 49       		.uleb128 0x49
 1286 00ce 13       		.uleb128 0x13
 1287 00cf 00       		.byte	0
 1288 00d0 00       		.byte	0
 1289 00d1 12       		.uleb128 0x12
 1290 00d2 0F       		.uleb128 0xf
 1291 00d3 00       		.byte	0
 1292 00d4 0B       		.uleb128 0xb
 1293 00d5 0B       		.uleb128 0xb
 1294 00d6 49       		.uleb128 0x49
 1295 00d7 13       		.uleb128 0x13
 1296 00d8 00       		.byte	0
 1297 00d9 00       		.byte	0
 1298 00da 13       		.uleb128 0x13
 1299 00db 17       		.uleb128 0x17
 1300 00dc 01       		.byte	0x1
 1301 00dd 0B       		.uleb128 0xb
 1302 00de 0B       		.uleb128 0xb
 1303 00df 3A       		.uleb128 0x3a
 1304 00e0 0B       		.uleb128 0xb
ARM GAS  /tmp/ccnMLYoJ.s 			page 24


 1305 00e1 3B       		.uleb128 0x3b
 1306 00e2 05       		.uleb128 0x5
 1307 00e3 01       		.uleb128 0x1
 1308 00e4 13       		.uleb128 0x13
 1309 00e5 00       		.byte	0
 1310 00e6 00       		.byte	0
 1311 00e7 14       		.uleb128 0x14
 1312 00e8 0D       		.uleb128 0xd
 1313 00e9 00       		.byte	0
 1314 00ea 03       		.uleb128 0x3
 1315 00eb 08       		.uleb128 0x8
 1316 00ec 3A       		.uleb128 0x3a
 1317 00ed 0B       		.uleb128 0xb
 1318 00ee 3B       		.uleb128 0x3b
 1319 00ef 05       		.uleb128 0x5
 1320 00f0 49       		.uleb128 0x49
 1321 00f1 13       		.uleb128 0x13
 1322 00f2 00       		.byte	0
 1323 00f3 00       		.byte	0
 1324 00f4 15       		.uleb128 0x15
 1325 00f5 0D       		.uleb128 0xd
 1326 00f6 00       		.byte	0
 1327 00f7 03       		.uleb128 0x3
 1328 00f8 0E       		.uleb128 0xe
 1329 00f9 3A       		.uleb128 0x3a
 1330 00fa 0B       		.uleb128 0xb
 1331 00fb 3B       		.uleb128 0x3b
 1332 00fc 05       		.uleb128 0x5
 1333 00fd 49       		.uleb128 0x49
 1334 00fe 13       		.uleb128 0x13
 1335 00ff 00       		.byte	0
 1336 0100 00       		.byte	0
 1337 0101 16       		.uleb128 0x16
 1338 0102 04       		.uleb128 0x4
 1339 0103 01       		.byte	0x1
 1340 0104 0B       		.uleb128 0xb
 1341 0105 0B       		.uleb128 0xb
 1342 0106 3A       		.uleb128 0x3a
 1343 0107 0B       		.uleb128 0xb
 1344 0108 3B       		.uleb128 0x3b
 1345 0109 0B       		.uleb128 0xb
 1346 010a 01       		.uleb128 0x1
 1347 010b 13       		.uleb128 0x13
 1348 010c 00       		.byte	0
 1349 010d 00       		.byte	0
 1350 010e 17       		.uleb128 0x17
 1351 010f 28       		.uleb128 0x28
 1352 0110 00       		.byte	0
 1353 0111 03       		.uleb128 0x3
 1354 0112 0E       		.uleb128 0xe
 1355 0113 1C       		.uleb128 0x1c
 1356 0114 0D       		.uleb128 0xd
 1357 0115 00       		.byte	0
 1358 0116 00       		.byte	0
 1359 0117 18       		.uleb128 0x18
 1360 0118 15       		.uleb128 0x15
 1361 0119 01       		.byte	0x1
ARM GAS  /tmp/ccnMLYoJ.s 			page 25


 1362 011a 27       		.uleb128 0x27
 1363 011b 19       		.uleb128 0x19
 1364 011c 01       		.uleb128 0x1
 1365 011d 13       		.uleb128 0x13
 1366 011e 00       		.byte	0
 1367 011f 00       		.byte	0
 1368 0120 19       		.uleb128 0x19
 1369 0121 05       		.uleb128 0x5
 1370 0122 00       		.byte	0
 1371 0123 49       		.uleb128 0x49
 1372 0124 13       		.uleb128 0x13
 1373 0125 00       		.byte	0
 1374 0126 00       		.byte	0
 1375 0127 1A       		.uleb128 0x1a
 1376 0128 13       		.uleb128 0x13
 1377 0129 01       		.byte	0x1
 1378 012a 0B       		.uleb128 0xb
 1379 012b 0B       		.uleb128 0xb
 1380 012c 3A       		.uleb128 0x3a
 1381 012d 0B       		.uleb128 0xb
 1382 012e 3B       		.uleb128 0x3b
 1383 012f 05       		.uleb128 0x5
 1384 0130 01       		.uleb128 0x1
 1385 0131 13       		.uleb128 0x13
 1386 0132 00       		.byte	0
 1387 0133 00       		.byte	0
 1388 0134 1B       		.uleb128 0x1b
 1389 0135 2E       		.uleb128 0x2e
 1390 0136 01       		.byte	0x1
 1391 0137 03       		.uleb128 0x3
 1392 0138 0E       		.uleb128 0xe
 1393 0139 3A       		.uleb128 0x3a
 1394 013a 0B       		.uleb128 0xb
 1395 013b 3B       		.uleb128 0x3b
 1396 013c 0B       		.uleb128 0xb
 1397 013d 27       		.uleb128 0x27
 1398 013e 19       		.uleb128 0x19
 1399 013f 11       		.uleb128 0x11
 1400 0140 01       		.uleb128 0x1
 1401 0141 12       		.uleb128 0x12
 1402 0142 06       		.uleb128 0x6
 1403 0143 40       		.uleb128 0x40
 1404 0144 18       		.uleb128 0x18
 1405 0145 9742     		.uleb128 0x2117
 1406 0147 19       		.uleb128 0x19
 1407 0148 01       		.uleb128 0x1
 1408 0149 13       		.uleb128 0x13
 1409 014a 00       		.byte	0
 1410 014b 00       		.byte	0
 1411 014c 1C       		.uleb128 0x1c
 1412 014d 05       		.uleb128 0x5
 1413 014e 00       		.byte	0
 1414 014f 03       		.uleb128 0x3
 1415 0150 0E       		.uleb128 0xe
 1416 0151 3A       		.uleb128 0x3a
 1417 0152 0B       		.uleb128 0xb
 1418 0153 3B       		.uleb128 0x3b
ARM GAS  /tmp/ccnMLYoJ.s 			page 26


 1419 0154 0B       		.uleb128 0xb
 1420 0155 49       		.uleb128 0x49
 1421 0156 13       		.uleb128 0x13
 1422 0157 02       		.uleb128 0x2
 1423 0158 17       		.uleb128 0x17
 1424 0159 00       		.byte	0
 1425 015a 00       		.byte	0
 1426 015b 1D       		.uleb128 0x1d
 1427 015c 05       		.uleb128 0x5
 1428 015d 00       		.byte	0
 1429 015e 03       		.uleb128 0x3
 1430 015f 0E       		.uleb128 0xe
 1431 0160 3A       		.uleb128 0x3a
 1432 0161 0B       		.uleb128 0xb
 1433 0162 3B       		.uleb128 0x3b
 1434 0163 0B       		.uleb128 0xb
 1435 0164 49       		.uleb128 0x49
 1436 0165 13       		.uleb128 0x13
 1437 0166 02       		.uleb128 0x2
 1438 0167 18       		.uleb128 0x18
 1439 0168 00       		.byte	0
 1440 0169 00       		.byte	0
 1441 016a 1E       		.uleb128 0x1e
 1442 016b 05       		.uleb128 0x5
 1443 016c 00       		.byte	0
 1444 016d 03       		.uleb128 0x3
 1445 016e 08       		.uleb128 0x8
 1446 016f 3A       		.uleb128 0x3a
 1447 0170 0B       		.uleb128 0xb
 1448 0171 3B       		.uleb128 0x3b
 1449 0172 0B       		.uleb128 0xb
 1450 0173 49       		.uleb128 0x49
 1451 0174 13       		.uleb128 0x13
 1452 0175 02       		.uleb128 0x2
 1453 0176 18       		.uleb128 0x18
 1454 0177 00       		.byte	0
 1455 0178 00       		.byte	0
 1456 0179 1F       		.uleb128 0x1f
 1457 017a 2E       		.uleb128 0x2e
 1458 017b 01       		.byte	0x1
 1459 017c 3F       		.uleb128 0x3f
 1460 017d 19       		.uleb128 0x19
 1461 017e 03       		.uleb128 0x3
 1462 017f 0E       		.uleb128 0xe
 1463 0180 3A       		.uleb128 0x3a
 1464 0181 0B       		.uleb128 0xb
 1465 0182 3B       		.uleb128 0x3b
 1466 0183 0B       		.uleb128 0xb
 1467 0184 27       		.uleb128 0x27
 1468 0185 19       		.uleb128 0x19
 1469 0186 11       		.uleb128 0x11
 1470 0187 01       		.uleb128 0x1
 1471 0188 12       		.uleb128 0x12
 1472 0189 06       		.uleb128 0x6
 1473 018a 40       		.uleb128 0x40
 1474 018b 18       		.uleb128 0x18
 1475 018c 9742     		.uleb128 0x2117
ARM GAS  /tmp/ccnMLYoJ.s 			page 27


 1476 018e 19       		.uleb128 0x19
 1477 018f 01       		.uleb128 0x1
 1478 0190 13       		.uleb128 0x13
 1479 0191 00       		.byte	0
 1480 0192 00       		.byte	0
 1481 0193 20       		.uleb128 0x20
 1482 0194 898201   		.uleb128 0x4109
 1483 0197 01       		.byte	0x1
 1484 0198 11       		.uleb128 0x11
 1485 0199 01       		.uleb128 0x1
 1486 019a 31       		.uleb128 0x31
 1487 019b 13       		.uleb128 0x13
 1488 019c 00       		.byte	0
 1489 019d 00       		.byte	0
 1490 019e 21       		.uleb128 0x21
 1491 019f 8A8201   		.uleb128 0x410a
 1492 01a2 00       		.byte	0
 1493 01a3 02       		.uleb128 0x2
 1494 01a4 18       		.uleb128 0x18
 1495 01a5 9142     		.uleb128 0x2111
 1496 01a7 18       		.uleb128 0x18
 1497 01a8 00       		.byte	0
 1498 01a9 00       		.byte	0
 1499 01aa 22       		.uleb128 0x22
 1500 01ab 2E       		.uleb128 0x2e
 1501 01ac 00       		.byte	0
 1502 01ad 3F       		.uleb128 0x3f
 1503 01ae 19       		.uleb128 0x19
 1504 01af 03       		.uleb128 0x3
 1505 01b0 0E       		.uleb128 0xe
 1506 01b1 3A       		.uleb128 0x3a
 1507 01b2 0B       		.uleb128 0xb
 1508 01b3 3B       		.uleb128 0x3b
 1509 01b4 0B       		.uleb128 0xb
 1510 01b5 27       		.uleb128 0x27
 1511 01b6 19       		.uleb128 0x19
 1512 01b7 11       		.uleb128 0x11
 1513 01b8 01       		.uleb128 0x1
 1514 01b9 12       		.uleb128 0x12
 1515 01ba 06       		.uleb128 0x6
 1516 01bb 40       		.uleb128 0x40
 1517 01bc 18       		.uleb128 0x18
 1518 01bd 9742     		.uleb128 0x2117
 1519 01bf 19       		.uleb128 0x19
 1520 01c0 00       		.byte	0
 1521 01c1 00       		.byte	0
 1522 01c2 23       		.uleb128 0x23
 1523 01c3 21       		.uleb128 0x21
 1524 01c4 00       		.byte	0
 1525 01c5 49       		.uleb128 0x49
 1526 01c6 13       		.uleb128 0x13
 1527 01c7 2F       		.uleb128 0x2f
 1528 01c8 05       		.uleb128 0x5
 1529 01c9 00       		.byte	0
 1530 01ca 00       		.byte	0
 1531 01cb 24       		.uleb128 0x24
 1532 01cc 34       		.uleb128 0x34
ARM GAS  /tmp/ccnMLYoJ.s 			page 28


 1533 01cd 00       		.byte	0
 1534 01ce 03       		.uleb128 0x3
 1535 01cf 0E       		.uleb128 0xe
 1536 01d0 3A       		.uleb128 0x3a
 1537 01d1 0B       		.uleb128 0xb
 1538 01d2 3B       		.uleb128 0x3b
 1539 01d3 0B       		.uleb128 0xb
 1540 01d4 49       		.uleb128 0x49
 1541 01d5 13       		.uleb128 0x13
 1542 01d6 02       		.uleb128 0x2
 1543 01d7 18       		.uleb128 0x18
 1544 01d8 00       		.byte	0
 1545 01d9 00       		.byte	0
 1546 01da 25       		.uleb128 0x25
 1547 01db 34       		.uleb128 0x34
 1548 01dc 00       		.byte	0
 1549 01dd 03       		.uleb128 0x3
 1550 01de 08       		.uleb128 0x8
 1551 01df 3A       		.uleb128 0x3a
 1552 01e0 0B       		.uleb128 0xb
 1553 01e1 3B       		.uleb128 0x3b
 1554 01e2 05       		.uleb128 0x5
 1555 01e3 49       		.uleb128 0x49
 1556 01e4 13       		.uleb128 0x13
 1557 01e5 3F       		.uleb128 0x3f
 1558 01e6 19       		.uleb128 0x19
 1559 01e7 3C       		.uleb128 0x3c
 1560 01e8 19       		.uleb128 0x19
 1561 01e9 00       		.byte	0
 1562 01ea 00       		.byte	0
 1563 01eb 26       		.uleb128 0x26
 1564 01ec 34       		.uleb128 0x34
 1565 01ed 00       		.byte	0
 1566 01ee 03       		.uleb128 0x3
 1567 01ef 0E       		.uleb128 0xe
 1568 01f0 3A       		.uleb128 0x3a
 1569 01f1 0B       		.uleb128 0xb
 1570 01f2 3B       		.uleb128 0x3b
 1571 01f3 05       		.uleb128 0x5
 1572 01f4 49       		.uleb128 0x49
 1573 01f5 13       		.uleb128 0x13
 1574 01f6 3F       		.uleb128 0x3f
 1575 01f7 19       		.uleb128 0x19
 1576 01f8 3C       		.uleb128 0x3c
 1577 01f9 19       		.uleb128 0x19
 1578 01fa 00       		.byte	0
 1579 01fb 00       		.byte	0
 1580 01fc 27       		.uleb128 0x27
 1581 01fd 34       		.uleb128 0x34
 1582 01fe 00       		.byte	0
 1583 01ff 03       		.uleb128 0x3
 1584 0200 0E       		.uleb128 0xe
 1585 0201 3A       		.uleb128 0x3a
 1586 0202 0B       		.uleb128 0xb
 1587 0203 3B       		.uleb128 0x3b
 1588 0204 0B       		.uleb128 0xb
 1589 0205 49       		.uleb128 0x49
ARM GAS  /tmp/ccnMLYoJ.s 			page 29


 1590 0206 13       		.uleb128 0x13
 1591 0207 3F       		.uleb128 0x3f
 1592 0208 19       		.uleb128 0x19
 1593 0209 3C       		.uleb128 0x3c
 1594 020a 19       		.uleb128 0x19
 1595 020b 00       		.byte	0
 1596 020c 00       		.byte	0
 1597 020d 28       		.uleb128 0x28
 1598 020e 2E       		.uleb128 0x2e
 1599 020f 01       		.byte	0x1
 1600 0210 3F       		.uleb128 0x3f
 1601 0211 19       		.uleb128 0x19
 1602 0212 03       		.uleb128 0x3
 1603 0213 0E       		.uleb128 0xe
 1604 0214 3A       		.uleb128 0x3a
 1605 0215 0B       		.uleb128 0xb
 1606 0216 3B       		.uleb128 0x3b
 1607 0217 05       		.uleb128 0x5
 1608 0218 27       		.uleb128 0x27
 1609 0219 19       		.uleb128 0x19
 1610 021a 3C       		.uleb128 0x3c
 1611 021b 19       		.uleb128 0x19
 1612 021c 00       		.byte	0
 1613 021d 00       		.byte	0
 1614 021e 00       		.byte	0
 1615              		.section	.debug_loc,"",%progbits
 1616              	.Ldebug_loc0:
 1617              	.LLST0:
 1618 0000 00000000 		.4byte	.LVL0
 1619 0004 02000000 		.4byte	.LVL1
 1620 0008 0100     		.2byte	0x1
 1621 000a 50       		.byte	0x50
 1622 000b 02000000 		.4byte	.LVL1
 1623 000f 1C000000 		.4byte	.LFE82
 1624 0013 0400     		.2byte	0x4
 1625 0015 F3       		.byte	0xf3
 1626 0016 01       		.uleb128 0x1
 1627 0017 50       		.byte	0x50
 1628 0018 9F       		.byte	0x9f
 1629 0019 00000000 		.4byte	0
 1630 001d 00000000 		.4byte	0
 1631              		.section	.debug_aranges,"",%progbits
 1632 0000 2C000000 		.4byte	0x2c
 1633 0004 0200     		.2byte	0x2
 1634 0006 00000000 		.4byte	.Ldebug_info0
 1635 000a 04       		.byte	0x4
 1636 000b 00       		.byte	0
 1637 000c 0000     		.2byte	0
 1638 000e 0000     		.2byte	0
 1639 0010 00000000 		.4byte	.LFB82
 1640 0014 1C000000 		.4byte	.LFE82-.LFB82
 1641 0018 00000000 		.4byte	.LFB83
 1642 001c 20000000 		.4byte	.LFE83-.LFB83
 1643 0020 00000000 		.4byte	.LFB84
 1644 0024 02000000 		.4byte	.LFE84-.LFB84
 1645 0028 00000000 		.4byte	0
 1646 002c 00000000 		.4byte	0
ARM GAS  /tmp/ccnMLYoJ.s 			page 30


 1647              		.section	.debug_ranges,"",%progbits
 1648              	.Ldebug_ranges0:
 1649 0000 00000000 		.4byte	.LFB82
 1650 0004 1C000000 		.4byte	.LFE82
 1651 0008 00000000 		.4byte	.LFB83
 1652 000c 20000000 		.4byte	.LFE83
 1653 0010 00000000 		.4byte	.LFB84
 1654 0014 02000000 		.4byte	.LFE84
 1655 0018 00000000 		.4byte	0
 1656 001c 00000000 		.4byte	0
 1657              		.section	.debug_line,"",%progbits
 1658              	.Ldebug_line0:
 1659 0000 9B010000 		.section	.debug_str,"MS",%progbits,1
 1659      02005B01 
 1659      00000201 
 1659      FB0E0D00 
 1659      01010101 
 1660              	.LASF106:
 1661 0000 6164635F 		.ascii	"adc_mic_end_cb\000"
 1661      6D69635F 
 1661      656E645F 
 1661      636200
 1662              	.LASF82:
 1663 000f 63757272 		.ascii	"current_index\000"
 1663      656E745F 
 1663      696E6465 
 1663      7800
 1664              	.LASF83:
 1665 001d 63757272 		.ascii	"current_channel\000"
 1665      656E745F 
 1665      6368616E 
 1665      6E656C00 
 1666              	.LASF45:
 1667 002d 72656761 		.ascii	"regarm_t\000"
 1667      726D5F74 
 1667      00
 1668              	.LASF23:
 1669 0036 73797374 		.ascii	"systime_t\000"
 1669      696D655F 
 1669      7400
 1670              	.LASF100:
 1671 0040 64617461 		.ascii	"dataReadyFlag\000"
 1671      52656164 
 1671      79466C61 
 1671      6700
 1672              	.LASF96:
 1673 004e 62756666 		.ascii	"buffer\000"
 1673      657200
 1674              	.LASF75:
 1675 0055 61646365 		.ascii	"adcerror_t\000"
 1675      72726F72 
 1675      5F7400
 1676              	.LASF7:
 1677 0060 756E7369 		.ascii	"unsigned int\000"
 1677      676E6564 
 1677      20696E74 
 1677      00
ARM GAS  /tmp/ccnMLYoJ.s 			page 31


 1678              	.LASF59:
 1679 006d 6E657874 		.ascii	"next\000"
 1679      00
 1680              	.LASF101:
 1681 0072 6275666C 		.ascii	"bufloc\000"
 1681      6F6300
 1682              	.LASF91:
 1683 0079 63666731 		.ascii	"cfg1\000"
 1683      00
 1684              	.LASF102:
 1685 007e 6275665F 		.ascii	"buf_n\000"
 1685      6E00
 1686              	.LASF89:
 1687 0084 6572726F 		.ascii	"error_cb\000"
 1687      725F6362 
 1687      00
 1688              	.LASF54:
 1689 008d 73656D70 		.ascii	"semp\000"
 1689      00
 1690              	.LASF57:
 1691 0092 6E696C5F 		.ascii	"nil_system\000"
 1691      73797374 
 1691      656D00
 1692              	.LASF55:
 1693 009d 65776D61 		.ascii	"ewmask\000"
 1693      736B00
 1694              	.LASF104:
 1695 00a4 616E616C 		.ascii	"analog.c\000"
 1695      6F672E63 
 1695      00
 1696              	.LASF51:
 1697 00ad 6E696C5F 		.ascii	"nil_semaphore\000"
 1697      73656D61 
 1697      70686F72 
 1697      6500
 1698              	.LASF105:
 1699 00bb 2F686F6D 		.ascii	"/home/bunnie/code/chibi-chibios/orchard\000"
 1699      652F6275 
 1699      6E6E6965 
 1699      2F636F64 
 1699      652F6368 
 1700              	.LASF16:
 1701 00e3 75696E74 		.ascii	"uint32_t\000"
 1701      33325F74 
 1701      00
 1702              	.LASF85:
 1703 00ec 61646365 		.ascii	"adcerrorcallback_t\000"
 1703      72726F72 
 1703      63616C6C 
 1703      6261636B 
 1703      5F7400
 1704              	.LASF21:
 1705 00ff 6576656E 		.ascii	"eventmask_t\000"
 1705      746D6173 
 1705      6B5F7400 
 1706              	.LASF93:
 1707 010b 63616C69 		.ascii	"calibrate\000"
ARM GAS  /tmp/ccnMLYoJ.s 			page 32


 1707      62726174 
 1707      6500
 1708              	.LASF88:
 1709 0115 656E645F 		.ascii	"end_cb\000"
 1709      636200
 1710              	.LASF86:
 1711 011c 63697263 		.ascii	"circular\000"
 1711      756C6172 
 1711      00
 1712              	.LASF18:
 1713 0125 6C6F6E67 		.ascii	"long long unsigned int\000"
 1713      206C6F6E 
 1713      6720756E 
 1713      7369676E 
 1713      65642069 
 1714              	.LASF25:
 1715 013c 53433141 		.ascii	"SC1A\000"
 1715      00
 1716              	.LASF107:
 1717 0141 616E616C 		.ascii	"analogUpdateMic\000"
 1717      6F675570 
 1717      64617465 
 1717      4D696300 
 1718              	.LASF4:
 1719 0151 73746B6C 		.ascii	"stklim\000"
 1719      696D00
 1720              	.LASF22:
 1721 0158 636E745F 		.ascii	"cnt_t\000"
 1721      7400
 1722              	.LASF62:
 1723 015e 6462675F 		.ascii	"dbg_panic_msg\000"
 1723      70616E69 
 1723      635F6D73 
 1723      6700
 1724              	.LASF50:
 1725 016c 73656D61 		.ascii	"semaphore_t\000"
 1725      70686F72 
 1725      655F7400 
 1726              	.LASF5:
 1727 0178 74687265 		.ascii	"thread_t\000"
 1727      61645F74 
 1727      00
 1728              	.LASF26:
 1729 0181 53433142 		.ascii	"SC1B\000"
 1729      00
 1730              	.LASF90:
 1731 0186 6368616E 		.ascii	"channel_mask\000"
 1731      6E656C5F 
 1731      6D61736B 
 1731      00
 1732              	.LASF6:
 1733 0193 73697A65 		.ascii	"size_t\000"
 1733      5F7400
 1734              	.LASF76:
 1735 019a 41444344 		.ascii	"ADCDriver\000"
 1735      72697665 
 1735      7200
ARM GAS  /tmp/ccnMLYoJ.s 			page 33


 1736              	.LASF63:
 1737 01a4 5F426F6F 		.ascii	"_Bool\000"
 1737      6C00
 1738              	.LASF74:
 1739 01aa 4144435F 		.ascii	"ADC_ERR_OVERFLOW\000"
 1739      4552525F 
 1739      4F564552 
 1739      464C4F57 
 1739      00
 1740              	.LASF68:
 1741 01bb 4144435F 		.ascii	"ADC_COMPLETE\000"
 1741      434F4D50 
 1741      4C455445 
 1741      00
 1742              	.LASF69:
 1743 01c8 4144435F 		.ascii	"ADC_ERROR\000"
 1743      4552524F 
 1743      5200
 1744              	.LASF52:
 1745 01d2 63686172 		.ascii	"char\000"
 1745      00
 1746              	.LASF97:
 1747 01d7 6D69635F 		.ascii	"mic_sample\000"
 1747      73616D70 
 1747      6C6500
 1748              	.LASF53:
 1749 01e2 74687265 		.ascii	"thread_reference_t\000"
 1749      61645F72 
 1749      65666572 
 1749      656E6365 
 1749      5F7400
 1750              	.LASF19:
 1751 01f5 74737461 		.ascii	"tstate_t\000"
 1751      74655F74 
 1751      00
 1752              	.LASF12:
 1753 01fe 75696E74 		.ascii	"uint8_t\000"
 1753      385F7400 
 1754              	.LASF108:
 1755 0206 616E616C 		.ascii	"analogStart\000"
 1755      6F675374 
 1755      61727400 
 1756              	.LASF43:
 1757 0212 434C4D30 		.ascii	"CLM0\000"
 1757      00
 1758              	.LASF42:
 1759 0217 434C4D31 		.ascii	"CLM1\000"
 1759      00
 1760              	.LASF41:
 1761 021c 434C4D32 		.ascii	"CLM2\000"
 1761      00
 1762              	.LASF40:
 1763 0221 434C4D33 		.ascii	"CLM3\000"
 1763      00
 1764              	.LASF39:
 1765 0226 434C4D34 		.ascii	"CLM4\000"
 1765      00
ARM GAS  /tmp/ccnMLYoJ.s 			page 34


 1766              	.LASF37:
 1767 022b 434C4D44 		.ascii	"CLMD\000"
 1767      00
 1768              	.LASF78:
 1769 0230 73616D70 		.ascii	"samples\000"
 1769      6C657300 
 1770              	.LASF44:
 1771 0238 4144435F 		.ascii	"ADC_TypeDef\000"
 1771      54797065 
 1771      44656600 
 1772              	.LASF11:
 1773 0244 6C6F6E67 		.ascii	"long long int\000"
 1773      206C6F6E 
 1773      6720696E 
 1773      7400
 1774              	.LASF38:
 1775 0252 434C4D53 		.ascii	"CLMS\000"
 1775      00
 1776              	.LASF79:
 1777 0257 64657074 		.ascii	"depth\000"
 1777      6800
 1778              	.LASF20:
 1779 025d 6D73675F 		.ascii	"msg_t\000"
 1779      7400
 1780              	.LASF94:
 1781 0263 41444343 		.ascii	"ADCConfig\000"
 1781      6F6E6669 
 1781      6700
 1782              	.LASF84:
 1783 026d 61646363 		.ascii	"adccallback_t\000"
 1783      616C6C62 
 1783      61636B5F 
 1783      7400
 1784              	.LASF49:
 1785 027b 696E7463 		.ascii	"intctx_t\000"
 1785      74785F74 
 1785      00
 1786              	.LASF3:
 1787 0284 65706D61 		.ascii	"epmask\000"
 1787      736B00
 1788              	.LASF109:
 1789 028b 61646353 		.ascii	"adcStartConversion\000"
 1789      74617274 
 1789      436F6E76 
 1789      65727369 
 1789      6F6E00
 1790              	.LASF60:
 1791 029e 73797374 		.ascii	"systime\000"
 1791      696D6500 
 1792              	.LASF71:
 1793 02a6 61646373 		.ascii	"adcsample_t\000"
 1793      616D706C 
 1793      655F7400 
 1794              	.LASF99:
 1795 02b2 41444344 		.ascii	"ADCD1\000"
 1795      3100
 1796              	.LASF81:
ARM GAS  /tmp/ccnMLYoJ.s 			page 35


 1797 02b8 6E756D62 		.ascii	"number_of_samples\000"
 1797      65725F6F 
 1797      665F7361 
 1797      6D706C65 
 1797      7300
 1798              	.LASF14:
 1799 02ca 75696E74 		.ascii	"uint16_t\000"
 1799      31365F74 
 1799      00
 1800              	.LASF67:
 1801 02d3 4144435F 		.ascii	"ADC_ACTIVE\000"
 1801      41435449 
 1801      564500
 1802              	.LASF77:
 1803 02de 636F6E66 		.ascii	"config\000"
 1803      696700
 1804              	.LASF35:
 1805 02e5 434C5030 		.ascii	"CLP0\000"
 1805      00
 1806              	.LASF34:
 1807 02ea 434C5031 		.ascii	"CLP1\000"
 1807      00
 1808              	.LASF33:
 1809 02ef 434C5032 		.ascii	"CLP2\000"
 1809      00
 1810              	.LASF32:
 1811 02f4 434C5033 		.ascii	"CLP3\000"
 1811      00
 1812              	.LASF31:
 1813 02f9 434C5034 		.ascii	"CLP4\000"
 1813      00
 1814              	.LASF9:
 1815 02fe 73686F72 		.ascii	"short int\000"
 1815      7420696E 
 1815      7400
 1816              	.LASF72:
 1817 0308 6164635F 		.ascii	"adc_channels_num_t\000"
 1817      6368616E 
 1817      6E656C73 
 1817      5F6E756D 
 1817      5F7400
 1818              	.LASF0:
 1819 031b 63747870 		.ascii	"ctxp\000"
 1819      00
 1820              	.LASF29:
 1821 0320 434C5044 		.ascii	"CLPD\000"
 1821      00
 1822              	.LASF48:
 1823 0325 706F7274 		.ascii	"port_intctx\000"
 1823      5F696E74 
 1823      63747800 
 1824              	.LASF92:
 1825 0331 41444343 		.ascii	"ADCConversionGroup\000"
 1825      6F6E7665 
 1825      7273696F 
 1825      6E47726F 
 1825      757000
ARM GAS  /tmp/ccnMLYoJ.s 			page 36


 1826              	.LASF87:
 1827 0344 6E756D5F 		.ascii	"num_channels\000"
 1827      6368616E 
 1827      6E656C73 
 1827      00
 1828              	.LASF27:
 1829 0351 43464731 		.ascii	"CFG1\000"
 1829      00
 1830              	.LASF28:
 1831 0356 43464732 		.ascii	"CFG2\000"
 1831      00
 1832              	.LASF30:
 1833 035b 434C5053 		.ascii	"CLPS\000"
 1833      00
 1834              	.LASF17:
 1835 0360 75696E74 		.ascii	"uint64_t\000"
 1835      36345F74 
 1835      00
 1836              	.LASF64:
 1837 0369 4144435F 		.ascii	"ADC_UNINIT\000"
 1837      554E494E 
 1837      495400
 1838              	.LASF56:
 1839 0374 6E696C5F 		.ascii	"nil_system_t\000"
 1839      73797374 
 1839      656D5F74 
 1839      00
 1840              	.LASF73:
 1841 0381 4144435F 		.ascii	"ADC_ERR_DMAFAILURE\000"
 1841      4552525F 
 1841      444D4146 
 1841      41494C55 
 1841      524500
 1842              	.LASF24:
 1843 0394 73697A65 		.ascii	"sizetype\000"
 1843      74797065 
 1843      00
 1844              	.LASF66:
 1845 039d 4144435F 		.ascii	"ADC_READY\000"
 1845      52454144 
 1845      5900
 1846              	.LASF61:
 1847 03a7 74687265 		.ascii	"threads\000"
 1847      61647300 
 1848              	.LASF70:
 1849 03af 61646373 		.ascii	"adcstate_t\000"
 1849      74617465 
 1849      5F7400
 1850              	.LASF95:
 1851 03ba 61646370 		.ascii	"adcp\000"
 1851      00
 1852              	.LASF10:
 1853 03bf 696E7433 		.ascii	"int32_t\000"
 1853      325F7400 
 1854              	.LASF13:
 1855 03c7 756E7369 		.ascii	"unsigned char\000"
 1855      676E6564 
ARM GAS  /tmp/ccnMLYoJ.s 			page 37


 1855      20636861 
 1855      7200
 1856              	.LASF98:
 1857 03d5 61646367 		.ascii	"adcgrpmic\000"
 1857      72706D69 
 1857      6300
 1858              	.LASF103:
 1859 03df 474E5520 		.ascii	"GNU C 4.9.2 -mcpu=cortex-m0 -mfloat-abi=soft -mfp16"
 1859      4320342E 
 1859      392E3220 
 1859      2D6D6370 
 1859      753D636F 
 1860 0412 2D666F72 		.ascii	"-format=none -mno-thumb-interwork -mthumb -mfloat-a"
 1860      6D61743D 
 1860      6E6F6E65 
 1860      202D6D6E 
 1860      6F2D7468 
 1861 0445 62693D73 		.ascii	"bi=soft -mfpu=vfpv3-d16 -mtls-dialect=gnu -ggdb -O3"
 1861      6F667420 
 1861      2D6D6670 
 1861      753D7666 
 1861      7076332D 
 1862 0478 202D7374 		.ascii	" -std=gnu99 -fomit-frame-pointer -falign-functions="
 1862      643D676E 
 1862      75393920 
 1862      2D666F6D 
 1862      69742D66 
 1863 04ab 3136202D 		.ascii	"16 -ffunction-sections -fdata-sections -fno-common\000"
 1863      6666756E 
 1863      6374696F 
 1863      6E2D7365 
 1863      6374696F 
 1864              	.LASF2:
 1865 04de 74696D65 		.ascii	"timeout\000"
 1865      6F757400 
 1866              	.LASF1:
 1867 04e6 73746174 		.ascii	"state\000"
 1867      6500
 1868              	.LASF47:
 1869 04ec 6E696C5F 		.ascii	"nil_thread\000"
 1869      74687265 
 1869      616400
 1870              	.LASF8:
 1871 04f7 7369676E 		.ascii	"signed char\000"
 1871      65642063 
 1871      68617200 
 1872              	.LASF15:
 1873 0503 73686F72 		.ascii	"short unsigned int\000"
 1873      7420756E 
 1873      7369676E 
 1873      65642069 
 1873      6E7400
 1874              	.LASF46:
 1875 0516 73746B61 		.ascii	"stkalign_t\000"
 1875      6C69676E 
 1875      5F7400
 1876              	.LASF58:
ARM GAS  /tmp/ccnMLYoJ.s 			page 38


 1877 0521 63757272 		.ascii	"current\000"
 1877      656E7400 
 1878              	.LASF80:
 1879 0529 67727070 		.ascii	"grpp\000"
 1879      00
 1880              	.LASF36:
 1881 052e 52455345 		.ascii	"RESERVED0\000"
 1881      52564544 
 1881      3000
 1882              	.LASF65:
 1883 0538 4144435F 		.ascii	"ADC_STOP\000"
 1883      53544F50 
 1883      00
 1884              		.ident	"GCC: (Debian 4.9.2-10) 4.9.2"
 1885              		.section	.note.GNU-stack,"",%progbits
ARM GAS  /tmp/ccnMLYoJ.s 			page 39


DEFINED SYMBOLS
                            *ABS*:00000000 analog.c
     /tmp/ccnMLYoJ.s:18     .text.adc_mic_end_cb:00000000 $t
     /tmp/ccnMLYoJ.s:23     .text.adc_mic_end_cb:00000000 adc_mic_end_cb
     /tmp/ccnMLYoJ.s:48     .text.adc_mic_end_cb:00000010 $d
     /tmp/ccnMLYoJ.s:55     .text.analogUpdateMic:00000000 $t
     /tmp/ccnMLYoJ.s:61     .text.analogUpdateMic:00000000 analogUpdateMic
     /tmp/ccnMLYoJ.s:83     .text.analogUpdateMic:00000014 $d
     /tmp/ccnMLYoJ.s:90     .text.analogStart:00000000 $t
     /tmp/ccnMLYoJ.s:96     .text.analogStart:00000000 analogStart
     /tmp/ccnMLYoJ.s:107    .rodata.adcgrpmic:00000000 $d
     /tmp/ccnMLYoJ.s:111    .rodata.adcgrpmic:00000000 adcgrpmic
     /tmp/ccnMLYoJ.s:121    .bss.mic_sample:00000000 $d
     /tmp/ccnMLYoJ.s:125    .bss.mic_sample:00000000 mic_sample
                     .debug_frame:00000010 $d
     /tmp/ccnMLYoJ.s:54     .text.adc_mic_end_cb:0000001c $t

UNDEFINED SYMBOLS
dataReadyFlag
bufloc
buf_n
adcStartConversion
ADCD1
