ARM GAS  /tmp/ccTurjej.s 			page 1


   1              		.cpu cortex-m0
   2              		.fpu softvfp
   3              		.eabi_attribute 20, 1
   4              		.eabi_attribute 21, 1
   5              		.eabi_attribute 23, 3
   6              		.eabi_attribute 24, 1
   7              		.eabi_attribute 25, 1
   8              		.eabi_attribute 26, 2
   9              		.eabi_attribute 30, 2
  10              		.eabi_attribute 34, 0
  11              		.eabi_attribute 18, 4
  12              		.code	16
  13              		.file	"arduino-time.cpp"
  14              		.text
  15              	.Ltext0:
  16              		.cfi_sections	.debug_frame
  17              		.section	.text._Z6millisv,"ax",%progbits
  18              		.align	2
  19              		.p2align 4,,15
  20              		.global	_Z6millisv
  21              		.code	16
  22              		.thumb_func
  23              		.type	_Z6millisv, %function
  24              	_Z6millisv:
  25              		.fnstart
  26              	.LFB17:
  27              		.file 1 "arduino-time.cpp"
  28              		.loc 1 4 0
  29              		.cfi_startproc
  30              		.loc 1 6 0
  31 0000 0020     		mov	r0, #0
  32              		@ sp needed
  33 0002 7047     		bx	lr
  34              		.cfi_endproc
  35              	.LFE17:
  36              		.cantunwind
  37              		.fnend
  38              		.size	_Z6millisv, .-_Z6millisv
  39 0004 C046C046 		.section	.text._Z6microsv,"ax",%progbits
  39      C046C046 
  39      C046C046 
  40              		.align	2
  41              		.p2align 4,,15
  42              		.global	_Z6microsv
  43              		.code	16
  44              		.thumb_func
  45              		.type	_Z6microsv, %function
  46              	_Z6microsv:
  47              		.fnstart
  48              	.LFB18:
  49              		.loc 1 8 0
  50              		.cfi_startproc
  51              		.loc 1 10 0
  52 0000 0020     		mov	r0, #0
  53              		@ sp needed
  54 0002 7047     		bx	lr
  55              		.cfi_endproc
ARM GAS  /tmp/ccTurjej.s 			page 2


  56              	.LFE18:
  57              		.cantunwind
  58              		.fnend
  59              		.size	_Z6microsv, .-_Z6microsv
  60 0004 C046C046 		.section	.text._Z5delaym,"ax",%progbits
  60      C046C046 
  60      C046C046 
  61              		.align	2
  62              		.p2align 4,,15
  63              		.global	_Z5delaym
  64              		.code	16
  65              		.thumb_func
  66              		.type	_Z5delaym, %function
  67              	_Z5delaym:
  68              		.fnstart
  69              	.LFB19:
  70              		.loc 1 12 0
  71              		.cfi_startproc
  72              	.LVL0:
  73              		.loc 1 12 0
  74 0000 024B     		ldr	r3, .L7
  75              	.LVL1:
  76              	.L4:
  77              	.LBB2:
  78              		.loc 1 15 0 discriminator 3
  79              	#APP
  80              	@ 15 "arduino-time.cpp" 1
  81 0002 C046     		nop
  82              	@ 0 "" 2
  83              		.code	16
  84 0004 013B     		sub	r3, r3, #1
  85              		.loc 1 14 0 discriminator 3
  86 0006 002B     		cmp	r3, #0
  87 0008 FBD1     		bne	.L4
  88              	.LBE2:
  89              		.loc 1 16 0
  90              		@ sp needed
  91 000a 7047     		bx	lr
  92              	.L8:
  93              		.align	2
  94              	.L7:
  95 000c 40420F00 		.word	1000000
  96              		.cfi_endproc
  97              	.LFE19:
  98              		.cantunwind
  99              		.fnend
 100              		.size	_Z5delaym, .-_Z5delaym
 101              		.section	.text._Z17delayMicrosecondsj,"ax",%progbits
 102              		.align	2
 103              		.p2align 4,,15
 104              		.global	_Z17delayMicrosecondsj
 105              		.code	16
 106              		.thumb_func
 107              		.type	_Z17delayMicrosecondsj, %function
 108              	_Z17delayMicrosecondsj:
 109              		.fnstart
 110              	.LFB20:
ARM GAS  /tmp/ccTurjej.s 			page 3


 111              		.loc 1 18 0
 112              		.cfi_startproc
 113              	.LVL2:
 114              		.loc 1 18 0
 115 0000 6423     		mov	r3, #100
 116              	.LVL3:
 117              	.L10:
 118              	.LBB3:
 119              		.loc 1 21 0 discriminator 3
 120              	#APP
 121              	@ 21 "arduino-time.cpp" 1
 122 0002 C046     		nop
 123              	@ 0 "" 2
 124              		.code	16
 125 0004 013B     		sub	r3, r3, #1
 126              		.loc 1 20 0 discriminator 3
 127 0006 002B     		cmp	r3, #0
 128 0008 FBD1     		bne	.L10
 129              	.LBE3:
 130              		.loc 1 22 0
 131              		@ sp needed
 132 000a 7047     		bx	lr
 133              		.cfi_endproc
 134              	.LFE20:
 135              		.cantunwind
 136              		.fnend
 137              		.size	_Z17delayMicrosecondsj, .-_Z17delayMicrosecondsj
 138 000c C046C046 		.text
 139              	.Letext0:
 140              		.section	.debug_info,"",%progbits
 141              	.Ldebug_info0:
 142 0000 0B010000 		.4byte	0x10b
 143 0004 0400     		.2byte	0x4
 144 0006 00000000 		.4byte	.Ldebug_abbrev0
 145 000a 04       		.byte	0x4
 146 000b 01       		.uleb128 0x1
 147 000c 96000000 		.4byte	.LASF14
 148 0010 04       		.byte	0x4
 149 0011 96010000 		.4byte	.LASF15
 150 0015 23000000 		.4byte	.LASF16
 151 0019 00000000 		.4byte	.Ldebug_ranges0+0
 152 001d 00000000 		.4byte	0
 153 0021 00000000 		.4byte	.Ldebug_line0
 154 0025 02       		.uleb128 0x2
 155 0026 01       		.byte	0x1
 156 0027 06       		.byte	0x6
 157 0028 11020000 		.4byte	.LASF0
 158 002c 02       		.uleb128 0x2
 159 002d 02       		.byte	0x2
 160 002e 05       		.byte	0x5
 161 002f F0010000 		.4byte	.LASF1
 162 0033 03       		.uleb128 0x3
 163 0034 04       		.byte	0x4
 164 0035 05       		.byte	0x5
 165 0036 696E7400 		.ascii	"int\000"
 166 003a 02       		.uleb128 0x2
 167 003b 08       		.byte	0x8
ARM GAS  /tmp/ccTurjej.s 			page 4


 168 003c 05       		.byte	0x5
 169 003d E2010000 		.4byte	.LASF2
 170 0041 02       		.uleb128 0x2
 171 0042 01       		.byte	0x1
 172 0043 08       		.byte	0x8
 173 0044 51000000 		.4byte	.LASF3
 174 0048 02       		.uleb128 0x2
 175 0049 02       		.byte	0x2
 176 004a 07       		.byte	0x7
 177 004b 83000000 		.4byte	.LASF4
 178 004f 02       		.uleb128 0x2
 179 0050 04       		.byte	0x4
 180 0051 07       		.byte	0x7
 181 0052 BE010000 		.4byte	.LASF5
 182 0056 02       		.uleb128 0x2
 183 0057 08       		.byte	0x8
 184 0058 07       		.byte	0x7
 185 0059 CB010000 		.4byte	.LASF6
 186 005d 04       		.uleb128 0x4
 187 005e 0A020000 		.4byte	.LASF8
 188 0062 01       		.byte	0x1
 189 0063 04       		.byte	0x4
 190 0064 00000000 		.4byte	.LASF10
 191 0068 76000000 		.4byte	0x76
 192 006c 00000000 		.4byte	.LFB17
 193 0070 04000000 		.4byte	.LFE17-.LFB17
 194 0074 01       		.uleb128 0x1
 195 0075 9C       		.byte	0x9c
 196 0076 02       		.uleb128 0x2
 197 0077 04       		.byte	0x4
 198 0078 07       		.byte	0x7
 199 0079 71000000 		.4byte	.LASF7
 200 007d 04       		.uleb128 0x4
 201 007e 1C000000 		.4byte	.LASF9
 202 0082 01       		.byte	0x1
 203 0083 08       		.byte	0x8
 204 0084 11000000 		.4byte	.LASF11
 205 0088 76000000 		.4byte	0x76
 206 008c 00000000 		.4byte	.LFB18
 207 0090 04000000 		.4byte	.LFE18-.LFB18
 208 0094 01       		.uleb128 0x1
 209 0095 9C       		.byte	0x9c
 210 0096 05       		.uleb128 0x5
 211 0097 4B000000 		.4byte	.LASF17
 212 009b 01       		.byte	0x1
 213 009c 0C       		.byte	0xc
 214 009d FA010000 		.4byte	.LASF18
 215 00a1 00000000 		.4byte	.LFB19
 216 00a5 10000000 		.4byte	.LFE19-.LFB19
 217 00a9 01       		.uleb128 0x1
 218 00aa 9C       		.byte	0x9c
 219 00ab D4000000 		.4byte	0xd4
 220 00af 06       		.uleb128 0x6
 221 00b0 0B000000 		.4byte	.LASF12
 222 00b4 01       		.byte	0x1
 223 00b5 0C       		.byte	0xc
 224 00b6 76000000 		.4byte	0x76
ARM GAS  /tmp/ccTurjej.s 			page 5


 225 00ba 01       		.uleb128 0x1
 226 00bb 50       		.byte	0x50
 227 00bc 07       		.uleb128 0x7
 228 00bd 02000000 		.4byte	.LBB2
 229 00c1 08000000 		.4byte	.LBE2-.LBB2
 230 00c5 08       		.uleb128 0x8
 231 00c6 6900     		.ascii	"i\000"
 232 00c8 01       		.byte	0x1
 233 00c9 0D       		.byte	0xd
 234 00ca 33000000 		.4byte	0x33
 235 00ce 00000000 		.4byte	.LLST0
 236 00d2 00       		.byte	0
 237 00d3 00       		.byte	0
 238 00d4 09       		.uleb128 0x9
 239 00d5 5F000000 		.4byte	.LASF19
 240 00d9 01       		.byte	0x1
 241 00da 12       		.byte	0x12
 242 00db A7010000 		.4byte	.LASF20
 243 00df 00000000 		.4byte	.LFB20
 244 00e3 0C000000 		.4byte	.LFE20-.LFB20
 245 00e7 01       		.uleb128 0x1
 246 00e8 9C       		.byte	0x9c
 247 00e9 06       		.uleb128 0x6
 248 00ea 04020000 		.4byte	.LASF13
 249 00ee 01       		.byte	0x1
 250 00ef 12       		.byte	0x12
 251 00f0 4F000000 		.4byte	0x4f
 252 00f4 01       		.uleb128 0x1
 253 00f5 50       		.byte	0x50
 254 00f6 07       		.uleb128 0x7
 255 00f7 02000000 		.4byte	.LBB3
 256 00fb 08000000 		.4byte	.LBE3-.LBB3
 257 00ff 08       		.uleb128 0x8
 258 0100 6900     		.ascii	"i\000"
 259 0102 01       		.byte	0x1
 260 0103 13       		.byte	0x13
 261 0104 33000000 		.4byte	0x33
 262 0108 14000000 		.4byte	.LLST1
 263 010c 00       		.byte	0
 264 010d 00       		.byte	0
 265 010e 00       		.byte	0
 266              		.section	.debug_abbrev,"",%progbits
 267              	.Ldebug_abbrev0:
 268 0000 01       		.uleb128 0x1
 269 0001 11       		.uleb128 0x11
 270 0002 01       		.byte	0x1
 271 0003 25       		.uleb128 0x25
 272 0004 0E       		.uleb128 0xe
 273 0005 13       		.uleb128 0x13
 274 0006 0B       		.uleb128 0xb
 275 0007 03       		.uleb128 0x3
 276 0008 0E       		.uleb128 0xe
 277 0009 1B       		.uleb128 0x1b
 278 000a 0E       		.uleb128 0xe
 279 000b 55       		.uleb128 0x55
 280 000c 17       		.uleb128 0x17
 281 000d 11       		.uleb128 0x11
ARM GAS  /tmp/ccTurjej.s 			page 6


 282 000e 01       		.uleb128 0x1
 283 000f 10       		.uleb128 0x10
 284 0010 17       		.uleb128 0x17
 285 0011 00       		.byte	0
 286 0012 00       		.byte	0
 287 0013 02       		.uleb128 0x2
 288 0014 24       		.uleb128 0x24
 289 0015 00       		.byte	0
 290 0016 0B       		.uleb128 0xb
 291 0017 0B       		.uleb128 0xb
 292 0018 3E       		.uleb128 0x3e
 293 0019 0B       		.uleb128 0xb
 294 001a 03       		.uleb128 0x3
 295 001b 0E       		.uleb128 0xe
 296 001c 00       		.byte	0
 297 001d 00       		.byte	0
 298 001e 03       		.uleb128 0x3
 299 001f 24       		.uleb128 0x24
 300 0020 00       		.byte	0
 301 0021 0B       		.uleb128 0xb
 302 0022 0B       		.uleb128 0xb
 303 0023 3E       		.uleb128 0x3e
 304 0024 0B       		.uleb128 0xb
 305 0025 03       		.uleb128 0x3
 306 0026 08       		.uleb128 0x8
 307 0027 00       		.byte	0
 308 0028 00       		.byte	0
 309 0029 04       		.uleb128 0x4
 310 002a 2E       		.uleb128 0x2e
 311 002b 00       		.byte	0
 312 002c 3F       		.uleb128 0x3f
 313 002d 19       		.uleb128 0x19
 314 002e 03       		.uleb128 0x3
 315 002f 0E       		.uleb128 0xe
 316 0030 3A       		.uleb128 0x3a
 317 0031 0B       		.uleb128 0xb
 318 0032 3B       		.uleb128 0x3b
 319 0033 0B       		.uleb128 0xb
 320 0034 6E       		.uleb128 0x6e
 321 0035 0E       		.uleb128 0xe
 322 0036 49       		.uleb128 0x49
 323 0037 13       		.uleb128 0x13
 324 0038 11       		.uleb128 0x11
 325 0039 01       		.uleb128 0x1
 326 003a 12       		.uleb128 0x12
 327 003b 06       		.uleb128 0x6
 328 003c 40       		.uleb128 0x40
 329 003d 18       		.uleb128 0x18
 330 003e 9742     		.uleb128 0x2117
 331 0040 19       		.uleb128 0x19
 332 0041 00       		.byte	0
 333 0042 00       		.byte	0
 334 0043 05       		.uleb128 0x5
 335 0044 2E       		.uleb128 0x2e
 336 0045 01       		.byte	0x1
 337 0046 3F       		.uleb128 0x3f
 338 0047 19       		.uleb128 0x19
ARM GAS  /tmp/ccTurjej.s 			page 7


 339 0048 03       		.uleb128 0x3
 340 0049 0E       		.uleb128 0xe
 341 004a 3A       		.uleb128 0x3a
 342 004b 0B       		.uleb128 0xb
 343 004c 3B       		.uleb128 0x3b
 344 004d 0B       		.uleb128 0xb
 345 004e 6E       		.uleb128 0x6e
 346 004f 0E       		.uleb128 0xe
 347 0050 11       		.uleb128 0x11
 348 0051 01       		.uleb128 0x1
 349 0052 12       		.uleb128 0x12
 350 0053 06       		.uleb128 0x6
 351 0054 40       		.uleb128 0x40
 352 0055 18       		.uleb128 0x18
 353 0056 9742     		.uleb128 0x2117
 354 0058 19       		.uleb128 0x19
 355 0059 01       		.uleb128 0x1
 356 005a 13       		.uleb128 0x13
 357 005b 00       		.byte	0
 358 005c 00       		.byte	0
 359 005d 06       		.uleb128 0x6
 360 005e 05       		.uleb128 0x5
 361 005f 00       		.byte	0
 362 0060 03       		.uleb128 0x3
 363 0061 0E       		.uleb128 0xe
 364 0062 3A       		.uleb128 0x3a
 365 0063 0B       		.uleb128 0xb
 366 0064 3B       		.uleb128 0x3b
 367 0065 0B       		.uleb128 0xb
 368 0066 49       		.uleb128 0x49
 369 0067 13       		.uleb128 0x13
 370 0068 02       		.uleb128 0x2
 371 0069 18       		.uleb128 0x18
 372 006a 00       		.byte	0
 373 006b 00       		.byte	0
 374 006c 07       		.uleb128 0x7
 375 006d 0B       		.uleb128 0xb
 376 006e 01       		.byte	0x1
 377 006f 11       		.uleb128 0x11
 378 0070 01       		.uleb128 0x1
 379 0071 12       		.uleb128 0x12
 380 0072 06       		.uleb128 0x6
 381 0073 00       		.byte	0
 382 0074 00       		.byte	0
 383 0075 08       		.uleb128 0x8
 384 0076 34       		.uleb128 0x34
 385 0077 00       		.byte	0
 386 0078 03       		.uleb128 0x3
 387 0079 08       		.uleb128 0x8
 388 007a 3A       		.uleb128 0x3a
 389 007b 0B       		.uleb128 0xb
 390 007c 3B       		.uleb128 0x3b
 391 007d 0B       		.uleb128 0xb
 392 007e 49       		.uleb128 0x49
 393 007f 13       		.uleb128 0x13
 394 0080 02       		.uleb128 0x2
 395 0081 17       		.uleb128 0x17
ARM GAS  /tmp/ccTurjej.s 			page 8


 396 0082 00       		.byte	0
 397 0083 00       		.byte	0
 398 0084 09       		.uleb128 0x9
 399 0085 2E       		.uleb128 0x2e
 400 0086 01       		.byte	0x1
 401 0087 3F       		.uleb128 0x3f
 402 0088 19       		.uleb128 0x19
 403 0089 03       		.uleb128 0x3
 404 008a 0E       		.uleb128 0xe
 405 008b 3A       		.uleb128 0x3a
 406 008c 0B       		.uleb128 0xb
 407 008d 3B       		.uleb128 0x3b
 408 008e 0B       		.uleb128 0xb
 409 008f 6E       		.uleb128 0x6e
 410 0090 0E       		.uleb128 0xe
 411 0091 11       		.uleb128 0x11
 412 0092 01       		.uleb128 0x1
 413 0093 12       		.uleb128 0x12
 414 0094 06       		.uleb128 0x6
 415 0095 40       		.uleb128 0x40
 416 0096 18       		.uleb128 0x18
 417 0097 9742     		.uleb128 0x2117
 418 0099 19       		.uleb128 0x19
 419 009a 00       		.byte	0
 420 009b 00       		.byte	0
 421 009c 00       		.byte	0
 422              		.section	.debug_loc,"",%progbits
 423              	.Ldebug_loc0:
 424              	.LLST0:
 425 0000 00000000 		.4byte	.LVL0
 426 0004 02000000 		.4byte	.LVL1
 427 0008 0200     		.2byte	0x2
 428 000a 30       		.byte	0x30
 429 000b 9F       		.byte	0x9f
 430 000c 00000000 		.4byte	0
 431 0010 00000000 		.4byte	0
 432              	.LLST1:
 433 0014 00000000 		.4byte	.LVL2
 434 0018 02000000 		.4byte	.LVL3
 435 001c 0200     		.2byte	0x2
 436 001e 30       		.byte	0x30
 437 001f 9F       		.byte	0x9f
 438 0020 00000000 		.4byte	0
 439 0024 00000000 		.4byte	0
 440              		.section	.debug_aranges,"",%progbits
 441 0000 34000000 		.4byte	0x34
 442 0004 0200     		.2byte	0x2
 443 0006 00000000 		.4byte	.Ldebug_info0
 444 000a 04       		.byte	0x4
 445 000b 00       		.byte	0
 446 000c 0000     		.2byte	0
 447 000e 0000     		.2byte	0
 448 0010 00000000 		.4byte	.LFB17
 449 0014 04000000 		.4byte	.LFE17-.LFB17
 450 0018 00000000 		.4byte	.LFB18
 451 001c 04000000 		.4byte	.LFE18-.LFB18
 452 0020 00000000 		.4byte	.LFB19
ARM GAS  /tmp/ccTurjej.s 			page 9


 453 0024 10000000 		.4byte	.LFE19-.LFB19
 454 0028 00000000 		.4byte	.LFB20
 455 002c 0C000000 		.4byte	.LFE20-.LFB20
 456 0030 00000000 		.4byte	0
 457 0034 00000000 		.4byte	0
 458              		.section	.debug_ranges,"",%progbits
 459              	.Ldebug_ranges0:
 460 0000 00000000 		.4byte	.LFB17
 461 0004 04000000 		.4byte	.LFE17
 462 0008 00000000 		.4byte	.LFB18
 463 000c 04000000 		.4byte	.LFE18
 464 0010 00000000 		.4byte	.LFB19
 465 0014 10000000 		.4byte	.LFE19
 466 0018 00000000 		.4byte	.LFB20
 467 001c 0C000000 		.4byte	.LFE20
 468 0020 00000000 		.4byte	0
 469 0024 00000000 		.4byte	0
 470              		.section	.debug_line,"",%progbits
 471              	.Ldebug_line0:
 472 0000 7F000000 		.section	.debug_str,"MS",%progbits,1
 472      02002700 
 472      00000201 
 472      FB0E0D00 
 472      01010101 
 473              	.LASF10:
 474 0000 5F5A366D 		.ascii	"_Z6millisv\000"
 474      696C6C69 
 474      737600
 475              	.LASF12:
 476 000b 6D736563 		.ascii	"msecs\000"
 476      7300
 477              	.LASF11:
 478 0011 5F5A366D 		.ascii	"_Z6microsv\000"
 478      6963726F 
 478      737600
 479              	.LASF9:
 480 001c 6D696372 		.ascii	"micros\000"
 480      6F7300
 481              	.LASF16:
 482 0023 2F686F6D 		.ascii	"/home/bunnie/code/chibi-chibios/orchard\000"
 482      652F6275 
 482      6E6E6965 
 482      2F636F64 
 482      652F6368 
 483              	.LASF17:
 484 004b 64656C61 		.ascii	"delay\000"
 484      7900
 485              	.LASF3:
 486 0051 756E7369 		.ascii	"unsigned char\000"
 486      676E6564 
 486      20636861 
 486      7200
 487              	.LASF19:
 488 005f 64656C61 		.ascii	"delayMicroseconds\000"
 488      794D6963 
 488      726F7365 
 488      636F6E64 
ARM GAS  /tmp/ccTurjej.s 			page 10


 488      7300
 489              	.LASF7:
 490 0071 6C6F6E67 		.ascii	"long unsigned int\000"
 490      20756E73 
 490      69676E65 
 490      6420696E 
 490      7400
 491              	.LASF4:
 492 0083 73686F72 		.ascii	"short unsigned int\000"
 492      7420756E 
 492      7369676E 
 492      65642069 
 492      6E7400
 493              	.LASF14:
 494 0096 474E5520 		.ascii	"GNU C++ 4.9.2 -mcpu=cortex-m0 -mfloat-abi=soft -mfp"
 494      432B2B20 
 494      342E392E 
 494      32202D6D 
 494      6370753D 
 495 00c9 31362D66 		.ascii	"16-format=none -mno-thumb-interwork -mthumb -mfloat"
 495      6F726D61 
 495      743D6E6F 
 495      6E65202D 
 495      6D6E6F2D 
 496 00fc 2D616269 		.ascii	"-abi=soft -mfpu=vfpv3-d16 -mtls-dialect=gnu -ggdb -"
 496      3D736F66 
 496      74202D6D 
 496      6670753D 
 496      76667076 
 497 012f 4F33202D 		.ascii	"O3 -fomit-frame-pointer -falign-functions=16 -ffunc"
 497      666F6D69 
 497      742D6672 
 497      616D652D 
 497      706F696E 
 498 0162 74696F6E 		.ascii	"tion-sections -fdata-sections -fno-common -fno-rtti"
 498      2D736563 
 498      74696F6E 
 498      73202D66 
 498      64617461 
 499 0195 00       		.ascii	"\000"
 500              	.LASF15:
 501 0196 61726475 		.ascii	"arduino-time.cpp\000"
 501      696E6F2D 
 501      74696D65 
 501      2E637070 
 501      00
 502              	.LASF20:
 503 01a7 5F5A3137 		.ascii	"_Z17delayMicrosecondsj\000"
 503      64656C61 
 503      794D6963 
 503      726F7365 
 503      636F6E64 
 504              	.LASF5:
 505 01be 756E7369 		.ascii	"unsigned int\000"
 505      676E6564 
 505      20696E74 
 505      00
ARM GAS  /tmp/ccTurjej.s 			page 11


 506              	.LASF6:
 507 01cb 6C6F6E67 		.ascii	"long long unsigned int\000"
 507      206C6F6E 
 507      6720756E 
 507      7369676E 
 507      65642069 
 508              	.LASF2:
 509 01e2 6C6F6E67 		.ascii	"long long int\000"
 509      206C6F6E 
 509      6720696E 
 509      7400
 510              	.LASF1:
 511 01f0 73686F72 		.ascii	"short int\000"
 511      7420696E 
 511      7400
 512              	.LASF18:
 513 01fa 5F5A3564 		.ascii	"_Z5delaym\000"
 513      656C6179 
 513      6D00
 514              	.LASF13:
 515 0204 75736563 		.ascii	"usecs\000"
 515      7300
 516              	.LASF8:
 517 020a 6D696C6C 		.ascii	"millis\000"
 517      697300
 518              	.LASF0:
 519 0211 7369676E 		.ascii	"signed char\000"
 519      65642063 
 519      68617200 
 520              		.ident	"GCC: (Debian 4.9.2-10) 4.9.2"
 521              		.section	.note.GNU-stack,"",%progbits
ARM GAS  /tmp/ccTurjej.s 			page 12


DEFINED SYMBOLS
                            *ABS*:00000000 arduino-time.cpp
     /tmp/ccTurjej.s:18     .text._Z6millisv:00000000 $t
     /tmp/ccTurjej.s:24     .text._Z6millisv:00000000 _Z6millisv
       .ARM.exidx.text._Z6millisv:00000000 $d
     /tmp/ccTurjej.s:40     .text._Z6microsv:00000000 $t
     /tmp/ccTurjej.s:46     .text._Z6microsv:00000000 _Z6microsv
       .ARM.exidx.text._Z6microsv:00000000 $d
     /tmp/ccTurjej.s:61     .text._Z5delaym:00000000 $t
     /tmp/ccTurjej.s:67     .text._Z5delaym:00000000 _Z5delaym
     /tmp/ccTurjej.s:95     .text._Z5delaym:0000000c $d
        .ARM.exidx.text._Z5delaym:00000000 $d
     /tmp/ccTurjej.s:102    .text._Z17delayMicrosecondsj:00000000 $t
     /tmp/ccTurjej.s:108    .text._Z17delayMicrosecondsj:00000000 _Z17delayMicrosecondsj
.ARM.exidx.text._Z17delayMicrosecondsj:00000000 $d
                     .debug_frame:00000010 $d

NO UNDEFINED SYMBOLS
