ARM GAS  /tmp/ccKyuyEk.s 			page 1


   1              		.cpu cortex-m0
   2              		.fpu softvfp
   3              		.eabi_attribute 20, 1
   4              		.eabi_attribute 21, 1
   5              		.eabi_attribute 23, 3
   6              		.eabi_attribute 24, 1
   7              		.eabi_attribute 25, 1
   8              		.eabi_attribute 26, 2
   9              		.eabi_attribute 30, 2
  10              		.eabi_attribute 34, 0
  11              		.eabi_attribute 18, 4
  12              		.code	16
  13              		.file	"arduino-math.cpp"
  14              		.text
  15              	.Ltext0:
  16              		.cfi_sections	.debug_frame
  17              		.section	.text._Z3maplllll,"ax",%progbits
  18              		.align	2
  19              		.p2align 4,,15
  20              		.global	_Z3maplllll
  21              		.code	16
  22              		.thumb_func
  23              		.type	_Z3maplllll, %function
  24              	_Z3maplllll:
  25              		.fnstart
  26              	.LFB17:
  27              		.file 1 "arduino-math.cpp"
  28              		.loc 1 3 0
  29              		.cfi_startproc
  30              	.LVL0:
  31              		.loc 1 5 0
  32 0000 0020     		mov	r0, #0
  33              	.LVL1:
  34              		@ sp needed
  35 0002 7047     		bx	lr
  36              		.cfi_endproc
  37              	.LFE17:
  38              		.cantunwind
  39              		.fnend
  40              		.size	_Z3maplllll, .-_Z3maplllll
  41 0004 C046C046 		.section	.text._Z6randomll,"ax",%progbits
  41      C046C046 
  41      C046C046 
  42              		.align	2
  43              		.p2align 4,,15
  44              		.global	_Z6randomll
  45              		.code	16
  46              		.thumb_func
  47              		.type	_Z6randomll, %function
  48              	_Z6randomll:
  49              		.fnstart
  50              	.LFB18:
  51              		.loc 1 7 0
  52              		.cfi_startproc
  53              	.LVL2:
  54              		.loc 1 9 0
  55 0000 0420     		mov	r0, #4
ARM GAS  /tmp/ccKyuyEk.s 			page 2


  56              	.LVL3:
  57              		@ sp needed
  58 0002 7047     		bx	lr
  59              		.cfi_endproc
  60              	.LFE18:
  61              		.cantunwind
  62              		.fnend
  63              		.size	_Z6randomll, .-_Z6randomll
  64 0004 C046C046 		.section	.text._Z10randomSeedm,"ax",%progbits
  64      C046C046 
  64      C046C046 
  65              		.align	2
  66              		.p2align 4,,15
  67              		.global	_Z10randomSeedm
  68              		.code	16
  69              		.thumb_func
  70              		.type	_Z10randomSeedm, %function
  71              	_Z10randomSeedm:
  72              		.fnstart
  73              	.LFB19:
  74              		.loc 1 11 0
  75              		.cfi_startproc
  76              	.LVL4:
  77              		.loc 1 13 0
  78 0000 0020     		mov	r0, #0
  79              	.LVL5:
  80              		@ sp needed
  81 0002 7047     		bx	lr
  82              		.cfi_endproc
  83              	.LFE19:
  84              		.cantunwind
  85              		.fnend
  86              		.size	_Z10randomSeedm, .-_Z10randomSeedm
  87 0004 C046C046 		.text
  87      C046C046 
  87      C046C046 
  88              	.Letext0:
  89              		.section	.debug_info,"",%progbits
  90              	.Ldebug_info0:
  91 0000 31010000 		.4byte	0x131
  92 0004 0400     		.2byte	0x4
  93 0006 00000000 		.4byte	.Ldebug_abbrev0
  94 000a 04       		.byte	0x4
  95 000b 01       		.uleb128 0x1
  96 000c 6E000000 		.4byte	.LASF19
  97 0010 04       		.byte	0x4
  98 0011 04020000 		.4byte	.LASF20
  99 0015 1D000000 		.4byte	.LASF21
 100 0019 00000000 		.4byte	.Ldebug_ranges0+0
 101 001d 00000000 		.4byte	0
 102 0021 00000000 		.4byte	.Ldebug_line0
 103 0025 02       		.uleb128 0x2
 104 0026 01       		.byte	0x1
 105 0027 06       		.byte	0x6
 106 0028 F8010000 		.4byte	.LASF0
 107 002c 02       		.uleb128 0x2
 108 002d 02       		.byte	0x2
ARM GAS  /tmp/ccKyuyEk.s 			page 3


 109 002e 05       		.byte	0x5
 110 002f C8010000 		.4byte	.LASF1
 111 0033 03       		.uleb128 0x3
 112 0034 04       		.byte	0x4
 113 0035 05       		.byte	0x5
 114 0036 696E7400 		.ascii	"int\000"
 115 003a 02       		.uleb128 0x2
 116 003b 08       		.byte	0x8
 117 003c 05       		.byte	0x5
 118 003d AA010000 		.4byte	.LASF2
 119 0041 02       		.uleb128 0x2
 120 0042 01       		.byte	0x1
 121 0043 08       		.byte	0x8
 122 0044 4D000000 		.4byte	.LASF3
 123 0048 02       		.uleb128 0x2
 124 0049 02       		.byte	0x2
 125 004a 07       		.byte	0x7
 126 004b 5B000000 		.4byte	.LASF4
 127 004f 02       		.uleb128 0x2
 128 0050 04       		.byte	0x4
 129 0051 07       		.byte	0x7
 130 0052 86010000 		.4byte	.LASF5
 131 0056 02       		.uleb128 0x2
 132 0057 08       		.byte	0x8
 133 0058 07       		.byte	0x7
 134 0059 93010000 		.4byte	.LASF6
 135 005d 04       		.uleb128 0x4
 136 005e 6D617000 		.ascii	"map\000"
 137 0062 01       		.byte	0x1
 138 0063 03       		.byte	0x3
 139 0064 D2010000 		.4byte	.LASF22
 140 0068 BF000000 		.4byte	0xbf
 141 006c 00000000 		.4byte	.LFB17
 142 0070 04000000 		.4byte	.LFE17-.LFB17
 143 0074 01       		.uleb128 0x1
 144 0075 9C       		.byte	0x9c
 145 0076 BF000000 		.4byte	0xbf
 146 007a 05       		.uleb128 0x5
 147 007b 00000000 		.4byte	.LASF7
 148 007f 01       		.byte	0x1
 149 0080 03       		.byte	0x3
 150 0081 BF000000 		.4byte	0xbf
 151 0085 00000000 		.4byte	.LLST0
 152 0089 06       		.uleb128 0x6
 153 008a 45000000 		.4byte	.LASF8
 154 008e 01       		.byte	0x1
 155 008f 03       		.byte	0x3
 156 0090 BF000000 		.4byte	0xbf
 157 0094 01       		.uleb128 0x1
 158 0095 51       		.byte	0x51
 159 0096 06       		.uleb128 0x6
 160 0097 B8010000 		.4byte	.LASF9
 161 009b 01       		.byte	0x1
 162 009c 03       		.byte	0x3
 163 009d BF000000 		.4byte	0xbf
 164 00a1 01       		.uleb128 0x1
 165 00a2 52       		.byte	0x52
ARM GAS  /tmp/ccKyuyEk.s 			page 4


 166 00a3 06       		.uleb128 0x6
 167 00a4 80010000 		.4byte	.LASF10
 168 00a8 01       		.byte	0x1
 169 00a9 03       		.byte	0x3
 170 00aa BF000000 		.4byte	0xbf
 171 00ae 01       		.uleb128 0x1
 172 00af 53       		.byte	0x53
 173 00b0 06       		.uleb128 0x6
 174 00b1 C1010000 		.4byte	.LASF11
 175 00b5 01       		.byte	0x1
 176 00b6 03       		.byte	0x3
 177 00b7 BF000000 		.4byte	0xbf
 178 00bb 02       		.uleb128 0x2
 179 00bc 91       		.byte	0x91
 180 00bd 00       		.sleb128 0
 181 00be 00       		.byte	0
 182 00bf 02       		.uleb128 0x2
 183 00c0 04       		.byte	0x4
 184 00c1 05       		.byte	0x5
 185 00c2 EF010000 		.4byte	.LASF12
 186 00c6 07       		.uleb128 0x7
 187 00c7 16000000 		.4byte	.LASF13
 188 00cb 01       		.byte	0x1
 189 00cc 07       		.byte	0x7
 190 00cd E3010000 		.4byte	.LASF15
 191 00d1 BF000000 		.4byte	0xbf
 192 00d5 00000000 		.4byte	.LFB18
 193 00d9 04000000 		.4byte	.LFE18-.LFB18
 194 00dd 01       		.uleb128 0x1
 195 00de 9C       		.byte	0x9c
 196 00df 00010000 		.4byte	0x100
 197 00e3 08       		.uleb128 0x8
 198 00e4 6D696E00 		.ascii	"min\000"
 199 00e8 01       		.byte	0x1
 200 00e9 07       		.byte	0x7
 201 00ea BF000000 		.4byte	0xbf
 202 00ee 21000000 		.4byte	.LLST1
 203 00f2 09       		.uleb128 0x9
 204 00f3 6D617800 		.ascii	"max\000"
 205 00f7 01       		.byte	0x1
 206 00f8 07       		.byte	0x7
 207 00f9 BF000000 		.4byte	0xbf
 208 00fd 01       		.uleb128 0x1
 209 00fe 51       		.byte	0x51
 210 00ff 00       		.byte	0
 211 0100 07       		.uleb128 0x7
 212 0101 15020000 		.4byte	.LASF14
 213 0105 01       		.byte	0x1
 214 0106 0B       		.byte	0xb
 215 0107 06000000 		.4byte	.LASF16
 216 010b BF000000 		.4byte	0xbf
 217 010f 00000000 		.4byte	.LFB19
 218 0113 04000000 		.4byte	.LFE19-.LFB19
 219 0117 01       		.uleb128 0x1
 220 0118 9C       		.byte	0x9c
 221 0119 2D010000 		.4byte	0x12d
 222 011d 05       		.uleb128 0x5
ARM GAS  /tmp/ccKyuyEk.s 			page 5


 223 011e DE010000 		.4byte	.LASF17
 224 0122 01       		.byte	0x1
 225 0123 0B       		.byte	0xb
 226 0124 2D010000 		.4byte	0x12d
 227 0128 42000000 		.4byte	.LLST2
 228 012c 00       		.byte	0
 229 012d 02       		.uleb128 0x2
 230 012e 04       		.byte	0x4
 231 012f 07       		.byte	0x7
 232 0130 6E010000 		.4byte	.LASF18
 233 0134 00       		.byte	0
 234              		.section	.debug_abbrev,"",%progbits
 235              	.Ldebug_abbrev0:
 236 0000 01       		.uleb128 0x1
 237 0001 11       		.uleb128 0x11
 238 0002 01       		.byte	0x1
 239 0003 25       		.uleb128 0x25
 240 0004 0E       		.uleb128 0xe
 241 0005 13       		.uleb128 0x13
 242 0006 0B       		.uleb128 0xb
 243 0007 03       		.uleb128 0x3
 244 0008 0E       		.uleb128 0xe
 245 0009 1B       		.uleb128 0x1b
 246 000a 0E       		.uleb128 0xe
 247 000b 55       		.uleb128 0x55
 248 000c 17       		.uleb128 0x17
 249 000d 11       		.uleb128 0x11
 250 000e 01       		.uleb128 0x1
 251 000f 10       		.uleb128 0x10
 252 0010 17       		.uleb128 0x17
 253 0011 00       		.byte	0
 254 0012 00       		.byte	0
 255 0013 02       		.uleb128 0x2
 256 0014 24       		.uleb128 0x24
 257 0015 00       		.byte	0
 258 0016 0B       		.uleb128 0xb
 259 0017 0B       		.uleb128 0xb
 260 0018 3E       		.uleb128 0x3e
 261 0019 0B       		.uleb128 0xb
 262 001a 03       		.uleb128 0x3
 263 001b 0E       		.uleb128 0xe
 264 001c 00       		.byte	0
 265 001d 00       		.byte	0
 266 001e 03       		.uleb128 0x3
 267 001f 24       		.uleb128 0x24
 268 0020 00       		.byte	0
 269 0021 0B       		.uleb128 0xb
 270 0022 0B       		.uleb128 0xb
 271 0023 3E       		.uleb128 0x3e
 272 0024 0B       		.uleb128 0xb
 273 0025 03       		.uleb128 0x3
 274 0026 08       		.uleb128 0x8
 275 0027 00       		.byte	0
 276 0028 00       		.byte	0
 277 0029 04       		.uleb128 0x4
 278 002a 2E       		.uleb128 0x2e
 279 002b 01       		.byte	0x1
ARM GAS  /tmp/ccKyuyEk.s 			page 6


 280 002c 3F       		.uleb128 0x3f
 281 002d 19       		.uleb128 0x19
 282 002e 03       		.uleb128 0x3
 283 002f 08       		.uleb128 0x8
 284 0030 3A       		.uleb128 0x3a
 285 0031 0B       		.uleb128 0xb
 286 0032 3B       		.uleb128 0x3b
 287 0033 0B       		.uleb128 0xb
 288 0034 6E       		.uleb128 0x6e
 289 0035 0E       		.uleb128 0xe
 290 0036 49       		.uleb128 0x49
 291 0037 13       		.uleb128 0x13
 292 0038 11       		.uleb128 0x11
 293 0039 01       		.uleb128 0x1
 294 003a 12       		.uleb128 0x12
 295 003b 06       		.uleb128 0x6
 296 003c 40       		.uleb128 0x40
 297 003d 18       		.uleb128 0x18
 298 003e 9742     		.uleb128 0x2117
 299 0040 19       		.uleb128 0x19
 300 0041 01       		.uleb128 0x1
 301 0042 13       		.uleb128 0x13
 302 0043 00       		.byte	0
 303 0044 00       		.byte	0
 304 0045 05       		.uleb128 0x5
 305 0046 05       		.uleb128 0x5
 306 0047 00       		.byte	0
 307 0048 03       		.uleb128 0x3
 308 0049 0E       		.uleb128 0xe
 309 004a 3A       		.uleb128 0x3a
 310 004b 0B       		.uleb128 0xb
 311 004c 3B       		.uleb128 0x3b
 312 004d 0B       		.uleb128 0xb
 313 004e 49       		.uleb128 0x49
 314 004f 13       		.uleb128 0x13
 315 0050 02       		.uleb128 0x2
 316 0051 17       		.uleb128 0x17
 317 0052 00       		.byte	0
 318 0053 00       		.byte	0
 319 0054 06       		.uleb128 0x6
 320 0055 05       		.uleb128 0x5
 321 0056 00       		.byte	0
 322 0057 03       		.uleb128 0x3
 323 0058 0E       		.uleb128 0xe
 324 0059 3A       		.uleb128 0x3a
 325 005a 0B       		.uleb128 0xb
 326 005b 3B       		.uleb128 0x3b
 327 005c 0B       		.uleb128 0xb
 328 005d 49       		.uleb128 0x49
 329 005e 13       		.uleb128 0x13
 330 005f 02       		.uleb128 0x2
 331 0060 18       		.uleb128 0x18
 332 0061 00       		.byte	0
 333 0062 00       		.byte	0
 334 0063 07       		.uleb128 0x7
 335 0064 2E       		.uleb128 0x2e
 336 0065 01       		.byte	0x1
ARM GAS  /tmp/ccKyuyEk.s 			page 7


 337 0066 3F       		.uleb128 0x3f
 338 0067 19       		.uleb128 0x19
 339 0068 03       		.uleb128 0x3
 340 0069 0E       		.uleb128 0xe
 341 006a 3A       		.uleb128 0x3a
 342 006b 0B       		.uleb128 0xb
 343 006c 3B       		.uleb128 0x3b
 344 006d 0B       		.uleb128 0xb
 345 006e 6E       		.uleb128 0x6e
 346 006f 0E       		.uleb128 0xe
 347 0070 49       		.uleb128 0x49
 348 0071 13       		.uleb128 0x13
 349 0072 11       		.uleb128 0x11
 350 0073 01       		.uleb128 0x1
 351 0074 12       		.uleb128 0x12
 352 0075 06       		.uleb128 0x6
 353 0076 40       		.uleb128 0x40
 354 0077 18       		.uleb128 0x18
 355 0078 9742     		.uleb128 0x2117
 356 007a 19       		.uleb128 0x19
 357 007b 01       		.uleb128 0x1
 358 007c 13       		.uleb128 0x13
 359 007d 00       		.byte	0
 360 007e 00       		.byte	0
 361 007f 08       		.uleb128 0x8
 362 0080 05       		.uleb128 0x5
 363 0081 00       		.byte	0
 364 0082 03       		.uleb128 0x3
 365 0083 08       		.uleb128 0x8
 366 0084 3A       		.uleb128 0x3a
 367 0085 0B       		.uleb128 0xb
 368 0086 3B       		.uleb128 0x3b
 369 0087 0B       		.uleb128 0xb
 370 0088 49       		.uleb128 0x49
 371 0089 13       		.uleb128 0x13
 372 008a 02       		.uleb128 0x2
 373 008b 17       		.uleb128 0x17
 374 008c 00       		.byte	0
 375 008d 00       		.byte	0
 376 008e 09       		.uleb128 0x9
 377 008f 05       		.uleb128 0x5
 378 0090 00       		.byte	0
 379 0091 03       		.uleb128 0x3
 380 0092 08       		.uleb128 0x8
 381 0093 3A       		.uleb128 0x3a
 382 0094 0B       		.uleb128 0xb
 383 0095 3B       		.uleb128 0x3b
 384 0096 0B       		.uleb128 0xb
 385 0097 49       		.uleb128 0x49
 386 0098 13       		.uleb128 0x13
 387 0099 02       		.uleb128 0x2
 388 009a 18       		.uleb128 0x18
 389 009b 00       		.byte	0
 390 009c 00       		.byte	0
 391 009d 00       		.byte	0
 392              		.section	.debug_loc,"",%progbits
 393              	.Ldebug_loc0:
ARM GAS  /tmp/ccKyuyEk.s 			page 8


 394              	.LLST0:
 395 0000 00000000 		.4byte	.LVL0
 396 0004 02000000 		.4byte	.LVL1
 397 0008 0100     		.2byte	0x1
 398 000a 50       		.byte	0x50
 399 000b 02000000 		.4byte	.LVL1
 400 000f 04000000 		.4byte	.LFE17
 401 0013 0400     		.2byte	0x4
 402 0015 F3       		.byte	0xf3
 403 0016 01       		.uleb128 0x1
 404 0017 50       		.byte	0x50
 405 0018 9F       		.byte	0x9f
 406 0019 00000000 		.4byte	0
 407 001d 00000000 		.4byte	0
 408              	.LLST1:
 409 0021 00000000 		.4byte	.LVL2
 410 0025 02000000 		.4byte	.LVL3
 411 0029 0100     		.2byte	0x1
 412 002b 50       		.byte	0x50
 413 002c 02000000 		.4byte	.LVL3
 414 0030 04000000 		.4byte	.LFE18
 415 0034 0400     		.2byte	0x4
 416 0036 F3       		.byte	0xf3
 417 0037 01       		.uleb128 0x1
 418 0038 50       		.byte	0x50
 419 0039 9F       		.byte	0x9f
 420 003a 00000000 		.4byte	0
 421 003e 00000000 		.4byte	0
 422              	.LLST2:
 423 0042 00000000 		.4byte	.LVL4
 424 0046 02000000 		.4byte	.LVL5
 425 004a 0100     		.2byte	0x1
 426 004c 50       		.byte	0x50
 427 004d 02000000 		.4byte	.LVL5
 428 0051 04000000 		.4byte	.LFE19
 429 0055 0400     		.2byte	0x4
 430 0057 F3       		.byte	0xf3
 431 0058 01       		.uleb128 0x1
 432 0059 50       		.byte	0x50
 433 005a 9F       		.byte	0x9f
 434 005b 00000000 		.4byte	0
 435 005f 00000000 		.4byte	0
 436              		.section	.debug_aranges,"",%progbits
 437 0000 2C000000 		.4byte	0x2c
 438 0004 0200     		.2byte	0x2
 439 0006 00000000 		.4byte	.Ldebug_info0
 440 000a 04       		.byte	0x4
 441 000b 00       		.byte	0
 442 000c 0000     		.2byte	0
 443 000e 0000     		.2byte	0
 444 0010 00000000 		.4byte	.LFB17
 445 0014 04000000 		.4byte	.LFE17-.LFB17
 446 0018 00000000 		.4byte	.LFB18
 447 001c 04000000 		.4byte	.LFE18-.LFB18
 448 0020 00000000 		.4byte	.LFB19
 449 0024 04000000 		.4byte	.LFE19-.LFB19
 450 0028 00000000 		.4byte	0
ARM GAS  /tmp/ccKyuyEk.s 			page 9


 451 002c 00000000 		.4byte	0
 452              		.section	.debug_ranges,"",%progbits
 453              	.Ldebug_ranges0:
 454 0000 00000000 		.4byte	.LFB17
 455 0004 04000000 		.4byte	.LFE17
 456 0008 00000000 		.4byte	.LFB18
 457 000c 04000000 		.4byte	.LFE18
 458 0010 00000000 		.4byte	.LFB19
 459 0014 04000000 		.4byte	.LFE19
 460 0018 00000000 		.4byte	0
 461 001c 00000000 		.4byte	0
 462              		.section	.debug_line,"",%progbits
 463              	.Ldebug_line0:
 464 0000 59000000 		.section	.debug_str,"MS",%progbits,1
 464      02002700 
 464      00000201 
 464      FB0E0D00 
 464      01010101 
 465              	.LASF7:
 466 0000 76616C75 		.ascii	"value\000"
 466      6500
 467              	.LASF16:
 468 0006 5F5A3130 		.ascii	"_Z10randomSeedm\000"
 468      72616E64 
 468      6F6D5365 
 468      65646D00 
 469              	.LASF13:
 470 0016 72616E64 		.ascii	"random\000"
 470      6F6D00
 471              	.LASF21:
 472 001d 2F686F6D 		.ascii	"/home/bunnie/code/chibi-chibios/orchard\000"
 472      652F6275 
 472      6E6E6965 
 472      2F636F64 
 472      652F6368 
 473              	.LASF8:
 474 0045 66726F6D 		.ascii	"fromLow\000"
 474      4C6F7700 
 475              	.LASF3:
 476 004d 756E7369 		.ascii	"unsigned char\000"
 476      676E6564 
 476      20636861 
 476      7200
 477              	.LASF4:
 478 005b 73686F72 		.ascii	"short unsigned int\000"
 478      7420756E 
 478      7369676E 
 478      65642069 
 478      6E7400
 479              	.LASF19:
 480 006e 474E5520 		.ascii	"GNU C++ 4.9.2 -mcpu=cortex-m0 -mfloat-abi=soft -mfp"
 480      432B2B20 
 480      342E392E 
 480      32202D6D 
 480      6370753D 
 481 00a1 31362D66 		.ascii	"16-format=none -mno-thumb-interwork -mthumb -mfloat"
 481      6F726D61 
ARM GAS  /tmp/ccKyuyEk.s 			page 10


 481      743D6E6F 
 481      6E65202D 
 481      6D6E6F2D 
 482 00d4 2D616269 		.ascii	"-abi=soft -mfpu=vfpv3-d16 -mtls-dialect=gnu -ggdb -"
 482      3D736F66 
 482      74202D6D 
 482      6670753D 
 482      76667076 
 483 0107 4F33202D 		.ascii	"O3 -fomit-frame-pointer -falign-functions=16 -ffunc"
 483      666F6D69 
 483      742D6672 
 483      616D652D 
 483      706F696E 
 484 013a 74696F6E 		.ascii	"tion-sections -fdata-sections -fno-common -fno-rtti"
 484      2D736563 
 484      74696F6E 
 484      73202D66 
 484      64617461 
 485 016d 00       		.ascii	"\000"
 486              	.LASF18:
 487 016e 6C6F6E67 		.ascii	"long unsigned int\000"
 487      20756E73 
 487      69676E65 
 487      6420696E 
 487      7400
 488              	.LASF10:
 489 0180 746F4C6F 		.ascii	"toLow\000"
 489      7700
 490              	.LASF5:
 491 0186 756E7369 		.ascii	"unsigned int\000"
 491      676E6564 
 491      20696E74 
 491      00
 492              	.LASF6:
 493 0193 6C6F6E67 		.ascii	"long long unsigned int\000"
 493      206C6F6E 
 493      6720756E 
 493      7369676E 
 493      65642069 
 494              	.LASF2:
 495 01aa 6C6F6E67 		.ascii	"long long int\000"
 495      206C6F6E 
 495      6720696E 
 495      7400
 496              	.LASF9:
 497 01b8 66726F6D 		.ascii	"fromHigh\000"
 497      48696768 
 497      00
 498              	.LASF11:
 499 01c1 746F4869 		.ascii	"toHigh\000"
 499      676800
 500              	.LASF1:
 501 01c8 73686F72 		.ascii	"short int\000"
 501      7420696E 
 501      7400
 502              	.LASF22:
 503 01d2 5F5A336D 		.ascii	"_Z3maplllll\000"
ARM GAS  /tmp/ccKyuyEk.s 			page 11


 503      61706C6C 
 503      6C6C6C00 
 504              	.LASF17:
 505 01de 73656564 		.ascii	"seed\000"
 505      00
 506              	.LASF15:
 507 01e3 5F5A3672 		.ascii	"_Z6randomll\000"
 507      616E646F 
 507      6D6C6C00 
 508              	.LASF12:
 509 01ef 6C6F6E67 		.ascii	"long int\000"
 509      20696E74 
 509      00
 510              	.LASF0:
 511 01f8 7369676E 		.ascii	"signed char\000"
 511      65642063 
 511      68617200 
 512              	.LASF20:
 513 0204 61726475 		.ascii	"arduino-math.cpp\000"
 513      696E6F2D 
 513      6D617468 
 513      2E637070 
 513      00
 514              	.LASF14:
 515 0215 72616E64 		.ascii	"randomSeed\000"
 515      6F6D5365 
 515      656400
 516              		.ident	"GCC: (Debian 4.9.2-10) 4.9.2"
 517              		.section	.note.GNU-stack,"",%progbits
ARM GAS  /tmp/ccKyuyEk.s 			page 12


DEFINED SYMBOLS
                            *ABS*:00000000 arduino-math.cpp
     /tmp/ccKyuyEk.s:18     .text._Z3maplllll:00000000 $t
     /tmp/ccKyuyEk.s:24     .text._Z3maplllll:00000000 _Z3maplllll
      .ARM.exidx.text._Z3maplllll:00000000 $d
     /tmp/ccKyuyEk.s:42     .text._Z6randomll:00000000 $t
     /tmp/ccKyuyEk.s:48     .text._Z6randomll:00000000 _Z6randomll
      .ARM.exidx.text._Z6randomll:00000000 $d
     /tmp/ccKyuyEk.s:65     .text._Z10randomSeedm:00000000 $t
     /tmp/ccKyuyEk.s:71     .text._Z10randomSeedm:00000000 _Z10randomSeedm
  .ARM.exidx.text._Z10randomSeedm:00000000 $d
                     .debug_frame:00000010 $d

NO UNDEFINED SYMBOLS
