ARM GAS  /tmp/ccxgpRfJ.s 			page 1


   1              		.cpu cortex-m0
   2              		.fpu softvfp
   3              		.eabi_attribute 20, 1
   4              		.eabi_attribute 21, 1
   5              		.eabi_attribute 23, 3
   6              		.eabi_attribute 24, 1
   7              		.eabi_attribute 25, 1
   8              		.eabi_attribute 26, 2
   9              		.eabi_attribute 30, 2
  10              		.eabi_attribute 34, 0
  11              		.eabi_attribute 18, 4
  12              		.code	16
  13              		.file	"chprintf.c"
  14              		.text
  15              	.Ltext0:
  16              		.cfi_sections	.debug_frame
  17              		.global	__aeabi_uidivmod
  18              		.global	__aeabi_uidiv
  19              		.section	.text.chvprintf,"ax",%progbits
  20              		.align	2
  21              		.p2align 4,,15
  22              		.global	chvprintf
  23              		.code	16
  24              		.thumb_func
  25              		.type	chvprintf, %function
  26              	chvprintf:
  27              	.LFB83:
  28              		.file 1 "../os/hal/lib/streams/chprintf.c"
  29              		.loc 1 121 0
  30              		.cfi_startproc
  31              	.LVL0:
  32 0000 F0B5     		push	{r4, r5, r6, r7, lr}
  33              		.cfi_def_cfa_offset 20
  34              		.cfi_offset 4, -20
  35              		.cfi_offset 5, -16
  36              		.cfi_offset 6, -12
  37              		.cfi_offset 7, -8
  38              		.cfi_offset 14, -4
  39 0002 5646     		mov	r6, r10
  40 0004 4D46     		mov	r5, r9
  41 0006 9246     		mov	r10, r2
  42              	.LVL1:
  43 0008 5F46     		mov	r7, fp
  44 000a 4446     		mov	r4, r8
  45              		.loc 1 124 0
  46 000c 0023     		mov	r3, #0
  47              		.loc 1 121 0
  48 000e F0B4     		push	{r4, r5, r6, r7}
  49              		.cfi_def_cfa_offset 36
  50              		.cfi_offset 8, -36
  51              		.cfi_offset 9, -32
  52              		.cfi_offset 10, -28
  53              		.cfi_offset 11, -24
  54 0010 5646     		mov	r6, r10
  55 0012 051C     		mov	r5, r0
  56 0014 8BB0     		sub	sp, sp, #44
  57              		.cfi_def_cfa_offset 80
ARM GAS  /tmp/ccxgpRfJ.s 			page 2


  58              		.loc 1 124 0
  59 0016 0093     		str	r3, [sp]
  60 0018 06AB     		add	r3, sp, #24
  61 001a 0533     		add	r3, r3, #5
  62 001c 07AA     		add	r2, sp, #28
  63              	.LVL2:
  64 001e 9B1A     		sub	r3, r3, r2
  65              		.loc 1 121 0
  66 0020 0191     		str	r1, [sp, #4]
  67 0022 0493     		str	r3, [sp, #16]
  68              	.LVL3:
  69              	.L2:
  70              		.loc 1 135 0
  71 0024 019B     		ldr	r3, [sp, #4]
  72 0026 1978     		ldrb	r1, [r3]
  73 0028 5F1C     		add	r7, r3, #1
  74              	.LVL4:
  75              		.loc 1 136 0
  76 002a 0029     		cmp	r1, #0
  77 002c 0ED0     		beq	.L121
  78              	.L136:
  79              		.loc 1 138 0
  80 002e 2529     		cmp	r1, #37
  81 0030 14D0     		beq	.L4
  82              		.loc 1 139 0
  83 0032 2B68     		ldr	r3, [r5]
  84 0034 281C     		mov	r0, r5
  85 0036 9B68     		ldr	r3, [r3, #8]
  86 0038 9847     		blx	r3
  87              	.LVL5:
  88              		.loc 1 140 0
  89 003a 009B     		ldr	r3, [sp]
  90              		.loc 1 135 0
  91 003c 0197     		str	r7, [sp, #4]
  92              		.loc 1 140 0
  93 003e 0133     		add	r3, r3, #1
  94 0040 0093     		str	r3, [sp]
  95              	.LVL6:
  96              		.loc 1 135 0
  97 0042 019B     		ldr	r3, [sp, #4]
  98              	.LVL7:
  99 0044 1978     		ldrb	r1, [r3]
 100 0046 5F1C     		add	r7, r3, #1
 101              	.LVL8:
 102              		.loc 1 136 0
 103 0048 0029     		cmp	r1, #0
 104 004a F0D1     		bne	.L136
 105              	.L121:
 106              		.loc 1 277 0
 107 004c 0098     		ldr	r0, [sp]
 108 004e 0BB0     		add	sp, sp, #44
 109              	.LVL9:
 110              		@ sp needed
 111              	.LVL10:
 112              	.LVL11:
 113 0050 3CBC     		pop	{r2, r3, r4, r5}
 114 0052 9046     		mov	r8, r2
ARM GAS  /tmp/ccxgpRfJ.s 			page 3


 115 0054 9946     		mov	r9, r3
 116 0056 A246     		mov	r10, r4
 117 0058 AB46     		mov	fp, r5
 118 005a F0BD     		pop	{r4, r5, r6, r7, pc}
 119              	.LVL12:
 120              	.L4:
 121              		.loc 1 146 0
 122 005c 019B     		ldr	r3, [sp, #4]
 123 005e 5B78     		ldrb	r3, [r3, #1]
 124 0060 2D2B     		cmp	r3, #45
 125 0062 00D1     		bne	.LCB118
 126 0064 EEE1     		b	.L137	@long jump
 127              	.LCB118:
 128              		.loc 1 145 0
 129 0066 0022     		mov	r2, #0
 130 0068 0392     		str	r2, [sp, #12]
 131              	.LVL13:
 132              	.L6:
 133              		.loc 1 150 0
 134 006a 2022     		mov	r2, #32
 135 006c 9246     		mov	r10, r2
 136              		.loc 1 151 0
 137 006e 302B     		cmp	r3, #48
 138 0070 00D1     		bne	.LCB131
 139 0072 E4E1     		b	.L138	@long jump
 140              	.LCB131:
 141              	.LVL14:
 142              	.L7:
 143              		.loc 1 155 0
 144 0074 0023     		mov	r3, #0
 145 0076 1C1C     		mov	r4, r3
 146 0078 05E0     		b	.L10
 147              	.LVL15:
 148              	.L139:
 149              		.loc 1 161 0
 150 007a 3278     		ldrb	r2, [r6]
 151              	.LVL16:
 152 007c 0436     		add	r6, r6, #4
 153              	.LVL17:
 154              	.L8:
 155              		.loc 1 164 0
 156 007e A300     		lsl	r3, r4, #2
 157 0080 1C19     		add	r4, r3, r4
 158              	.LVL18:
 159 0082 6400     		lsl	r4, r4, #1
 160 0084 A418     		add	r4, r4, r2
 161              	.LVL19:
 162              	.L10:
 163              		.loc 1 157 0
 164 0086 0137     		add	r7, r7, #1
 165              	.LVL20:
 166 0088 7B1E     		sub	r3, r7, #1
 167 008a 1B78     		ldrb	r3, [r3]
 168              	.LVL21:
 169              		.loc 1 158 0
 170 008c 1A1C     		mov	r2, r3
 171 008e 303A     		sub	r2, r2, #48
ARM GAS  /tmp/ccxgpRfJ.s 			page 4


 172 0090 D2B2     		uxtb	r2, r2
 173 0092 092A     		cmp	r2, #9
 174 0094 F3D9     		bls	.L8
 175              		.loc 1 160 0
 176 0096 2A2B     		cmp	r3, #42
 177 0098 EFD0     		beq	.L139
 178 009a 0294     		str	r4, [sp, #8]
 179              	.LVL22:
 180              		.loc 1 166 0
 181 009c 0022     		mov	r2, #0
 182              		.loc 1 167 0
 183 009e 2E2B     		cmp	r3, #46
 184 00a0 13D0     		beq	.L13
 185              	.LVL23:
 186              		.loc 1 181 0
 187 00a2 DF21     		mov	r1, #223
 188 00a4 1940     		and	r1, r3
 189 00a6 4C29     		cmp	r1, #76
 190 00a8 1ED0     		beq	.L140
 191              	.L122:
 192              	.LVL24:
 193              		.loc 1 190 0
 194 00aa 181C     		mov	r0, r3
 195 00ac 4438     		sub	r0, r0, #68
 196 00ae C0B2     		uxtb	r0, r0
 197 00b0 3428     		cmp	r0, #52
 198 00b2 00D9     		bls	.LCB207
 199 00b4 B9E1     		b	.L16	@long jump
 200              	.LCB207:
 201 00b6 DA4C     		ldr	r4, .L146
 202              	.LVL25:
 203 00b8 8000     		lsl	r0, r0, #2
 204 00ba 2058     		ldr	r0, [r4, r0]
 205 00bc 8746     		mov	pc, r0
 206              		.section	.rodata.chvprintf,"a",%progbits
 207              		.align	2
 208              	.L25:
 209 0000 20030000 		.word	.L33
 210 0004 2A040000 		.word	.L16
 211 0008 2A040000 		.word	.L16
 212 000c 2A040000 		.word	.L16
 213 0010 2A040000 		.word	.L16
 214 0014 20030000 		.word	.L33
 215 0018 2A040000 		.word	.L16
 216 001c 2A040000 		.word	.L16
 217 0020 2A040000 		.word	.L16
 218 0024 2A040000 		.word	.L16
 219 0028 2A040000 		.word	.L16
 220 002c 18020000 		.word	.L19
 221 0030 2A040000 		.word	.L16
 222 0034 2A040000 		.word	.L16
 223 0038 2A040000 		.word	.L16
 224 003c 2A040000 		.word	.L16
 225 0040 2A040000 		.word	.L16
 226 0044 18040000 		.word	.L20
 227 0048 2A040000 		.word	.L16
 228 004c 2A040000 		.word	.L16
ARM GAS  /tmp/ccxgpRfJ.s 			page 5


 229 0050 60040000 		.word	.L79
 230 0054 2A040000 		.word	.L16
 231 0058 2A040000 		.word	.L16
 232 005c 2A040000 		.word	.L16
 233 0060 2A040000 		.word	.L16
 234 0064 2A040000 		.word	.L16
 235 0068 2A040000 		.word	.L16
 236 006c 2A040000 		.word	.L16
 237 0070 2A040000 		.word	.L16
 238 0074 2A040000 		.word	.L16
 239 0078 2A040000 		.word	.L16
 240 007c 5E010000 		.word	.L22
 241 0080 20030000 		.word	.L33
 242 0084 2A040000 		.word	.L16
 243 0088 2A040000 		.word	.L16
 244 008c 2A040000 		.word	.L16
 245 0090 2A040000 		.word	.L16
 246 0094 20030000 		.word	.L33
 247 0098 2A040000 		.word	.L16
 248 009c 2A040000 		.word	.L16
 249 00a0 2A040000 		.word	.L16
 250 00a4 2A040000 		.word	.L16
 251 00a8 2A040000 		.word	.L16
 252 00ac 18020000 		.word	.L19
 253 00b0 2A040000 		.word	.L16
 254 00b4 2A040000 		.word	.L16
 255 00b8 2A040000 		.word	.L16
 256 00bc 06010000 		.word	.L23
 257 00c0 2A040000 		.word	.L16
 258 00c4 18040000 		.word	.L20
 259 00c8 2A040000 		.word	.L16
 260 00cc 2A040000 		.word	.L16
 261 00d0 60040000 		.word	.L79
 262              		.section	.text.chvprintf
 263              	.LVL26:
 264              	.L141:
 265              		.loc 1 173 0
 266 00be 3178     		ldrb	r1, [r6]
 267              	.LVL27:
 268 00c0 0436     		add	r6, r6, #4
 269              	.LVL28:
 270              	.L12:
 271              		.loc 1 176 0
 272 00c2 9300     		lsl	r3, r2, #2
 273 00c4 9A18     		add	r2, r3, r2
 274              	.LVL29:
 275 00c6 5200     		lsl	r2, r2, #1
 276              	.LVL30:
 277              		.loc 1 177 0
 278 00c8 8A18     		add	r2, r1, r2
 279              	.LVL31:
 280              	.L13:
 281              		.loc 1 169 0
 282 00ca 0137     		add	r7, r7, #1
 283              	.LVL32:
 284 00cc 7B1E     		sub	r3, r7, #1
 285 00ce 1B78     		ldrb	r3, [r3]
ARM GAS  /tmp/ccxgpRfJ.s 			page 6


 286              	.LVL33:
 287              		.loc 1 170 0
 288 00d0 191C     		mov	r1, r3
 289 00d2 3039     		sub	r1, r1, #48
 290 00d4 C9B2     		uxtb	r1, r1
 291 00d6 0929     		cmp	r1, #9
 292 00d8 F3D9     		bls	.L12
 293              		.loc 1 172 0
 294 00da 2A2B     		cmp	r3, #42
 295 00dc EFD0     		beq	.L141
 296              		.loc 1 181 0
 297 00de DF21     		mov	r1, #223
 298 00e0 0294     		str	r4, [sp, #8]
 299 00e2 1940     		and	r1, r3
 300 00e4 4C29     		cmp	r1, #76
 301 00e6 E0D1     		bne	.L122
 302              	.L140:
 303              	.LVL34:
 304              		.loc 1 183 0
 305 00e8 3978     		ldrb	r1, [r7]
 306 00ea 0029     		cmp	r1, #0
 307 00ec 00D1     		bne	.LCB280
 308 00ee 9CE1     		b	.L16	@long jump
 309              	.LCB280:
 310              		.loc 1 190 0
 311 00f0 0B1C     		mov	r3, r1
 312              	.LVL35:
 313 00f2 443B     		sub	r3, r3, #68
 314 00f4 DBB2     		uxtb	r3, r3
 315              		.loc 1 184 0
 316 00f6 0137     		add	r7, r7, #1
 317              	.LVL36:
 318              		.loc 1 190 0
 319 00f8 342B     		cmp	r3, #52
 320 00fa 00D9     		bls	.LCB292
 321 00fc 94E1     		b	.L76	@long jump
 322              	.LCB292:
 323 00fe C948     		ldr	r0, .L146+4
 324 0100 9B00     		lsl	r3, r3, #2
 325 0102 C358     		ldr	r3, [r0, r3]
 326 0104 9F46     		mov	pc, r3
 327              		.section	.rodata.chvprintf
 328              		.align	2
 329              	.L18:
 330 00d4 20030000 		.word	.L33
 331 00d8 28040000 		.word	.L76
 332 00dc 28040000 		.word	.L76
 333 00e0 28040000 		.word	.L76
 334 00e4 28040000 		.word	.L76
 335 00e8 20030000 		.word	.L33
 336 00ec 28040000 		.word	.L76
 337 00f0 28040000 		.word	.L76
 338 00f4 28040000 		.word	.L76
 339 00f8 28040000 		.word	.L76
 340 00fc 28040000 		.word	.L76
 341 0100 18020000 		.word	.L19
 342 0104 28040000 		.word	.L76
ARM GAS  /tmp/ccxgpRfJ.s 			page 7


 343 0108 28040000 		.word	.L76
 344 010c 28040000 		.word	.L76
 345 0110 28040000 		.word	.L76
 346 0114 28040000 		.word	.L76
 347 0118 18040000 		.word	.L20
 348 011c 28040000 		.word	.L76
 349 0120 28040000 		.word	.L76
 350 0124 B4040000 		.word	.L21
 351 0128 28040000 		.word	.L76
 352 012c 28040000 		.word	.L76
 353 0130 28040000 		.word	.L76
 354 0134 28040000 		.word	.L76
 355 0138 28040000 		.word	.L76
 356 013c 28040000 		.word	.L76
 357 0140 28040000 		.word	.L76
 358 0144 28040000 		.word	.L76
 359 0148 28040000 		.word	.L76
 360 014c 28040000 		.word	.L76
 361 0150 5E010000 		.word	.L22
 362 0154 20030000 		.word	.L33
 363 0158 28040000 		.word	.L76
 364 015c 28040000 		.word	.L76
 365 0160 28040000 		.word	.L76
 366 0164 28040000 		.word	.L76
 367 0168 20030000 		.word	.L33
 368 016c 28040000 		.word	.L76
 369 0170 28040000 		.word	.L76
 370 0174 28040000 		.word	.L76
 371 0178 28040000 		.word	.L76
 372 017c 28040000 		.word	.L76
 373 0180 18020000 		.word	.L19
 374 0184 28040000 		.word	.L76
 375 0188 28040000 		.word	.L76
 376 018c 28040000 		.word	.L76
 377 0190 06010000 		.word	.L23
 378 0194 28040000 		.word	.L76
 379 0198 18040000 		.word	.L20
 380 019c 28040000 		.word	.L76
 381 01a0 28040000 		.word	.L76
 382 01a4 B4040000 		.word	.L21
 383              		.section	.text.chvprintf
 384              	.LVL37:
 385              	.L23:
 386              		.loc 1 197 0
 387 0106 3368     		ldr	r3, [r6]
 388 0108 311D     		add	r1, r6, #4
 389 010a 9846     		mov	r8, r3
 390              	.LVL38:
 391 010c 002B     		cmp	r3, #0
 392 010e 00D1     		bne	.LCB315
 393 0110 EBE1     		b	.L142	@long jump
 394              	.LCB315:
 395              	.LVL39:
 396              	.L28:
 397              		.loc 1 201 0
 398 0112 4346     		mov	r3, r8
 399 0114 1B78     		ldrb	r3, [r3]
ARM GAS  /tmp/ccxgpRfJ.s 			page 8


 400              		.loc 1 199 0
 401 0116 002A     		cmp	r2, #0
 402 0118 00D1     		bne	.LCB322
 403 011a A5E1     		b	.L29	@long jump
 404              	.LCB322:
 405              	.LVL40:
 406              		.loc 1 201 0 discriminator 1
 407 011c 002B     		cmp	r3, #0
 408 011e 00D1     		bne	.LCB326
 409 0120 E6E1     		b	.L30	@long jump
 410              	.LCB326:
 411              		.loc 1 201 0 is_stmt 0
 412 0122 013A     		sub	r2, r2, #1
 413              	.LVL41:
 414              	.L67:
 415              		.loc 1 201 0 discriminator 4
 416 0124 4346     		mov	r3, r8
 417 0126 029C     		ldr	r4, [sp, #8]
 418 0128 01E0     		b	.L32
 419              	.LVL42:
 420              	.L143:
 421              		.loc 1 201 0 discriminator 3
 422 012a 013A     		sub	r2, r2, #1
 423 012c 03D4     		bmi	.L130
 424              	.LVL43:
 425              	.L32:
 426              		.loc 1 201 0 discriminator 4
 427 012e 0133     		add	r3, r3, #1
 428              	.LVL44:
 429 0130 1878     		ldrb	r0, [r3]
 430 0132 0028     		cmp	r0, #0
 431 0134 F9D1     		bne	.L143
 432              	.L130:
 433              		.loc 1 197 0 is_stmt 1
 434 0136 0E1C     		mov	r6, r1
 435              		.loc 1 196 0
 436 0138 2021     		mov	r1, #32
 437 013a 4246     		mov	r2, r8
 438              	.LVL45:
 439 013c 8A46     		mov	r10, r1
 440 013e 211C     		mov	r1, r4
 441 0140 9B1A     		sub	r3, r3, r2
 442              	.LVL46:
 443 0142 0294     		str	r4, [sp, #8]
 444              	.LVL47:
 445              		.loc 1 251 0
 446 0144 CC1A     		sub	r4, r1, r3
 447 0146 5A1E     		sub	r2, r3, #1
 448              	.LVL48:
 449 0148 E343     		mvn	r3, r4
 450              	.LVL49:
 451 014a DB17     		asr	r3, r3, #31
 452 014c 1C40     		and	r4, r3
 453              	.LVL50:
 454              		.loc 1 253 0
 455 014e 039B     		ldr	r3, [sp, #12]
 456              		.loc 1 201 0
ARM GAS  /tmp/ccxgpRfJ.s 			page 9


 457 0150 0197     		str	r7, [sp, #4]
 458 0152 9146     		mov	r9, r2
 459              		.loc 1 253 0
 460 0154 002B     		cmp	r3, #0
 461 0156 17D0     		beq	.L70
 462              	.LVL51:
 463              	.L57:
 464              		.loc 1 266 0
 465 0158 002A     		cmp	r2, #0
 466 015a 34DA     		bge	.L68
 467 015c 48E0     		b	.L62
 468              	.LVL52:
 469              	.L22:
 470              		.loc 1 192 0
 471 015e 2021     		mov	r1, #32
 472              		.loc 1 193 0
 473 0160 3278     		ldrb	r2, [r6]
 474              	.LVL53:
 475 0162 06AB     		add	r3, sp, #24
 476 0164 1A71     		strb	r2, [r3, #4]
 477              		.loc 1 192 0
 478 0166 8A46     		mov	r10, r1
 479 0168 049A     		ldr	r2, [sp, #16]
 480              		.loc 1 144 0
 481 016a 07A9     		add	r1, sp, #28
 482              	.LVL54:
 483 016c 8846     		mov	r8, r1
 484 016e 0299     		ldr	r1, [sp, #8]
 485              	.LVL55:
 486 0170 131C     		mov	r3, r2
 487              		.loc 1 193 0
 488 0172 0436     		add	r6, r6, #4
 489 0174 013A     		sub	r2, r2, #1
 490              		.loc 1 194 0
 491 0176 0197     		str	r7, [sp, #4]
 492              	.LVL56:
 493              	.L27:
 494              		.loc 1 251 0
 495 0178 CC1A     		sub	r4, r1, r3
 496 017a E343     		mvn	r3, r4
 497              	.LVL57:
 498 017c DB17     		asr	r3, r3, #31
 499 017e 1C40     		and	r4, r3
 500              	.LVL58:
 501              		.loc 1 253 0
 502 0180 039B     		ldr	r3, [sp, #12]
 503 0182 9146     		mov	r9, r2
 504 0184 002B     		cmp	r3, #0
 505 0186 E7D1     		bne	.L57
 506              	.LVL59:
 507              	.L70:
 508              		.loc 1 254 0
 509 0188 6742     		neg	r7, r4
 510              	.LVL60:
 511              		.loc 1 255 0
 512 018a 002F     		cmp	r7, #0
 513 018c 00D1     		bne	.LCB466
ARM GAS  /tmp/ccxgpRfJ.s 			page 10


 514 018e 5FE1     		b	.L58	@long jump
 515              	.LCB466:
 516              		.loc 1 256 0
 517 0190 4346     		mov	r3, r8
 518 0192 1B78     		ldrb	r3, [r3]
 519 0194 2D2B     		cmp	r3, #45
 520 0196 00D1     		bne	.LCB470
 521 0198 76E1     		b	.L144	@long jump
 522              	.LCB470:
 523              	.L59:
 524              		.loc 1 258 0 discriminator 1
 525 019a 331C     		mov	r3, r6
 526 019c 3C1C     		mov	r4, r7
 527 019e 5646     		mov	r6, r10
 528 01a0 9A46     		mov	r10, r3
 529              	.LVL61:
 530              	.L60:
 531              		.loc 1 262 0 discriminator 1
 532 01a2 2B68     		ldr	r3, [r5]
 533 01a4 281C     		mov	r0, r5
 534 01a6 9B68     		ldr	r3, [r3, #8]
 535 01a8 311C     		mov	r1, r6
 536              		.loc 1 264 0 discriminator 1
 537 01aa 0134     		add	r4, r4, #1
 538              	.LVL62:
 539              		.loc 1 262 0 discriminator 1
 540 01ac 9847     		blx	r3
 541              	.LVL63:
 542              		.loc 1 264 0 discriminator 1
 543 01ae 002C     		cmp	r4, #0
 544 01b0 F7D1     		bne	.L60
 545 01b2 5346     		mov	r3, r10
 546 01b4 B246     		mov	r10, r6
 547 01b6 1E1C     		mov	r6, r3
 548 01b8 009B     		ldr	r3, [sp]
 549 01ba DB1B     		sub	r3, r3, r7
 550 01bc 0093     		str	r3, [sp]
 551              	.LVL64:
 552              		.loc 1 266 0
 553 01be 4B46     		mov	r3, r9
 554              	.LVL65:
 555 01c0 002B     		cmp	r3, #0
 556 01c2 00DA     		bge	.LCB511
 557 01c4 2EE7     		b	.L2	@long jump
 558              	.LCB511:
 559              	.LVL66:
 560              	.L68:
 561 01c6 4746     		mov	r7, r8
 562 01c8 A046     		mov	r8, r4
 563              	.LVL67:
 564 01ca 4C46     		mov	r4, r9
 565              	.LVL68:
 566              	.L63:
 567              		.loc 1 267 0
 568 01cc 2B68     		ldr	r3, [r5]
 569 01ce 3978     		ldrb	r1, [r7]
 570 01d0 9B68     		ldr	r3, [r3, #8]
ARM GAS  /tmp/ccxgpRfJ.s 			page 11


 571 01d2 281C     		mov	r0, r5
 572 01d4 9847     		blx	r3
 573              	.LVL69:
 574 01d6 0137     		add	r7, r7, #1
 575              	.LVL70:
 576              		.loc 1 266 0
 577 01d8 013C     		sub	r4, r4, #1
 578 01da F7D2     		bcs	.L63
 579              	.LVL71:
 580 01dc 4B46     		mov	r3, r9
 581 01de DB43     		mvn	r3, r3
 582 01e0 4946     		mov	r1, r9
 583 01e2 4446     		mov	r4, r8
 584              	.LVL72:
 585 01e4 009A     		ldr	r2, [sp]
 586 01e6 DB17     		asr	r3, r3, #31
 587 01e8 0132     		add	r2, r2, #1
 588 01ea 0B40     		and	r3, r1
 589 01ec D318     		add	r3, r2, r3
 590 01ee 0093     		str	r3, [sp]
 591              	.LVL73:
 592              	.L62:
 593              		.loc 1 271 0
 594 01f0 002C     		cmp	r4, #0
 595 01f2 00D1     		bne	.LCB564
 596 01f4 16E7     		b	.L2	@long jump
 597              	.LCB564:
 598 01f6 271C     		mov	r7, r4
 599 01f8 A046     		mov	r8, r4
 600 01fa 5446     		mov	r4, r10
 601              	.LVL74:
 602              	.L65:
 603              		.loc 1 272 0
 604 01fc 2B68     		ldr	r3, [r5]
 605 01fe 281C     		mov	r0, r5
 606 0200 9B68     		ldr	r3, [r3, #8]
 607 0202 211C     		mov	r1, r4
 608              		.loc 1 274 0
 609 0204 013F     		sub	r7, r7, #1
 610              	.LVL75:
 611              		.loc 1 272 0
 612 0206 9847     		blx	r3
 613              	.LVL76:
 614              		.loc 1 271 0
 615 0208 002F     		cmp	r7, #0
 616 020a F7D1     		bne	.L65
 617 020c 009B     		ldr	r3, [sp]
 618 020e 9C46     		mov	ip, r3
 619 0210 C444     		add	ip, ip, r8
 620 0212 6346     		mov	r3, ip
 621 0214 0093     		str	r3, [sp]
 622 0216 05E7     		b	.L2
 623              	.LVL77:
 624              	.L19:
 625 0218 0823     		mov	r3, #8
 626 021a 9B46     		mov	fp, r3
 627 021c 0197     		str	r7, [sp, #4]
ARM GAS  /tmp/ccxgpRfJ.s 			page 12


 628              	.L26:
 629              	.LVL78:
 630              	.L44:
 631              		.loc 1 243 0
 632 021e 3368     		ldr	r3, [r6]
 633              	.LBB14:
 634              	.LBB15:
 635              	.LBB16:
 636              		.loc 1 52 0
 637 0220 06AA     		add	r2, sp, #24
 638              	.LVL79:
 639              	.LBE16:
 640              	.LBE15:
 641              	.LBE14:
 642              		.loc 1 243 0
 643 0222 9946     		mov	r9, r3
 644              	.LVL80:
 645              	.LBB25:
 646              	.LBB21:
 647              	.LBB17:
 648              		.loc 1 52 0
 649 0224 9446     		mov	ip, r2
 650 0226 0F23     		mov	r3, #15
 651              	.LVL81:
 652 0228 6344     		add	r3, r3, ip
 653 022a 1F1C     		mov	r7, r3
 654              	.LVL82:
 655 022c 2B1C     		mov	r3, r5
 656 022e 029A     		ldr	r2, [sp, #8]
 657              	.LBE17:
 658              	.LBE21:
 659              	.LBE25:
 660              		.loc 1 243 0
 661 0230 0436     		add	r6, r6, #4
 662              	.LVL83:
 663              	.LBB26:
 664              	.LBB22:
 665              	.LBB18:
 666              		.loc 1 52 0
 667 0232 4D46     		mov	r5, r9
 668              	.LVL84:
 669 0234 4C46     		mov	r4, r9
 670 0236 9046     		mov	r8, r2
 671 0238 B146     		mov	r9, r6
 672              	.LVL85:
 673 023a 5E46     		mov	r6, fp
 674 023c 9B46     		mov	fp, r3
 675              	.LVL86:
 676              	.L48:
 677              		.loc 1 54 0
 678 023e 201C     		mov	r0, r4
 679 0240 311C     		mov	r1, r6
 680 0242 FFF7FEFF 		bl	__aeabi_uidivmod
 681              	.LVL87:
 682              		.loc 1 57 0
 683 0246 0B1C     		mov	r3, r1
 684 0248 3031     		add	r1, r1, #48
ARM GAS  /tmp/ccxgpRfJ.s 			page 13


 685 024a 3733     		add	r3, r3, #55
 686              		.loc 1 58 0
 687 024c 013F     		sub	r7, r7, #1
 688              	.LVL88:
 689 024e 3929     		cmp	r1, #57
 690 0250 00DD     		ble	.L47
 691 0252 191C     		mov	r1, r3
 692              	.L47:
 693 0254 3970     		strb	r1, [r7]
 694              		.loc 1 59 0
 695 0256 201C     		mov	r0, r4
 696 0258 311C     		mov	r1, r6
 697 025a FFF7FEFF 		bl	__aeabi_uidiv
 698              	.LVL89:
 699              		.loc 1 60 0
 700 025e 311C     		mov	r1, r6
 701              		.loc 1 59 0
 702 0260 041C     		mov	r4, r0
 703              	.LVL90:
 704              		.loc 1 60 0
 705 0262 281C     		mov	r0, r5
 706              	.LVL91:
 707 0264 FFF7FEFF 		bl	__aeabi_uidiv
 708              	.LVL92:
 709 0268 051E     		sub	r5, r0, #0
 710              	.LVL93:
 711 026a E8D1     		bne	.L48
 712 026c 4346     		mov	r3, r8
 713              		.loc 1 62 0
 714 026e 06AA     		add	r2, sp, #24
 715 0270 9446     		mov	ip, r2
 716 0272 0293     		str	r3, [sp, #8]
 717              	.LVL94:
 718 0274 0F23     		mov	r3, #15
 719 0276 8046     		mov	r8, r0
 720 0278 0821     		mov	r1, #8
 721 027a 0320     		mov	r0, #3
 722              	.LVL95:
 723 027c 6344     		add	r3, r3, ip
 724 027e DA1B     		sub	r2, r3, r7
 725 0280 9142     		cmp	r1, r2
 726 0282 8941     		sbc	r1, r1, r1
 727 0284 3840     		and	r0, r7
 728 0286 4442     		neg	r4, r0
 729 0288 4441     		adc	r4, r4, r0
 730              	.LVL96:
 731 028a 4942     		neg	r1, r1
 732 028c 4E46     		mov	r6, r9
 733              	.LVL97:
 734 028e 5D46     		mov	r5, fp
 735              	.LVL98:
 736 0290 9146     		mov	r9, r2
 737 0292 0C42     		tst	r4, r1
 738 0294 00D1     		bne	.LCB742
 739 0296 EBE0     		b	.L83	@long jump
 740              	.LCB742:
 741              	.LVL99:
ARM GAS  /tmp/ccxgpRfJ.s 			page 14


 742 0298 4046     		mov	r0, r8
 743 029a 4446     		mov	r4, r8
 744 029c 391D     		add	r1, r7, #4
 745 029e 07AB     		add	r3, sp, #28
 746              	.LVL100:
 747 02a0 8B42     		cmp	r3, r1
 748 02a2 4041     		adc	r0, r0, r0
 749 02a4 08A9     		add	r1, sp, #32
 750 02a6 8F42     		cmp	r7, r1
 751 02a8 6441     		adc	r4, r4, r4
 752 02aa 211C     		mov	r1, r4
 753 02ac 0143     		orr	r1, r0
 754 02ae C9B2     		uxtb	r1, r1
 755 02b0 0029     		cmp	r1, #0
 756 02b2 00D1     		bne	.LCB759
 757 02b4 DCE0     		b	.L83	@long jump
 758              	.LCB759:
 759 02b6 111F     		sub	r1, r2, #4
 760 02b8 8908     		lsr	r1, r1, #2
 761 02ba 0131     		add	r1, r1, #1
 762 02bc 8B00     		lsl	r3, r1, #2
 763              	.LVL101:
 764 02be 501E     		sub	r0, r2, #1
 765 02c0 9846     		mov	r8, r3
 766              	.LVL102:
 767 02c2 0228     		cmp	r0, #2
 768 02c4 00D8     		bhi	.LCB772
 769 02c6 C9E0     		b	.L84	@long jump
 770              	.LCB772:
 771 02c8 0023     		mov	r3, #0
 772 02ca 9C46     		mov	ip, r3
 773 02cc 029B     		ldr	r3, [sp, #8]
 774 02ce 0020     		mov	r0, #0
 775 02d0 9B46     		mov	fp, r3
 776 02d2 0B1C     		mov	r3, r1
 777 02d4 6146     		mov	r1, ip
 778 02d6 9446     		mov	ip, r2
 779 02d8 0592     		str	r2, [sp, #20]
 780              	.LVL103:
 781              	.L51:
 782              		.loc 1 64 0
 783 02da 3C58     		ldr	r4, [r7, r0]
 784 02dc 07AA     		add	r2, sp, #28
 785              	.LVL104:
 786 02de 0131     		add	r1, r1, #1
 787 02e0 1450     		str	r4, [r2, r0]
 788 02e2 0430     		add	r0, r0, #4
 789 02e4 9942     		cmp	r1, r3
 790 02e6 F8D3     		bcc	.L51
 791 02e8 5B46     		mov	r3, fp
 792 02ea 0293     		str	r3, [sp, #8]
 793 02ec 4346     		mov	r3, r8
 794 02ee 059A     		ldr	r2, [sp, #20]
 795              	.LVL105:
 796 02f0 07A9     		add	r1, sp, #28
 797              	.LVL106:
 798 02f2 E146     		mov	r9, ip
ARM GAS  /tmp/ccxgpRfJ.s 			page 15


 799 02f4 4144     		add	r1, r1, r8
 800              	.LVL107:
 801 02f6 D21A     		sub	r2, r2, r3
 802 02f8 4744     		add	r7, r7, r8
 803 02fa E045     		cmp	r8, ip
 804 02fc 0AD0     		beq	.L55
 805 02fe 501E     		sub	r0, r2, #1
 806              	.L50:
 807              	.LVL108:
 808 0300 3B78     		ldrb	r3, [r7]
 809 0302 0B70     		strb	r3, [r1]
 810              		.loc 1 65 0
 811 0304 0028     		cmp	r0, #0
 812 0306 05D0     		beq	.L55
 813              	.LVL109:
 814              		.loc 1 64 0
 815 0308 7878     		ldrb	r0, [r7, #1]
 816 030a 4870     		strb	r0, [r1, #1]
 817              		.loc 1 65 0
 818 030c 022A     		cmp	r2, #2
 819 030e 01D0     		beq	.L55
 820              	.LVL110:
 821              		.loc 1 64 0
 822 0310 BA78     		ldrb	r2, [r7, #2]
 823 0312 8A70     		strb	r2, [r1, #2]
 824              	.LVL111:
 825              	.L55:
 826 0314 4B46     		mov	r3, r9
 827              	.LBE18:
 828              	.LBE22:
 829              	.LBE26:
 830              		.loc 1 144 0
 831 0316 07A9     		add	r1, sp, #28
 832              	.LVL112:
 833 0318 8846     		mov	r8, r1
 834 031a 5A1E     		sub	r2, r3, #1
 835 031c 0299     		ldr	r1, [sp, #8]
 836              	.LVL113:
 837              		.loc 1 245 0
 838 031e 2BE7     		b	.L27
 839              	.LVL114:
 840              	.L33:
 841              		.loc 1 211 0
 842 0320 3368     		ldr	r3, [r6]
 843 0322 0436     		add	r6, r6, #4
 844 0324 9946     		mov	r9, r3
 845              	.LVL115:
 846              		.loc 1 143 0
 847 0326 07AB     		add	r3, sp, #28
 848              	.LVL116:
 849 0328 9B46     		mov	fp, r3
 850              		.loc 1 212 0
 851 032a 4B46     		mov	r3, r9
 852              	.LVL117:
 853              		.loc 1 211 0
 854 032c 0197     		str	r7, [sp, #4]
 855              		.loc 1 212 0
ARM GAS  /tmp/ccxgpRfJ.s 			page 16


 856 032e 002B     		cmp	r3, #0
 857 0330 00DA     		bge	.LCB898
 858 0332 C3E0     		b	.L145	@long jump
 859              	.LCB898:
 860              	.LVL118:
 861              	.L35:
 862              	.LBB27:
 863              	.LBB28:
 864              	.LBB29:
 865              		.loc 1 52 0
 866 0334 0B23     		mov	r3, #11
 867 0336 5B44     		add	r3, r3, fp
 868 0338 0593     		str	r3, [sp, #20]
 869              	.LVL119:
 870 033a 1F1C     		mov	r7, r3
 871              	.LVL120:
 872 033c 2B1C     		mov	r3, r5
 873              	.LVL121:
 874 033e 029A     		ldr	r2, [sp, #8]
 875 0340 4D46     		mov	r5, r9
 876              	.LVL122:
 877 0342 4C46     		mov	r4, r9
 878 0344 9046     		mov	r8, r2
 879 0346 9946     		mov	r9, r3
 880              	.LVL123:
 881              	.L36:
 882              		.loc 1 54 0
 883 0348 201C     		mov	r0, r4
 884 034a 0A21     		mov	r1, #10
 885 034c FFF7FEFF 		bl	__aeabi_uidivmod
 886              	.LVL124:
 887              		.loc 1 58 0
 888 0350 013F     		sub	r7, r7, #1
 889              	.LVL125:
 890              		.loc 1 55 0
 891 0352 3031     		add	r1, r1, #48
 892              	.LVL126:
 893              		.loc 1 58 0
 894 0354 3970     		strb	r1, [r7]
 895              		.loc 1 59 0
 896 0356 201C     		mov	r0, r4
 897 0358 0A21     		mov	r1, #10
 898              	.LVL127:
 899 035a FFF7FEFF 		bl	__aeabi_uidiv
 900              	.LVL128:
 901              		.loc 1 60 0
 902 035e 0A21     		mov	r1, #10
 903              		.loc 1 59 0
 904 0360 041C     		mov	r4, r0
 905              	.LVL129:
 906              		.loc 1 60 0
 907 0362 281C     		mov	r0, r5
 908              	.LVL130:
 909 0364 FFF7FEFF 		bl	__aeabi_uidiv
 910              	.LVL131:
 911 0368 051E     		sub	r5, r0, #0
 912              	.LVL132:
ARM GAS  /tmp/ccxgpRfJ.s 			page 17


 913 036a EDD1     		bne	.L36
 914 036c 4346     		mov	r3, r8
 915 036e 8046     		mov	r8, r0
 916 0370 0920     		mov	r0, #9
 917              	.LVL133:
 918 0372 0293     		str	r3, [sp, #8]
 919              	.LVL134:
 920              		.loc 1 62 0
 921 0374 059B     		ldr	r3, [sp, #20]
 922 0376 4446     		mov	r4, r8
 923              	.LVL135:
 924 0378 DA1B     		sub	r2, r3, r7
 925 037a 9042     		cmp	r0, r2
 926 037c 8041     		sbc	r0, r0, r0
 927 037e 4342     		neg	r3, r0
 928 0380 0593     		str	r3, [sp, #20]
 929 0382 5B46     		mov	r3, fp
 930 0384 391D     		add	r1, r7, #4
 931 0386 8B42     		cmp	r3, r1
 932 0388 6441     		adc	r4, r4, r4
 933 038a 4046     		mov	r0, r8
 934 038c A446     		mov	ip, r4
 935 038e 4446     		mov	r4, r8
 936 0390 191D     		add	r1, r3, #4
 937 0392 8F42     		cmp	r7, r1
 938 0394 4441     		adc	r4, r4, r0
 939 0396 6346     		mov	r3, ip
 940 0398 211C     		mov	r1, r4
 941 039a 1943     		orr	r1, r3
 942 039c 059B     		ldr	r3, [sp, #20]
 943 039e 4D46     		mov	r5, r9
 944              	.LVL136:
 945 03a0 9146     		mov	r9, r2
 946              	.LVL137:
 947 03a2 1942     		tst	r1, r3
 948 03a4 00D1     		bne	.LCB1015
 949 03a6 93E0     		b	.L81	@long jump
 950              	.LCB1015:
 951 03a8 5946     		mov	r1, fp
 952 03aa 3943     		orr	r1, r7
 953 03ac 8B07     		lsl	r3, r1, #30
 954 03ae 00D0     		beq	.LCB1024
 955 03b0 8EE0     		b	.L81	@long jump
 956              	.LCB1024:
 957 03b2 111F     		sub	r1, r2, #4
 958 03b4 8908     		lsr	r1, r1, #2
 959 03b6 0131     		add	r1, r1, #1
 960 03b8 8B00     		lsl	r3, r1, #2
 961 03ba 501E     		sub	r0, r2, #1
 962              	.LVL138:
 963 03bc 9846     		mov	r8, r3
 964              	.LVL139:
 965 03be 0228     		cmp	r0, #2
 966 03c0 76D9     		bls	.L82
 967 03c2 0023     		mov	r3, #0
 968 03c4 9C46     		mov	ip, r3
 969 03c6 0020     		mov	r0, #0
ARM GAS  /tmp/ccxgpRfJ.s 			page 18


 970 03c8 0B1C     		mov	r3, r1
 971 03ca 6146     		mov	r1, ip
 972 03cc 9446     		mov	ip, r2
 973 03ce 0592     		str	r2, [sp, #20]
 974              	.LVL140:
 975              	.L39:
 976              		.loc 1 64 0
 977 03d0 5A46     		mov	r2, fp
 978 03d2 3C58     		ldr	r4, [r7, r0]
 979 03d4 0131     		add	r1, r1, #1
 980 03d6 1450     		str	r4, [r2, r0]
 981 03d8 0430     		add	r0, r0, #4
 982 03da 9942     		cmp	r1, r3
 983 03dc F8D3     		bcc	.L39
 984              	.LVL141:
 985 03de 5946     		mov	r1, fp
 986 03e0 4346     		mov	r3, r8
 987 03e2 059A     		ldr	r2, [sp, #20]
 988              	.LVL142:
 989 03e4 E146     		mov	r9, ip
 990 03e6 4144     		add	r1, r1, r8
 991 03e8 D21A     		sub	r2, r2, r3
 992 03ea 4744     		add	r7, r7, r8
 993 03ec C445     		cmp	ip, r8
 994 03ee 0AD0     		beq	.L43
 995 03f0 501E     		sub	r0, r2, #1
 996              	.L38:
 997              	.LVL143:
 998 03f2 3B78     		ldrb	r3, [r7]
 999 03f4 0B70     		strb	r3, [r1]
 1000              		.loc 1 65 0
 1001 03f6 0028     		cmp	r0, #0
 1002 03f8 05D0     		beq	.L43
 1003              	.LVL144:
 1004              		.loc 1 64 0
 1005 03fa 7878     		ldrb	r0, [r7, #1]
 1006 03fc 4870     		strb	r0, [r1, #1]
 1007              		.loc 1 65 0
 1008 03fe 022A     		cmp	r2, #2
 1009 0400 01D0     		beq	.L43
 1010              	.LVL145:
 1011              		.loc 1 64 0
 1012 0402 BA78     		ldrb	r2, [r7, #2]
 1013 0404 8A70     		strb	r2, [r1, #2]
 1014              	.LVL146:
 1015              	.L43:
 1016 0406 4B46     		mov	r3, r9
 1017 0408 07AA     		add	r2, sp, #28
 1018              	.LVL147:
 1019 040a 5B44     		add	r3, r3, fp
 1020              	.LBE29:
 1021              	.LBE28:
 1022              	.LBE27:
 1023              		.loc 1 144 0
 1024 040c 07A9     		add	r1, sp, #28
 1025 040e 9B1A     		sub	r3, r3, r2
 1026 0410 8846     		mov	r8, r1
ARM GAS  /tmp/ccxgpRfJ.s 			page 19


 1027 0412 5A1E     		sub	r2, r3, #1
 1028              	.LVL148:
 1029 0414 0299     		ldr	r1, [sp, #8]
 1030              	.LVL149:
 1031              		.loc 1 217 0
 1032 0416 AFE6     		b	.L27
 1033              	.LVL150:
 1034              	.L20:
 1035              		.loc 1 235 0
 1036 0418 0A23     		mov	r3, #10
 1037 041a 0197     		str	r7, [sp, #4]
 1038 041c 9B46     		mov	fp, r3
 1039 041e FEE6     		b	.L44
 1040              	.L147:
 1041              		.align	2
 1042              	.L146:
 1043 0420 00000000 		.word	.L25
 1044 0424 D4000000 		.word	.L18
 1045              	.LVL151:
 1046              	.L76:
 1047              		.loc 1 190 0
 1048 0428 0B1C     		mov	r3, r1
 1049              	.LVL152:
 1050              	.L16:
 1051              		.loc 1 247 0
 1052 042a 06AA     		add	r2, sp, #24
 1053              	.LVL153:
 1054 042c 1371     		strb	r3, [r2, #4]
 1055 042e 049A     		ldr	r2, [sp, #16]
 1056              		.loc 1 144 0
 1057 0430 07A9     		add	r1, sp, #28
 1058              	.LVL154:
 1059 0432 131C     		mov	r3, r2
 1060 0434 8846     		mov	r8, r1
 1061 0436 013A     		sub	r2, r2, #1
 1062              		.loc 1 248 0
 1063 0438 0197     		str	r7, [sp, #4]
 1064 043a 0299     		ldr	r1, [sp, #8]
 1065              	.LVL155:
 1066 043c 9CE6     		b	.L27
 1067              	.LVL156:
 1068              	.L138:
 1069              		.loc 1 152 0
 1070 043e 0137     		add	r7, r7, #1
 1071              	.LVL157:
 1072              		.loc 1 153 0
 1073 0440 9A46     		mov	r10, r3
 1074 0442 17E6     		b	.L7
 1075              	.LVL158:
 1076              	.L137:
 1077              		.loc 1 148 0
 1078 0444 0122     		mov	r2, #1
 1079              		.loc 1 147 0
 1080 0446 019B     		ldr	r3, [sp, #4]
 1081              		.loc 1 148 0
 1082 0448 0392     		str	r2, [sp, #12]
 1083              		.loc 1 147 0
ARM GAS  /tmp/ccxgpRfJ.s 			page 20


 1084 044a 9F1C     		add	r7, r3, #2
 1085              	.LVL159:
 1086 044c 9B78     		ldrb	r3, [r3, #2]
 1087 044e 0CE6     		b	.L6
 1088              	.LVL160:
 1089              	.L58:
 1090              		.loc 1 266 0
 1091 0450 4B46     		mov	r3, r9
 1092 0452 0024     		mov	r4, #0
 1093              	.LVL161:
 1094 0454 002B     		cmp	r3, #0
 1095 0456 00DB     		blt	.LCB1226
 1096 0458 B5E6     		b	.L68	@long jump
 1097              	.LCB1226:
 1098 045a E3E5     		b	.L2
 1099              	.LVL162:
 1100              	.L84:
 1101              	.LBB34:
 1102              	.LBB23:
 1103              	.LBB19:
 1104              		.loc 1 62 0
 1105 045c 07A9     		add	r1, sp, #28
 1106              	.LVL163:
 1107 045e 4FE7     		b	.L50
 1108              	.LVL164:
 1109              	.L79:
 1110              	.LBE19:
 1111              	.LBE23:
 1112              	.LBE34:
 1113              		.loc 1 190 0
 1114 0460 1023     		mov	r3, #16
 1115              	.LVL165:
 1116 0462 0197     		str	r7, [sp, #4]
 1117 0464 9B46     		mov	fp, r3
 1118 0466 DAE6     		b	.L44
 1119              	.LVL166:
 1120              	.L29:
 1121              		.loc 1 201 0
 1122 0468 002B     		cmp	r3, #0
 1123 046a 41D0     		beq	.L30
 1124 046c 294A     		ldr	r2, .L148
 1125 046e 59E6     		b	.L67
 1126              	.LVL167:
 1127              	.L83:
 1128              	.LBB35:
 1129              	.LBB24:
 1130              	.LBB20:
 1131              		.loc 1 62 0
 1132 0470 0021     		mov	r1, #0
 1133 0472 CC46     		mov	ip, r9
 1134 0474 029C     		ldr	r4, [sp, #8]
 1135              	.LVL168:
 1136              	.L49:
 1137              		.loc 1 64 0
 1138 0476 785C     		ldrb	r0, [r7, r1]
 1139 0478 07AB     		add	r3, sp, #28
 1140              	.LVL169:
ARM GAS  /tmp/ccxgpRfJ.s 			page 21


 1141 047a 5854     		strb	r0, [r3, r1]
 1142              	.LVL170:
 1143 047c 0131     		add	r1, r1, #1
 1144              	.LVL171:
 1145              		.loc 1 65 0
 1146 047e 8A42     		cmp	r2, r1
 1147 0480 F9D1     		bne	.L49
 1148 0482 0294     		str	r4, [sp, #8]
 1149 0484 E146     		mov	r9, ip
 1150 0486 45E7     		b	.L55
 1151              	.LVL172:
 1152              	.L144:
 1153              	.LBE20:
 1154              	.LBE24:
 1155              	.LBE35:
 1156              		.loc 1 256 0 discriminator 1
 1157 0488 5346     		mov	r3, r10
 1158 048a 302B     		cmp	r3, #48
 1159 048c 00D0     		beq	.LCB1386
 1160 048e 84E6     		b	.L59	@long jump
 1161              	.LCB1386:
 1162              		.loc 1 257 0
 1163 0490 0123     		mov	r3, #1
 1164 0492 9C46     		mov	ip, r3
 1165 0494 2B68     		ldr	r3, [r5]
 1166 0496 281C     		mov	r0, r5
 1167 0498 9B68     		ldr	r3, [r3, #8]
 1168 049a 2D21     		mov	r1, #45
 1169 049c E044     		add	r8, r8, ip
 1170              	.LVL173:
 1171 049e 9847     		blx	r3
 1172              	.LVL174:
 1173              		.loc 1 258 0
 1174 04a0 009B     		ldr	r3, [sp]
 1175 04a2 0133     		add	r3, r3, #1
 1176 04a4 0093     		str	r3, [sp]
 1177              	.LVL175:
 1178 04a6 0123     		mov	r3, #1
 1179              	.LVL176:
 1180 04a8 5B42     		neg	r3, r3
 1181 04aa 9C46     		mov	ip, r3
 1182 04ac E144     		add	r9, r9, ip
 1183              	.LVL177:
 1184 04ae 74E6     		b	.L59
 1185              	.LVL178:
 1186              	.L82:
 1187              	.LBB36:
 1188              	.LBB32:
 1189              	.LBB30:
 1190              		.loc 1 62 0
 1191 04b0 5946     		mov	r1, fp
 1192 04b2 9EE7     		b	.L38
 1193              	.LVL179:
 1194              	.L21:
 1195              	.LBE30:
 1196              	.LBE32:
 1197              	.LBE36:
ARM GAS  /tmp/ccxgpRfJ.s 			page 22


 1198              		.loc 1 190 0
 1199 04b4 1023     		mov	r3, #16
 1200              		.loc 1 184 0
 1201 04b6 0197     		str	r7, [sp, #4]
 1202              		.loc 1 190 0
 1203 04b8 9B46     		mov	fp, r3
 1204              	.LVL180:
 1205 04ba B0E6     		b	.L44
 1206              	.LVL181:
 1207              	.L145:
 1208              		.loc 1 213 0
 1209 04bc 2D23     		mov	r3, #45
 1210              	.LVL182:
 1211 04be 06AA     		add	r2, sp, #24
 1212              	.LVL183:
 1213 04c0 1371     		strb	r3, [r2, #4]
 1214              		.loc 1 214 0
 1215 04c2 4B46     		mov	r3, r9
 1216 04c4 5B42     		neg	r3, r3
 1217 04c6 9946     		mov	r9, r3
 1218              	.LVL184:
 1219              		.loc 1 213 0
 1220 04c8 131C     		mov	r3, r2
 1221              	.LVL185:
 1222 04ca 0533     		add	r3, r3, #5
 1223 04cc 9B46     		mov	fp, r3
 1224              	.LVL186:
 1225 04ce 31E7     		b	.L35
 1226              	.LVL187:
 1227              	.L81:
 1228              	.LBB37:
 1229              	.LBB33:
 1230              	.LBB31:
 1231              		.loc 1 62 0
 1232 04d0 0021     		mov	r1, #0
 1233 04d2 CC46     		mov	ip, r9
 1234 04d4 5B46     		mov	r3, fp
 1235 04d6 029C     		ldr	r4, [sp, #8]
 1236              	.LVL188:
 1237              	.L37:
 1238              		.loc 1 64 0
 1239 04d8 785C     		ldrb	r0, [r7, r1]
 1240 04da 5854     		strb	r0, [r3, r1]
 1241 04dc 0131     		add	r1, r1, #1
 1242              	.LVL189:
 1243              		.loc 1 65 0
 1244 04de 8A42     		cmp	r2, r1
 1245 04e0 FAD1     		bne	.L37
 1246 04e2 9B46     		mov	fp, r3
 1247 04e4 0294     		str	r4, [sp, #8]
 1248 04e6 E146     		mov	r9, ip
 1249 04e8 8DE7     		b	.L43
 1250              	.LVL190:
 1251              	.L142:
 1252              	.LBE31:
 1253              	.LBE33:
 1254              	.LBE37:
ARM GAS  /tmp/ccxgpRfJ.s 			page 23


 1255              		.loc 1 198 0
 1256 04ea 0B4B     		ldr	r3, .L148+4
 1257              	.LVL191:
 1258 04ec 9846     		mov	r8, r3
 1259              	.LVL192:
 1260 04ee 10E6     		b	.L28
 1261              	.LVL193:
 1262              	.L30:
 1263 04f0 029C     		ldr	r4, [sp, #8]
 1264              		.loc 1 253 0
 1265 04f2 0197     		str	r7, [sp, #4]
 1266 04f4 E343     		mvn	r3, r4
 1267 04f6 DB17     		asr	r3, r3, #31
 1268 04f8 1C40     		and	r4, r3
 1269              	.LVL194:
 1270 04fa 039B     		ldr	r3, [sp, #12]
 1271 04fc 0E1C     		mov	r6, r1
 1272 04fe 002B     		cmp	r3, #0
 1273 0500 05D1     		bne	.L86
 1274 0502 0123     		mov	r3, #1
 1275 0504 5B42     		neg	r3, r3
 1276 0506 9946     		mov	r9, r3
 1277 0508 2023     		mov	r3, #32
 1278 050a 9A46     		mov	r10, r3
 1279 050c 3CE6     		b	.L70
 1280              	.L86:
 1281 050e 2023     		mov	r3, #32
 1282 0510 9A46     		mov	r10, r3
 1283 0512 6DE6     		b	.L62
 1284              	.L149:
 1285              		.align	2
 1286              	.L148:
 1287 0514 FE7F0000 		.word	32766
 1288 0518 00000000 		.word	.LC3
 1289              		.cfi_endproc
 1290              	.LFE83:
 1291              		.size	chvprintf, .-chvprintf
 1292 051c C046C046 		.section	.text.chprintf,"ax",%progbits
 1293              		.align	2
 1294              		.p2align 4,,15
 1295              		.global	chprintf
 1296              		.code	16
 1297              		.thumb_func
 1298              		.type	chprintf, %function
 1299              	chprintf:
 1300              	.LFB84:
 1301              		.loc 1 302 0
 1302              		.cfi_startproc
 1303              	.LVL195:
 1304 0000 0EB4     		push	{r1, r2, r3}
 1305              		.cfi_def_cfa_offset 12
 1306 0002 00B5     		push	{lr}
 1307              		.cfi_def_cfa_offset 16
 1308              		.cfi_offset 14, -16
 1309 0004 82B0     		sub	sp, sp, #8
 1310              		.cfi_def_cfa_offset 24
 1311              		.loc 1 302 0
ARM GAS  /tmp/ccxgpRfJ.s 			page 24


 1312 0006 03AA     		add	r2, sp, #12
 1313 0008 02CA     		ldmia	r2!, {r1}
 1314              		.loc 1 306 0
 1315 000a 0192     		str	r2, [sp, #4]
 1316              		.loc 1 307 0
 1317 000c FFF7FEFF 		bl	chvprintf
 1318              	.LVL196:
 1319              		.loc 1 311 0
 1320 0010 02B0     		add	sp, sp, #8
 1321              		@ sp needed
 1322 0012 08BC     		pop	{r3}
 1323 0014 03B0     		add	sp, sp, #12
 1324 0016 1847     		bx	r3
 1325              		.cfi_endproc
 1326              	.LFE84:
 1327              		.size	chprintf, .-chprintf
 1328 0018 C046C046 		.section	.text.chsnprintf,"ax",%progbits
 1328      C046C046 
 1329              		.align	2
 1330              		.p2align 4,,15
 1331              		.global	chsnprintf
 1332              		.code	16
 1333              		.thumb_func
 1334              		.type	chsnprintf, %function
 1335              	chsnprintf:
 1336              	.LFB85:
 1337              		.loc 1 341 0
 1338              		.cfi_startproc
 1339              	.LVL197:
 1340 0000 0CB4     		push	{r2, r3}
 1341              		.cfi_def_cfa_offset 8
 1342 0002 30B5     		push	{r4, r5, lr}
 1343              		.cfi_def_cfa_offset 20
 1344              		.cfi_offset 4, -20
 1345              		.cfi_offset 5, -16
 1346              		.cfi_offset 14, -12
 1347 0004 051C     		mov	r5, r0
 1348 0006 87B0     		sub	sp, sp, #28
 1349              		.cfi_def_cfa_offset 48
 1350              		.loc 1 341 0
 1351 0008 0C1E     		sub	r4, r1, #0
 1352              		.loc 1 348 0
 1353 000a 15D0     		beq	.L152
 1354              	.LVL198:
 1355              		.loc 1 349 0
 1356 000c 4A1E     		sub	r2, r1, #1
 1357              	.LVL199:
 1358              		.loc 1 355 0
 1359 000e 0023     		mov	r3, #0
 1360 0010 01A8     		add	r0, sp, #4
 1361              	.LVL200:
 1362 0012 291C     		mov	r1, r5
 1363              	.LVL201:
 1364 0014 FFF7FEFF 		bl	msObjectInit
 1365              	.LVL202:
 1366              		.loc 1 359 0
 1367 0018 0BAA     		add	r2, sp, #44
ARM GAS  /tmp/ccxgpRfJ.s 			page 25


 1368              		.loc 1 360 0
 1369 001a 01A8     		add	r0, sp, #4
 1370              	.LVL203:
 1371 001c 0A99     		ldr	r1, [sp, #40]
 1372              		.loc 1 359 0
 1373 001e 0092     		str	r2, [sp]
 1374              		.loc 1 360 0
 1375 0020 FFF7FEFF 		bl	chvprintf
 1376              	.LVL204:
 1377              		.loc 1 364 0
 1378 0024 049B     		ldr	r3, [sp, #16]
 1379 0026 9C42     		cmp	r4, r3
 1380 0028 01D9     		bls	.L154
 1381              		.loc 1 365 0
 1382 002a 0022     		mov	r2, #0
 1383 002c EA54     		strb	r2, [r5, r3]
 1384              	.LVL205:
 1385              	.L154:
 1386              		.loc 1 369 0
 1387 002e 07B0     		add	sp, sp, #28
 1388              		@ sp needed
 1389              	.LVL206:
 1390              	.LVL207:
 1391 0030 30BC     		pop	{r4, r5}
 1392 0032 08BC     		pop	{r3}
 1393 0034 02B0     		add	sp, sp, #8
 1394 0036 1847     		bx	r3
 1395              	.LVL208:
 1396              	.L152:
 1397              		.loc 1 355 0
 1398 0038 01A8     		add	r0, sp, #4
 1399              	.LVL209:
 1400 003a 291C     		mov	r1, r5
 1401              	.LVL210:
 1402 003c 0022     		mov	r2, #0
 1403 003e 0023     		mov	r3, #0
 1404 0040 FFF7FEFF 		bl	msObjectInit
 1405              	.LVL211:
 1406              		.loc 1 359 0
 1407 0044 0BAA     		add	r2, sp, #44
 1408              		.loc 1 360 0
 1409 0046 01A8     		add	r0, sp, #4
 1410              	.LVL212:
 1411 0048 0A99     		ldr	r1, [sp, #40]
 1412              		.loc 1 359 0
 1413 004a 0092     		str	r2, [sp]
 1414              		.loc 1 360 0
 1415 004c FFF7FEFF 		bl	chvprintf
 1416              	.LVL213:
 1417 0050 EDE7     		b	.L154
 1418              		.cfi_endproc
 1419              	.LFE85:
 1420              		.size	chsnprintf, .-chsnprintf
 1421 0052 C046C046 		.section	.rodata.str1.4,"aMS",%progbits,1
 1421      C046C046 
 1421      C046C046 
 1421      C046
ARM GAS  /tmp/ccxgpRfJ.s 			page 26


 1422              		.align	2
 1423              	.LC3:
 1424 0000 286E756C 		.ascii	"(null)\000"
 1424      6C2900
 1425 0007 00       		.text
 1426              	.Letext0:
 1427              		.file 2 "/usr/lib/gcc/arm-linux-gnueabihf/4.9/include/stddef.h"
 1428              		.file 3 "/usr/include/stdint.h"
 1429              		.file 4 "../os/nil/include/nil.h"
 1430              		.file 5 "../os/nil/ports/ARMCMx/compilers/GCC/niltypes.h"
 1431              		.file 6 "../os/nil/ports/ARMCMx/nilcore.h"
 1432              		.file 7 "../os/nil/ports/ARMCMx/nilcore_v6m.h"
 1433              		.file 8 "../os/hal/include/hal_streams.h"
 1434              		.file 9 "/usr/lib/gcc/arm-linux-gnueabihf/4.9/include/stdarg.h"
 1435              		.file 10 "<built-in>"
 1436              		.file 11 "../os/hal/lib/streams/memstreams.h"
 1437              		.section	.debug_info,"",%progbits
 1438              	.Ldebug_info0:
 1439 0000 86090000 		.4byte	0x986
 1440 0004 0400     		.2byte	0x4
 1441 0006 00000000 		.4byte	.Ldebug_abbrev0
 1442 000a 04       		.byte	0x4
 1443 000b 01       		.uleb128 0x1
 1444 000c CA000000 		.4byte	.LASF73
 1445 0010 01       		.byte	0x1
 1446 0011 65000000 		.4byte	.LASF74
 1447 0015 AC030000 		.4byte	.LASF75
 1448 0019 50000000 		.4byte	.Ldebug_ranges0+0x50
 1449 001d 00000000 		.4byte	0
 1450 0021 00000000 		.4byte	.Ldebug_line0
 1451 0025 02       		.uleb128 0x2
 1452 0026 04       		.byte	0x4
 1453 0027 05       		.byte	0x5
 1454 0028 696E7400 		.ascii	"int\000"
 1455 002c 03       		.uleb128 0x3
 1456 002d 40000000 		.4byte	.LASF3
 1457 0031 02       		.byte	0x2
 1458 0032 D4       		.byte	0xd4
 1459 0033 37000000 		.4byte	0x37
 1460 0037 04       		.uleb128 0x4
 1461 0038 04       		.byte	0x4
 1462 0039 07       		.byte	0x7
 1463 003a D6020000 		.4byte	.LASF0
 1464 003e 04       		.uleb128 0x4
 1465 003f 01       		.byte	0x1
 1466 0040 06       		.byte	0x6
 1467 0041 A1020000 		.4byte	.LASF1
 1468 0045 04       		.uleb128 0x4
 1469 0046 02       		.byte	0x2
 1470 0047 05       		.byte	0x5
 1471 0048 36000000 		.4byte	.LASF2
 1472 004c 03       		.uleb128 0x3
 1473 004d 4F020000 		.4byte	.LASF4
 1474 0051 03       		.byte	0x3
 1475 0052 26       		.byte	0x26
 1476 0053 25000000 		.4byte	0x25
 1477 0057 04       		.uleb128 0x4
ARM GAS  /tmp/ccxgpRfJ.s 			page 27


 1478 0058 08       		.byte	0x8
 1479 0059 05       		.byte	0x5
 1480 005a 86000000 		.4byte	.LASF5
 1481 005e 03       		.uleb128 0x3
 1482 005f D2010000 		.4byte	.LASF6
 1483 0063 03       		.byte	0x3
 1484 0064 30       		.byte	0x30
 1485 0065 69000000 		.4byte	0x69
 1486 0069 04       		.uleb128 0x4
 1487 006a 01       		.byte	0x1
 1488 006b 08       		.byte	0x8
 1489 006c 8C020000 		.4byte	.LASF7
 1490 0070 04       		.uleb128 0x4
 1491 0071 02       		.byte	0x2
 1492 0072 07       		.byte	0x7
 1493 0073 05030000 		.4byte	.LASF8
 1494 0077 03       		.uleb128 0x3
 1495 0078 CD020000 		.4byte	.LASF9
 1496 007c 03       		.byte	0x3
 1497 007d 33       		.byte	0x33
 1498 007e 37000000 		.4byte	0x37
 1499 0082 03       		.uleb128 0x3
 1500 0083 AD020000 		.4byte	.LASF10
 1501 0087 03       		.byte	0x3
 1502 0088 3A       		.byte	0x3a
 1503 0089 8D000000 		.4byte	0x8d
 1504 008d 04       		.uleb128 0x4
 1505 008e 08       		.byte	0x8
 1506 008f 07       		.byte	0x7
 1507 0090 B6020000 		.4byte	.LASF11
 1508 0094 03       		.uleb128 0x3
 1509 0095 7B020000 		.4byte	.LASF12
 1510 0099 04       		.byte	0x4
 1511 009a 25       		.byte	0x25
 1512 009b 9F000000 		.4byte	0x9f
 1513 009f 05       		.uleb128 0x5
 1514 00a0 A0000000 		.4byte	.LASF26
 1515 00a4 18       		.byte	0x18
 1516 00a5 04       		.byte	0x4
 1517 00a6 6201     		.2byte	0x162
 1518 00a8 FA000000 		.4byte	0xfa
 1519 00ac 06       		.uleb128 0x6
 1520 00ad 18030000 		.4byte	.LASF13
 1521 00b1 04       		.byte	0x4
 1522 00b2 6301     		.2byte	0x163
 1523 00b4 74020000 		.4byte	0x274
 1524 00b8 00       		.byte	0
 1525 00b9 06       		.uleb128 0x6
 1526 00ba 20000000 		.4byte	.LASF14
 1527 00be 04       		.byte	0x4
 1528 00bf 6401     		.2byte	0x164
 1529 00c1 FA000000 		.4byte	0xfa
 1530 00c5 04       		.byte	0x4
 1531 00c6 07       		.uleb128 0x7
 1532 00c7 753100   		.ascii	"u1\000"
 1533 00ca 04       		.byte	0x4
 1534 00cb 6F01     		.2byte	0x16f
ARM GAS  /tmp/ccxgpRfJ.s 			page 28


 1535 00cd 24020000 		.4byte	0x224
 1536 00d1 08       		.byte	0x8
 1537 00d2 06       		.uleb128 0x6
 1538 00d3 59030000 		.4byte	.LASF15
 1539 00d7 04       		.byte	0x4
 1540 00d8 7001     		.2byte	0x170
 1541 00da 7A020000 		.4byte	0x27a
 1542 00de 0C       		.byte	0xc
 1543 00df 06       		.uleb128 0x6
 1544 00e0 0C000000 		.4byte	.LASF16
 1545 00e4 04       		.byte	0x4
 1546 00e5 7301     		.2byte	0x173
 1547 00e7 10010000 		.4byte	0x110
 1548 00eb 10       		.byte	0x10
 1549 00ec 06       		.uleb128 0x6
 1550 00ed 02040000 		.4byte	.LASF17
 1551 00f1 04       		.byte	0x4
 1552 00f2 7601     		.2byte	0x176
 1553 00f4 FA010000 		.4byte	0x1fa
 1554 00f8 14       		.byte	0x14
 1555 00f9 00       		.byte	0
 1556 00fa 03       		.uleb128 0x3
 1557 00fb A3030000 		.4byte	.LASF18
 1558 00ff 05       		.byte	0x5
 1559 0100 37       		.byte	0x37
 1560 0101 5E000000 		.4byte	0x5e
 1561 0105 03       		.uleb128 0x3
 1562 0106 11040000 		.4byte	.LASF19
 1563 010a 05       		.byte	0x5
 1564 010b 38       		.byte	0x38
 1565 010c 4C000000 		.4byte	0x4c
 1566 0110 03       		.uleb128 0x3
 1567 0111 94000000 		.4byte	.LASF20
 1568 0115 05       		.byte	0x5
 1569 0116 39       		.byte	0x39
 1570 0117 77000000 		.4byte	0x77
 1571 011b 03       		.uleb128 0x3
 1572 011c 44030000 		.4byte	.LASF21
 1573 0120 05       		.byte	0x5
 1574 0121 3A       		.byte	0x3a
 1575 0122 4C000000 		.4byte	0x4c
 1576 0126 03       		.uleb128 0x3
 1577 0127 23030000 		.4byte	.LASF22
 1578 012b 05       		.byte	0x5
 1579 012c 41       		.byte	0x41
 1580 012d 77000000 		.4byte	0x77
 1581 0131 04       		.uleb128 0x4
 1582 0132 04       		.byte	0x4
 1583 0133 07       		.byte	0x7
 1584 0134 47000000 		.4byte	.LASF23
 1585 0138 03       		.uleb128 0x3
 1586 0139 C9010000 		.4byte	.LASF24
 1587 013d 06       		.byte	0x6
 1588 013e 65       		.byte	0x65
 1589 013f 43010000 		.4byte	0x143
 1590 0143 08       		.uleb128 0x8
 1591 0144 04       		.byte	0x4
ARM GAS  /tmp/ccxgpRfJ.s 			page 29


 1592 0145 03       		.uleb128 0x3
 1593 0146 61030000 		.4byte	.LASF25
 1594 014a 06       		.byte	0x6
 1595 014b 6D       		.byte	0x6d
 1596 014c 82000000 		.4byte	0x82
 1597 0150 09       		.uleb128 0x9
 1598 0151 78030000 		.4byte	.LASF27
 1599 0155 24       		.byte	0x24
 1600 0156 07       		.byte	0x7
 1601 0157 A4       		.byte	0xa4
 1602 0158 C2010000 		.4byte	0x1c2
 1603 015c 0A       		.uleb128 0xa
 1604 015d 723800   		.ascii	"r8\000"
 1605 0160 07       		.byte	0x7
 1606 0161 A5       		.byte	0xa5
 1607 0162 38010000 		.4byte	0x138
 1608 0166 00       		.byte	0
 1609 0167 0A       		.uleb128 0xa
 1610 0168 723900   		.ascii	"r9\000"
 1611 016b 07       		.byte	0x7
 1612 016c A6       		.byte	0xa6
 1613 016d 38010000 		.4byte	0x138
 1614 0171 04       		.byte	0x4
 1615 0172 0A       		.uleb128 0xa
 1616 0173 72313000 		.ascii	"r10\000"
 1617 0177 07       		.byte	0x7
 1618 0178 A7       		.byte	0xa7
 1619 0179 38010000 		.4byte	0x138
 1620 017d 08       		.byte	0x8
 1621 017e 0A       		.uleb128 0xa
 1622 017f 72313100 		.ascii	"r11\000"
 1623 0183 07       		.byte	0x7
 1624 0184 A8       		.byte	0xa8
 1625 0185 38010000 		.4byte	0x138
 1626 0189 0C       		.byte	0xc
 1627 018a 0A       		.uleb128 0xa
 1628 018b 723400   		.ascii	"r4\000"
 1629 018e 07       		.byte	0x7
 1630 018f A9       		.byte	0xa9
 1631 0190 38010000 		.4byte	0x138
 1632 0194 10       		.byte	0x10
 1633 0195 0A       		.uleb128 0xa
 1634 0196 723500   		.ascii	"r5\000"
 1635 0199 07       		.byte	0x7
 1636 019a AA       		.byte	0xaa
 1637 019b 38010000 		.4byte	0x138
 1638 019f 14       		.byte	0x14
 1639 01a0 0A       		.uleb128 0xa
 1640 01a1 723600   		.ascii	"r6\000"
 1641 01a4 07       		.byte	0x7
 1642 01a5 AB       		.byte	0xab
 1643 01a6 38010000 		.4byte	0x138
 1644 01aa 18       		.byte	0x18
 1645 01ab 0A       		.uleb128 0xa
 1646 01ac 723700   		.ascii	"r7\000"
 1647 01af 07       		.byte	0x7
 1648 01b0 AC       		.byte	0xac
ARM GAS  /tmp/ccxgpRfJ.s 			page 30


 1649 01b1 38010000 		.4byte	0x138
 1650 01b5 1C       		.byte	0x1c
 1651 01b6 0A       		.uleb128 0xa
 1652 01b7 6C7200   		.ascii	"lr\000"
 1653 01ba 07       		.byte	0x7
 1654 01bb AD       		.byte	0xad
 1655 01bc 38010000 		.4byte	0x138
 1656 01c0 20       		.byte	0x20
 1657 01c1 00       		.byte	0
 1658 01c2 0B       		.uleb128 0xb
 1659 01c3 D4030000 		.4byte	.LASF28
 1660 01c7 04       		.byte	0x4
 1661 01c8 3701     		.2byte	0x137
 1662 01ca 50010000 		.4byte	0x150
 1663 01ce 0B       		.uleb128 0xb
 1664 01cf E5010000 		.4byte	.LASF29
 1665 01d3 04       		.byte	0x4
 1666 01d4 3C01     		.2byte	0x13c
 1667 01d6 DA010000 		.4byte	0x1da
 1668 01da 05       		.uleb128 0x5
 1669 01db 0F020000 		.4byte	.LASF30
 1670 01df 04       		.byte	0x4
 1671 01e0 04       		.byte	0x4
 1672 01e1 4101     		.2byte	0x141
 1673 01e3 F5010000 		.4byte	0x1f5
 1674 01e7 07       		.uleb128 0x7
 1675 01e8 636E7400 		.ascii	"cnt\000"
 1676 01ec 04       		.byte	0x4
 1677 01ed 4201     		.2byte	0x142
 1678 01ef F5010000 		.4byte	0x1f5
 1679 01f3 00       		.byte	0
 1680 01f4 00       		.byte	0
 1681 01f5 0C       		.uleb128 0xc
 1682 01f6 1B010000 		.4byte	0x11b
 1683 01fa 0D       		.uleb128 0xd
 1684 01fb 04       		.byte	0x4
 1685 01fc 45010000 		.4byte	0x145
 1686 0200 0D       		.uleb128 0xd
 1687 0201 04       		.byte	0x4
 1688 0202 06020000 		.4byte	0x206
 1689 0206 0E       		.uleb128 0xe
 1690 0207 0B020000 		.4byte	0x20b
 1691 020b 04       		.uleb128 0x4
 1692 020c 01       		.byte	0x1
 1693 020d 08       		.byte	0x8
 1694 020e 32030000 		.4byte	.LASF31
 1695 0212 0B       		.uleb128 0xb
 1696 0213 89030000 		.4byte	.LASF32
 1697 0217 04       		.byte	0x4
 1698 0218 5D01     		.2byte	0x15d
 1699 021a 1E020000 		.4byte	0x21e
 1700 021e 0D       		.uleb128 0xd
 1701 021f 04       		.byte	0x4
 1702 0220 94000000 		.4byte	0x94
 1703 0224 0F       		.uleb128 0xf
 1704 0225 04       		.byte	0x4
 1705 0226 04       		.byte	0x4
ARM GAS  /tmp/ccxgpRfJ.s 			page 31


 1706 0227 6701     		.2byte	0x167
 1707 0229 68020000 		.4byte	0x268
 1708 022d 10       		.uleb128 0x10
 1709 022e 6D736700 		.ascii	"msg\000"
 1710 0232 04       		.byte	0x4
 1711 0233 6801     		.2byte	0x168
 1712 0235 05010000 		.4byte	0x105
 1713 0239 10       		.uleb128 0x10
 1714 023a 7000     		.ascii	"p\000"
 1715 023c 04       		.byte	0x4
 1716 023d 6901     		.2byte	0x169
 1717 023f 43010000 		.4byte	0x143
 1718 0243 10       		.uleb128 0x10
 1719 0244 74727000 		.ascii	"trp\000"
 1720 0248 04       		.byte	0x4
 1721 0249 6A01     		.2byte	0x16a
 1722 024b 68020000 		.4byte	0x268
 1723 024f 11       		.uleb128 0x11
 1724 0250 84030000 		.4byte	.LASF33
 1725 0254 04       		.byte	0x4
 1726 0255 6B01     		.2byte	0x16b
 1727 0257 6E020000 		.4byte	0x26e
 1728 025b 11       		.uleb128 0x11
 1729 025c 9A020000 		.4byte	.LASF34
 1730 0260 04       		.byte	0x4
 1731 0261 6D01     		.2byte	0x16d
 1732 0263 10010000 		.4byte	0x110
 1733 0267 00       		.byte	0
 1734 0268 0D       		.uleb128 0xd
 1735 0269 04       		.byte	0x4
 1736 026a 12020000 		.4byte	0x212
 1737 026e 0D       		.uleb128 0xd
 1738 026f 04       		.byte	0x4
 1739 0270 CE010000 		.4byte	0x1ce
 1740 0274 0D       		.uleb128 0xd
 1741 0275 04       		.byte	0x4
 1742 0276 C2010000 		.4byte	0x1c2
 1743 027a 0C       		.uleb128 0xc
 1744 027b 26010000 		.4byte	0x126
 1745 027f 0B       		.uleb128 0xb
 1746 0280 1D020000 		.4byte	.LASF35
 1747 0284 04       		.byte	0x4
 1748 0285 7F01     		.2byte	0x17f
 1749 0287 8B020000 		.4byte	0x28b
 1750 028b 05       		.uleb128 0x5
 1751 028c DA010000 		.4byte	.LASF36
 1752 0290 40       		.byte	0x40
 1753 0291 04       		.byte	0x4
 1754 0292 8601     		.2byte	0x186
 1755 0294 DA020000 		.4byte	0x2da
 1756 0298 06       		.uleb128 0x6
 1757 0299 F7020000 		.4byte	.LASF37
 1758 029d 04       		.byte	0x4
 1759 029e 8A01     		.2byte	0x18a
 1760 02a0 1E020000 		.4byte	0x21e
 1761 02a4 00       		.byte	0
 1762 02a5 06       		.uleb128 0x6
ARM GAS  /tmp/ccxgpRfJ.s 			page 32


 1763 02a6 21040000 		.4byte	.LASF38
 1764 02aa 04       		.byte	0x4
 1765 02ab 9001     		.2byte	0x190
 1766 02ad 1E020000 		.4byte	0x21e
 1767 02b1 04       		.byte	0x4
 1768 02b2 06       		.uleb128 0x6
 1769 02b3 F7010000 		.4byte	.LASF39
 1770 02b7 04       		.byte	0x4
 1771 02b8 9501     		.2byte	0x195
 1772 02ba 7A020000 		.4byte	0x27a
 1773 02be 08       		.byte	0x8
 1774 02bf 06       		.uleb128 0x6
 1775 02c0 EC030000 		.4byte	.LASF40
 1776 02c4 04       		.byte	0x4
 1777 02c5 A401     		.2byte	0x1a4
 1778 02c7 DA020000 		.4byte	0x2da
 1779 02cb 0C       		.byte	0xc
 1780 02cc 06       		.uleb128 0x6
 1781 02cd F4030000 		.4byte	.LASF41
 1782 02d1 04       		.byte	0x4
 1783 02d2 AD01     		.2byte	0x1ad
 1784 02d4 EA020000 		.4byte	0x2ea
 1785 02d8 3C       		.byte	0x3c
 1786 02d9 00       		.byte	0
 1787 02da 12       		.uleb128 0x12
 1788 02db 94000000 		.4byte	0x94
 1789 02df EA020000 		.4byte	0x2ea
 1790 02e3 13       		.uleb128 0x13
 1791 02e4 31010000 		.4byte	0x131
 1792 02e8 01       		.byte	0x1
 1793 02e9 00       		.byte	0
 1794 02ea 0C       		.uleb128 0xc
 1795 02eb 00020000 		.4byte	0x200
 1796 02ef 09       		.uleb128 0x9
 1797 02f0 26040000 		.4byte	.LASF42
 1798 02f4 10       		.byte	0x10
 1799 02f5 08       		.byte	0x8
 1800 02f6 4A       		.byte	0x4a
 1801 02f7 2C030000 		.4byte	0x32c
 1802 02fb 14       		.uleb128 0x14
 1803 02fc 1D030000 		.4byte	.LASF43
 1804 0300 08       		.byte	0x8
 1805 0301 4B       		.byte	0x4b
 1806 0302 50030000 		.4byte	0x350
 1807 0306 00       		.byte	0
 1808 0307 14       		.uleb128 0x14
 1809 0308 0A020000 		.4byte	.LASF44
 1810 030c 08       		.byte	0x8
 1811 030d 4B       		.byte	0x4b
 1812 030e 75030000 		.4byte	0x375
 1813 0312 04       		.byte	0x4
 1814 0313 0A       		.uleb128 0xa
 1815 0314 70757400 		.ascii	"put\000"
 1816 0318 08       		.byte	0x8
 1817 0319 4B       		.byte	0x4b
 1818 031a 8F030000 		.4byte	0x38f
 1819 031e 08       		.byte	0x8
ARM GAS  /tmp/ccxgpRfJ.s 			page 33


 1820 031f 0A       		.uleb128 0xa
 1821 0320 67657400 		.ascii	"get\000"
 1822 0324 08       		.byte	0x8
 1823 0325 4B       		.byte	0x4b
 1824 0326 A4030000 		.4byte	0x3a4
 1825 032a 0C       		.byte	0xc
 1826 032b 00       		.byte	0
 1827 032c 15       		.uleb128 0x15
 1828 032d 2C000000 		.4byte	0x2c
 1829 0331 45030000 		.4byte	0x345
 1830 0335 16       		.uleb128 0x16
 1831 0336 43010000 		.4byte	0x143
 1832 033a 16       		.uleb128 0x16
 1833 033b 45030000 		.4byte	0x345
 1834 033f 16       		.uleb128 0x16
 1835 0340 2C000000 		.4byte	0x2c
 1836 0344 00       		.byte	0
 1837 0345 0D       		.uleb128 0xd
 1838 0346 04       		.byte	0x4
 1839 0347 4B030000 		.4byte	0x34b
 1840 034b 0E       		.uleb128 0xe
 1841 034c 5E000000 		.4byte	0x5e
 1842 0350 0D       		.uleb128 0xd
 1843 0351 04       		.byte	0x4
 1844 0352 2C030000 		.4byte	0x32c
 1845 0356 15       		.uleb128 0x15
 1846 0357 2C000000 		.4byte	0x2c
 1847 035b 6F030000 		.4byte	0x36f
 1848 035f 16       		.uleb128 0x16
 1849 0360 43010000 		.4byte	0x143
 1850 0364 16       		.uleb128 0x16
 1851 0365 6F030000 		.4byte	0x36f
 1852 0369 16       		.uleb128 0x16
 1853 036a 2C000000 		.4byte	0x2c
 1854 036e 00       		.byte	0
 1855 036f 0D       		.uleb128 0xd
 1856 0370 04       		.byte	0x4
 1857 0371 5E000000 		.4byte	0x5e
 1858 0375 0D       		.uleb128 0xd
 1859 0376 04       		.byte	0x4
 1860 0377 56030000 		.4byte	0x356
 1861 037b 15       		.uleb128 0x15
 1862 037c 05010000 		.4byte	0x105
 1863 0380 8F030000 		.4byte	0x38f
 1864 0384 16       		.uleb128 0x16
 1865 0385 43010000 		.4byte	0x143
 1866 0389 16       		.uleb128 0x16
 1867 038a 5E000000 		.4byte	0x5e
 1868 038e 00       		.byte	0
 1869 038f 0D       		.uleb128 0xd
 1870 0390 04       		.byte	0x4
 1871 0391 7B030000 		.4byte	0x37b
 1872 0395 15       		.uleb128 0x15
 1873 0396 05010000 		.4byte	0x105
 1874 039a A4030000 		.4byte	0x3a4
 1875 039e 16       		.uleb128 0x16
 1876 039f 43010000 		.4byte	0x143
ARM GAS  /tmp/ccxgpRfJ.s 			page 34


 1877 03a3 00       		.byte	0
 1878 03a4 0D       		.uleb128 0xd
 1879 03a5 04       		.byte	0x4
 1880 03a6 95030000 		.4byte	0x395
 1881 03aa 17       		.uleb128 0x17
 1882 03ab 04       		.byte	0x4
 1883 03ac 08       		.byte	0x8
 1884 03ad 53       		.byte	0x53
 1885 03ae BF030000 		.4byte	0x3bf
 1886 03b2 0A       		.uleb128 0xa
 1887 03b3 766D7400 		.ascii	"vmt\000"
 1888 03b7 08       		.byte	0x8
 1889 03b8 55       		.byte	0x55
 1890 03b9 BF030000 		.4byte	0x3bf
 1891 03bd 00       		.byte	0
 1892 03be 00       		.byte	0
 1893 03bf 0D       		.uleb128 0xd
 1894 03c0 04       		.byte	0x4
 1895 03c1 C5030000 		.4byte	0x3c5
 1896 03c5 0E       		.uleb128 0xe
 1897 03c6 EF020000 		.4byte	0x2ef
 1898 03ca 03       		.uleb128 0x3
 1899 03cb 50000000 		.4byte	.LASF45
 1900 03cf 08       		.byte	0x8
 1901 03d0 57       		.byte	0x57
 1902 03d1 AA030000 		.4byte	0x3aa
 1903 03d5 04       		.uleb128 0x4
 1904 03d6 01       		.byte	0x1
 1905 03d7 02       		.byte	0x2
 1906 03d8 4A030000 		.4byte	.LASF46
 1907 03dc 03       		.uleb128 0x3
 1908 03dd DD030000 		.4byte	.LASF47
 1909 03e1 09       		.byte	0x9
 1910 03e2 28       		.byte	0x28
 1911 03e3 E7030000 		.4byte	0x3e7
 1912 03e7 09       		.uleb128 0x9
 1913 03e8 2A020000 		.4byte	.LASF48
 1914 03ec 04       		.byte	0x4
 1915 03ed 0A       		.byte	0xa
 1916 03ee 00       		.byte	0
 1917 03ef FE030000 		.4byte	0x3fe
 1918 03f3 18       		.uleb128 0x18
 1919 03f4 2D030000 		.4byte	.LASF49
 1920 03f8 43010000 		.4byte	0x143
 1921 03fc 00       		.byte	0
 1922 03fd 00       		.byte	0
 1923 03fe 03       		.uleb128 0x3
 1924 03ff BB000000 		.4byte	.LASF50
 1925 0403 09       		.byte	0x9
 1926 0404 62       		.byte	0x62
 1927 0405 DC030000 		.4byte	0x3dc
 1928 0409 09       		.uleb128 0x9
 1929 040a 37030000 		.4byte	.LASF51
 1930 040e 10       		.byte	0x10
 1931 040f 0B       		.byte	0xb
 1932 0410 3D       		.byte	0x3d
 1933 0411 46040000 		.4byte	0x446
ARM GAS  /tmp/ccxgpRfJ.s 			page 35


 1934 0415 14       		.uleb128 0x14
 1935 0416 1D030000 		.4byte	.LASF43
 1936 041a 0B       		.byte	0xb
 1937 041b 3E       		.byte	0x3e
 1938 041c 50030000 		.4byte	0x350
 1939 0420 00       		.byte	0
 1940 0421 14       		.uleb128 0x14
 1941 0422 0A020000 		.4byte	.LASF44
 1942 0426 0B       		.byte	0xb
 1943 0427 3E       		.byte	0x3e
 1944 0428 75030000 		.4byte	0x375
 1945 042c 04       		.byte	0x4
 1946 042d 0A       		.uleb128 0xa
 1947 042e 70757400 		.ascii	"put\000"
 1948 0432 0B       		.byte	0xb
 1949 0433 3E       		.byte	0x3e
 1950 0434 8F030000 		.4byte	0x38f
 1951 0438 08       		.byte	0x8
 1952 0439 0A       		.uleb128 0xa
 1953 043a 67657400 		.ascii	"get\000"
 1954 043e 0B       		.byte	0xb
 1955 043f 3E       		.byte	0x3e
 1956 0440 A4030000 		.4byte	0x3a4
 1957 0444 0C       		.byte	0xc
 1958 0445 00       		.byte	0
 1959 0446 17       		.uleb128 0x17
 1960 0447 14       		.byte	0x14
 1961 0448 0B       		.byte	0xb
 1962 0449 46       		.byte	0x46
 1963 044a 8B040000 		.4byte	0x48b
 1964 044e 0A       		.uleb128 0xa
 1965 044f 766D7400 		.ascii	"vmt\000"
 1966 0453 0B       		.byte	0xb
 1967 0454 48       		.byte	0x48
 1968 0455 8B040000 		.4byte	0x48b
 1969 0459 00       		.byte	0
 1970 045a 14       		.uleb128 0x14
 1971 045b 6C030000 		.4byte	.LASF52
 1972 045f 0B       		.byte	0xb
 1973 0460 49       		.byte	0x49
 1974 0461 6F030000 		.4byte	0x36f
 1975 0465 04       		.byte	0x4
 1976 0466 14       		.uleb128 0x14
 1977 0467 73030000 		.4byte	.LASF53
 1978 046b 0B       		.byte	0xb
 1979 046c 49       		.byte	0x49
 1980 046d 2C000000 		.4byte	0x2c
 1981 0471 08       		.byte	0x8
 1982 0472 0A       		.uleb128 0xa
 1983 0473 656F7300 		.ascii	"eos\000"
 1984 0477 0B       		.byte	0xb
 1985 0478 49       		.byte	0x49
 1986 0479 2C000000 		.4byte	0x2c
 1987 047d 0C       		.byte	0xc
 1988 047e 14       		.uleb128 0x14
 1989 047f 48020000 		.4byte	.LASF54
 1990 0483 0B       		.byte	0xb
ARM GAS  /tmp/ccxgpRfJ.s 			page 36


 1991 0484 49       		.byte	0x49
 1992 0485 2C000000 		.4byte	0x2c
 1993 0489 10       		.byte	0x10
 1994 048a 00       		.byte	0
 1995 048b 0D       		.uleb128 0xd
 1996 048c 04       		.byte	0x4
 1997 048d 91040000 		.4byte	0x491
 1998 0491 0E       		.uleb128 0xe
 1999 0492 09040000 		.4byte	0x409
 2000 0496 03       		.uleb128 0x3
 2001 0497 13000000 		.4byte	.LASF55
 2002 049b 0B       		.byte	0xb
 2003 049c 4A       		.byte	0x4a
 2004 049d 46040000 		.4byte	0x446
 2005 04a1 19       		.uleb128 0x19
 2006 04a2 73020000 		.4byte	.LASF58
 2007 04a6 01       		.byte	0x1
 2008 04a7 46       		.byte	0x46
 2009 04a8 D1040000 		.4byte	0x4d1
 2010 04ac 01       		.byte	0x1
 2011 04ad D1040000 		.4byte	0x4d1
 2012 04b1 1A       		.uleb128 0x1a
 2013 04b2 7000     		.ascii	"p\000"
 2014 04b4 01       		.byte	0x1
 2015 04b5 46       		.byte	0x46
 2016 04b6 D1040000 		.4byte	0x4d1
 2017 04ba 1A       		.uleb128 0x1a
 2018 04bb 6E756D00 		.ascii	"num\000"
 2019 04bf 01       		.byte	0x1
 2020 04c0 46       		.byte	0x46
 2021 04c1 D7040000 		.4byte	0x4d7
 2022 04c5 1B       		.uleb128 0x1b
 2023 04c6 FF020000 		.4byte	.LASF56
 2024 04ca 01       		.byte	0x1
 2025 04cb 46       		.byte	0x46
 2026 04cc 37000000 		.4byte	0x37
 2027 04d0 00       		.byte	0
 2028 04d1 0D       		.uleb128 0xd
 2029 04d2 04       		.byte	0x4
 2030 04d3 0B020000 		.4byte	0x20b
 2031 04d7 04       		.uleb128 0x4
 2032 04d8 04       		.byte	0x4
 2033 04d9 05       		.byte	0x5
 2034 04da 3F020000 		.4byte	.LASF57
 2035 04de 19       		.uleb128 0x19
 2036 04df 57020000 		.4byte	.LASF59
 2037 04e3 01       		.byte	0x1
 2038 04e4 25       		.byte	0x25
 2039 04e5 D1040000 		.4byte	0x4d1
 2040 04e9 01       		.byte	0x1
 2041 04ea 3E050000 		.4byte	0x53e
 2042 04ee 1A       		.uleb128 0x1a
 2043 04ef 7000     		.ascii	"p\000"
 2044 04f1 01       		.byte	0x1
 2045 04f2 25       		.byte	0x25
 2046 04f3 D1040000 		.4byte	0x4d1
 2047 04f7 1A       		.uleb128 0x1a
ARM GAS  /tmp/ccxgpRfJ.s 			page 37


 2048 04f8 6E756D00 		.ascii	"num\000"
 2049 04fc 01       		.byte	0x1
 2050 04fd 26       		.byte	0x26
 2051 04fe D7040000 		.4byte	0x4d7
 2052 0502 1B       		.uleb128 0x1b
 2053 0503 FF020000 		.4byte	.LASF56
 2054 0507 01       		.byte	0x1
 2055 0508 27       		.byte	0x27
 2056 0509 37000000 		.4byte	0x37
 2057 050d 1B       		.uleb128 0x1b
 2058 050e 09040000 		.4byte	.LASF60
 2059 0512 01       		.byte	0x1
 2060 0513 28       		.byte	0x28
 2061 0514 D7040000 		.4byte	0x4d7
 2062 0518 1C       		.uleb128 0x1c
 2063 0519 6900     		.ascii	"i\000"
 2064 051b 01       		.byte	0x1
 2065 051c 29       		.byte	0x29
 2066 051d 25000000 		.4byte	0x25
 2067 0521 1C       		.uleb128 0x1c
 2068 0522 7100     		.ascii	"q\000"
 2069 0524 01       		.byte	0x1
 2070 0525 2A       		.byte	0x2a
 2071 0526 D1040000 		.4byte	0x4d1
 2072 052a 1C       		.uleb128 0x1c
 2073 052b 6C00     		.ascii	"l\000"
 2074 052d 01       		.byte	0x1
 2075 052e 2B       		.byte	0x2b
 2076 052f D7040000 		.4byte	0x4d7
 2077 0533 1C       		.uleb128 0x1c
 2078 0534 6C6C00   		.ascii	"ll\000"
 2079 0537 01       		.byte	0x1
 2080 0538 2B       		.byte	0x2b
 2081 0539 D7040000 		.4byte	0x4d7
 2082 053d 00       		.byte	0
 2083 053e 1D       		.uleb128 0x1d
 2084 053f 3E040000 		.4byte	.LASF67
 2085 0543 01       		.byte	0x1
 2086 0544 79       		.byte	0x79
 2087 0545 25000000 		.4byte	0x25
 2088 0549 00000000 		.4byte	.LFB83
 2089 054d 1C050000 		.4byte	.LFE83-.LFB83
 2090 0551 01       		.uleb128 0x1
 2091 0552 9C       		.byte	0x9c
 2092 0553 AE070000 		.4byte	0x7ae
 2093 0557 1E       		.uleb128 0x1e
 2094 0558 63687000 		.ascii	"chp\000"
 2095 055c 01       		.byte	0x1
 2096 055d 79       		.byte	0x79
 2097 055e AE070000 		.4byte	0x7ae
 2098 0562 00000000 		.4byte	.LLST0
 2099 0566 1E       		.uleb128 0x1e
 2100 0567 666D7400 		.ascii	"fmt\000"
 2101 056b 01       		.byte	0x1
 2102 056c 79       		.byte	0x79
 2103 056d 00020000 		.4byte	0x200
 2104 0571 79000000 		.4byte	.LLST1
ARM GAS  /tmp/ccxgpRfJ.s 			page 38


 2105 0575 1E       		.uleb128 0x1e
 2106 0576 617000   		.ascii	"ap\000"
 2107 0579 01       		.byte	0x1
 2108 057a 79       		.byte	0x79
 2109 057b FE030000 		.4byte	0x3fe
 2110 057f 6F010000 		.4byte	.LLST2
 2111 0583 1F       		.uleb128 0x1f
 2112 0584 7000     		.ascii	"p\000"
 2113 0586 01       		.byte	0x1
 2114 0587 7A       		.byte	0x7a
 2115 0588 D1040000 		.4byte	0x4d1
 2116 058c 82010000 		.4byte	.LLST3
 2117 0590 1F       		.uleb128 0x1f
 2118 0591 7300     		.ascii	"s\000"
 2119 0593 01       		.byte	0x1
 2120 0594 7A       		.byte	0x7a
 2121 0595 D1040000 		.4byte	0x4d1
 2122 0599 FF020000 		.4byte	.LLST4
 2123 059d 1F       		.uleb128 0x1f
 2124 059e 6300     		.ascii	"c\000"
 2125 05a0 01       		.byte	0x1
 2126 05a1 7A       		.byte	0x7a
 2127 05a2 0B020000 		.4byte	0x20b
 2128 05a6 2D050000 		.4byte	.LLST5
 2129 05aa 20       		.uleb128 0x20
 2130 05ab 9C030000 		.4byte	.LASF61
 2131 05af 01       		.byte	0x1
 2132 05b0 7A       		.byte	0x7a
 2133 05b1 0B020000 		.4byte	0x20b
 2134 05b5 D1050000 		.4byte	.LLST6
 2135 05b9 1F       		.uleb128 0x1f
 2136 05ba 6900     		.ascii	"i\000"
 2137 05bc 01       		.byte	0x1
 2138 05bd 7B       		.byte	0x7b
 2139 05be 25000000 		.4byte	0x25
 2140 05c2 81060000 		.4byte	.LLST7
 2141 05c6 20       		.uleb128 0x20
 2142 05c7 17040000 		.4byte	.LASF62
 2143 05cb 01       		.byte	0x1
 2144 05cc 7B       		.byte	0x7b
 2145 05cd 25000000 		.4byte	0x25
 2146 05d1 14070000 		.4byte	.LLST8
 2147 05d5 20       		.uleb128 0x20
 2148 05d6 F1010000 		.4byte	.LASF63
 2149 05da 01       		.byte	0x1
 2150 05db 7B       		.byte	0x7b
 2151 05dc 25000000 		.4byte	0x25
 2152 05e0 B1070000 		.4byte	.LLST9
 2153 05e4 1F       		.uleb128 0x1f
 2154 05e5 6E00     		.ascii	"n\000"
 2155 05e7 01       		.byte	0x1
 2156 05e8 7C       		.byte	0x7c
 2157 05e9 25000000 		.4byte	0x25
 2158 05ed 29090000 		.4byte	.LLST10
 2159 05f1 20       		.uleb128 0x20
 2160 05f2 84020000 		.4byte	.LASF64
 2161 05f6 01       		.byte	0x1
ARM GAS  /tmp/ccxgpRfJ.s 			page 39


 2162 05f7 7D       		.byte	0x7d
 2163 05f8 D5030000 		.4byte	0x3d5
 2164 05fc BF090000 		.4byte	.LLST11
 2165 0600 20       		.uleb128 0x20
 2166 0601 34020000 		.4byte	.LASF65
 2167 0605 01       		.byte	0x1
 2168 0606 7D       		.byte	0x7d
 2169 0607 D5030000 		.4byte	0x3d5
 2170 060b 210A0000 		.4byte	.LLST12
 2171 060f 1F       		.uleb128 0x1f
 2172 0610 6C00     		.ascii	"l\000"
 2173 0612 01       		.byte	0x1
 2174 0613 7E       		.byte	0x7e
 2175 0614 D7040000 		.4byte	0x4d7
 2176 0618 670A0000 		.4byte	.LLST13
 2177 061c 21       		.uleb128 0x21
 2178 061d E3020000 		.4byte	.LASF66
 2179 0621 01       		.byte	0x1
 2180 0622 83       		.byte	0x83
 2181 0623 B4070000 		.4byte	0x7b4
 2182 0627 02       		.uleb128 0x2
 2183 0628 91       		.byte	0x91
 2184 0629 4C       		.sleb128 -52
 2185 062a 22       		.uleb128 0x22
 2186 062b 26000000 		.4byte	.LASF76
 2187 062f 01       		.byte	0x1
 2188 0630 EF       		.byte	0xef
 2189 0631 1E020000 		.4byte	.L26
 2190 0635 23       		.uleb128 0x23
 2191 0636 A1040000 		.4byte	0x4a1
 2192 063a 20020000 		.4byte	.LBB14
 2193 063e 00000000 		.4byte	.Ldebug_ranges0+0
 2194 0642 01       		.byte	0x1
 2195 0643 F4       		.byte	0xf4
 2196 0644 C2060000 		.4byte	0x6c2
 2197 0648 24       		.uleb128 0x24
 2198 0649 C5040000 		.4byte	0x4c5
 2199 064d D20A0000 		.4byte	.LLST14
 2200 0651 24       		.uleb128 0x24
 2201 0652 BA040000 		.4byte	0x4ba
 2202 0656 F00A0000 		.4byte	.LLST15
 2203 065a 24       		.uleb128 0x24
 2204 065b B1040000 		.4byte	0x4b1
 2205 065f 0E0B0000 		.4byte	.LLST16
 2206 0663 25       		.uleb128 0x25
 2207 0664 DE040000 		.4byte	0x4de
 2208 0668 20020000 		.4byte	.LBB15
 2209 066c 00000000 		.4byte	.Ldebug_ranges0+0
 2210 0670 01       		.byte	0x1
 2211 0671 48       		.byte	0x48
 2212 0672 24       		.uleb128 0x24
 2213 0673 0D050000 		.4byte	0x50d
 2214 0677 B10B0000 		.4byte	.LLST17
 2215 067b 24       		.uleb128 0x24
 2216 067c 02050000 		.4byte	0x502
 2217 0680 D20A0000 		.4byte	.LLST14
 2218 0684 24       		.uleb128 0x24
ARM GAS  /tmp/ccxgpRfJ.s 			page 40


 2219 0685 F7040000 		.4byte	0x4f7
 2220 0689 F00A0000 		.4byte	.LLST15
 2221 068d 24       		.uleb128 0x24
 2222 068e EE040000 		.4byte	0x4ee
 2223 0692 DD0B0000 		.4byte	.LLST20
 2224 0696 26       		.uleb128 0x26
 2225 0697 00000000 		.4byte	.Ldebug_ranges0+0
 2226 069b 27       		.uleb128 0x27
 2227 069c 18050000 		.4byte	0x518
 2228 06a0 7C0C0000 		.4byte	.LLST21
 2229 06a4 27       		.uleb128 0x27
 2230 06a5 21050000 		.4byte	0x521
 2231 06a9 FF0C0000 		.4byte	.LLST22
 2232 06ad 27       		.uleb128 0x27
 2233 06ae 2A050000 		.4byte	0x52a
 2234 06b2 7E0D0000 		.4byte	.LLST23
 2235 06b6 27       		.uleb128 0x27
 2236 06b7 33050000 		.4byte	0x533
 2237 06bb B20D0000 		.4byte	.LLST24
 2238 06bf 00       		.byte	0
 2239 06c0 00       		.byte	0
 2240 06c1 00       		.byte	0
 2241 06c2 23       		.uleb128 0x23
 2242 06c3 A1040000 		.4byte	0x4a1
 2243 06c7 34030000 		.4byte	.LBB27
 2244 06cb 30000000 		.4byte	.Ldebug_ranges0+0x30
 2245 06cf 01       		.byte	0x1
 2246 06d0 D8       		.byte	0xd8
 2247 06d1 4F070000 		.4byte	0x74f
 2248 06d5 24       		.uleb128 0x24
 2249 06d6 C5040000 		.4byte	0x4c5
 2250 06da FC0D0000 		.4byte	.LLST25
 2251 06de 24       		.uleb128 0x24
 2252 06df BA040000 		.4byte	0x4ba
 2253 06e3 280E0000 		.4byte	.LLST26
 2254 06e7 24       		.uleb128 0x24
 2255 06e8 B1040000 		.4byte	0x4b1
 2256 06ec 3B0E0000 		.4byte	.LLST27
 2257 06f0 25       		.uleb128 0x25
 2258 06f1 DE040000 		.4byte	0x4de
 2259 06f5 34030000 		.4byte	.LBB28
 2260 06f9 30000000 		.4byte	.Ldebug_ranges0+0x30
 2261 06fd 01       		.byte	0x1
 2262 06fe 48       		.byte	0x48
 2263 06ff 24       		.uleb128 0x24
 2264 0700 0D050000 		.4byte	0x50d
 2265 0704 850E0000 		.4byte	.LLST28
 2266 0708 24       		.uleb128 0x24
 2267 0709 02050000 		.4byte	0x502
 2268 070d FC0D0000 		.4byte	.LLST25
 2269 0711 24       		.uleb128 0x24
 2270 0712 F7040000 		.4byte	0x4f7
 2271 0716 280E0000 		.4byte	.LLST26
 2272 071a 24       		.uleb128 0x24
 2273 071b EE040000 		.4byte	0x4ee
 2274 071f B10E0000 		.4byte	.LLST31
 2275 0723 26       		.uleb128 0x26
ARM GAS  /tmp/ccxgpRfJ.s 			page 41


 2276 0724 30000000 		.4byte	.Ldebug_ranges0+0x30
 2277 0728 27       		.uleb128 0x27
 2278 0729 18050000 		.4byte	0x518
 2279 072d 230F0000 		.4byte	.LLST32
 2280 0731 27       		.uleb128 0x27
 2281 0732 21050000 		.4byte	0x521
 2282 0736 430F0000 		.4byte	.LLST33
 2283 073a 27       		.uleb128 0x27
 2284 073b 2A050000 		.4byte	0x52a
 2285 073f C00F0000 		.4byte	.LLST34
 2286 0743 27       		.uleb128 0x27
 2287 0744 33050000 		.4byte	0x533
 2288 0748 F40F0000 		.4byte	.LLST35
 2289 074c 00       		.byte	0
 2290 074d 00       		.byte	0
 2291 074e 00       		.byte	0
 2292 074f 28       		.uleb128 0x28
 2293 0750 3A000000 		.4byte	.LVL5
 2294 0754 5F070000 		.4byte	0x75f
 2295 0758 29       		.uleb128 0x29
 2296 0759 01       		.uleb128 0x1
 2297 075a 50       		.byte	0x50
 2298 075b 02       		.uleb128 0x2
 2299 075c 75       		.byte	0x75
 2300 075d 00       		.sleb128 0
 2301 075e 00       		.byte	0
 2302 075f 28       		.uleb128 0x28
 2303 0760 AE010000 		.4byte	.LVL63
 2304 0764 75070000 		.4byte	0x775
 2305 0768 29       		.uleb128 0x29
 2306 0769 01       		.uleb128 0x1
 2307 076a 51       		.byte	0x51
 2308 076b 02       		.uleb128 0x2
 2309 076c 76       		.byte	0x76
 2310 076d 00       		.sleb128 0
 2311 076e 29       		.uleb128 0x29
 2312 076f 01       		.uleb128 0x1
 2313 0770 50       		.byte	0x50
 2314 0771 02       		.uleb128 0x2
 2315 0772 75       		.byte	0x75
 2316 0773 00       		.sleb128 0
 2317 0774 00       		.byte	0
 2318 0775 28       		.uleb128 0x28
 2319 0776 D6010000 		.4byte	.LVL69
 2320 077a 85070000 		.4byte	0x785
 2321 077e 29       		.uleb128 0x29
 2322 077f 01       		.uleb128 0x1
 2323 0780 50       		.byte	0x50
 2324 0781 02       		.uleb128 0x2
 2325 0782 75       		.byte	0x75
 2326 0783 00       		.sleb128 0
 2327 0784 00       		.byte	0
 2328 0785 28       		.uleb128 0x28
 2329 0786 08020000 		.4byte	.LVL76
 2330 078a 9B070000 		.4byte	0x79b
 2331 078e 29       		.uleb128 0x29
 2332 078f 01       		.uleb128 0x1
ARM GAS  /tmp/ccxgpRfJ.s 			page 42


 2333 0790 51       		.byte	0x51
 2334 0791 02       		.uleb128 0x2
 2335 0792 74       		.byte	0x74
 2336 0793 00       		.sleb128 0
 2337 0794 29       		.uleb128 0x29
 2338 0795 01       		.uleb128 0x1
 2339 0796 50       		.byte	0x50
 2340 0797 02       		.uleb128 0x2
 2341 0798 75       		.byte	0x75
 2342 0799 00       		.sleb128 0
 2343 079a 00       		.byte	0
 2344 079b 2A       		.uleb128 0x2a
 2345 079c A0040000 		.4byte	.LVL174
 2346 07a0 29       		.uleb128 0x29
 2347 07a1 01       		.uleb128 0x1
 2348 07a2 51       		.byte	0x51
 2349 07a3 02       		.uleb128 0x2
 2350 07a4 08       		.byte	0x8
 2351 07a5 2D       		.byte	0x2d
 2352 07a6 29       		.uleb128 0x29
 2353 07a7 01       		.uleb128 0x1
 2354 07a8 50       		.byte	0x50
 2355 07a9 02       		.uleb128 0x2
 2356 07aa 75       		.byte	0x75
 2357 07ab 00       		.sleb128 0
 2358 07ac 00       		.byte	0
 2359 07ad 00       		.byte	0
 2360 07ae 0D       		.uleb128 0xd
 2361 07af 04       		.byte	0x4
 2362 07b0 CA030000 		.4byte	0x3ca
 2363 07b4 12       		.uleb128 0x12
 2364 07b5 0B020000 		.4byte	0x20b
 2365 07b9 C4070000 		.4byte	0x7c4
 2366 07bd 13       		.uleb128 0x13
 2367 07be 31010000 		.4byte	0x131
 2368 07c2 0B       		.byte	0xb
 2369 07c3 00       		.byte	0
 2370 07c4 2B       		.uleb128 0x2b
 2371 07c5 50030000 		.4byte	.LASF68
 2372 07c9 01       		.byte	0x1
 2373 07ca 2E01     		.2byte	0x12e
 2374 07cc 25000000 		.4byte	0x25
 2375 07d0 00000000 		.4byte	.LFB84
 2376 07d4 18000000 		.4byte	.LFE84-.LFB84
 2377 07d8 01       		.uleb128 0x1
 2378 07d9 9C       		.byte	0x9c
 2379 07da 39080000 		.4byte	0x839
 2380 07de 2C       		.uleb128 0x2c
 2381 07df 63687000 		.ascii	"chp\000"
 2382 07e3 01       		.byte	0x1
 2383 07e4 2E01     		.2byte	0x12e
 2384 07e6 AE070000 		.4byte	0x7ae
 2385 07ea 54100000 		.4byte	.LLST36
 2386 07ee 2D       		.uleb128 0x2d
 2387 07ef 666D7400 		.ascii	"fmt\000"
 2388 07f3 01       		.byte	0x1
 2389 07f4 2E01     		.2byte	0x12e
ARM GAS  /tmp/ccxgpRfJ.s 			page 43


 2390 07f6 00020000 		.4byte	0x200
 2391 07fa 02       		.uleb128 0x2
 2392 07fb 91       		.byte	0x91
 2393 07fc 74       		.sleb128 -12
 2394 07fd 2E       		.uleb128 0x2e
 2395 07fe 2F       		.uleb128 0x2f
 2396 07ff 617000   		.ascii	"ap\000"
 2397 0802 01       		.byte	0x1
 2398 0803 2F01     		.2byte	0x12f
 2399 0805 FE030000 		.4byte	0x3fe
 2400 0809 02       		.uleb128 0x2
 2401 080a 91       		.byte	0x91
 2402 080b 6C       		.sleb128 -20
 2403 080c 30       		.uleb128 0x30
 2404 080d AB000000 		.4byte	.LASF69
 2405 0811 01       		.byte	0x1
 2406 0812 3001     		.2byte	0x130
 2407 0814 25000000 		.4byte	0x25
 2408 0818 01       		.uleb128 0x1
 2409 0819 50       		.byte	0x50
 2410 081a 31       		.uleb128 0x31
 2411 081b 10000000 		.4byte	.LVL196
 2412 081f 3E050000 		.4byte	0x53e
 2413 0823 29       		.uleb128 0x29
 2414 0824 01       		.uleb128 0x1
 2415 0825 52       		.byte	0x52
 2416 0826 02       		.uleb128 0x2
 2417 0827 91       		.byte	0x91
 2418 0828 60       		.sleb128 -32
 2419 0829 29       		.uleb128 0x29
 2420 082a 01       		.uleb128 0x1
 2421 082b 51       		.byte	0x51
 2422 082c 03       		.uleb128 0x3
 2423 082d 91       		.byte	0x91
 2424 082e 5C       		.sleb128 -36
 2425 082f 06       		.byte	0x6
 2426 0830 29       		.uleb128 0x29
 2427 0831 01       		.uleb128 0x1
 2428 0832 50       		.byte	0x50
 2429 0833 03       		.uleb128 0x3
 2430 0834 F3       		.byte	0xf3
 2431 0835 01       		.uleb128 0x1
 2432 0836 50       		.byte	0x50
 2433 0837 00       		.byte	0
 2434 0838 00       		.byte	0
 2435 0839 2B       		.uleb128 0x2b
 2436 083a FF010000 		.4byte	.LASF70
 2437 083e 01       		.byte	0x1
 2438 083f 5501     		.2byte	0x155
 2439 0841 25000000 		.4byte	0x25
 2440 0845 00000000 		.4byte	.LFB85
 2441 0849 52000000 		.4byte	.LFE85-.LFB85
 2442 084d 01       		.uleb128 0x1
 2443 084e 9C       		.byte	0x9c
 2444 084f 57090000 		.4byte	0x957
 2445 0853 2C       		.uleb128 0x2c
 2446 0854 73747200 		.ascii	"str\000"
ARM GAS  /tmp/ccxgpRfJ.s 			page 44


 2447 0858 01       		.byte	0x1
 2448 0859 5501     		.2byte	0x155
 2449 085b D1040000 		.4byte	0x4d1
 2450 085f 75100000 		.4byte	.LLST37
 2451 0863 32       		.uleb128 0x32
 2452 0864 73030000 		.4byte	.LASF53
 2453 0868 01       		.byte	0x1
 2454 0869 5501     		.2byte	0x155
 2455 086b 2C000000 		.4byte	0x2c
 2456 086f B7100000 		.4byte	.LLST38
 2457 0873 2D       		.uleb128 0x2d
 2458 0874 666D7400 		.ascii	"fmt\000"
 2459 0878 01       		.byte	0x1
 2460 0879 5501     		.2byte	0x155
 2461 087b 00020000 		.4byte	0x200
 2462 087f 02       		.uleb128 0x2
 2463 0880 91       		.byte	0x91
 2464 0881 78       		.sleb128 -8
 2465 0882 2E       		.uleb128 0x2e
 2466 0883 2F       		.uleb128 0x2f
 2467 0884 617000   		.ascii	"ap\000"
 2468 0887 01       		.byte	0x1
 2469 0888 5601     		.2byte	0x156
 2470 088a FE030000 		.4byte	0x3fe
 2471 088e 02       		.uleb128 0x2
 2472 088f 91       		.byte	0x91
 2473 0890 50       		.sleb128 -48
 2474 0891 2F       		.uleb128 0x2f
 2475 0892 6D7300   		.ascii	"ms\000"
 2476 0895 01       		.byte	0x1
 2477 0896 5701     		.2byte	0x157
 2478 0898 96040000 		.4byte	0x496
 2479 089c 02       		.uleb128 0x2
 2480 089d 91       		.byte	0x91
 2481 089e 54       		.sleb128 -44
 2482 089f 33       		.uleb128 0x33
 2483 08a0 63687000 		.ascii	"chp\000"
 2484 08a4 01       		.byte	0x1
 2485 08a5 5801     		.2byte	0x158
 2486 08a7 AE070000 		.4byte	0x7ae
 2487 08ab F9100000 		.4byte	.LLST39
 2488 08af 34       		.uleb128 0x34
 2489 08b0 00000000 		.4byte	.LASF71
 2490 08b4 01       		.byte	0x1
 2491 08b5 5901     		.2byte	0x159
 2492 08b7 2C000000 		.4byte	0x2c
 2493 08bb 4B110000 		.4byte	.LLST40
 2494 08bf 34       		.uleb128 0x34
 2495 08c0 C3000000 		.4byte	.LASF72
 2496 08c4 01       		.byte	0x1
 2497 08c5 5A01     		.2byte	0x15a
 2498 08c7 25000000 		.4byte	0x25
 2499 08cb 84110000 		.4byte	.LLST41
 2500 08cf 35       		.uleb128 0x35
 2501 08d0 18000000 		.4byte	.LVL202
 2502 08d4 63090000 		.4byte	0x963
 2503 08d8 F4080000 		.4byte	0x8f4
ARM GAS  /tmp/ccxgpRfJ.s 			page 45


 2504 08dc 29       		.uleb128 0x29
 2505 08dd 01       		.uleb128 0x1
 2506 08de 53       		.byte	0x53
 2507 08df 01       		.uleb128 0x1
 2508 08e0 30       		.byte	0x30
 2509 08e1 29       		.uleb128 0x29
 2510 08e2 01       		.uleb128 0x1
 2511 08e3 52       		.byte	0x52
 2512 08e4 02       		.uleb128 0x2
 2513 08e5 74       		.byte	0x74
 2514 08e6 7F       		.sleb128 -1
 2515 08e7 29       		.uleb128 0x29
 2516 08e8 01       		.uleb128 0x1
 2517 08e9 51       		.byte	0x51
 2518 08ea 02       		.uleb128 0x2
 2519 08eb 75       		.byte	0x75
 2520 08ec 00       		.sleb128 0
 2521 08ed 29       		.uleb128 0x29
 2522 08ee 01       		.uleb128 0x1
 2523 08ef 50       		.byte	0x50
 2524 08f0 02       		.uleb128 0x2
 2525 08f1 91       		.byte	0x91
 2526 08f2 44       		.sleb128 -60
 2527 08f3 00       		.byte	0
 2528 08f4 35       		.uleb128 0x35
 2529 08f5 24000000 		.4byte	.LVL204
 2530 08f9 3E050000 		.4byte	0x53e
 2531 08fd 15090000 		.4byte	0x915
 2532 0901 29       		.uleb128 0x29
 2533 0902 01       		.uleb128 0x1
 2534 0903 52       		.byte	0x52
 2535 0904 02       		.uleb128 0x2
 2536 0905 91       		.byte	0x91
 2537 0906 6C       		.sleb128 -20
 2538 0907 29       		.uleb128 0x29
 2539 0908 01       		.uleb128 0x1
 2540 0909 51       		.byte	0x51
 2541 090a 03       		.uleb128 0x3
 2542 090b 91       		.byte	0x91
 2543 090c 68       		.sleb128 -24
 2544 090d 06       		.byte	0x6
 2545 090e 29       		.uleb128 0x29
 2546 090f 01       		.uleb128 0x1
 2547 0910 50       		.byte	0x50
 2548 0911 02       		.uleb128 0x2
 2549 0912 91       		.byte	0x91
 2550 0913 44       		.sleb128 -60
 2551 0914 00       		.byte	0
 2552 0915 35       		.uleb128 0x35
 2553 0916 44000000 		.4byte	.LVL211
 2554 091a 63090000 		.4byte	0x963
 2555 091e 39090000 		.4byte	0x939
 2556 0922 29       		.uleb128 0x29
 2557 0923 01       		.uleb128 0x1
 2558 0924 53       		.byte	0x53
 2559 0925 01       		.uleb128 0x1
 2560 0926 30       		.byte	0x30
ARM GAS  /tmp/ccxgpRfJ.s 			page 46


 2561 0927 29       		.uleb128 0x29
 2562 0928 01       		.uleb128 0x1
 2563 0929 52       		.byte	0x52
 2564 092a 01       		.uleb128 0x1
 2565 092b 30       		.byte	0x30
 2566 092c 29       		.uleb128 0x29
 2567 092d 01       		.uleb128 0x1
 2568 092e 51       		.byte	0x51
 2569 092f 02       		.uleb128 0x2
 2570 0930 75       		.byte	0x75
 2571 0931 00       		.sleb128 0
 2572 0932 29       		.uleb128 0x29
 2573 0933 01       		.uleb128 0x1
 2574 0934 50       		.byte	0x50
 2575 0935 02       		.uleb128 0x2
 2576 0936 91       		.byte	0x91
 2577 0937 44       		.sleb128 -60
 2578 0938 00       		.byte	0
 2579 0939 31       		.uleb128 0x31
 2580 093a 50000000 		.4byte	.LVL213
 2581 093e 3E050000 		.4byte	0x53e
 2582 0942 29       		.uleb128 0x29
 2583 0943 01       		.uleb128 0x1
 2584 0944 52       		.byte	0x52
 2585 0945 02       		.uleb128 0x2
 2586 0946 91       		.byte	0x91
 2587 0947 6C       		.sleb128 -20
 2588 0948 29       		.uleb128 0x29
 2589 0949 01       		.uleb128 0x1
 2590 094a 51       		.byte	0x51
 2591 094b 03       		.uleb128 0x3
 2592 094c 91       		.byte	0x91
 2593 094d 68       		.sleb128 -24
 2594 094e 06       		.byte	0x6
 2595 094f 29       		.uleb128 0x29
 2596 0950 01       		.uleb128 0x1
 2597 0951 50       		.byte	0x50
 2598 0952 02       		.uleb128 0x2
 2599 0953 91       		.byte	0x91
 2600 0954 44       		.sleb128 -60
 2601 0955 00       		.byte	0
 2602 0956 00       		.byte	0
 2603 0957 36       		.uleb128 0x36
 2604 0958 6E696C00 		.ascii	"nil\000"
 2605 095c 04       		.byte	0x4
 2606 095d C203     		.2byte	0x3c2
 2607 095f 7F020000 		.4byte	0x27f
 2608 0963 37       		.uleb128 0x37
 2609 0964 EA020000 		.4byte	.LASF77
 2610 0968 0B       		.byte	0xb
 2611 0969 57       		.byte	0x57
 2612 096a 83090000 		.4byte	0x983
 2613 096e 16       		.uleb128 0x16
 2614 096f 83090000 		.4byte	0x983
 2615 0973 16       		.uleb128 0x16
 2616 0974 6F030000 		.4byte	0x36f
 2617 0978 16       		.uleb128 0x16
ARM GAS  /tmp/ccxgpRfJ.s 			page 47


 2618 0979 2C000000 		.4byte	0x2c
 2619 097d 16       		.uleb128 0x16
 2620 097e 2C000000 		.4byte	0x2c
 2621 0982 00       		.byte	0
 2622 0983 0D       		.uleb128 0xd
 2623 0984 04       		.byte	0x4
 2624 0985 96040000 		.4byte	0x496
 2625 0989 00       		.byte	0
 2626              		.section	.debug_abbrev,"",%progbits
 2627              	.Ldebug_abbrev0:
 2628 0000 01       		.uleb128 0x1
 2629 0001 11       		.uleb128 0x11
 2630 0002 01       		.byte	0x1
 2631 0003 25       		.uleb128 0x25
 2632 0004 0E       		.uleb128 0xe
 2633 0005 13       		.uleb128 0x13
 2634 0006 0B       		.uleb128 0xb
 2635 0007 03       		.uleb128 0x3
 2636 0008 0E       		.uleb128 0xe
 2637 0009 1B       		.uleb128 0x1b
 2638 000a 0E       		.uleb128 0xe
 2639 000b 55       		.uleb128 0x55
 2640 000c 17       		.uleb128 0x17
 2641 000d 11       		.uleb128 0x11
 2642 000e 01       		.uleb128 0x1
 2643 000f 10       		.uleb128 0x10
 2644 0010 17       		.uleb128 0x17
 2645 0011 00       		.byte	0
 2646 0012 00       		.byte	0
 2647 0013 02       		.uleb128 0x2
 2648 0014 24       		.uleb128 0x24
 2649 0015 00       		.byte	0
 2650 0016 0B       		.uleb128 0xb
 2651 0017 0B       		.uleb128 0xb
 2652 0018 3E       		.uleb128 0x3e
 2653 0019 0B       		.uleb128 0xb
 2654 001a 03       		.uleb128 0x3
 2655 001b 08       		.uleb128 0x8
 2656 001c 00       		.byte	0
 2657 001d 00       		.byte	0
 2658 001e 03       		.uleb128 0x3
 2659 001f 16       		.uleb128 0x16
 2660 0020 00       		.byte	0
 2661 0021 03       		.uleb128 0x3
 2662 0022 0E       		.uleb128 0xe
 2663 0023 3A       		.uleb128 0x3a
 2664 0024 0B       		.uleb128 0xb
 2665 0025 3B       		.uleb128 0x3b
 2666 0026 0B       		.uleb128 0xb
 2667 0027 49       		.uleb128 0x49
 2668 0028 13       		.uleb128 0x13
 2669 0029 00       		.byte	0
 2670 002a 00       		.byte	0
 2671 002b 04       		.uleb128 0x4
 2672 002c 24       		.uleb128 0x24
 2673 002d 00       		.byte	0
 2674 002e 0B       		.uleb128 0xb
ARM GAS  /tmp/ccxgpRfJ.s 			page 48


 2675 002f 0B       		.uleb128 0xb
 2676 0030 3E       		.uleb128 0x3e
 2677 0031 0B       		.uleb128 0xb
 2678 0032 03       		.uleb128 0x3
 2679 0033 0E       		.uleb128 0xe
 2680 0034 00       		.byte	0
 2681 0035 00       		.byte	0
 2682 0036 05       		.uleb128 0x5
 2683 0037 13       		.uleb128 0x13
 2684 0038 01       		.byte	0x1
 2685 0039 03       		.uleb128 0x3
 2686 003a 0E       		.uleb128 0xe
 2687 003b 0B       		.uleb128 0xb
 2688 003c 0B       		.uleb128 0xb
 2689 003d 3A       		.uleb128 0x3a
 2690 003e 0B       		.uleb128 0xb
 2691 003f 3B       		.uleb128 0x3b
 2692 0040 05       		.uleb128 0x5
 2693 0041 01       		.uleb128 0x1
 2694 0042 13       		.uleb128 0x13
 2695 0043 00       		.byte	0
 2696 0044 00       		.byte	0
 2697 0045 06       		.uleb128 0x6
 2698 0046 0D       		.uleb128 0xd
 2699 0047 00       		.byte	0
 2700 0048 03       		.uleb128 0x3
 2701 0049 0E       		.uleb128 0xe
 2702 004a 3A       		.uleb128 0x3a
 2703 004b 0B       		.uleb128 0xb
 2704 004c 3B       		.uleb128 0x3b
 2705 004d 05       		.uleb128 0x5
 2706 004e 49       		.uleb128 0x49
 2707 004f 13       		.uleb128 0x13
 2708 0050 38       		.uleb128 0x38
 2709 0051 0B       		.uleb128 0xb
 2710 0052 00       		.byte	0
 2711 0053 00       		.byte	0
 2712 0054 07       		.uleb128 0x7
 2713 0055 0D       		.uleb128 0xd
 2714 0056 00       		.byte	0
 2715 0057 03       		.uleb128 0x3
 2716 0058 08       		.uleb128 0x8
 2717 0059 3A       		.uleb128 0x3a
 2718 005a 0B       		.uleb128 0xb
 2719 005b 3B       		.uleb128 0x3b
 2720 005c 05       		.uleb128 0x5
 2721 005d 49       		.uleb128 0x49
 2722 005e 13       		.uleb128 0x13
 2723 005f 38       		.uleb128 0x38
 2724 0060 0B       		.uleb128 0xb
 2725 0061 00       		.byte	0
 2726 0062 00       		.byte	0
 2727 0063 08       		.uleb128 0x8
 2728 0064 0F       		.uleb128 0xf
 2729 0065 00       		.byte	0
 2730 0066 0B       		.uleb128 0xb
 2731 0067 0B       		.uleb128 0xb
ARM GAS  /tmp/ccxgpRfJ.s 			page 49


 2732 0068 00       		.byte	0
 2733 0069 00       		.byte	0
 2734 006a 09       		.uleb128 0x9
 2735 006b 13       		.uleb128 0x13
 2736 006c 01       		.byte	0x1
 2737 006d 03       		.uleb128 0x3
 2738 006e 0E       		.uleb128 0xe
 2739 006f 0B       		.uleb128 0xb
 2740 0070 0B       		.uleb128 0xb
 2741 0071 3A       		.uleb128 0x3a
 2742 0072 0B       		.uleb128 0xb
 2743 0073 3B       		.uleb128 0x3b
 2744 0074 0B       		.uleb128 0xb
 2745 0075 01       		.uleb128 0x1
 2746 0076 13       		.uleb128 0x13
 2747 0077 00       		.byte	0
 2748 0078 00       		.byte	0
 2749 0079 0A       		.uleb128 0xa
 2750 007a 0D       		.uleb128 0xd
 2751 007b 00       		.byte	0
 2752 007c 03       		.uleb128 0x3
 2753 007d 08       		.uleb128 0x8
 2754 007e 3A       		.uleb128 0x3a
 2755 007f 0B       		.uleb128 0xb
 2756 0080 3B       		.uleb128 0x3b
 2757 0081 0B       		.uleb128 0xb
 2758 0082 49       		.uleb128 0x49
 2759 0083 13       		.uleb128 0x13
 2760 0084 38       		.uleb128 0x38
 2761 0085 0B       		.uleb128 0xb
 2762 0086 00       		.byte	0
 2763 0087 00       		.byte	0
 2764 0088 0B       		.uleb128 0xb
 2765 0089 16       		.uleb128 0x16
 2766 008a 00       		.byte	0
 2767 008b 03       		.uleb128 0x3
 2768 008c 0E       		.uleb128 0xe
 2769 008d 3A       		.uleb128 0x3a
 2770 008e 0B       		.uleb128 0xb
 2771 008f 3B       		.uleb128 0x3b
 2772 0090 05       		.uleb128 0x5
 2773 0091 49       		.uleb128 0x49
 2774 0092 13       		.uleb128 0x13
 2775 0093 00       		.byte	0
 2776 0094 00       		.byte	0
 2777 0095 0C       		.uleb128 0xc
 2778 0096 35       		.uleb128 0x35
 2779 0097 00       		.byte	0
 2780 0098 49       		.uleb128 0x49
 2781 0099 13       		.uleb128 0x13
 2782 009a 00       		.byte	0
 2783 009b 00       		.byte	0
 2784 009c 0D       		.uleb128 0xd
 2785 009d 0F       		.uleb128 0xf
 2786 009e 00       		.byte	0
 2787 009f 0B       		.uleb128 0xb
 2788 00a0 0B       		.uleb128 0xb
ARM GAS  /tmp/ccxgpRfJ.s 			page 50


 2789 00a1 49       		.uleb128 0x49
 2790 00a2 13       		.uleb128 0x13
 2791 00a3 00       		.byte	0
 2792 00a4 00       		.byte	0
 2793 00a5 0E       		.uleb128 0xe
 2794 00a6 26       		.uleb128 0x26
 2795 00a7 00       		.byte	0
 2796 00a8 49       		.uleb128 0x49
 2797 00a9 13       		.uleb128 0x13
 2798 00aa 00       		.byte	0
 2799 00ab 00       		.byte	0
 2800 00ac 0F       		.uleb128 0xf
 2801 00ad 17       		.uleb128 0x17
 2802 00ae 01       		.byte	0x1
 2803 00af 0B       		.uleb128 0xb
 2804 00b0 0B       		.uleb128 0xb
 2805 00b1 3A       		.uleb128 0x3a
 2806 00b2 0B       		.uleb128 0xb
 2807 00b3 3B       		.uleb128 0x3b
 2808 00b4 05       		.uleb128 0x5
 2809 00b5 01       		.uleb128 0x1
 2810 00b6 13       		.uleb128 0x13
 2811 00b7 00       		.byte	0
 2812 00b8 00       		.byte	0
 2813 00b9 10       		.uleb128 0x10
 2814 00ba 0D       		.uleb128 0xd
 2815 00bb 00       		.byte	0
 2816 00bc 03       		.uleb128 0x3
 2817 00bd 08       		.uleb128 0x8
 2818 00be 3A       		.uleb128 0x3a
 2819 00bf 0B       		.uleb128 0xb
 2820 00c0 3B       		.uleb128 0x3b
 2821 00c1 05       		.uleb128 0x5
 2822 00c2 49       		.uleb128 0x49
 2823 00c3 13       		.uleb128 0x13
 2824 00c4 00       		.byte	0
 2825 00c5 00       		.byte	0
 2826 00c6 11       		.uleb128 0x11
 2827 00c7 0D       		.uleb128 0xd
 2828 00c8 00       		.byte	0
 2829 00c9 03       		.uleb128 0x3
 2830 00ca 0E       		.uleb128 0xe
 2831 00cb 3A       		.uleb128 0x3a
 2832 00cc 0B       		.uleb128 0xb
 2833 00cd 3B       		.uleb128 0x3b
 2834 00ce 05       		.uleb128 0x5
 2835 00cf 49       		.uleb128 0x49
 2836 00d0 13       		.uleb128 0x13
 2837 00d1 00       		.byte	0
 2838 00d2 00       		.byte	0
 2839 00d3 12       		.uleb128 0x12
 2840 00d4 01       		.uleb128 0x1
 2841 00d5 01       		.byte	0x1
 2842 00d6 49       		.uleb128 0x49
 2843 00d7 13       		.uleb128 0x13
 2844 00d8 01       		.uleb128 0x1
 2845 00d9 13       		.uleb128 0x13
ARM GAS  /tmp/ccxgpRfJ.s 			page 51


 2846 00da 00       		.byte	0
 2847 00db 00       		.byte	0
 2848 00dc 13       		.uleb128 0x13
 2849 00dd 21       		.uleb128 0x21
 2850 00de 00       		.byte	0
 2851 00df 49       		.uleb128 0x49
 2852 00e0 13       		.uleb128 0x13
 2853 00e1 2F       		.uleb128 0x2f
 2854 00e2 0B       		.uleb128 0xb
 2855 00e3 00       		.byte	0
 2856 00e4 00       		.byte	0
 2857 00e5 14       		.uleb128 0x14
 2858 00e6 0D       		.uleb128 0xd
 2859 00e7 00       		.byte	0
 2860 00e8 03       		.uleb128 0x3
 2861 00e9 0E       		.uleb128 0xe
 2862 00ea 3A       		.uleb128 0x3a
 2863 00eb 0B       		.uleb128 0xb
 2864 00ec 3B       		.uleb128 0x3b
 2865 00ed 0B       		.uleb128 0xb
 2866 00ee 49       		.uleb128 0x49
 2867 00ef 13       		.uleb128 0x13
 2868 00f0 38       		.uleb128 0x38
 2869 00f1 0B       		.uleb128 0xb
 2870 00f2 00       		.byte	0
 2871 00f3 00       		.byte	0
 2872 00f4 15       		.uleb128 0x15
 2873 00f5 15       		.uleb128 0x15
 2874 00f6 01       		.byte	0x1
 2875 00f7 27       		.uleb128 0x27
 2876 00f8 19       		.uleb128 0x19
 2877 00f9 49       		.uleb128 0x49
 2878 00fa 13       		.uleb128 0x13
 2879 00fb 01       		.uleb128 0x1
 2880 00fc 13       		.uleb128 0x13
 2881 00fd 00       		.byte	0
 2882 00fe 00       		.byte	0
 2883 00ff 16       		.uleb128 0x16
 2884 0100 05       		.uleb128 0x5
 2885 0101 00       		.byte	0
 2886 0102 49       		.uleb128 0x49
 2887 0103 13       		.uleb128 0x13
 2888 0104 00       		.byte	0
 2889 0105 00       		.byte	0
 2890 0106 17       		.uleb128 0x17
 2891 0107 13       		.uleb128 0x13
 2892 0108 01       		.byte	0x1
 2893 0109 0B       		.uleb128 0xb
 2894 010a 0B       		.uleb128 0xb
 2895 010b 3A       		.uleb128 0x3a
 2896 010c 0B       		.uleb128 0xb
 2897 010d 3B       		.uleb128 0x3b
 2898 010e 0B       		.uleb128 0xb
 2899 010f 01       		.uleb128 0x1
 2900 0110 13       		.uleb128 0x13
 2901 0111 00       		.byte	0
 2902 0112 00       		.byte	0
ARM GAS  /tmp/ccxgpRfJ.s 			page 52


 2903 0113 18       		.uleb128 0x18
 2904 0114 0D       		.uleb128 0xd
 2905 0115 00       		.byte	0
 2906 0116 03       		.uleb128 0x3
 2907 0117 0E       		.uleb128 0xe
 2908 0118 49       		.uleb128 0x49
 2909 0119 13       		.uleb128 0x13
 2910 011a 38       		.uleb128 0x38
 2911 011b 0B       		.uleb128 0xb
 2912 011c 34       		.uleb128 0x34
 2913 011d 19       		.uleb128 0x19
 2914 011e 00       		.byte	0
 2915 011f 00       		.byte	0
 2916 0120 19       		.uleb128 0x19
 2917 0121 2E       		.uleb128 0x2e
 2918 0122 01       		.byte	0x1
 2919 0123 03       		.uleb128 0x3
 2920 0124 0E       		.uleb128 0xe
 2921 0125 3A       		.uleb128 0x3a
 2922 0126 0B       		.uleb128 0xb
 2923 0127 3B       		.uleb128 0x3b
 2924 0128 0B       		.uleb128 0xb
 2925 0129 27       		.uleb128 0x27
 2926 012a 19       		.uleb128 0x19
 2927 012b 49       		.uleb128 0x49
 2928 012c 13       		.uleb128 0x13
 2929 012d 20       		.uleb128 0x20
 2930 012e 0B       		.uleb128 0xb
 2931 012f 01       		.uleb128 0x1
 2932 0130 13       		.uleb128 0x13
 2933 0131 00       		.byte	0
 2934 0132 00       		.byte	0
 2935 0133 1A       		.uleb128 0x1a
 2936 0134 05       		.uleb128 0x5
 2937 0135 00       		.byte	0
 2938 0136 03       		.uleb128 0x3
 2939 0137 08       		.uleb128 0x8
 2940 0138 3A       		.uleb128 0x3a
 2941 0139 0B       		.uleb128 0xb
 2942 013a 3B       		.uleb128 0x3b
 2943 013b 0B       		.uleb128 0xb
 2944 013c 49       		.uleb128 0x49
 2945 013d 13       		.uleb128 0x13
 2946 013e 00       		.byte	0
 2947 013f 00       		.byte	0
 2948 0140 1B       		.uleb128 0x1b
 2949 0141 05       		.uleb128 0x5
 2950 0142 00       		.byte	0
 2951 0143 03       		.uleb128 0x3
 2952 0144 0E       		.uleb128 0xe
 2953 0145 3A       		.uleb128 0x3a
 2954 0146 0B       		.uleb128 0xb
 2955 0147 3B       		.uleb128 0x3b
 2956 0148 0B       		.uleb128 0xb
 2957 0149 49       		.uleb128 0x49
 2958 014a 13       		.uleb128 0x13
 2959 014b 00       		.byte	0
ARM GAS  /tmp/ccxgpRfJ.s 			page 53


 2960 014c 00       		.byte	0
 2961 014d 1C       		.uleb128 0x1c
 2962 014e 34       		.uleb128 0x34
 2963 014f 00       		.byte	0
 2964 0150 03       		.uleb128 0x3
 2965 0151 08       		.uleb128 0x8
 2966 0152 3A       		.uleb128 0x3a
 2967 0153 0B       		.uleb128 0xb
 2968 0154 3B       		.uleb128 0x3b
 2969 0155 0B       		.uleb128 0xb
 2970 0156 49       		.uleb128 0x49
 2971 0157 13       		.uleb128 0x13
 2972 0158 00       		.byte	0
 2973 0159 00       		.byte	0
 2974 015a 1D       		.uleb128 0x1d
 2975 015b 2E       		.uleb128 0x2e
 2976 015c 01       		.byte	0x1
 2977 015d 3F       		.uleb128 0x3f
 2978 015e 19       		.uleb128 0x19
 2979 015f 03       		.uleb128 0x3
 2980 0160 0E       		.uleb128 0xe
 2981 0161 3A       		.uleb128 0x3a
 2982 0162 0B       		.uleb128 0xb
 2983 0163 3B       		.uleb128 0x3b
 2984 0164 0B       		.uleb128 0xb
 2985 0165 27       		.uleb128 0x27
 2986 0166 19       		.uleb128 0x19
 2987 0167 49       		.uleb128 0x49
 2988 0168 13       		.uleb128 0x13
 2989 0169 11       		.uleb128 0x11
 2990 016a 01       		.uleb128 0x1
 2991 016b 12       		.uleb128 0x12
 2992 016c 06       		.uleb128 0x6
 2993 016d 40       		.uleb128 0x40
 2994 016e 18       		.uleb128 0x18
 2995 016f 9642     		.uleb128 0x2116
 2996 0171 19       		.uleb128 0x19
 2997 0172 01       		.uleb128 0x1
 2998 0173 13       		.uleb128 0x13
 2999 0174 00       		.byte	0
 3000 0175 00       		.byte	0
 3001 0176 1E       		.uleb128 0x1e
 3002 0177 05       		.uleb128 0x5
 3003 0178 00       		.byte	0
 3004 0179 03       		.uleb128 0x3
 3005 017a 08       		.uleb128 0x8
 3006 017b 3A       		.uleb128 0x3a
 3007 017c 0B       		.uleb128 0xb
 3008 017d 3B       		.uleb128 0x3b
 3009 017e 0B       		.uleb128 0xb
 3010 017f 49       		.uleb128 0x49
 3011 0180 13       		.uleb128 0x13
 3012 0181 02       		.uleb128 0x2
 3013 0182 17       		.uleb128 0x17
 3014 0183 00       		.byte	0
 3015 0184 00       		.byte	0
 3016 0185 1F       		.uleb128 0x1f
ARM GAS  /tmp/ccxgpRfJ.s 			page 54


 3017 0186 34       		.uleb128 0x34
 3018 0187 00       		.byte	0
 3019 0188 03       		.uleb128 0x3
 3020 0189 08       		.uleb128 0x8
 3021 018a 3A       		.uleb128 0x3a
 3022 018b 0B       		.uleb128 0xb
 3023 018c 3B       		.uleb128 0x3b
 3024 018d 0B       		.uleb128 0xb
 3025 018e 49       		.uleb128 0x49
 3026 018f 13       		.uleb128 0x13
 3027 0190 02       		.uleb128 0x2
 3028 0191 17       		.uleb128 0x17
 3029 0192 00       		.byte	0
 3030 0193 00       		.byte	0
 3031 0194 20       		.uleb128 0x20
 3032 0195 34       		.uleb128 0x34
 3033 0196 00       		.byte	0
 3034 0197 03       		.uleb128 0x3
 3035 0198 0E       		.uleb128 0xe
 3036 0199 3A       		.uleb128 0x3a
 3037 019a 0B       		.uleb128 0xb
 3038 019b 3B       		.uleb128 0x3b
 3039 019c 0B       		.uleb128 0xb
 3040 019d 49       		.uleb128 0x49
 3041 019e 13       		.uleb128 0x13
 3042 019f 02       		.uleb128 0x2
 3043 01a0 17       		.uleb128 0x17
 3044 01a1 00       		.byte	0
 3045 01a2 00       		.byte	0
 3046 01a3 21       		.uleb128 0x21
 3047 01a4 34       		.uleb128 0x34
 3048 01a5 00       		.byte	0
 3049 01a6 03       		.uleb128 0x3
 3050 01a7 0E       		.uleb128 0xe
 3051 01a8 3A       		.uleb128 0x3a
 3052 01a9 0B       		.uleb128 0xb
 3053 01aa 3B       		.uleb128 0x3b
 3054 01ab 0B       		.uleb128 0xb
 3055 01ac 49       		.uleb128 0x49
 3056 01ad 13       		.uleb128 0x13
 3057 01ae 02       		.uleb128 0x2
 3058 01af 18       		.uleb128 0x18
 3059 01b0 00       		.byte	0
 3060 01b1 00       		.byte	0
 3061 01b2 22       		.uleb128 0x22
 3062 01b3 0A       		.uleb128 0xa
 3063 01b4 00       		.byte	0
 3064 01b5 03       		.uleb128 0x3
 3065 01b6 0E       		.uleb128 0xe
 3066 01b7 3A       		.uleb128 0x3a
 3067 01b8 0B       		.uleb128 0xb
 3068 01b9 3B       		.uleb128 0x3b
 3069 01ba 0B       		.uleb128 0xb
 3070 01bb 11       		.uleb128 0x11
 3071 01bc 01       		.uleb128 0x1
 3072 01bd 00       		.byte	0
 3073 01be 00       		.byte	0
ARM GAS  /tmp/ccxgpRfJ.s 			page 55


 3074 01bf 23       		.uleb128 0x23
 3075 01c0 1D       		.uleb128 0x1d
 3076 01c1 01       		.byte	0x1
 3077 01c2 31       		.uleb128 0x31
 3078 01c3 13       		.uleb128 0x13
 3079 01c4 52       		.uleb128 0x52
 3080 01c5 01       		.uleb128 0x1
 3081 01c6 55       		.uleb128 0x55
 3082 01c7 17       		.uleb128 0x17
 3083 01c8 58       		.uleb128 0x58
 3084 01c9 0B       		.uleb128 0xb
 3085 01ca 59       		.uleb128 0x59
 3086 01cb 0B       		.uleb128 0xb
 3087 01cc 01       		.uleb128 0x1
 3088 01cd 13       		.uleb128 0x13
 3089 01ce 00       		.byte	0
 3090 01cf 00       		.byte	0
 3091 01d0 24       		.uleb128 0x24
 3092 01d1 05       		.uleb128 0x5
 3093 01d2 00       		.byte	0
 3094 01d3 31       		.uleb128 0x31
 3095 01d4 13       		.uleb128 0x13
 3096 01d5 02       		.uleb128 0x2
 3097 01d6 17       		.uleb128 0x17
 3098 01d7 00       		.byte	0
 3099 01d8 00       		.byte	0
 3100 01d9 25       		.uleb128 0x25
 3101 01da 1D       		.uleb128 0x1d
 3102 01db 01       		.byte	0x1
 3103 01dc 31       		.uleb128 0x31
 3104 01dd 13       		.uleb128 0x13
 3105 01de 52       		.uleb128 0x52
 3106 01df 01       		.uleb128 0x1
 3107 01e0 55       		.uleb128 0x55
 3108 01e1 17       		.uleb128 0x17
 3109 01e2 58       		.uleb128 0x58
 3110 01e3 0B       		.uleb128 0xb
 3111 01e4 59       		.uleb128 0x59
 3112 01e5 0B       		.uleb128 0xb
 3113 01e6 00       		.byte	0
 3114 01e7 00       		.byte	0
 3115 01e8 26       		.uleb128 0x26
 3116 01e9 0B       		.uleb128 0xb
 3117 01ea 01       		.byte	0x1
 3118 01eb 55       		.uleb128 0x55
 3119 01ec 17       		.uleb128 0x17
 3120 01ed 00       		.byte	0
 3121 01ee 00       		.byte	0
 3122 01ef 27       		.uleb128 0x27
 3123 01f0 34       		.uleb128 0x34
 3124 01f1 00       		.byte	0
 3125 01f2 31       		.uleb128 0x31
 3126 01f3 13       		.uleb128 0x13
 3127 01f4 02       		.uleb128 0x2
 3128 01f5 17       		.uleb128 0x17
 3129 01f6 00       		.byte	0
 3130 01f7 00       		.byte	0
ARM GAS  /tmp/ccxgpRfJ.s 			page 56


 3131 01f8 28       		.uleb128 0x28
 3132 01f9 898201   		.uleb128 0x4109
 3133 01fc 01       		.byte	0x1
 3134 01fd 11       		.uleb128 0x11
 3135 01fe 01       		.uleb128 0x1
 3136 01ff 01       		.uleb128 0x1
 3137 0200 13       		.uleb128 0x13
 3138 0201 00       		.byte	0
 3139 0202 00       		.byte	0
 3140 0203 29       		.uleb128 0x29
 3141 0204 8A8201   		.uleb128 0x410a
 3142 0207 00       		.byte	0
 3143 0208 02       		.uleb128 0x2
 3144 0209 18       		.uleb128 0x18
 3145 020a 9142     		.uleb128 0x2111
 3146 020c 18       		.uleb128 0x18
 3147 020d 00       		.byte	0
 3148 020e 00       		.byte	0
 3149 020f 2A       		.uleb128 0x2a
 3150 0210 898201   		.uleb128 0x4109
 3151 0213 01       		.byte	0x1
 3152 0214 11       		.uleb128 0x11
 3153 0215 01       		.uleb128 0x1
 3154 0216 00       		.byte	0
 3155 0217 00       		.byte	0
 3156 0218 2B       		.uleb128 0x2b
 3157 0219 2E       		.uleb128 0x2e
 3158 021a 01       		.byte	0x1
 3159 021b 3F       		.uleb128 0x3f
 3160 021c 19       		.uleb128 0x19
 3161 021d 03       		.uleb128 0x3
 3162 021e 0E       		.uleb128 0xe
 3163 021f 3A       		.uleb128 0x3a
 3164 0220 0B       		.uleb128 0xb
 3165 0221 3B       		.uleb128 0x3b
 3166 0222 05       		.uleb128 0x5
 3167 0223 27       		.uleb128 0x27
 3168 0224 19       		.uleb128 0x19
 3169 0225 49       		.uleb128 0x49
 3170 0226 13       		.uleb128 0x13
 3171 0227 11       		.uleb128 0x11
 3172 0228 01       		.uleb128 0x1
 3173 0229 12       		.uleb128 0x12
 3174 022a 06       		.uleb128 0x6
 3175 022b 40       		.uleb128 0x40
 3176 022c 18       		.uleb128 0x18
 3177 022d 9742     		.uleb128 0x2117
 3178 022f 19       		.uleb128 0x19
 3179 0230 01       		.uleb128 0x1
 3180 0231 13       		.uleb128 0x13
 3181 0232 00       		.byte	0
 3182 0233 00       		.byte	0
 3183 0234 2C       		.uleb128 0x2c
 3184 0235 05       		.uleb128 0x5
 3185 0236 00       		.byte	0
 3186 0237 03       		.uleb128 0x3
 3187 0238 08       		.uleb128 0x8
ARM GAS  /tmp/ccxgpRfJ.s 			page 57


 3188 0239 3A       		.uleb128 0x3a
 3189 023a 0B       		.uleb128 0xb
 3190 023b 3B       		.uleb128 0x3b
 3191 023c 05       		.uleb128 0x5
 3192 023d 49       		.uleb128 0x49
 3193 023e 13       		.uleb128 0x13
 3194 023f 02       		.uleb128 0x2
 3195 0240 17       		.uleb128 0x17
 3196 0241 00       		.byte	0
 3197 0242 00       		.byte	0
 3198 0243 2D       		.uleb128 0x2d
 3199 0244 05       		.uleb128 0x5
 3200 0245 00       		.byte	0
 3201 0246 03       		.uleb128 0x3
 3202 0247 08       		.uleb128 0x8
 3203 0248 3A       		.uleb128 0x3a
 3204 0249 0B       		.uleb128 0xb
 3205 024a 3B       		.uleb128 0x3b
 3206 024b 05       		.uleb128 0x5
 3207 024c 49       		.uleb128 0x49
 3208 024d 13       		.uleb128 0x13
 3209 024e 02       		.uleb128 0x2
 3210 024f 18       		.uleb128 0x18
 3211 0250 00       		.byte	0
 3212 0251 00       		.byte	0
 3213 0252 2E       		.uleb128 0x2e
 3214 0253 18       		.uleb128 0x18
 3215 0254 00       		.byte	0
 3216 0255 00       		.byte	0
 3217 0256 00       		.byte	0
 3218 0257 2F       		.uleb128 0x2f
 3219 0258 34       		.uleb128 0x34
 3220 0259 00       		.byte	0
 3221 025a 03       		.uleb128 0x3
 3222 025b 08       		.uleb128 0x8
 3223 025c 3A       		.uleb128 0x3a
 3224 025d 0B       		.uleb128 0xb
 3225 025e 3B       		.uleb128 0x3b
 3226 025f 05       		.uleb128 0x5
 3227 0260 49       		.uleb128 0x49
 3228 0261 13       		.uleb128 0x13
 3229 0262 02       		.uleb128 0x2
 3230 0263 18       		.uleb128 0x18
 3231 0264 00       		.byte	0
 3232 0265 00       		.byte	0
 3233 0266 30       		.uleb128 0x30
 3234 0267 34       		.uleb128 0x34
 3235 0268 00       		.byte	0
 3236 0269 03       		.uleb128 0x3
 3237 026a 0E       		.uleb128 0xe
 3238 026b 3A       		.uleb128 0x3a
 3239 026c 0B       		.uleb128 0xb
 3240 026d 3B       		.uleb128 0x3b
 3241 026e 05       		.uleb128 0x5
 3242 026f 49       		.uleb128 0x49
 3243 0270 13       		.uleb128 0x13
 3244 0271 02       		.uleb128 0x2
ARM GAS  /tmp/ccxgpRfJ.s 			page 58


 3245 0272 18       		.uleb128 0x18
 3246 0273 00       		.byte	0
 3247 0274 00       		.byte	0
 3248 0275 31       		.uleb128 0x31
 3249 0276 898201   		.uleb128 0x4109
 3250 0279 01       		.byte	0x1
 3251 027a 11       		.uleb128 0x11
 3252 027b 01       		.uleb128 0x1
 3253 027c 31       		.uleb128 0x31
 3254 027d 13       		.uleb128 0x13
 3255 027e 00       		.byte	0
 3256 027f 00       		.byte	0
 3257 0280 32       		.uleb128 0x32
 3258 0281 05       		.uleb128 0x5
 3259 0282 00       		.byte	0
 3260 0283 03       		.uleb128 0x3
 3261 0284 0E       		.uleb128 0xe
 3262 0285 3A       		.uleb128 0x3a
 3263 0286 0B       		.uleb128 0xb
 3264 0287 3B       		.uleb128 0x3b
 3265 0288 05       		.uleb128 0x5
 3266 0289 49       		.uleb128 0x49
 3267 028a 13       		.uleb128 0x13
 3268 028b 02       		.uleb128 0x2
 3269 028c 17       		.uleb128 0x17
 3270 028d 00       		.byte	0
 3271 028e 00       		.byte	0
 3272 028f 33       		.uleb128 0x33
 3273 0290 34       		.uleb128 0x34
 3274 0291 00       		.byte	0
 3275 0292 03       		.uleb128 0x3
 3276 0293 08       		.uleb128 0x8
 3277 0294 3A       		.uleb128 0x3a
 3278 0295 0B       		.uleb128 0xb
 3279 0296 3B       		.uleb128 0x3b
 3280 0297 05       		.uleb128 0x5
 3281 0298 49       		.uleb128 0x49
 3282 0299 13       		.uleb128 0x13
 3283 029a 02       		.uleb128 0x2
 3284 029b 17       		.uleb128 0x17
 3285 029c 00       		.byte	0
 3286 029d 00       		.byte	0
 3287 029e 34       		.uleb128 0x34
 3288 029f 34       		.uleb128 0x34
 3289 02a0 00       		.byte	0
 3290 02a1 03       		.uleb128 0x3
 3291 02a2 0E       		.uleb128 0xe
 3292 02a3 3A       		.uleb128 0x3a
 3293 02a4 0B       		.uleb128 0xb
 3294 02a5 3B       		.uleb128 0x3b
 3295 02a6 05       		.uleb128 0x5
 3296 02a7 49       		.uleb128 0x49
 3297 02a8 13       		.uleb128 0x13
 3298 02a9 02       		.uleb128 0x2
 3299 02aa 17       		.uleb128 0x17
 3300 02ab 00       		.byte	0
 3301 02ac 00       		.byte	0
ARM GAS  /tmp/ccxgpRfJ.s 			page 59


 3302 02ad 35       		.uleb128 0x35
 3303 02ae 898201   		.uleb128 0x4109
 3304 02b1 01       		.byte	0x1
 3305 02b2 11       		.uleb128 0x11
 3306 02b3 01       		.uleb128 0x1
 3307 02b4 31       		.uleb128 0x31
 3308 02b5 13       		.uleb128 0x13
 3309 02b6 01       		.uleb128 0x1
 3310 02b7 13       		.uleb128 0x13
 3311 02b8 00       		.byte	0
 3312 02b9 00       		.byte	0
 3313 02ba 36       		.uleb128 0x36
 3314 02bb 34       		.uleb128 0x34
 3315 02bc 00       		.byte	0
 3316 02bd 03       		.uleb128 0x3
 3317 02be 08       		.uleb128 0x8
 3318 02bf 3A       		.uleb128 0x3a
 3319 02c0 0B       		.uleb128 0xb
 3320 02c1 3B       		.uleb128 0x3b
 3321 02c2 05       		.uleb128 0x5
 3322 02c3 49       		.uleb128 0x49
 3323 02c4 13       		.uleb128 0x13
 3324 02c5 3F       		.uleb128 0x3f
 3325 02c6 19       		.uleb128 0x19
 3326 02c7 3C       		.uleb128 0x3c
 3327 02c8 19       		.uleb128 0x19
 3328 02c9 00       		.byte	0
 3329 02ca 00       		.byte	0
 3330 02cb 37       		.uleb128 0x37
 3331 02cc 2E       		.uleb128 0x2e
 3332 02cd 01       		.byte	0x1
 3333 02ce 3F       		.uleb128 0x3f
 3334 02cf 19       		.uleb128 0x19
 3335 02d0 03       		.uleb128 0x3
 3336 02d1 0E       		.uleb128 0xe
 3337 02d2 3A       		.uleb128 0x3a
 3338 02d3 0B       		.uleb128 0xb
 3339 02d4 3B       		.uleb128 0x3b
 3340 02d5 0B       		.uleb128 0xb
 3341 02d6 27       		.uleb128 0x27
 3342 02d7 19       		.uleb128 0x19
 3343 02d8 3C       		.uleb128 0x3c
 3344 02d9 19       		.uleb128 0x19
 3345 02da 01       		.uleb128 0x1
 3346 02db 13       		.uleb128 0x13
 3347 02dc 00       		.byte	0
 3348 02dd 00       		.byte	0
 3349 02de 00       		.byte	0
 3350              		.section	.debug_loc,"",%progbits
 3351              	.Ldebug_loc0:
 3352              	.LLST0:
 3353 0000 00000000 		.4byte	.LVL0
 3354 0004 24000000 		.4byte	.LVL3
 3355 0008 0100     		.2byte	0x1
 3356 000a 50       		.byte	0x50
 3357 000b 24000000 		.4byte	.LVL3
 3358 000f 50000000 		.4byte	.LVL10
ARM GAS  /tmp/ccxgpRfJ.s 			page 60


 3359 0013 0100     		.2byte	0x1
 3360 0015 55       		.byte	0x55
 3361 0016 50000000 		.4byte	.LVL10
 3362 001a 5C000000 		.4byte	.LVL12
 3363 001e 0400     		.2byte	0x4
 3364 0020 F3       		.byte	0xf3
 3365 0021 01       		.uleb128 0x1
 3366 0022 50       		.byte	0x50
 3367 0023 9F       		.byte	0x9f
 3368 0024 5C000000 		.4byte	.LVL12
 3369 0028 34020000 		.4byte	.LVL84
 3370 002c 0100     		.2byte	0x1
 3371 002e 55       		.byte	0x55
 3372 002f 34020000 		.4byte	.LVL84
 3373 0033 3E020000 		.4byte	.LVL86
 3374 0037 0100     		.2byte	0x1
 3375 0039 53       		.byte	0x53
 3376 003a 3E020000 		.4byte	.LVL86
 3377 003e 98020000 		.4byte	.LVL99
 3378 0042 0100     		.2byte	0x1
 3379 0044 5B       		.byte	0x5b
 3380 0045 98020000 		.4byte	.LVL99
 3381 0049 42030000 		.4byte	.LVL122
 3382 004d 0100     		.2byte	0x1
 3383 004f 55       		.byte	0x55
 3384 0050 42030000 		.4byte	.LVL122
 3385 0054 48030000 		.4byte	.LVL123
 3386 0058 0100     		.2byte	0x1
 3387 005a 53       		.byte	0x53
 3388 005b 48030000 		.4byte	.LVL123
 3389 005f A2030000 		.4byte	.LVL137
 3390 0063 0100     		.2byte	0x1
 3391 0065 59       		.byte	0x59
 3392 0066 A2030000 		.4byte	.LVL137
 3393 006a 1C050000 		.4byte	.LFE83
 3394 006e 0100     		.2byte	0x1
 3395 0070 55       		.byte	0x55
 3396 0071 00000000 		.4byte	0
 3397 0075 00000000 		.4byte	0
 3398              	.LLST1:
 3399 0079 00000000 		.4byte	.LVL0
 3400 007d 24000000 		.4byte	.LVL3
 3401 0081 0100     		.2byte	0x1
 3402 0083 51       		.byte	0x51
 3403 0084 24000000 		.4byte	.LVL3
 3404 0088 2A000000 		.4byte	.LVL4
 3405 008c 0300     		.2byte	0x3
 3406 008e 91       		.byte	0x91
 3407 008f B47F     		.sleb128 -76
 3408 0091 2A000000 		.4byte	.LVL4
 3409 0095 42000000 		.4byte	.LVL6
 3410 0099 0100     		.2byte	0x1
 3411 009b 57       		.byte	0x57
 3412 009c 42000000 		.4byte	.LVL6
 3413 00a0 48000000 		.4byte	.LVL8
 3414 00a4 0300     		.2byte	0x3
 3415 00a6 91       		.byte	0x91
ARM GAS  /tmp/ccxgpRfJ.s 			page 61


 3416 00a7 B47F     		.sleb128 -76
 3417 00a9 48000000 		.4byte	.LVL8
 3418 00ad 50000000 		.4byte	.LVL11
 3419 00b1 0100     		.2byte	0x1
 3420 00b3 57       		.byte	0x57
 3421 00b4 5C000000 		.4byte	.LVL12
 3422 00b8 58010000 		.4byte	.LVL51
 3423 00bc 0100     		.2byte	0x1
 3424 00be 57       		.byte	0x57
 3425 00bf 58010000 		.4byte	.LVL51
 3426 00c3 5E010000 		.4byte	.LVL52
 3427 00c7 0300     		.2byte	0x3
 3428 00c9 91       		.byte	0x91
 3429 00ca B47F     		.sleb128 -76
 3430 00cc 5E010000 		.4byte	.LVL52
 3431 00d0 78010000 		.4byte	.LVL56
 3432 00d4 0100     		.2byte	0x1
 3433 00d6 57       		.byte	0x57
 3434 00d7 78010000 		.4byte	.LVL56
 3435 00db 18020000 		.4byte	.LVL77
 3436 00df 0300     		.2byte	0x3
 3437 00e1 91       		.byte	0x91
 3438 00e2 B47F     		.sleb128 -76
 3439 00e4 18020000 		.4byte	.LVL77
 3440 00e8 2C020000 		.4byte	.LVL82
 3441 00ec 0100     		.2byte	0x1
 3442 00ee 57       		.byte	0x57
 3443 00ef 2C020000 		.4byte	.LVL82
 3444 00f3 20030000 		.4byte	.LVL114
 3445 00f7 0300     		.2byte	0x3
 3446 00f9 91       		.byte	0x91
 3447 00fa B47F     		.sleb128 -76
 3448 00fc 20030000 		.4byte	.LVL114
 3449 0100 3C030000 		.4byte	.LVL120
 3450 0104 0100     		.2byte	0x1
 3451 0106 57       		.byte	0x57
 3452 0107 3C030000 		.4byte	.LVL120
 3453 010b 18040000 		.4byte	.LVL150
 3454 010f 0300     		.2byte	0x3
 3455 0111 91       		.byte	0x91
 3456 0112 B47F     		.sleb128 -76
 3457 0114 18040000 		.4byte	.LVL150
 3458 0118 50040000 		.4byte	.LVL160
 3459 011c 0100     		.2byte	0x1
 3460 011e 57       		.byte	0x57
 3461 011f 50040000 		.4byte	.LVL160
 3462 0123 60040000 		.4byte	.LVL164
 3463 0127 0300     		.2byte	0x3
 3464 0129 91       		.byte	0x91
 3465 012a B47F     		.sleb128 -76
 3466 012c 60040000 		.4byte	.LVL164
 3467 0130 70040000 		.4byte	.LVL167
 3468 0134 0100     		.2byte	0x1
 3469 0136 57       		.byte	0x57
 3470 0137 70040000 		.4byte	.LVL167
 3471 013b B4040000 		.4byte	.LVL179
 3472 013f 0300     		.2byte	0x3
ARM GAS  /tmp/ccxgpRfJ.s 			page 62


 3473 0141 91       		.byte	0x91
 3474 0142 B47F     		.sleb128 -76
 3475 0144 B4040000 		.4byte	.LVL179
 3476 0148 D0040000 		.4byte	.LVL187
 3477 014c 0100     		.2byte	0x1
 3478 014e 57       		.byte	0x57
 3479 014f D0040000 		.4byte	.LVL187
 3480 0153 EA040000 		.4byte	.LVL190
 3481 0157 0300     		.2byte	0x3
 3482 0159 91       		.byte	0x91
 3483 015a B47F     		.sleb128 -76
 3484 015c EA040000 		.4byte	.LVL190
 3485 0160 1C050000 		.4byte	.LFE83
 3486 0164 0100     		.2byte	0x1
 3487 0166 57       		.byte	0x57
 3488 0167 00000000 		.4byte	0
 3489 016b 00000000 		.4byte	0
 3490              	.LLST2:
 3491 016f 00000000 		.4byte	.LVL0
 3492 0173 1E000000 		.4byte	.LVL2
 3493 0177 0100     		.2byte	0x1
 3494 0179 52       		.byte	0x52
 3495 017a 00000000 		.4byte	0
 3496 017e 00000000 		.4byte	0
 3497              	.LLST3:
 3498 0182 5C000000 		.4byte	.LVL12
 3499 0186 1C010000 		.4byte	.LVL40
 3500 018a 0300     		.2byte	0x3
 3501 018c 91       		.byte	0x91
 3502 018d 4C       		.sleb128 -52
 3503 018e 9F       		.byte	0x9f
 3504 018f 1C010000 		.4byte	.LVL40
 3505 0193 2A010000 		.4byte	.LVL42
 3506 0197 0100     		.2byte	0x1
 3507 0199 58       		.byte	0x58
 3508 019a 2A010000 		.4byte	.LVL42
 3509 019e 42010000 		.4byte	.LVL46
 3510 01a2 0100     		.2byte	0x1
 3511 01a4 53       		.byte	0x53
 3512 01a5 5E010000 		.4byte	.LVL52
 3513 01a9 78010000 		.4byte	.LVL56
 3514 01ad 0300     		.2byte	0x3
 3515 01af 91       		.byte	0x91
 3516 01b0 4D       		.sleb128 -51
 3517 01b1 9F       		.byte	0x9f
 3518 01b2 18020000 		.4byte	.LVL77
 3519 01b6 A0020000 		.4byte	.LVL100
 3520 01ba 0300     		.2byte	0x3
 3521 01bc 91       		.byte	0x91
 3522 01bd 4C       		.sleb128 -52
 3523 01be 9F       		.byte	0x9f
 3524 01bf A0020000 		.4byte	.LVL100
 3525 01c3 BE020000 		.4byte	.LVL101
 3526 01c7 0100     		.2byte	0x1
 3527 01c9 53       		.byte	0x53
 3528 01ca BE020000 		.4byte	.LVL101
 3529 01ce DE020000 		.4byte	.LVL104
ARM GAS  /tmp/ccxgpRfJ.s 			page 63


 3530 01d2 0300     		.2byte	0x3
 3531 01d4 91       		.byte	0x91
 3532 01d5 4C       		.sleb128 -52
 3533 01d6 9F       		.byte	0x9f
 3534 01d7 DE020000 		.4byte	.LVL104
 3535 01db F0020000 		.4byte	.LVL105
 3536 01df 0100     		.2byte	0x1
 3537 01e1 52       		.byte	0x52
 3538 01e2 F0020000 		.4byte	.LVL105
 3539 01e6 F2020000 		.4byte	.LVL106
 3540 01ea 0300     		.2byte	0x3
 3541 01ec 91       		.byte	0x91
 3542 01ed 4C       		.sleb128 -52
 3543 01ee 9F       		.byte	0x9f
 3544 01ef F2020000 		.4byte	.LVL106
 3545 01f3 F6020000 		.4byte	.LVL107
 3546 01f7 0100     		.2byte	0x1
 3547 01f9 51       		.byte	0x51
 3548 01fa F6020000 		.4byte	.LVL107
 3549 01fe 14030000 		.4byte	.LVL111
 3550 0202 0300     		.2byte	0x3
 3551 0204 91       		.byte	0x91
 3552 0205 4C       		.sleb128 -52
 3553 0206 9F       		.byte	0x9f
 3554 0207 20030000 		.4byte	.LVL114
 3555 020b 28030000 		.4byte	.LVL116
 3556 020f 0300     		.2byte	0x3
 3557 0211 91       		.byte	0x91
 3558 0212 4C       		.sleb128 -52
 3559 0213 9F       		.byte	0x9f
 3560 0214 28030000 		.4byte	.LVL116
 3561 0218 2C030000 		.4byte	.LVL117
 3562 021c 0100     		.2byte	0x1
 3563 021e 53       		.byte	0x53
 3564 021f 2C030000 		.4byte	.LVL117
 3565 0223 DE030000 		.4byte	.LVL141
 3566 0227 0100     		.2byte	0x1
 3567 0229 5B       		.byte	0x5b
 3568 022a DE030000 		.4byte	.LVL141
 3569 022e E4030000 		.4byte	.LVL142
 3570 0232 0100     		.2byte	0x1
 3571 0234 52       		.byte	0x52
 3572 0235 E4030000 		.4byte	.LVL142
 3573 0239 06040000 		.4byte	.LVL146
 3574 023d 0100     		.2byte	0x1
 3575 023f 5B       		.byte	0x5b
 3576 0240 18040000 		.4byte	.LVL150
 3577 0244 2A040000 		.4byte	.LVL152
 3578 0248 0300     		.2byte	0x3
 3579 024a 91       		.byte	0x91
 3580 024b 4C       		.sleb128 -52
 3581 024c 9F       		.byte	0x9f
 3582 024d 2A040000 		.4byte	.LVL152
 3583 0251 3E040000 		.4byte	.LVL156
 3584 0255 0300     		.2byte	0x3
 3585 0257 91       		.byte	0x91
 3586 0258 4D       		.sleb128 -51
ARM GAS  /tmp/ccxgpRfJ.s 			page 64


 3587 0259 9F       		.byte	0x9f
 3588 025a 3E040000 		.4byte	.LVL156
 3589 025e 50040000 		.4byte	.LVL160
 3590 0262 0300     		.2byte	0x3
 3591 0264 91       		.byte	0x91
 3592 0265 4C       		.sleb128 -52
 3593 0266 9F       		.byte	0x9f
 3594 0267 5C040000 		.4byte	.LVL162
 3595 026b 5E040000 		.4byte	.LVL163
 3596 026f 0300     		.2byte	0x3
 3597 0271 91       		.byte	0x91
 3598 0272 4C       		.sleb128 -52
 3599 0273 9F       		.byte	0x9f
 3600 0274 5E040000 		.4byte	.LVL163
 3601 0278 60040000 		.4byte	.LVL164
 3602 027c 0100     		.2byte	0x1
 3603 027e 51       		.byte	0x51
 3604 027f 60040000 		.4byte	.LVL164
 3605 0283 68040000 		.4byte	.LVL166
 3606 0287 0300     		.2byte	0x3
 3607 0289 91       		.byte	0x91
 3608 028a 4C       		.sleb128 -52
 3609 028b 9F       		.byte	0x9f
 3610 028c 68040000 		.4byte	.LVL166
 3611 0290 70040000 		.4byte	.LVL167
 3612 0294 0100     		.2byte	0x1
 3613 0296 58       		.byte	0x58
 3614 0297 70040000 		.4byte	.LVL167
 3615 029b 7A040000 		.4byte	.LVL169
 3616 029f 0300     		.2byte	0x3
 3617 02a1 91       		.byte	0x91
 3618 02a2 4C       		.sleb128 -52
 3619 02a3 9F       		.byte	0x9f
 3620 02a4 7A040000 		.4byte	.LVL169
 3621 02a8 88040000 		.4byte	.LVL172
 3622 02ac 0100     		.2byte	0x1
 3623 02ae 53       		.byte	0x53
 3624 02af B0040000 		.4byte	.LVL178
 3625 02b3 B4040000 		.4byte	.LVL179
 3626 02b7 0100     		.2byte	0x1
 3627 02b9 5B       		.byte	0x5b
 3628 02ba B4040000 		.4byte	.LVL179
 3629 02be BC040000 		.4byte	.LVL181
 3630 02c2 0300     		.2byte	0x3
 3631 02c4 91       		.byte	0x91
 3632 02c5 4C       		.sleb128 -52
 3633 02c6 9F       		.byte	0x9f
 3634 02c7 BC040000 		.4byte	.LVL181
 3635 02cb D0040000 		.4byte	.LVL187
 3636 02cf 0300     		.2byte	0x3
 3637 02d1 91       		.byte	0x91
 3638 02d2 4D       		.sleb128 -51
 3639 02d3 9F       		.byte	0x9f
 3640 02d4 D0040000 		.4byte	.LVL187
 3641 02d8 D8040000 		.4byte	.LVL188
 3642 02dc 0100     		.2byte	0x1
 3643 02de 5B       		.byte	0x5b
ARM GAS  /tmp/ccxgpRfJ.s 			page 65


 3644 02df D8040000 		.4byte	.LVL188
 3645 02e3 EA040000 		.4byte	.LVL190
 3646 02e7 0100     		.2byte	0x1
 3647 02e9 53       		.byte	0x53
 3648 02ea EA040000 		.4byte	.LVL190
 3649 02ee F0040000 		.4byte	.LVL193
 3650 02f2 0300     		.2byte	0x3
 3651 02f4 91       		.byte	0x91
 3652 02f5 4C       		.sleb128 -52
 3653 02f6 9F       		.byte	0x9f
 3654 02f7 00000000 		.4byte	0
 3655 02fb 00000000 		.4byte	0
 3656              	.LLST4:
 3657 02ff 5C000000 		.4byte	.LVL12
 3658 0303 0C010000 		.4byte	.LVL38
 3659 0307 0300     		.2byte	0x3
 3660 0309 91       		.byte	0x91
 3661 030a 4C       		.sleb128 -52
 3662 030b 9F       		.byte	0x9f
 3663 030c 0C010000 		.4byte	.LVL38
 3664 0310 12010000 		.4byte	.LVL39
 3665 0314 0100     		.2byte	0x1
 3666 0316 53       		.byte	0x53
 3667 0317 12010000 		.4byte	.LVL39
 3668 031b 42010000 		.4byte	.LVL46
 3669 031f 0100     		.2byte	0x1
 3670 0321 58       		.byte	0x58
 3671 0322 42010000 		.4byte	.LVL46
 3672 0326 48010000 		.4byte	.LVL48
 3673 032a 0100     		.2byte	0x1
 3674 032c 52       		.byte	0x52
 3675 032d 48010000 		.4byte	.LVL48
 3676 0331 5E010000 		.4byte	.LVL52
 3677 0335 0100     		.2byte	0x1
 3678 0337 58       		.byte	0x58
 3679 0338 5E010000 		.4byte	.LVL52
 3680 033c 6C010000 		.4byte	.LVL54
 3681 0340 0300     		.2byte	0x3
 3682 0342 91       		.byte	0x91
 3683 0343 4C       		.sleb128 -52
 3684 0344 9F       		.byte	0x9f
 3685 0345 6C010000 		.4byte	.LVL54
 3686 0349 70010000 		.4byte	.LVL55
 3687 034d 0100     		.2byte	0x1
 3688 034f 51       		.byte	0x51
 3689 0350 70010000 		.4byte	.LVL55
 3690 0354 A2010000 		.4byte	.LVL61
 3691 0358 0100     		.2byte	0x1
 3692 035a 58       		.byte	0x58
 3693 035b BE010000 		.4byte	.LVL64
 3694 035f CA010000 		.4byte	.LVL67
 3695 0363 0100     		.2byte	0x1
 3696 0365 58       		.byte	0x58
 3697 0366 CA010000 		.4byte	.LVL67
 3698 036a CC010000 		.4byte	.LVL68
 3699 036e 0100     		.2byte	0x1
 3700 0370 57       		.byte	0x57
ARM GAS  /tmp/ccxgpRfJ.s 			page 66


 3701 0371 CC010000 		.4byte	.LVL68
 3702 0375 D8010000 		.4byte	.LVL70
 3703 0379 0300     		.2byte	0x3
 3704 037b 77       		.byte	0x77
 3705 037c 01       		.sleb128 1
 3706 037d 9F       		.byte	0x9f
 3707 037e D8010000 		.4byte	.LVL70
 3708 0382 F0010000 		.4byte	.LVL73
 3709 0386 0100     		.2byte	0x1
 3710 0388 57       		.byte	0x57
 3711 0389 18020000 		.4byte	.LVL77
 3712 038d A0020000 		.4byte	.LVL100
 3713 0391 0300     		.2byte	0x3
 3714 0393 91       		.byte	0x91
 3715 0394 4C       		.sleb128 -52
 3716 0395 9F       		.byte	0x9f
 3717 0396 A0020000 		.4byte	.LVL100
 3718 039a BE020000 		.4byte	.LVL101
 3719 039e 0100     		.2byte	0x1
 3720 03a0 53       		.byte	0x53
 3721 03a1 BE020000 		.4byte	.LVL101
 3722 03a5 DE020000 		.4byte	.LVL104
 3723 03a9 0300     		.2byte	0x3
 3724 03ab 91       		.byte	0x91
 3725 03ac 4C       		.sleb128 -52
 3726 03ad 9F       		.byte	0x9f
 3727 03ae DE020000 		.4byte	.LVL104
 3728 03b2 F0020000 		.4byte	.LVL105
 3729 03b6 0100     		.2byte	0x1
 3730 03b8 52       		.byte	0x52
 3731 03b9 F0020000 		.4byte	.LVL105
 3732 03bd F2020000 		.4byte	.LVL106
 3733 03c1 0300     		.2byte	0x3
 3734 03c3 91       		.byte	0x91
 3735 03c4 4C       		.sleb128 -52
 3736 03c5 9F       		.byte	0x9f
 3737 03c6 F2020000 		.4byte	.LVL106
 3738 03ca F6020000 		.4byte	.LVL107
 3739 03ce 0100     		.2byte	0x1
 3740 03d0 51       		.byte	0x51
 3741 03d1 F6020000 		.4byte	.LVL107
 3742 03d5 18030000 		.4byte	.LVL112
 3743 03d9 0300     		.2byte	0x3
 3744 03db 91       		.byte	0x91
 3745 03dc 4C       		.sleb128 -52
 3746 03dd 9F       		.byte	0x9f
 3747 03de 18030000 		.4byte	.LVL112
 3748 03e2 1E030000 		.4byte	.LVL113
 3749 03e6 0100     		.2byte	0x1
 3750 03e8 51       		.byte	0x51
 3751 03e9 1E030000 		.4byte	.LVL113
 3752 03ed 20030000 		.4byte	.LVL114
 3753 03f1 0100     		.2byte	0x1
 3754 03f3 58       		.byte	0x58
 3755 03f4 20030000 		.4byte	.LVL114
 3756 03f8 28030000 		.4byte	.LVL116
 3757 03fc 0300     		.2byte	0x3
ARM GAS  /tmp/ccxgpRfJ.s 			page 67


 3758 03fe 91       		.byte	0x91
 3759 03ff 4C       		.sleb128 -52
 3760 0400 9F       		.byte	0x9f
 3761 0401 28030000 		.4byte	.LVL116
 3762 0405 2C030000 		.4byte	.LVL117
 3763 0409 0100     		.2byte	0x1
 3764 040b 53       		.byte	0x53
 3765 040c 2C030000 		.4byte	.LVL117
 3766 0410 34030000 		.4byte	.LVL118
 3767 0414 0100     		.2byte	0x1
 3768 0416 5B       		.byte	0x5b
 3769 0417 34030000 		.4byte	.LVL118
 3770 041b 0A040000 		.4byte	.LVL147
 3771 041f 0300     		.2byte	0x3
 3772 0421 91       		.byte	0x91
 3773 0422 4C       		.sleb128 -52
 3774 0423 9F       		.byte	0x9f
 3775 0424 0A040000 		.4byte	.LVL147
 3776 0428 14040000 		.4byte	.LVL148
 3777 042c 0100     		.2byte	0x1
 3778 042e 52       		.byte	0x52
 3779 042f 14040000 		.4byte	.LVL148
 3780 0433 16040000 		.4byte	.LVL149
 3781 0437 0100     		.2byte	0x1
 3782 0439 51       		.byte	0x51
 3783 043a 16040000 		.4byte	.LVL149
 3784 043e 18040000 		.4byte	.LVL150
 3785 0442 0100     		.2byte	0x1
 3786 0444 58       		.byte	0x58
 3787 0445 18040000 		.4byte	.LVL150
 3788 0449 32040000 		.4byte	.LVL154
 3789 044d 0300     		.2byte	0x3
 3790 044f 91       		.byte	0x91
 3791 0450 4C       		.sleb128 -52
 3792 0451 9F       		.byte	0x9f
 3793 0452 32040000 		.4byte	.LVL154
 3794 0456 3C040000 		.4byte	.LVL155
 3795 045a 0100     		.2byte	0x1
 3796 045c 51       		.byte	0x51
 3797 045d 3C040000 		.4byte	.LVL155
 3798 0461 3E040000 		.4byte	.LVL156
 3799 0465 0100     		.2byte	0x1
 3800 0467 58       		.byte	0x58
 3801 0468 3E040000 		.4byte	.LVL156
 3802 046c 50040000 		.4byte	.LVL160
 3803 0470 0300     		.2byte	0x3
 3804 0472 91       		.byte	0x91
 3805 0473 4C       		.sleb128 -52
 3806 0474 9F       		.byte	0x9f
 3807 0475 50040000 		.4byte	.LVL160
 3808 0479 5C040000 		.4byte	.LVL162
 3809 047d 0100     		.2byte	0x1
 3810 047f 58       		.byte	0x58
 3811 0480 5C040000 		.4byte	.LVL162
 3812 0484 5E040000 		.4byte	.LVL163
 3813 0488 0300     		.2byte	0x3
 3814 048a 91       		.byte	0x91
ARM GAS  /tmp/ccxgpRfJ.s 			page 68


 3815 048b 4C       		.sleb128 -52
 3816 048c 9F       		.byte	0x9f
 3817 048d 5E040000 		.4byte	.LVL163
 3818 0491 60040000 		.4byte	.LVL164
 3819 0495 0100     		.2byte	0x1
 3820 0497 51       		.byte	0x51
 3821 0498 60040000 		.4byte	.LVL164
 3822 049c 68040000 		.4byte	.LVL166
 3823 04a0 0300     		.2byte	0x3
 3824 04a2 91       		.byte	0x91
 3825 04a3 4C       		.sleb128 -52
 3826 04a4 9F       		.byte	0x9f
 3827 04a5 68040000 		.4byte	.LVL166
 3828 04a9 70040000 		.4byte	.LVL167
 3829 04ad 0100     		.2byte	0x1
 3830 04af 58       		.byte	0x58
 3831 04b0 70040000 		.4byte	.LVL167
 3832 04b4 7A040000 		.4byte	.LVL169
 3833 04b8 0300     		.2byte	0x3
 3834 04ba 91       		.byte	0x91
 3835 04bb 4C       		.sleb128 -52
 3836 04bc 9F       		.byte	0x9f
 3837 04bd 7A040000 		.4byte	.LVL169
 3838 04c1 88040000 		.4byte	.LVL172
 3839 04c5 0100     		.2byte	0x1
 3840 04c7 53       		.byte	0x53
 3841 04c8 88040000 		.4byte	.LVL172
 3842 04cc B0040000 		.4byte	.LVL178
 3843 04d0 0100     		.2byte	0x1
 3844 04d2 58       		.byte	0x58
 3845 04d3 B0040000 		.4byte	.LVL178
 3846 04d7 BC040000 		.4byte	.LVL181
 3847 04db 0300     		.2byte	0x3
 3848 04dd 91       		.byte	0x91
 3849 04de 4C       		.sleb128 -52
 3850 04df 9F       		.byte	0x9f
 3851 04e0 BC040000 		.4byte	.LVL181
 3852 04e4 CE040000 		.4byte	.LVL186
 3853 04e8 0100     		.2byte	0x1
 3854 04ea 5B       		.byte	0x5b
 3855 04eb CE040000 		.4byte	.LVL186
 3856 04ef EA040000 		.4byte	.LVL190
 3857 04f3 0300     		.2byte	0x3
 3858 04f5 91       		.byte	0x91
 3859 04f6 4C       		.sleb128 -52
 3860 04f7 9F       		.byte	0x9f
 3861 04f8 EA040000 		.4byte	.LVL190
 3862 04fc EC040000 		.4byte	.LVL191
 3863 0500 0100     		.2byte	0x1
 3864 0502 53       		.byte	0x53
 3865 0503 EC040000 		.4byte	.LVL191
 3866 0507 EE040000 		.4byte	.LVL192
 3867 050b 0100     		.2byte	0x1
 3868 050d 58       		.byte	0x58
 3869 050e EE040000 		.4byte	.LVL192
 3870 0512 F0040000 		.4byte	.LVL193
 3871 0516 0200     		.2byte	0x2
ARM GAS  /tmp/ccxgpRfJ.s 			page 69


 3872 0518 76       		.byte	0x76
 3873 0519 00       		.sleb128 0
 3874 051a F0040000 		.4byte	.LVL193
 3875 051e 1C050000 		.4byte	.LFE83
 3876 0522 0100     		.2byte	0x1
 3877 0524 58       		.byte	0x58
 3878 0525 00000000 		.4byte	0
 3879 0529 00000000 		.4byte	0
 3880              	.LLST5:
 3881 052d 2A000000 		.4byte	.LVL4
 3882 0531 39000000 		.4byte	.LVL5-1
 3883 0535 0100     		.2byte	0x1
 3884 0537 51       		.byte	0x51
 3885 0538 48000000 		.4byte	.LVL8
 3886 053c 7A000000 		.4byte	.LVL15
 3887 0540 0100     		.2byte	0x1
 3888 0542 51       		.byte	0x51
 3889 0543 7A000000 		.4byte	.LVL15
 3890 0547 7C000000 		.4byte	.LVL16
 3891 054b 0100     		.2byte	0x1
 3892 054d 53       		.byte	0x53
 3893 054e 7C000000 		.4byte	.LVL16
 3894 0552 86000000 		.4byte	.LVL19
 3895 0556 0100     		.2byte	0x1
 3896 0558 52       		.byte	0x52
 3897 0559 8C000000 		.4byte	.LVL21
 3898 055d C0000000 		.4byte	.LVL27
 3899 0561 0100     		.2byte	0x1
 3900 0563 53       		.byte	0x53
 3901 0564 C0000000 		.4byte	.LVL27
 3902 0568 CA000000 		.4byte	.LVL31
 3903 056c 0100     		.2byte	0x1
 3904 056e 51       		.byte	0x51
 3905 056f D0000000 		.4byte	.LVL33
 3906 0573 F2000000 		.4byte	.LVL35
 3907 0577 0100     		.2byte	0x1
 3908 0579 53       		.byte	0x53
 3909 057a F8000000 		.4byte	.LVL36
 3910 057e 06010000 		.4byte	.LVL37
 3911 0582 0100     		.2byte	0x1
 3912 0584 51       		.byte	0x51
 3913 0585 18020000 		.4byte	.LVL77
 3914 0589 1E020000 		.4byte	.LVL78
 3915 058d 0200     		.2byte	0x2
 3916 058f 38       		.byte	0x38
 3917 0590 9F       		.byte	0x9f
 3918 0591 18040000 		.4byte	.LVL150
 3919 0595 28040000 		.4byte	.LVL151
 3920 0599 0200     		.2byte	0x2
 3921 059b 3A       		.byte	0x3a
 3922 059c 9F       		.byte	0x9f
 3923 059d 28040000 		.4byte	.LVL151
 3924 05a1 2A040000 		.4byte	.LVL152
 3925 05a5 0100     		.2byte	0x1
 3926 05a7 51       		.byte	0x51
 3927 05a8 3E040000 		.4byte	.LVL156
 3928 05ac 50040000 		.4byte	.LVL160
ARM GAS  /tmp/ccxgpRfJ.s 			page 70


 3929 05b0 0100     		.2byte	0x1
 3930 05b2 51       		.byte	0x51
 3931 05b3 60040000 		.4byte	.LVL164
 3932 05b7 62040000 		.4byte	.LVL165
 3933 05bb 0100     		.2byte	0x1
 3934 05bd 53       		.byte	0x53
 3935 05be B4040000 		.4byte	.LVL179
 3936 05c2 BA040000 		.4byte	.LVL180
 3937 05c6 0100     		.2byte	0x1
 3938 05c8 51       		.byte	0x51
 3939 05c9 00000000 		.4byte	0
 3940 05cd 00000000 		.4byte	0
 3941              	.LLST6:
 3942 05d1 6A000000 		.4byte	.LVL13
 3943 05d5 74000000 		.4byte	.LVL14
 3944 05d9 0300     		.2byte	0x3
 3945 05db 08       		.byte	0x8
 3946 05dc 20       		.byte	0x20
 3947 05dd 9F       		.byte	0x9f
 3948 05de 74000000 		.4byte	.LVL14
 3949 05e2 06010000 		.4byte	.LVL37
 3950 05e6 0100     		.2byte	0x1
 3951 05e8 5A       		.byte	0x5a
 3952 05e9 06010000 		.4byte	.LVL37
 3953 05ed 42010000 		.4byte	.LVL46
 3954 05f1 0300     		.2byte	0x3
 3955 05f3 08       		.byte	0x8
 3956 05f4 20       		.byte	0x20
 3957 05f5 9F       		.byte	0x9f
 3958 05f6 42010000 		.4byte	.LVL46
 3959 05fa 5E010000 		.4byte	.LVL52
 3960 05fe 0100     		.2byte	0x1
 3961 0600 5A       		.byte	0x5a
 3962 0601 5E010000 		.4byte	.LVL52
 3963 0605 78010000 		.4byte	.LVL56
 3964 0609 0300     		.2byte	0x3
 3965 060b 08       		.byte	0x8
 3966 060c 20       		.byte	0x20
 3967 060d 9F       		.byte	0x9f
 3968 060e 78010000 		.4byte	.LVL56
 3969 0612 88010000 		.4byte	.LVL59
 3970 0616 0100     		.2byte	0x1
 3971 0618 5A       		.byte	0x5a
 3972 0619 18020000 		.4byte	.LVL77
 3973 061d 3E040000 		.4byte	.LVL156
 3974 0621 0100     		.2byte	0x1
 3975 0623 5A       		.byte	0x5a
 3976 0624 3E040000 		.4byte	.LVL156
 3977 0628 40040000 		.4byte	.LVL157
 3978 062c 0300     		.2byte	0x3
 3979 062e 08       		.byte	0x8
 3980 062f 20       		.byte	0x20
 3981 0630 9F       		.byte	0x9f
 3982 0631 40040000 		.4byte	.LVL157
 3983 0635 44040000 		.4byte	.LVL158
 3984 0639 0300     		.2byte	0x3
 3985 063b 08       		.byte	0x8
ARM GAS  /tmp/ccxgpRfJ.s 			page 71


 3986 063c 30       		.byte	0x30
 3987 063d 9F       		.byte	0x9f
 3988 063e 5C040000 		.4byte	.LVL162
 3989 0642 68040000 		.4byte	.LVL166
 3990 0646 0100     		.2byte	0x1
 3991 0648 5A       		.byte	0x5a
 3992 0649 68040000 		.4byte	.LVL166
 3993 064d 70040000 		.4byte	.LVL167
 3994 0651 0300     		.2byte	0x3
 3995 0653 08       		.byte	0x8
 3996 0654 20       		.byte	0x20
 3997 0655 9F       		.byte	0x9f
 3998 0656 70040000 		.4byte	.LVL167
 3999 065a 88040000 		.4byte	.LVL172
 4000 065e 0100     		.2byte	0x1
 4001 0660 5A       		.byte	0x5a
 4002 0661 B0040000 		.4byte	.LVL178
 4003 0665 EA040000 		.4byte	.LVL190
 4004 0669 0100     		.2byte	0x1
 4005 066b 5A       		.byte	0x5a
 4006 066c EA040000 		.4byte	.LVL190
 4007 0670 1C050000 		.4byte	.LFE83
 4008 0674 0300     		.2byte	0x3
 4009 0676 08       		.byte	0x8
 4010 0677 20       		.byte	0x20
 4011 0678 9F       		.byte	0x9f
 4012 0679 00000000 		.4byte	0
 4013 067d 00000000 		.4byte	0
 4014              	.LLST7:
 4015 0681 42010000 		.4byte	.LVL46
 4016 0685 4A010000 		.4byte	.LVL49
 4017 0689 0100     		.2byte	0x1
 4018 068b 53       		.byte	0x53
 4019 068c 4A010000 		.4byte	.LVL49
 4020 0690 58010000 		.4byte	.LVL51
 4021 0694 0300     		.2byte	0x3
 4022 0696 72       		.byte	0x72
 4023 0697 01       		.sleb128 1
 4024 0698 9F       		.byte	0x9f
 4025 0699 58010000 		.4byte	.LVL51
 4026 069d 5E010000 		.4byte	.LVL52
 4027 06a1 0100     		.2byte	0x1
 4028 06a3 52       		.byte	0x52
 4029 06a4 78010000 		.4byte	.LVL56
 4030 06a8 7C010000 		.4byte	.LVL57
 4031 06ac 0100     		.2byte	0x1
 4032 06ae 53       		.byte	0x53
 4033 06af BE010000 		.4byte	.LVL64
 4034 06b3 C6010000 		.4byte	.LVL66
 4035 06b7 0100     		.2byte	0x1
 4036 06b9 59       		.byte	0x59
 4037 06ba CC010000 		.4byte	.LVL68
 4038 06be D6010000 		.4byte	.LVL69
 4039 06c2 0100     		.2byte	0x1
 4040 06c4 54       		.byte	0x54
 4041 06c5 D6010000 		.4byte	.LVL69
 4042 06c9 DC010000 		.4byte	.LVL71
ARM GAS  /tmp/ccxgpRfJ.s 			page 72


 4043 06cd 0300     		.2byte	0x3
 4044 06cf 74       		.byte	0x74
 4045 06d0 7F       		.sleb128 -1
 4046 06d1 9F       		.byte	0x9f
 4047 06d2 DC010000 		.4byte	.LVL71
 4048 06d6 E4010000 		.4byte	.LVL72
 4049 06da 0100     		.2byte	0x1
 4050 06dc 54       		.byte	0x54
 4051 06dd 54040000 		.4byte	.LVL161
 4052 06e1 5C040000 		.4byte	.LVL162
 4053 06e5 0100     		.2byte	0x1
 4054 06e7 53       		.byte	0x53
 4055 06e8 A6040000 		.4byte	.LVL175
 4056 06ec AE040000 		.4byte	.LVL177
 4057 06f0 0100     		.2byte	0x1
 4058 06f2 59       		.byte	0x59
 4059 06f3 AE040000 		.4byte	.LVL177
 4060 06f7 B0040000 		.4byte	.LVL178
 4061 06fb 0300     		.2byte	0x3
 4062 06fd 79       		.byte	0x79
 4063 06fe 01       		.sleb128 1
 4064 06ff 9F       		.byte	0x9f
 4065 0700 F0040000 		.4byte	.LVL193
 4066 0704 1C050000 		.4byte	.LFE83
 4067 0708 0200     		.2byte	0x2
 4068 070a 30       		.byte	0x30
 4069 070b 9F       		.byte	0x9f
 4070 070c 00000000 		.4byte	0
 4071 0710 00000000 		.4byte	0
 4072              	.LLST8:
 4073 0714 9C000000 		.4byte	.LVL22
 4074 0718 A2000000 		.4byte	.LVL23
 4075 071c 0200     		.2byte	0x2
 4076 071e 30       		.byte	0x30
 4077 071f 9F       		.byte	0x9f
 4078 0720 A2000000 		.4byte	.LVL23
 4079 0724 C6000000 		.4byte	.LVL29
 4080 0728 0100     		.2byte	0x1
 4081 072a 52       		.byte	0x52
 4082 072b C8000000 		.4byte	.LVL30
 4083 072f 2A010000 		.4byte	.LVL42
 4084 0733 0100     		.2byte	0x1
 4085 0735 52       		.byte	0x52
 4086 0736 2A010000 		.4byte	.LVL42
 4087 073a 2E010000 		.4byte	.LVL43
 4088 073e 0300     		.2byte	0x3
 4089 0740 72       		.byte	0x72
 4090 0741 7F       		.sleb128 -1
 4091 0742 9F       		.byte	0x9f
 4092 0743 2E010000 		.4byte	.LVL43
 4093 0747 3C010000 		.4byte	.LVL45
 4094 074b 0100     		.2byte	0x1
 4095 074d 52       		.byte	0x52
 4096 074e 5E010000 		.4byte	.LVL52
 4097 0752 62010000 		.4byte	.LVL53
 4098 0756 0100     		.2byte	0x1
 4099 0758 52       		.byte	0x52
ARM GAS  /tmp/ccxgpRfJ.s 			page 73


 4100 0759 18020000 		.4byte	.LVL77
 4101 075d 22020000 		.4byte	.LVL79
 4102 0761 0100     		.2byte	0x1
 4103 0763 52       		.byte	0x52
 4104 0764 20030000 		.4byte	.LVL114
 4105 0768 34030000 		.4byte	.LVL118
 4106 076c 0100     		.2byte	0x1
 4107 076e 52       		.byte	0x52
 4108 076f 18040000 		.4byte	.LVL150
 4109 0773 2C040000 		.4byte	.LVL153
 4110 0777 0100     		.2byte	0x1
 4111 0779 52       		.byte	0x52
 4112 077a 60040000 		.4byte	.LVL164
 4113 077e 68040000 		.4byte	.LVL166
 4114 0782 0100     		.2byte	0x1
 4115 0784 52       		.byte	0x52
 4116 0785 68040000 		.4byte	.LVL166
 4117 0789 70040000 		.4byte	.LVL167
 4118 078d 0400     		.2byte	0x4
 4119 078f 0A       		.byte	0xa
 4120 0790 FF7F     		.2byte	0x7fff
 4121 0792 9F       		.byte	0x9f
 4122 0793 B4040000 		.4byte	.LVL179
 4123 0797 C0040000 		.4byte	.LVL183
 4124 079b 0100     		.2byte	0x1
 4125 079d 52       		.byte	0x52
 4126 079e EA040000 		.4byte	.LVL190
 4127 07a2 F0040000 		.4byte	.LVL193
 4128 07a6 0100     		.2byte	0x1
 4129 07a8 52       		.byte	0x52
 4130 07a9 00000000 		.4byte	0
 4131 07ad 00000000 		.4byte	0
 4132              	.LLST9:
 4133 07b1 74000000 		.4byte	.LVL14
 4134 07b5 7A000000 		.4byte	.LVL15
 4135 07b9 0200     		.2byte	0x2
 4136 07bb 30       		.byte	0x30
 4137 07bc 9F       		.byte	0x9f
 4138 07bd 7A000000 		.4byte	.LVL15
 4139 07c1 82000000 		.4byte	.LVL18
 4140 07c5 0100     		.2byte	0x1
 4141 07c7 54       		.byte	0x54
 4142 07c8 86000000 		.4byte	.LVL19
 4143 07cc B8000000 		.4byte	.LVL25
 4144 07d0 0100     		.2byte	0x1
 4145 07d2 54       		.byte	0x54
 4146 07d3 B8000000 		.4byte	.LVL25
 4147 07d7 BE000000 		.4byte	.LVL26
 4148 07db 0300     		.2byte	0x3
 4149 07dd 91       		.byte	0x91
 4150 07de B87F     		.sleb128 -72
 4151 07e0 BE000000 		.4byte	.LVL26
 4152 07e4 06010000 		.4byte	.LVL37
 4153 07e8 0100     		.2byte	0x1
 4154 07ea 54       		.byte	0x54
 4155 07eb 06010000 		.4byte	.LVL37
 4156 07ef 44010000 		.4byte	.LVL47
ARM GAS  /tmp/ccxgpRfJ.s 			page 74


 4157 07f3 0300     		.2byte	0x3
 4158 07f5 91       		.byte	0x91
 4159 07f6 B87F     		.sleb128 -72
 4160 07f8 4E010000 		.4byte	.LVL50
 4161 07fc 5E010000 		.4byte	.LVL52
 4162 0800 0100     		.2byte	0x1
 4163 0802 54       		.byte	0x54
 4164 0803 5E010000 		.4byte	.LVL52
 4165 0807 78010000 		.4byte	.LVL56
 4166 080b 0300     		.2byte	0x3
 4167 080d 91       		.byte	0x91
 4168 080e B87F     		.sleb128 -72
 4169 0810 80010000 		.4byte	.LVL58
 4170 0814 8A010000 		.4byte	.LVL60
 4171 0818 0100     		.2byte	0x1
 4172 081a 54       		.byte	0x54
 4173 081b 8A010000 		.4byte	.LVL60
 4174 081f A2010000 		.4byte	.LVL61
 4175 0823 0100     		.2byte	0x1
 4176 0825 57       		.byte	0x57
 4177 0826 A2010000 		.4byte	.LVL61
 4178 082a AC010000 		.4byte	.LVL62
 4179 082e 0100     		.2byte	0x1
 4180 0830 54       		.byte	0x54
 4181 0831 AC010000 		.4byte	.LVL62
 4182 0835 AE010000 		.4byte	.LVL63
 4183 0839 0300     		.2byte	0x3
 4184 083b 74       		.byte	0x74
 4185 083c 7F       		.sleb128 -1
 4186 083d 9F       		.byte	0x9f
 4187 083e AE010000 		.4byte	.LVL63
 4188 0842 BE010000 		.4byte	.LVL64
 4189 0846 0100     		.2byte	0x1
 4190 0848 54       		.byte	0x54
 4191 0849 BE010000 		.4byte	.LVL64
 4192 084d C6010000 		.4byte	.LVL66
 4193 0851 0200     		.2byte	0x2
 4194 0853 30       		.byte	0x30
 4195 0854 9F       		.byte	0x9f
 4196 0855 F0010000 		.4byte	.LVL73
 4197 0859 FC010000 		.4byte	.LVL74
 4198 085d 0100     		.2byte	0x1
 4199 085f 54       		.byte	0x54
 4200 0860 FC010000 		.4byte	.LVL74
 4201 0864 06020000 		.4byte	.LVL75
 4202 0868 0100     		.2byte	0x1
 4203 086a 57       		.byte	0x57
 4204 086b 06020000 		.4byte	.LVL75
 4205 086f 08020000 		.4byte	.LVL76
 4206 0873 0300     		.2byte	0x3
 4207 0875 77       		.byte	0x77
 4208 0876 01       		.sleb128 1
 4209 0877 9F       		.byte	0x9f
 4210 0878 08020000 		.4byte	.LVL76
 4211 087c 18020000 		.4byte	.LVL77
 4212 0880 0100     		.2byte	0x1
 4213 0882 57       		.byte	0x57
ARM GAS  /tmp/ccxgpRfJ.s 			page 75


 4214 0883 18020000 		.4byte	.LVL77
 4215 0887 74020000 		.4byte	.LVL94
 4216 088b 0300     		.2byte	0x3
 4217 088d 91       		.byte	0x91
 4218 088e B87F     		.sleb128 -72
 4219 0890 20030000 		.4byte	.LVL114
 4220 0894 74030000 		.4byte	.LVL134
 4221 0898 0300     		.2byte	0x3
 4222 089a 91       		.byte	0x91
 4223 089b B87F     		.sleb128 -72
 4224 089d 18040000 		.4byte	.LVL150
 4225 08a1 28040000 		.4byte	.LVL151
 4226 08a5 0300     		.2byte	0x3
 4227 08a7 91       		.byte	0x91
 4228 08a8 B87F     		.sleb128 -72
 4229 08aa 28040000 		.4byte	.LVL151
 4230 08ae 2A040000 		.4byte	.LVL152
 4231 08b2 0100     		.2byte	0x1
 4232 08b4 54       		.byte	0x54
 4233 08b5 2A040000 		.4byte	.LVL152
 4234 08b9 3E040000 		.4byte	.LVL156
 4235 08bd 0300     		.2byte	0x3
 4236 08bf 91       		.byte	0x91
 4237 08c0 B87F     		.sleb128 -72
 4238 08c2 50040000 		.4byte	.LVL160
 4239 08c6 54040000 		.4byte	.LVL161
 4240 08ca 0100     		.2byte	0x1
 4241 08cc 57       		.byte	0x57
 4242 08cd 54040000 		.4byte	.LVL161
 4243 08d1 5C040000 		.4byte	.LVL162
 4244 08d5 0200     		.2byte	0x2
 4245 08d7 30       		.byte	0x30
 4246 08d8 9F       		.byte	0x9f
 4247 08d9 60040000 		.4byte	.LVL164
 4248 08dd 70040000 		.4byte	.LVL167
 4249 08e1 0300     		.2byte	0x3
 4250 08e3 91       		.byte	0x91
 4251 08e4 B87F     		.sleb128 -72
 4252 08e6 88040000 		.4byte	.LVL172
 4253 08ea B0040000 		.4byte	.LVL178
 4254 08ee 0100     		.2byte	0x1
 4255 08f0 57       		.byte	0x57
 4256 08f1 B4040000 		.4byte	.LVL179
 4257 08f5 BC040000 		.4byte	.LVL181
 4258 08f9 0100     		.2byte	0x1
 4259 08fb 54       		.byte	0x54
 4260 08fc BC040000 		.4byte	.LVL181
 4261 0900 D0040000 		.4byte	.LVL187
 4262 0904 0300     		.2byte	0x3
 4263 0906 91       		.byte	0x91
 4264 0907 B87F     		.sleb128 -72
 4265 0909 EA040000 		.4byte	.LVL190
 4266 090d FA040000 		.4byte	.LVL194
 4267 0911 0300     		.2byte	0x3
 4268 0913 91       		.byte	0x91
 4269 0914 B87F     		.sleb128 -72
 4270 0916 FA040000 		.4byte	.LVL194
ARM GAS  /tmp/ccxgpRfJ.s 			page 76


 4271 091a 1C050000 		.4byte	.LFE83
 4272 091e 0100     		.2byte	0x1
 4273 0920 54       		.byte	0x54
 4274 0921 00000000 		.4byte	0
 4275 0925 00000000 		.4byte	0
 4276              	.LLST10:
 4277 0929 08000000 		.4byte	.LVL1
 4278 092d 24000000 		.4byte	.LVL3
 4279 0931 0200     		.2byte	0x2
 4280 0933 30       		.byte	0x30
 4281 0934 9F       		.byte	0x9f
 4282 0935 24000000 		.4byte	.LVL3
 4283 0939 42000000 		.4byte	.LVL6
 4284 093d 0200     		.2byte	0x2
 4285 093f 7D       		.byte	0x7d
 4286 0940 00       		.sleb128 0
 4287 0941 42000000 		.4byte	.LVL6
 4288 0945 44000000 		.4byte	.LVL7
 4289 0949 0100     		.2byte	0x1
 4290 094b 53       		.byte	0x53
 4291 094c 44000000 		.4byte	.LVL7
 4292 0950 50000000 		.4byte	.LVL9
 4293 0954 0200     		.2byte	0x2
 4294 0956 7D       		.byte	0x7d
 4295 0957 00       		.sleb128 0
 4296 0958 50000000 		.4byte	.LVL9
 4297 095c 5C000000 		.4byte	.LVL12
 4298 0960 0300     		.2byte	0x3
 4299 0962 91       		.byte	0x91
 4300 0963 B07F     		.sleb128 -80
 4301 0965 5C000000 		.4byte	.LVL12
 4302 0969 A2010000 		.4byte	.LVL61
 4303 096d 0200     		.2byte	0x2
 4304 096f 7D       		.byte	0x7d
 4305 0970 00       		.sleb128 0
 4306 0971 BE010000 		.4byte	.LVL64
 4307 0975 C0010000 		.4byte	.LVL65
 4308 0979 0100     		.2byte	0x1
 4309 097b 53       		.byte	0x53
 4310 097c C0010000 		.4byte	.LVL65
 4311 0980 CC010000 		.4byte	.LVL68
 4312 0984 0200     		.2byte	0x2
 4313 0986 7D       		.byte	0x7d
 4314 0987 00       		.sleb128 0
 4315 0988 F0010000 		.4byte	.LVL73
 4316 098c FC010000 		.4byte	.LVL74
 4317 0990 0200     		.2byte	0x2
 4318 0992 7D       		.byte	0x7d
 4319 0993 00       		.sleb128 0
 4320 0994 18020000 		.4byte	.LVL77
 4321 0998 A6040000 		.4byte	.LVL175
 4322 099c 0200     		.2byte	0x2
 4323 099e 7D       		.byte	0x7d
 4324 099f 00       		.sleb128 0
 4325 09a0 A6040000 		.4byte	.LVL175
 4326 09a4 A8040000 		.4byte	.LVL176
 4327 09a8 0100     		.2byte	0x1
ARM GAS  /tmp/ccxgpRfJ.s 			page 77


 4328 09aa 53       		.byte	0x53
 4329 09ab A8040000 		.4byte	.LVL176
 4330 09af 1C050000 		.4byte	.LFE83
 4331 09b3 0200     		.2byte	0x2
 4332 09b5 7D       		.byte	0x7d
 4333 09b6 00       		.sleb128 0
 4334 09b7 00000000 		.4byte	0
 4335 09bb 00000000 		.4byte	0
 4336              	.LLST11:
 4337 09bf AA000000 		.4byte	.LVL24
 4338 09c3 BE000000 		.4byte	.LVL26
 4339 09c7 1100     		.2byte	0x11
 4340 09c9 49       		.byte	0x49
 4341 09ca 40       		.byte	0x40
 4342 09cb 4B       		.byte	0x4b
 4343 09cc 24       		.byte	0x24
 4344 09cd 22       		.byte	0x22
 4345 09ce 73       		.byte	0x73
 4346 09cf BF7F     		.sleb128 -65
 4347 09d1 08       		.byte	0x8
 4348 09d2 FF       		.byte	0xff
 4349 09d3 1A       		.byte	0x1a
 4350 09d4 40       		.byte	0x40
 4351 09d5 4B       		.byte	0x4b
 4352 09d6 24       		.byte	0x24
 4353 09d7 22       		.byte	0x22
 4354 09d8 2A       		.byte	0x2a
 4355 09d9 9F       		.byte	0x9f
 4356 09da E8000000 		.4byte	.LVL34
 4357 09de 06010000 		.4byte	.LVL37
 4358 09e2 0200     		.2byte	0x2
 4359 09e4 31       		.byte	0x31
 4360 09e5 9F       		.byte	0x9f
 4361 09e6 28040000 		.4byte	.LVL151
 4362 09ea 2A040000 		.4byte	.LVL152
 4363 09ee 0200     		.2byte	0x2
 4364 09f0 31       		.byte	0x31
 4365 09f1 9F       		.byte	0x9f
 4366 09f2 60040000 		.4byte	.LVL164
 4367 09f6 62040000 		.4byte	.LVL165
 4368 09fa 1100     		.2byte	0x11
 4369 09fc 49       		.byte	0x49
 4370 09fd 40       		.byte	0x40
 4371 09fe 4B       		.byte	0x4b
 4372 09ff 24       		.byte	0x24
 4373 0a00 22       		.byte	0x22
 4374 0a01 73       		.byte	0x73
 4375 0a02 BF7F     		.sleb128 -65
 4376 0a04 08       		.byte	0x8
 4377 0a05 FF       		.byte	0xff
 4378 0a06 1A       		.byte	0x1a
 4379 0a07 40       		.byte	0x40
 4380 0a08 4B       		.byte	0x4b
 4381 0a09 24       		.byte	0x24
 4382 0a0a 22       		.byte	0x22
 4383 0a0b 2A       		.byte	0x2a
 4384 0a0c 9F       		.byte	0x9f
ARM GAS  /tmp/ccxgpRfJ.s 			page 78


 4385 0a0d B4040000 		.4byte	.LVL179
 4386 0a11 BC040000 		.4byte	.LVL181
 4387 0a15 0200     		.2byte	0x2
 4388 0a17 31       		.byte	0x31
 4389 0a18 9F       		.byte	0x9f
 4390 0a19 00000000 		.4byte	0
 4391 0a1d 00000000 		.4byte	0
 4392              	.LLST12:
 4393 0a21 5C000000 		.4byte	.LVL12
 4394 0a25 6A000000 		.4byte	.LVL13
 4395 0a29 0200     		.2byte	0x2
 4396 0a2b 30       		.byte	0x30
 4397 0a2c 9F       		.byte	0x9f
 4398 0a2d 6A000000 		.4byte	.LVL13
 4399 0a31 44040000 		.4byte	.LVL158
 4400 0a35 0300     		.2byte	0x3
 4401 0a37 91       		.byte	0x91
 4402 0a38 BC7F     		.sleb128 -68
 4403 0a3a 44040000 		.4byte	.LVL158
 4404 0a3e 4C040000 		.4byte	.LVL159
 4405 0a42 0200     		.2byte	0x2
 4406 0a44 30       		.byte	0x30
 4407 0a45 9F       		.byte	0x9f
 4408 0a46 4C040000 		.4byte	.LVL159
 4409 0a4a 50040000 		.4byte	.LVL160
 4410 0a4e 0200     		.2byte	0x2
 4411 0a50 31       		.byte	0x31
 4412 0a51 9F       		.byte	0x9f
 4413 0a52 50040000 		.4byte	.LVL160
 4414 0a56 1C050000 		.4byte	.LFE83
 4415 0a5a 0300     		.2byte	0x3
 4416 0a5c 91       		.byte	0x91
 4417 0a5d BC7F     		.sleb128 -68
 4418 0a5f 00000000 		.4byte	0
 4419 0a63 00000000 		.4byte	0
 4420              	.LLST13:
 4421 0a67 24020000 		.4byte	.LVL80
 4422 0a6b 28020000 		.4byte	.LVL81
 4423 0a6f 0100     		.2byte	0x1
 4424 0a71 53       		.byte	0x53
 4425 0a72 28020000 		.4byte	.LVL81
 4426 0a76 3A020000 		.4byte	.LVL85
 4427 0a7a 0100     		.2byte	0x1
 4428 0a7c 59       		.byte	0x59
 4429 0a7d 3A020000 		.4byte	.LVL85
 4430 0a81 3E020000 		.4byte	.LVL86
 4431 0a85 0100     		.2byte	0x1
 4432 0a87 54       		.byte	0x54
 4433 0a88 26030000 		.4byte	.LVL115
 4434 0a8c 28030000 		.4byte	.LVL116
 4435 0a90 0100     		.2byte	0x1
 4436 0a92 53       		.byte	0x53
 4437 0a93 28030000 		.4byte	.LVL116
 4438 0a97 48030000 		.4byte	.LVL123
 4439 0a9b 0100     		.2byte	0x1
 4440 0a9d 59       		.byte	0x59
 4441 0a9e BC040000 		.4byte	.LVL181
ARM GAS  /tmp/ccxgpRfJ.s 			page 79


 4442 0aa2 BE040000 		.4byte	.LVL182
 4443 0aa6 0100     		.2byte	0x1
 4444 0aa8 53       		.byte	0x53
 4445 0aa9 BE040000 		.4byte	.LVL182
 4446 0aad C8040000 		.4byte	.LVL184
 4447 0ab1 0100     		.2byte	0x1
 4448 0ab3 59       		.byte	0x59
 4449 0ab4 C8040000 		.4byte	.LVL184
 4450 0ab8 CA040000 		.4byte	.LVL185
 4451 0abc 0100     		.2byte	0x1
 4452 0abe 53       		.byte	0x53
 4453 0abf CA040000 		.4byte	.LVL185
 4454 0ac3 D0040000 		.4byte	.LVL187
 4455 0ac7 0100     		.2byte	0x1
 4456 0ac9 59       		.byte	0x59
 4457 0aca 00000000 		.4byte	0
 4458 0ace 00000000 		.4byte	0
 4459              	.LLST14:
 4460 0ad2 32020000 		.4byte	.LVL83
 4461 0ad6 3E020000 		.4byte	.LVL86
 4462 0ada 0100     		.2byte	0x1
 4463 0adc 5B       		.byte	0x5b
 4464 0add 3E020000 		.4byte	.LVL86
 4465 0ae1 8E020000 		.4byte	.LVL97
 4466 0ae5 0100     		.2byte	0x1
 4467 0ae7 56       		.byte	0x56
 4468 0ae8 00000000 		.4byte	0
 4469 0aec 00000000 		.4byte	0
 4470              	.LLST15:
 4471 0af0 32020000 		.4byte	.LVL83
 4472 0af4 3A020000 		.4byte	.LVL85
 4473 0af8 0100     		.2byte	0x1
 4474 0afa 59       		.byte	0x59
 4475 0afb 3A020000 		.4byte	.LVL85
 4476 0aff 3E020000 		.4byte	.LVL86
 4477 0b03 0100     		.2byte	0x1
 4478 0b05 54       		.byte	0x54
 4479 0b06 00000000 		.4byte	0
 4480 0b0a 00000000 		.4byte	0
 4481              	.LLST16:
 4482 0b0e 32020000 		.4byte	.LVL83
 4483 0b12 A0020000 		.4byte	.LVL100
 4484 0b16 0300     		.2byte	0x3
 4485 0b18 91       		.byte	0x91
 4486 0b19 4C       		.sleb128 -52
 4487 0b1a 9F       		.byte	0x9f
 4488 0b1b A0020000 		.4byte	.LVL100
 4489 0b1f BE020000 		.4byte	.LVL101
 4490 0b23 0100     		.2byte	0x1
 4491 0b25 53       		.byte	0x53
 4492 0b26 BE020000 		.4byte	.LVL101
 4493 0b2a DE020000 		.4byte	.LVL104
 4494 0b2e 0300     		.2byte	0x3
 4495 0b30 91       		.byte	0x91
 4496 0b31 4C       		.sleb128 -52
 4497 0b32 9F       		.byte	0x9f
 4498 0b33 DE020000 		.4byte	.LVL104
ARM GAS  /tmp/ccxgpRfJ.s 			page 80


 4499 0b37 F0020000 		.4byte	.LVL105
 4500 0b3b 0100     		.2byte	0x1
 4501 0b3d 52       		.byte	0x52
 4502 0b3e F0020000 		.4byte	.LVL105
 4503 0b42 F2020000 		.4byte	.LVL106
 4504 0b46 0300     		.2byte	0x3
 4505 0b48 91       		.byte	0x91
 4506 0b49 4C       		.sleb128 -52
 4507 0b4a 9F       		.byte	0x9f
 4508 0b4b F2020000 		.4byte	.LVL106
 4509 0b4f F6020000 		.4byte	.LVL107
 4510 0b53 0100     		.2byte	0x1
 4511 0b55 51       		.byte	0x51
 4512 0b56 F6020000 		.4byte	.LVL107
 4513 0b5a 18030000 		.4byte	.LVL112
 4514 0b5e 0300     		.2byte	0x3
 4515 0b60 91       		.byte	0x91
 4516 0b61 4C       		.sleb128 -52
 4517 0b62 9F       		.byte	0x9f
 4518 0b63 18030000 		.4byte	.LVL112
 4519 0b67 1E030000 		.4byte	.LVL113
 4520 0b6b 0100     		.2byte	0x1
 4521 0b6d 51       		.byte	0x51
 4522 0b6e 1E030000 		.4byte	.LVL113
 4523 0b72 20030000 		.4byte	.LVL114
 4524 0b76 0100     		.2byte	0x1
 4525 0b78 58       		.byte	0x58
 4526 0b79 5C040000 		.4byte	.LVL162
 4527 0b7d 5E040000 		.4byte	.LVL163
 4528 0b81 0300     		.2byte	0x3
 4529 0b83 91       		.byte	0x91
 4530 0b84 4C       		.sleb128 -52
 4531 0b85 9F       		.byte	0x9f
 4532 0b86 5E040000 		.4byte	.LVL163
 4533 0b8a 60040000 		.4byte	.LVL164
 4534 0b8e 0100     		.2byte	0x1
 4535 0b90 51       		.byte	0x51
 4536 0b91 70040000 		.4byte	.LVL167
 4537 0b95 7A040000 		.4byte	.LVL169
 4538 0b99 0300     		.2byte	0x3
 4539 0b9b 91       		.byte	0x91
 4540 0b9c 4C       		.sleb128 -52
 4541 0b9d 9F       		.byte	0x9f
 4542 0b9e 7A040000 		.4byte	.LVL169
 4543 0ba2 88040000 		.4byte	.LVL172
 4544 0ba6 0100     		.2byte	0x1
 4545 0ba8 53       		.byte	0x53
 4546 0ba9 00000000 		.4byte	0
 4547 0bad 00000000 		.4byte	0
 4548              	.LLST17:
 4549 0bb1 32020000 		.4byte	.LVL83
 4550 0bb5 20030000 		.4byte	.LVL114
 4551 0bb9 0200     		.2byte	0x2
 4552 0bbb 30       		.byte	0x30
 4553 0bbc 9F       		.byte	0x9f
 4554 0bbd 5C040000 		.4byte	.LVL162
 4555 0bc1 60040000 		.4byte	.LVL164
ARM GAS  /tmp/ccxgpRfJ.s 			page 81


 4556 0bc5 0200     		.2byte	0x2
 4557 0bc7 30       		.byte	0x30
 4558 0bc8 9F       		.byte	0x9f
 4559 0bc9 70040000 		.4byte	.LVL167
 4560 0bcd 88040000 		.4byte	.LVL172
 4561 0bd1 0200     		.2byte	0x2
 4562 0bd3 30       		.byte	0x30
 4563 0bd4 9F       		.byte	0x9f
 4564 0bd5 00000000 		.4byte	0
 4565 0bd9 00000000 		.4byte	0
 4566              	.LLST20:
 4567 0bdd 32020000 		.4byte	.LVL83
 4568 0be1 A0020000 		.4byte	.LVL100
 4569 0be5 0300     		.2byte	0x3
 4570 0be7 91       		.byte	0x91
 4571 0be8 4C       		.sleb128 -52
 4572 0be9 9F       		.byte	0x9f
 4573 0bea A0020000 		.4byte	.LVL100
 4574 0bee BE020000 		.4byte	.LVL101
 4575 0bf2 0100     		.2byte	0x1
 4576 0bf4 53       		.byte	0x53
 4577 0bf5 BE020000 		.4byte	.LVL101
 4578 0bf9 DA020000 		.4byte	.LVL103
 4579 0bfd 0300     		.2byte	0x3
 4580 0bff 91       		.byte	0x91
 4581 0c00 4C       		.sleb128 -52
 4582 0c01 9F       		.byte	0x9f
 4583 0c02 00030000 		.4byte	.LVL108
 4584 0c06 08030000 		.4byte	.LVL109
 4585 0c0a 0300     		.2byte	0x3
 4586 0c0c 71       		.byte	0x71
 4587 0c0d 01       		.sleb128 1
 4588 0c0e 9F       		.byte	0x9f
 4589 0c0f 08030000 		.4byte	.LVL109
 4590 0c13 10030000 		.4byte	.LVL110
 4591 0c17 0300     		.2byte	0x3
 4592 0c19 71       		.byte	0x71
 4593 0c1a 02       		.sleb128 2
 4594 0c1b 9F       		.byte	0x9f
 4595 0c1c 10030000 		.4byte	.LVL110
 4596 0c20 14030000 		.4byte	.LVL111
 4597 0c24 0300     		.2byte	0x3
 4598 0c26 71       		.byte	0x71
 4599 0c27 03       		.sleb128 3
 4600 0c28 9F       		.byte	0x9f
 4601 0c29 5C040000 		.4byte	.LVL162
 4602 0c2d 5E040000 		.4byte	.LVL163
 4603 0c31 0300     		.2byte	0x3
 4604 0c33 91       		.byte	0x91
 4605 0c34 4C       		.sleb128 -52
 4606 0c35 9F       		.byte	0x9f
 4607 0c36 5E040000 		.4byte	.LVL163
 4608 0c3a 60040000 		.4byte	.LVL164
 4609 0c3e 0100     		.2byte	0x1
 4610 0c40 51       		.byte	0x51
 4611 0c41 70040000 		.4byte	.LVL167
 4612 0c45 76040000 		.4byte	.LVL168
ARM GAS  /tmp/ccxgpRfJ.s 			page 82


 4613 0c49 0300     		.2byte	0x3
 4614 0c4b 91       		.byte	0x91
 4615 0c4c 4C       		.sleb128 -52
 4616 0c4d 9F       		.byte	0x9f
 4617 0c4e 76040000 		.4byte	.LVL168
 4618 0c52 7E040000 		.4byte	.LVL171
 4619 0c56 0900     		.2byte	0x9
 4620 0c58 91       		.byte	0x91
 4621 0c59 00       		.sleb128 0
 4622 0c5a 71       		.byte	0x71
 4623 0c5b 00       		.sleb128 0
 4624 0c5c 22       		.byte	0x22
 4625 0c5d 08       		.byte	0x8
 4626 0c5e 33       		.byte	0x33
 4627 0c5f 1C       		.byte	0x1c
 4628 0c60 9F       		.byte	0x9f
 4629 0c61 7E040000 		.4byte	.LVL171
 4630 0c65 88040000 		.4byte	.LVL172
 4631 0c69 0900     		.2byte	0x9
 4632 0c6b 91       		.byte	0x91
 4633 0c6c 00       		.sleb128 0
 4634 0c6d 71       		.byte	0x71
 4635 0c6e 00       		.sleb128 0
 4636 0c6f 22       		.byte	0x22
 4637 0c70 08       		.byte	0x8
 4638 0c71 34       		.byte	0x34
 4639 0c72 1C       		.byte	0x1c
 4640 0c73 9F       		.byte	0x9f
 4641 0c74 00000000 		.4byte	0
 4642 0c78 00000000 		.4byte	0
 4643              	.LLST21:
 4644 0c7c 90020000 		.4byte	.LVL98
 4645 0c80 DA020000 		.4byte	.LVL103
 4646 0c84 0900     		.2byte	0x9
 4647 0c86 91       		.byte	0x91
 4648 0c87 00       		.sleb128 0
 4649 0c88 77       		.byte	0x77
 4650 0c89 00       		.sleb128 0
 4651 0c8a 1C       		.byte	0x1c
 4652 0c8b 08       		.byte	0x8
 4653 0c8c 29       		.byte	0x29
 4654 0c8d 1C       		.byte	0x1c
 4655 0c8e 9F       		.byte	0x9f
 4656 0c8f 5C040000 		.4byte	.LVL162
 4657 0c93 60040000 		.4byte	.LVL164
 4658 0c97 0900     		.2byte	0x9
 4659 0c99 91       		.byte	0x91
 4660 0c9a 00       		.sleb128 0
 4661 0c9b 77       		.byte	0x77
 4662 0c9c 00       		.sleb128 0
 4663 0c9d 1C       		.byte	0x1c
 4664 0c9e 08       		.byte	0x8
 4665 0c9f 29       		.byte	0x29
 4666 0ca0 1C       		.byte	0x1c
 4667 0ca1 9F       		.byte	0x9f
 4668 0ca2 70040000 		.4byte	.LVL167
 4669 0ca6 76040000 		.4byte	.LVL168
ARM GAS  /tmp/ccxgpRfJ.s 			page 83


 4670 0caa 0900     		.2byte	0x9
 4671 0cac 91       		.byte	0x91
 4672 0cad 00       		.sleb128 0
 4673 0cae 77       		.byte	0x77
 4674 0caf 00       		.sleb128 0
 4675 0cb0 1C       		.byte	0x1c
 4676 0cb1 08       		.byte	0x8
 4677 0cb2 29       		.byte	0x29
 4678 0cb3 1C       		.byte	0x1c
 4679 0cb4 9F       		.byte	0x9f
 4680 0cb5 76040000 		.4byte	.LVL168
 4681 0cb9 7C040000 		.4byte	.LVL170
 4682 0cbd 0C00     		.2byte	0xc
 4683 0cbf 91       		.byte	0x91
 4684 0cc0 00       		.sleb128 0
 4685 0cc1 77       		.byte	0x77
 4686 0cc2 00       		.sleb128 0
 4687 0cc3 1C       		.byte	0x1c
 4688 0cc4 71       		.byte	0x71
 4689 0cc5 00       		.sleb128 0
 4690 0cc6 1C       		.byte	0x1c
 4691 0cc7 08       		.byte	0x8
 4692 0cc8 29       		.byte	0x29
 4693 0cc9 1C       		.byte	0x1c
 4694 0cca 9F       		.byte	0x9f
 4695 0ccb 7C040000 		.4byte	.LVL170
 4696 0ccf 7E040000 		.4byte	.LVL171
 4697 0cd3 0C00     		.2byte	0xc
 4698 0cd5 91       		.byte	0x91
 4699 0cd6 00       		.sleb128 0
 4700 0cd7 77       		.byte	0x77
 4701 0cd8 00       		.sleb128 0
 4702 0cd9 1C       		.byte	0x1c
 4703 0cda 71       		.byte	0x71
 4704 0cdb 00       		.sleb128 0
 4705 0cdc 1C       		.byte	0x1c
 4706 0cdd 08       		.byte	0x8
 4707 0cde 2A       		.byte	0x2a
 4708 0cdf 1C       		.byte	0x1c
 4709 0ce0 9F       		.byte	0x9f
 4710 0ce1 7E040000 		.4byte	.LVL171
 4711 0ce5 88040000 		.4byte	.LVL172
 4712 0ce9 0C00     		.2byte	0xc
 4713 0ceb 91       		.byte	0x91
 4714 0cec 00       		.sleb128 0
 4715 0ced 77       		.byte	0x77
 4716 0cee 00       		.sleb128 0
 4717 0cef 1C       		.byte	0x1c
 4718 0cf0 71       		.byte	0x71
 4719 0cf1 00       		.sleb128 0
 4720 0cf2 1C       		.byte	0x1c
 4721 0cf3 08       		.byte	0x8
 4722 0cf4 29       		.byte	0x29
 4723 0cf5 1C       		.byte	0x1c
 4724 0cf6 9F       		.byte	0x9f
 4725 0cf7 00000000 		.4byte	0
 4726 0cfb 00000000 		.4byte	0
ARM GAS  /tmp/ccxgpRfJ.s 			page 84


 4727              	.LLST22:
 4728 0cff 32020000 		.4byte	.LVL83
 4729 0d03 3E020000 		.4byte	.LVL86
 4730 0d07 0300     		.2byte	0x3
 4731 0d09 91       		.byte	0x91
 4732 0d0a 57       		.sleb128 -41
 4733 0d0b 9F       		.byte	0x9f
 4734 0d0c 4E020000 		.4byte	.LVL88
 4735 0d10 DA020000 		.4byte	.LVL103
 4736 0d14 0100     		.2byte	0x1
 4737 0d16 57       		.byte	0x57
 4738 0d17 00030000 		.4byte	.LVL108
 4739 0d1b 08030000 		.4byte	.LVL109
 4740 0d1f 0300     		.2byte	0x3
 4741 0d21 77       		.byte	0x77
 4742 0d22 01       		.sleb128 1
 4743 0d23 9F       		.byte	0x9f
 4744 0d24 08030000 		.4byte	.LVL109
 4745 0d28 10030000 		.4byte	.LVL110
 4746 0d2c 0300     		.2byte	0x3
 4747 0d2e 77       		.byte	0x77
 4748 0d2f 02       		.sleb128 2
 4749 0d30 9F       		.byte	0x9f
 4750 0d31 10030000 		.4byte	.LVL110
 4751 0d35 14030000 		.4byte	.LVL111
 4752 0d39 0300     		.2byte	0x3
 4753 0d3b 77       		.byte	0x77
 4754 0d3c 03       		.sleb128 3
 4755 0d3d 9F       		.byte	0x9f
 4756 0d3e 5C040000 		.4byte	.LVL162
 4757 0d42 60040000 		.4byte	.LVL164
 4758 0d46 0100     		.2byte	0x1
 4759 0d48 57       		.byte	0x57
 4760 0d49 70040000 		.4byte	.LVL167
 4761 0d4d 76040000 		.4byte	.LVL168
 4762 0d51 0100     		.2byte	0x1
 4763 0d53 57       		.byte	0x57
 4764 0d54 76040000 		.4byte	.LVL168
 4765 0d58 7E040000 		.4byte	.LVL171
 4766 0d5c 0800     		.2byte	0x8
 4767 0d5e 77       		.byte	0x77
 4768 0d5f 00       		.sleb128 0
 4769 0d60 71       		.byte	0x71
 4770 0d61 00       		.sleb128 0
 4771 0d62 22       		.byte	0x22
 4772 0d63 23       		.byte	0x23
 4773 0d64 01       		.uleb128 0x1
 4774 0d65 9F       		.byte	0x9f
 4775 0d66 7E040000 		.4byte	.LVL171
 4776 0d6a 88040000 		.4byte	.LVL172
 4777 0d6e 0600     		.2byte	0x6
 4778 0d70 77       		.byte	0x77
 4779 0d71 00       		.sleb128 0
 4780 0d72 71       		.byte	0x71
 4781 0d73 00       		.sleb128 0
 4782 0d74 22       		.byte	0x22
 4783 0d75 9F       		.byte	0x9f
ARM GAS  /tmp/ccxgpRfJ.s 			page 85


 4784 0d76 00000000 		.4byte	0
 4785 0d7a 00000000 		.4byte	0
 4786              	.LLST23:
 4787 0d7e 32020000 		.4byte	.LVL83
 4788 0d82 3A020000 		.4byte	.LVL85
 4789 0d86 0100     		.2byte	0x1
 4790 0d88 59       		.byte	0x59
 4791 0d89 3A020000 		.4byte	.LVL85
 4792 0d8d 3E020000 		.4byte	.LVL86
 4793 0d91 0100     		.2byte	0x1
 4794 0d93 54       		.byte	0x54
 4795 0d94 62020000 		.4byte	.LVL90
 4796 0d98 64020000 		.4byte	.LVL91
 4797 0d9c 0100     		.2byte	0x1
 4798 0d9e 50       		.byte	0x50
 4799 0d9f 64020000 		.4byte	.LVL91
 4800 0da3 8A020000 		.4byte	.LVL96
 4801 0da7 0100     		.2byte	0x1
 4802 0da9 54       		.byte	0x54
 4803 0daa 00000000 		.4byte	0
 4804 0dae 00000000 		.4byte	0
 4805              	.LLST24:
 4806 0db2 32020000 		.4byte	.LVL83
 4807 0db6 3A020000 		.4byte	.LVL85
 4808 0dba 0100     		.2byte	0x1
 4809 0dbc 59       		.byte	0x59
 4810 0dbd 3A020000 		.4byte	.LVL85
 4811 0dc1 3E020000 		.4byte	.LVL86
 4812 0dc5 0100     		.2byte	0x1
 4813 0dc7 54       		.byte	0x54
 4814 0dc8 6A020000 		.4byte	.LVL93
 4815 0dcc 7C020000 		.4byte	.LVL95
 4816 0dd0 0100     		.2byte	0x1
 4817 0dd2 50       		.byte	0x50
 4818 0dd3 7C020000 		.4byte	.LVL95
 4819 0dd7 90020000 		.4byte	.LVL98
 4820 0ddb 0100     		.2byte	0x1
 4821 0ddd 55       		.byte	0x55
 4822 0dde 90020000 		.4byte	.LVL98
 4823 0de2 C2020000 		.4byte	.LVL102
 4824 0de6 0100     		.2byte	0x1
 4825 0de8 58       		.byte	0x58
 4826 0de9 70040000 		.4byte	.LVL167
 4827 0ded 88040000 		.4byte	.LVL172
 4828 0df1 0100     		.2byte	0x1
 4829 0df3 58       		.byte	0x58
 4830 0df4 00000000 		.4byte	0
 4831 0df8 00000000 		.4byte	0
 4832              	.LLST25:
 4833 0dfc 34030000 		.4byte	.LVL118
 4834 0e00 18040000 		.4byte	.LVL150
 4835 0e04 0200     		.2byte	0x2
 4836 0e06 3A       		.byte	0x3a
 4837 0e07 9F       		.byte	0x9f
 4838 0e08 B0040000 		.4byte	.LVL178
 4839 0e0c B4040000 		.4byte	.LVL179
 4840 0e10 0200     		.2byte	0x2
ARM GAS  /tmp/ccxgpRfJ.s 			page 86


 4841 0e12 3A       		.byte	0x3a
 4842 0e13 9F       		.byte	0x9f
 4843 0e14 D0040000 		.4byte	.LVL187
 4844 0e18 EA040000 		.4byte	.LVL190
 4845 0e1c 0200     		.2byte	0x2
 4846 0e1e 3A       		.byte	0x3a
 4847 0e1f 9F       		.byte	0x9f
 4848 0e20 00000000 		.4byte	0
 4849 0e24 00000000 		.4byte	0
 4850              	.LLST26:
 4851 0e28 34030000 		.4byte	.LVL118
 4852 0e2c 48030000 		.4byte	.LVL123
 4853 0e30 0100     		.2byte	0x1
 4854 0e32 59       		.byte	0x59
 4855 0e33 00000000 		.4byte	0
 4856 0e37 00000000 		.4byte	0
 4857              	.LLST27:
 4858 0e3b 34030000 		.4byte	.LVL118
 4859 0e3f DE030000 		.4byte	.LVL141
 4860 0e43 0100     		.2byte	0x1
 4861 0e45 5B       		.byte	0x5b
 4862 0e46 DE030000 		.4byte	.LVL141
 4863 0e4a E4030000 		.4byte	.LVL142
 4864 0e4e 0100     		.2byte	0x1
 4865 0e50 52       		.byte	0x52
 4866 0e51 E4030000 		.4byte	.LVL142
 4867 0e55 18040000 		.4byte	.LVL150
 4868 0e59 0100     		.2byte	0x1
 4869 0e5b 5B       		.byte	0x5b
 4870 0e5c B0040000 		.4byte	.LVL178
 4871 0e60 B4040000 		.4byte	.LVL179
 4872 0e64 0100     		.2byte	0x1
 4873 0e66 5B       		.byte	0x5b
 4874 0e67 D0040000 		.4byte	.LVL187
 4875 0e6b D8040000 		.4byte	.LVL188
 4876 0e6f 0100     		.2byte	0x1
 4877 0e71 5B       		.byte	0x5b
 4878 0e72 D8040000 		.4byte	.LVL188
 4879 0e76 EA040000 		.4byte	.LVL190
 4880 0e7a 0100     		.2byte	0x1
 4881 0e7c 53       		.byte	0x53
 4882 0e7d 00000000 		.4byte	0
 4883 0e81 00000000 		.4byte	0
 4884              	.LLST28:
 4885 0e85 34030000 		.4byte	.LVL118
 4886 0e89 18040000 		.4byte	.LVL150
 4887 0e8d 0200     		.2byte	0x2
 4888 0e8f 30       		.byte	0x30
 4889 0e90 9F       		.byte	0x9f
 4890 0e91 B0040000 		.4byte	.LVL178
 4891 0e95 B4040000 		.4byte	.LVL179
 4892 0e99 0200     		.2byte	0x2
 4893 0e9b 30       		.byte	0x30
 4894 0e9c 9F       		.byte	0x9f
 4895 0e9d D0040000 		.4byte	.LVL187
 4896 0ea1 EA040000 		.4byte	.LVL190
 4897 0ea5 0200     		.2byte	0x2
ARM GAS  /tmp/ccxgpRfJ.s 			page 87


 4898 0ea7 30       		.byte	0x30
 4899 0ea8 9F       		.byte	0x9f
 4900 0ea9 00000000 		.4byte	0
 4901 0ead 00000000 		.4byte	0
 4902              	.LLST31:
 4903 0eb1 34030000 		.4byte	.LVL118
 4904 0eb5 D0030000 		.4byte	.LVL140
 4905 0eb9 0100     		.2byte	0x1
 4906 0ebb 5B       		.byte	0x5b
 4907 0ebc F2030000 		.4byte	.LVL143
 4908 0ec0 FA030000 		.4byte	.LVL144
 4909 0ec4 0300     		.2byte	0x3
 4910 0ec6 71       		.byte	0x71
 4911 0ec7 01       		.sleb128 1
 4912 0ec8 9F       		.byte	0x9f
 4913 0ec9 FA030000 		.4byte	.LVL144
 4914 0ecd 02040000 		.4byte	.LVL145
 4915 0ed1 0300     		.2byte	0x3
 4916 0ed3 71       		.byte	0x71
 4917 0ed4 02       		.sleb128 2
 4918 0ed5 9F       		.byte	0x9f
 4919 0ed6 02040000 		.4byte	.LVL145
 4920 0eda 06040000 		.4byte	.LVL146
 4921 0ede 0300     		.2byte	0x3
 4922 0ee0 71       		.byte	0x71
 4923 0ee1 03       		.sleb128 3
 4924 0ee2 9F       		.byte	0x9f
 4925 0ee3 B0040000 		.4byte	.LVL178
 4926 0ee7 B4040000 		.4byte	.LVL179
 4927 0eeb 0100     		.2byte	0x1
 4928 0eed 5B       		.byte	0x5b
 4929 0eee D0040000 		.4byte	.LVL187
 4930 0ef2 D8040000 		.4byte	.LVL188
 4931 0ef6 0100     		.2byte	0x1
 4932 0ef8 5B       		.byte	0x5b
 4933 0ef9 D8040000 		.4byte	.LVL188
 4934 0efd DE040000 		.4byte	.LVL189
 4935 0f01 0800     		.2byte	0x8
 4936 0f03 73       		.byte	0x73
 4937 0f04 00       		.sleb128 0
 4938 0f05 71       		.byte	0x71
 4939 0f06 00       		.sleb128 0
 4940 0f07 22       		.byte	0x22
 4941 0f08 23       		.byte	0x23
 4942 0f09 01       		.uleb128 0x1
 4943 0f0a 9F       		.byte	0x9f
 4944 0f0b DE040000 		.4byte	.LVL189
 4945 0f0f EA040000 		.4byte	.LVL190
 4946 0f13 0600     		.2byte	0x6
 4947 0f15 73       		.byte	0x73
 4948 0f16 00       		.sleb128 0
 4949 0f17 71       		.byte	0x71
 4950 0f18 00       		.sleb128 0
 4951 0f19 22       		.byte	0x22
 4952 0f1a 9F       		.byte	0x9f
 4953 0f1b 00000000 		.4byte	0
 4954 0f1f 00000000 		.4byte	0
ARM GAS  /tmp/ccxgpRfJ.s 			page 88


 4955              	.LLST32:
 4956 0f23 50030000 		.4byte	.LVL124
 4957 0f27 54030000 		.4byte	.LVL126
 4958 0f2b 0300     		.2byte	0x3
 4959 0f2d 71       		.byte	0x71
 4960 0f2e 30       		.sleb128 48
 4961 0f2f 9F       		.byte	0x9f
 4962 0f30 54030000 		.4byte	.LVL126
 4963 0f34 5A030000 		.4byte	.LVL127
 4964 0f38 0100     		.2byte	0x1
 4965 0f3a 51       		.byte	0x51
 4966 0f3b 00000000 		.4byte	0
 4967 0f3f 00000000 		.4byte	0
 4968              	.LLST33:
 4969 0f43 3A030000 		.4byte	.LVL119
 4970 0f47 3E030000 		.4byte	.LVL121
 4971 0f4b 0100     		.2byte	0x1
 4972 0f4d 53       		.byte	0x53
 4973 0f4e 3E030000 		.4byte	.LVL121
 4974 0f52 D0030000 		.4byte	.LVL140
 4975 0f56 0100     		.2byte	0x1
 4976 0f58 57       		.byte	0x57
 4977 0f59 F2030000 		.4byte	.LVL143
 4978 0f5d FA030000 		.4byte	.LVL144
 4979 0f61 0300     		.2byte	0x3
 4980 0f63 77       		.byte	0x77
 4981 0f64 01       		.sleb128 1
 4982 0f65 9F       		.byte	0x9f
 4983 0f66 FA030000 		.4byte	.LVL144
 4984 0f6a 02040000 		.4byte	.LVL145
 4985 0f6e 0300     		.2byte	0x3
 4986 0f70 77       		.byte	0x77
 4987 0f71 02       		.sleb128 2
 4988 0f72 9F       		.byte	0x9f
 4989 0f73 02040000 		.4byte	.LVL145
 4990 0f77 06040000 		.4byte	.LVL146
 4991 0f7b 0300     		.2byte	0x3
 4992 0f7d 77       		.byte	0x77
 4993 0f7e 03       		.sleb128 3
 4994 0f7f 9F       		.byte	0x9f
 4995 0f80 B0040000 		.4byte	.LVL178
 4996 0f84 B4040000 		.4byte	.LVL179
 4997 0f88 0100     		.2byte	0x1
 4998 0f8a 57       		.byte	0x57
 4999 0f8b D0040000 		.4byte	.LVL187
 5000 0f8f D8040000 		.4byte	.LVL188
 5001 0f93 0100     		.2byte	0x1
 5002 0f95 57       		.byte	0x57
 5003 0f96 D8040000 		.4byte	.LVL188
 5004 0f9a DE040000 		.4byte	.LVL189
 5005 0f9e 0800     		.2byte	0x8
 5006 0fa0 77       		.byte	0x77
 5007 0fa1 00       		.sleb128 0
 5008 0fa2 71       		.byte	0x71
 5009 0fa3 00       		.sleb128 0
 5010 0fa4 22       		.byte	0x22
 5011 0fa5 23       		.byte	0x23
ARM GAS  /tmp/ccxgpRfJ.s 			page 89


 5012 0fa6 01       		.uleb128 0x1
 5013 0fa7 9F       		.byte	0x9f
 5014 0fa8 DE040000 		.4byte	.LVL189
 5015 0fac EA040000 		.4byte	.LVL190
 5016 0fb0 0600     		.2byte	0x6
 5017 0fb2 77       		.byte	0x77
 5018 0fb3 00       		.sleb128 0
 5019 0fb4 71       		.byte	0x71
 5020 0fb5 00       		.sleb128 0
 5021 0fb6 22       		.byte	0x22
 5022 0fb7 9F       		.byte	0x9f
 5023 0fb8 00000000 		.4byte	0
 5024 0fbc 00000000 		.4byte	0
 5025              	.LLST34:
 5026 0fc0 34030000 		.4byte	.LVL118
 5027 0fc4 48030000 		.4byte	.LVL123
 5028 0fc8 0100     		.2byte	0x1
 5029 0fca 59       		.byte	0x59
 5030 0fcb 48030000 		.4byte	.LVL123
 5031 0fcf 62030000 		.4byte	.LVL129
 5032 0fd3 0100     		.2byte	0x1
 5033 0fd5 54       		.byte	0x54
 5034 0fd6 62030000 		.4byte	.LVL129
 5035 0fda 64030000 		.4byte	.LVL130
 5036 0fde 0100     		.2byte	0x1
 5037 0fe0 50       		.byte	0x50
 5038 0fe1 64030000 		.4byte	.LVL130
 5039 0fe5 78030000 		.4byte	.LVL135
 5040 0fe9 0100     		.2byte	0x1
 5041 0feb 54       		.byte	0x54
 5042 0fec 00000000 		.4byte	0
 5043 0ff0 00000000 		.4byte	0
 5044              	.LLST35:
 5045 0ff4 34030000 		.4byte	.LVL118
 5046 0ff8 48030000 		.4byte	.LVL123
 5047 0ffc 0100     		.2byte	0x1
 5048 0ffe 59       		.byte	0x59
 5049 0fff 48030000 		.4byte	.LVL123
 5050 1003 6A030000 		.4byte	.LVL132
 5051 1007 0100     		.2byte	0x1
 5052 1009 55       		.byte	0x55
 5053 100a 6A030000 		.4byte	.LVL132
 5054 100e 72030000 		.4byte	.LVL133
 5055 1012 0100     		.2byte	0x1
 5056 1014 50       		.byte	0x50
 5057 1015 72030000 		.4byte	.LVL133
 5058 1019 A0030000 		.4byte	.LVL136
 5059 101d 0100     		.2byte	0x1
 5060 101f 55       		.byte	0x55
 5061 1020 A0030000 		.4byte	.LVL136
 5062 1024 BC030000 		.4byte	.LVL138
 5063 1028 0100     		.2byte	0x1
 5064 102a 50       		.byte	0x50
 5065 102b BC030000 		.4byte	.LVL138
 5066 102f BE030000 		.4byte	.LVL139
 5067 1033 0100     		.2byte	0x1
 5068 1035 58       		.byte	0x58
ARM GAS  /tmp/ccxgpRfJ.s 			page 90


 5069 1036 D0040000 		.4byte	.LVL187
 5070 103a D8040000 		.4byte	.LVL188
 5071 103e 0100     		.2byte	0x1
 5072 1040 50       		.byte	0x50
 5073 1041 D8040000 		.4byte	.LVL188
 5074 1045 EA040000 		.4byte	.LVL190
 5075 1049 0100     		.2byte	0x1
 5076 104b 58       		.byte	0x58
 5077 104c 00000000 		.4byte	0
 5078 1050 00000000 		.4byte	0
 5079              	.LLST36:
 5080 1054 00000000 		.4byte	.LVL195
 5081 1058 0F000000 		.4byte	.LVL196-1
 5082 105c 0100     		.2byte	0x1
 5083 105e 50       		.byte	0x50
 5084 105f 0F000000 		.4byte	.LVL196-1
 5085 1063 18000000 		.4byte	.LFE84
 5086 1067 0400     		.2byte	0x4
 5087 1069 F3       		.byte	0xf3
 5088 106a 01       		.uleb128 0x1
 5089 106b 50       		.byte	0x50
 5090 106c 9F       		.byte	0x9f
 5091 106d 00000000 		.4byte	0
 5092 1071 00000000 		.4byte	0
 5093              	.LLST37:
 5094 1075 00000000 		.4byte	.LVL197
 5095 1079 12000000 		.4byte	.LVL200
 5096 107d 0100     		.2byte	0x1
 5097 107f 50       		.byte	0x50
 5098 1080 12000000 		.4byte	.LVL200
 5099 1084 30000000 		.4byte	.LVL207
 5100 1088 0100     		.2byte	0x1
 5101 108a 55       		.byte	0x55
 5102 108b 30000000 		.4byte	.LVL207
 5103 108f 38000000 		.4byte	.LVL208
 5104 1093 0400     		.2byte	0x4
 5105 1095 F3       		.byte	0xf3
 5106 1096 01       		.uleb128 0x1
 5107 1097 50       		.byte	0x50
 5108 1098 9F       		.byte	0x9f
 5109 1099 38000000 		.4byte	.LVL208
 5110 109d 3A000000 		.4byte	.LVL209
 5111 10a1 0100     		.2byte	0x1
 5112 10a3 50       		.byte	0x50
 5113 10a4 3A000000 		.4byte	.LVL209
 5114 10a8 52000000 		.4byte	.LFE85
 5115 10ac 0100     		.2byte	0x1
 5116 10ae 55       		.byte	0x55
 5117 10af 00000000 		.4byte	0
 5118 10b3 00000000 		.4byte	0
 5119              	.LLST38:
 5120 10b7 00000000 		.4byte	.LVL197
 5121 10bb 14000000 		.4byte	.LVL201
 5122 10bf 0100     		.2byte	0x1
 5123 10c1 51       		.byte	0x51
 5124 10c2 14000000 		.4byte	.LVL201
 5125 10c6 30000000 		.4byte	.LVL206
ARM GAS  /tmp/ccxgpRfJ.s 			page 91


 5126 10ca 0100     		.2byte	0x1
 5127 10cc 54       		.byte	0x54
 5128 10cd 30000000 		.4byte	.LVL206
 5129 10d1 38000000 		.4byte	.LVL208
 5130 10d5 0400     		.2byte	0x4
 5131 10d7 F3       		.byte	0xf3
 5132 10d8 01       		.uleb128 0x1
 5133 10d9 51       		.byte	0x51
 5134 10da 9F       		.byte	0x9f
 5135 10db 38000000 		.4byte	.LVL208
 5136 10df 3C000000 		.4byte	.LVL210
 5137 10e3 0100     		.2byte	0x1
 5138 10e5 51       		.byte	0x51
 5139 10e6 3C000000 		.4byte	.LVL210
 5140 10ea 52000000 		.4byte	.LFE85
 5141 10ee 0100     		.2byte	0x1
 5142 10f0 54       		.byte	0x54
 5143 10f1 00000000 		.4byte	0
 5144 10f5 00000000 		.4byte	0
 5145              	.LLST39:
 5146 10f9 18000000 		.4byte	.LVL202
 5147 10fd 1C000000 		.4byte	.LVL203
 5148 1101 0300     		.2byte	0x3
 5149 1103 91       		.byte	0x91
 5150 1104 44       		.sleb128 -60
 5151 1105 9F       		.byte	0x9f
 5152 1106 1C000000 		.4byte	.LVL203
 5153 110a 23000000 		.4byte	.LVL204-1
 5154 110e 0100     		.2byte	0x1
 5155 1110 50       		.byte	0x50
 5156 1111 23000000 		.4byte	.LVL204-1
 5157 1115 38000000 		.4byte	.LVL208
 5158 1119 0300     		.2byte	0x3
 5159 111b 91       		.byte	0x91
 5160 111c 44       		.sleb128 -60
 5161 111d 9F       		.byte	0x9f
 5162 111e 44000000 		.4byte	.LVL211
 5163 1122 48000000 		.4byte	.LVL212
 5164 1126 0300     		.2byte	0x3
 5165 1128 91       		.byte	0x91
 5166 1129 44       		.sleb128 -60
 5167 112a 9F       		.byte	0x9f
 5168 112b 48000000 		.4byte	.LVL212
 5169 112f 4F000000 		.4byte	.LVL213-1
 5170 1133 0100     		.2byte	0x1
 5171 1135 50       		.byte	0x50
 5172 1136 4F000000 		.4byte	.LVL213-1
 5173 113a 52000000 		.4byte	.LFE85
 5174 113e 0300     		.2byte	0x3
 5175 1140 91       		.byte	0x91
 5176 1141 44       		.sleb128 -60
 5177 1142 9F       		.byte	0x9f
 5178 1143 00000000 		.4byte	0
 5179 1147 00000000 		.4byte	0
 5180              	.LLST40:
 5181 114b 0C000000 		.4byte	.LVL198
 5182 114f 0E000000 		.4byte	.LVL199
ARM GAS  /tmp/ccxgpRfJ.s 			page 92


 5183 1153 0300     		.2byte	0x3
 5184 1155 71       		.byte	0x71
 5185 1156 7F       		.sleb128 -1
 5186 1157 9F       		.byte	0x9f
 5187 1158 0E000000 		.4byte	.LVL199
 5188 115c 17000000 		.4byte	.LVL202-1
 5189 1160 0100     		.2byte	0x1
 5190 1162 52       		.byte	0x52
 5191 1163 17000000 		.4byte	.LVL202-1
 5192 1167 2E000000 		.4byte	.LVL205
 5193 116b 0300     		.2byte	0x3
 5194 116d 74       		.byte	0x74
 5195 116e 7F       		.sleb128 -1
 5196 116f 9F       		.byte	0x9f
 5197 1170 38000000 		.4byte	.LVL208
 5198 1174 52000000 		.4byte	.LFE85
 5199 1178 0200     		.2byte	0x2
 5200 117a 30       		.byte	0x30
 5201 117b 9F       		.byte	0x9f
 5202 117c 00000000 		.4byte	0
 5203 1180 00000000 		.4byte	0
 5204              	.LLST41:
 5205 1184 24000000 		.4byte	.LVL204
 5206 1188 38000000 		.4byte	.LVL208
 5207 118c 0100     		.2byte	0x1
 5208 118e 50       		.byte	0x50
 5209 118f 50000000 		.4byte	.LVL213
 5210 1193 52000000 		.4byte	.LFE85
 5211 1197 0100     		.2byte	0x1
 5212 1199 50       		.byte	0x50
 5213 119a 00000000 		.4byte	0
 5214 119e 00000000 		.4byte	0
 5215              		.section	.debug_aranges,"",%progbits
 5216 0000 2C000000 		.4byte	0x2c
 5217 0004 0200     		.2byte	0x2
 5218 0006 00000000 		.4byte	.Ldebug_info0
 5219 000a 04       		.byte	0x4
 5220 000b 00       		.byte	0
 5221 000c 0000     		.2byte	0
 5222 000e 0000     		.2byte	0
 5223 0010 00000000 		.4byte	.LFB83
 5224 0014 1C050000 		.4byte	.LFE83-.LFB83
 5225 0018 00000000 		.4byte	.LFB84
 5226 001c 18000000 		.4byte	.LFE84-.LFB84
 5227 0020 00000000 		.4byte	.LFB85
 5228 0024 52000000 		.4byte	.LFE85-.LFB85
 5229 0028 00000000 		.4byte	0
 5230 002c 00000000 		.4byte	0
 5231              		.section	.debug_ranges,"",%progbits
 5232              	.Ldebug_ranges0:
 5233 0000 20020000 		.4byte	.LBB14
 5234 0004 22020000 		.4byte	.LBE14
 5235 0008 24020000 		.4byte	.LBB25
 5236 000c 30020000 		.4byte	.LBE25
 5237 0010 32020000 		.4byte	.LBB26
 5238 0014 16030000 		.4byte	.LBE26
 5239 0018 5C040000 		.4byte	.LBB34
ARM GAS  /tmp/ccxgpRfJ.s 			page 93


 5240 001c 60040000 		.4byte	.LBE34
 5241 0020 70040000 		.4byte	.LBB35
 5242 0024 88040000 		.4byte	.LBE35
 5243 0028 00000000 		.4byte	0
 5244 002c 00000000 		.4byte	0
 5245 0030 34030000 		.4byte	.LBB27
 5246 0034 0C040000 		.4byte	.LBE27
 5247 0038 B0040000 		.4byte	.LBB36
 5248 003c B4040000 		.4byte	.LBE36
 5249 0040 D0040000 		.4byte	.LBB37
 5250 0044 EA040000 		.4byte	.LBE37
 5251 0048 00000000 		.4byte	0
 5252 004c 00000000 		.4byte	0
 5253 0050 00000000 		.4byte	.LFB83
 5254 0054 1C050000 		.4byte	.LFE83
 5255 0058 00000000 		.4byte	.LFB84
 5256 005c 18000000 		.4byte	.LFE84
 5257 0060 00000000 		.4byte	.LFB85
 5258 0064 52000000 		.4byte	.LFE85
 5259 0068 00000000 		.4byte	0
 5260 006c 00000000 		.4byte	0
 5261              		.section	.debug_line,"",%progbits
 5262              	.Ldebug_line0:
 5263 0000 F0020000 		.section	.debug_str,"MS",%progbits,1
 5263      02005901 
 5263      00000201 
 5263      FB0E0D00 
 5263      01010101 
 5264              	.LASF71:
 5265 0000 73697A65 		.ascii	"size_wo_nul\000"
 5265      5F776F5F 
 5265      6E756C00 
 5266              	.LASF16:
 5267 000c 65706D61 		.ascii	"epmask\000"
 5267      736B00
 5268              	.LASF55:
 5269 0013 4D656D6F 		.ascii	"MemoryStream\000"
 5269      72795374 
 5269      7265616D 
 5269      00
 5270              	.LASF14:
 5271 0020 73746174 		.ascii	"state\000"
 5271      6500
 5272              	.LASF76:
 5273 0026 756E7369 		.ascii	"unsigned_common\000"
 5273      676E6564 
 5273      5F636F6D 
 5273      6D6F6E00 
 5274              	.LASF2:
 5275 0036 73686F72 		.ascii	"short int\000"
 5275      7420696E 
 5275      7400
 5276              	.LASF3:
 5277 0040 73697A65 		.ascii	"size_t\000"
 5277      5F7400
 5278              	.LASF23:
 5279 0047 73697A65 		.ascii	"sizetype\000"
ARM GAS  /tmp/ccxgpRfJ.s 			page 94


 5279      74797065 
 5279      00
 5280              	.LASF45:
 5281 0050 42617365 		.ascii	"BaseSequentialStream\000"
 5281      53657175 
 5281      656E7469 
 5281      616C5374 
 5281      7265616D 
 5282              	.LASF74:
 5283 0065 2E2E2F6F 		.ascii	"../os/hal/lib/streams/chprintf.c\000"
 5283      732F6861 
 5283      6C2F6C69 
 5283      622F7374 
 5283      7265616D 
 5284              	.LASF5:
 5285 0086 6C6F6E67 		.ascii	"long long int\000"
 5285      206C6F6E 
 5285      6720696E 
 5285      7400
 5286              	.LASF20:
 5287 0094 6576656E 		.ascii	"eventmask_t\000"
 5287      746D6173 
 5287      6B5F7400 
 5288              	.LASF26:
 5289 00a0 6E696C5F 		.ascii	"nil_thread\000"
 5289      74687265 
 5289      616400
 5290              	.LASF69:
 5291 00ab 666F726D 		.ascii	"formatted_bytes\000"
 5291      61747465 
 5291      645F6279 
 5291      74657300 
 5292              	.LASF50:
 5293 00bb 76615F6C 		.ascii	"va_list\000"
 5293      69737400 
 5294              	.LASF72:
 5295 00c3 72657476 		.ascii	"retval\000"
 5295      616C00
 5296              	.LASF73:
 5297 00ca 474E5520 		.ascii	"GNU C 4.9.2 -mcpu=cortex-m0 -mfloat-abi=soft -mfp16"
 5297      4320342E 
 5297      392E3220 
 5297      2D6D6370 
 5297      753D636F 
 5298 00fd 2D666F72 		.ascii	"-format=none -mno-thumb-interwork -mthumb -mfloat-a"
 5298      6D61743D 
 5298      6E6F6E65 
 5298      202D6D6E 
 5298      6F2D7468 
 5299 0130 62693D73 		.ascii	"bi=soft -mfpu=vfpv3-d16 -mtls-dialect=gnu -ggdb -O3"
 5299      6F667420 
 5299      2D6D6670 
 5299      753D7666 
 5299      7076332D 
 5300 0163 202D7374 		.ascii	" -std=gnu99 -fomit-frame-pointer -falign-functions="
 5300      643D676E 
 5300      75393920 
ARM GAS  /tmp/ccxgpRfJ.s 			page 95


 5300      2D666F6D 
 5300      69742D66 
 5301 0196 3136202D 		.ascii	"16 -ffunction-sections -fdata-sections -fno-common\000"
 5301      6666756E 
 5301      6374696F 
 5301      6E2D7365 
 5301      6374696F 
 5302              	.LASF24:
 5303 01c9 72656761 		.ascii	"regarm_t\000"
 5303      726D5F74 
 5303      00
 5304              	.LASF6:
 5305 01d2 75696E74 		.ascii	"uint8_t\000"
 5305      385F7400 
 5306              	.LASF36:
 5307 01da 6E696C5F 		.ascii	"nil_system\000"
 5307      73797374 
 5307      656D00
 5308              	.LASF29:
 5309 01e5 73656D61 		.ascii	"semaphore_t\000"
 5309      70686F72 
 5309      655F7400 
 5310              	.LASF63:
 5311 01f1 77696474 		.ascii	"width\000"
 5311      6800
 5312              	.LASF39:
 5313 01f7 73797374 		.ascii	"systime\000"
 5313      696D6500 
 5314              	.LASF70:
 5315 01ff 6368736E 		.ascii	"chsnprintf\000"
 5315      7072696E 
 5315      746600
 5316              	.LASF44:
 5317 020a 72656164 		.ascii	"read\000"
 5317      00
 5318              	.LASF30:
 5319 020f 6E696C5F 		.ascii	"nil_semaphore\000"
 5319      73656D61 
 5319      70686F72 
 5319      6500
 5320              	.LASF35:
 5321 021d 6E696C5F 		.ascii	"nil_system_t\000"
 5321      73797374 
 5321      656D5F74 
 5321      00
 5322              	.LASF48:
 5323 022a 5F5F7661 		.ascii	"__va_list\000"
 5323      5F6C6973 
 5323      7400
 5324              	.LASF65:
 5325 0234 6C656674 		.ascii	"left_align\000"
 5325      5F616C69 
 5325      676E00
 5326              	.LASF57:
 5327 023f 6C6F6E67 		.ascii	"long int\000"
 5327      20696E74 
 5327      00
ARM GAS  /tmp/ccxgpRfJ.s 			page 96


 5328              	.LASF54:
 5329 0248 6F666673 		.ascii	"offset\000"
 5329      657400
 5330              	.LASF4:
 5331 024f 696E7433 		.ascii	"int32_t\000"
 5331      325F7400 
 5332              	.LASF59:
 5333 0257 6C6F6E67 		.ascii	"long_to_string_with_divisor\000"
 5333      5F746F5F 
 5333      73747269 
 5333      6E675F77 
 5333      6974685F 
 5334              	.LASF58:
 5335 0273 63685F6C 		.ascii	"ch_ltoa\000"
 5335      746F6100 
 5336              	.LASF12:
 5337 027b 74687265 		.ascii	"thread_t\000"
 5337      61645F74 
 5337      00
 5338              	.LASF64:
 5339 0284 69735F6C 		.ascii	"is_long\000"
 5339      6F6E6700 
 5340              	.LASF7:
 5341 028c 756E7369 		.ascii	"unsigned char\000"
 5341      676E6564 
 5341      20636861 
 5341      7200
 5342              	.LASF34:
 5343 029a 65776D61 		.ascii	"ewmask\000"
 5343      736B00
 5344              	.LASF1:
 5345 02a1 7369676E 		.ascii	"signed char\000"
 5345      65642063 
 5345      68617200 
 5346              	.LASF10:
 5347 02ad 75696E74 		.ascii	"uint64_t\000"
 5347      36345F74 
 5347      00
 5348              	.LASF11:
 5349 02b6 6C6F6E67 		.ascii	"long long unsigned int\000"
 5349      206C6F6E 
 5349      6720756E 
 5349      7369676E 
 5349      65642069 
 5350              	.LASF9:
 5351 02cd 75696E74 		.ascii	"uint32_t\000"
 5351      33325F74 
 5351      00
 5352              	.LASF0:
 5353 02d6 756E7369 		.ascii	"unsigned int\000"
 5353      676E6564 
 5353      20696E74 
 5353      00
 5354              	.LASF66:
 5355 02e3 746D7062 		.ascii	"tmpbuf\000"
 5355      756600
 5356              	.LASF77:
ARM GAS  /tmp/ccxgpRfJ.s 			page 97


 5357 02ea 6D734F62 		.ascii	"msObjectInit\000"
 5357      6A656374 
 5357      496E6974 
 5357      00
 5358              	.LASF37:
 5359 02f7 63757272 		.ascii	"current\000"
 5359      656E7400 
 5360              	.LASF56:
 5361 02ff 72616469 		.ascii	"radix\000"
 5361      7800
 5362              	.LASF8:
 5363 0305 73686F72 		.ascii	"short unsigned int\000"
 5363      7420756E 
 5363      7369676E 
 5363      65642069 
 5363      6E7400
 5364              	.LASF13:
 5365 0318 63747870 		.ascii	"ctxp\000"
 5365      00
 5366              	.LASF43:
 5367 031d 77726974 		.ascii	"write\000"
 5367      6500
 5368              	.LASF22:
 5369 0323 73797374 		.ascii	"systime_t\000"
 5369      696D655F 
 5369      7400
 5370              	.LASF49:
 5371 032d 5F5F6170 		.ascii	"__ap\000"
 5371      00
 5372              	.LASF31:
 5373 0332 63686172 		.ascii	"char\000"
 5373      00
 5374              	.LASF51:
 5375 0337 4D656D53 		.ascii	"MemStreamVMT\000"
 5375      74726561 
 5375      6D564D54 
 5375      00
 5376              	.LASF21:
 5377 0344 636E745F 		.ascii	"cnt_t\000"
 5377      7400
 5378              	.LASF46:
 5379 034a 5F426F6F 		.ascii	"_Bool\000"
 5379      6C00
 5380              	.LASF68:
 5381 0350 63687072 		.ascii	"chprintf\000"
 5381      696E7466 
 5381      00
 5382              	.LASF15:
 5383 0359 74696D65 		.ascii	"timeout\000"
 5383      6F757400 
 5384              	.LASF25:
 5385 0361 73746B61 		.ascii	"stkalign_t\000"
 5385      6C69676E 
 5385      5F7400
 5386              	.LASF52:
 5387 036c 62756666 		.ascii	"buffer\000"
 5387      657200
ARM GAS  /tmp/ccxgpRfJ.s 			page 98


 5388              	.LASF53:
 5389 0373 73697A65 		.ascii	"size\000"
 5389      00
 5390              	.LASF27:
 5391 0378 706F7274 		.ascii	"port_intctx\000"
 5391      5F696E74 
 5391      63747800 
 5392              	.LASF33:
 5393 0384 73656D70 		.ascii	"semp\000"
 5393      00
 5394              	.LASF32:
 5395 0389 74687265 		.ascii	"thread_reference_t\000"
 5395      61645F72 
 5395      65666572 
 5395      656E6365 
 5395      5F7400
 5396              	.LASF61:
 5397 039c 66696C6C 		.ascii	"filler\000"
 5397      657200
 5398              	.LASF18:
 5399 03a3 74737461 		.ascii	"tstate_t\000"
 5399      74655F74 
 5399      00
 5400              	.LASF75:
 5401 03ac 2F686F6D 		.ascii	"/home/bunnie/code/chibi-chibios/orchard\000"
 5401      652F6275 
 5401      6E6E6965 
 5401      2F636F64 
 5401      652F6368 
 5402              	.LASF28:
 5403 03d4 696E7463 		.ascii	"intctx_t\000"
 5403      74785F74 
 5403      00
 5404              	.LASF47:
 5405 03dd 5F5F676E 		.ascii	"__gnuc_va_list\000"
 5405      75635F76 
 5405      615F6C69 
 5405      737400
 5406              	.LASF40:
 5407 03ec 74687265 		.ascii	"threads\000"
 5407      61647300 
 5408              	.LASF41:
 5409 03f4 6462675F 		.ascii	"dbg_panic_msg\000"
 5409      70616E69 
 5409      635F6D73 
 5409      6700
 5410              	.LASF17:
 5411 0402 73746B6C 		.ascii	"stklim\000"
 5411      696D00
 5412              	.LASF60:
 5413 0409 64697669 		.ascii	"divisor\000"
 5413      736F7200 
 5414              	.LASF19:
 5415 0411 6D73675F 		.ascii	"msg_t\000"
 5415      7400
 5416              	.LASF62:
 5417 0417 70726563 		.ascii	"precision\000"
ARM GAS  /tmp/ccxgpRfJ.s 			page 99


 5417      6973696F 
 5417      6E00
 5418              	.LASF38:
 5419 0421 6E657874 		.ascii	"next\000"
 5419      00
 5420              	.LASF42:
 5421 0426 42617365 		.ascii	"BaseSequentialStreamVMT\000"
 5421      53657175 
 5421      656E7469 
 5421      616C5374 
 5421      7265616D 
 5422              	.LASF67:
 5423 043e 63687670 		.ascii	"chvprintf\000"
 5423      72696E74 
 5423      6600
 5424              		.ident	"GCC: (Debian 4.9.2-10) 4.9.2"
 5425              		.section	.note.GNU-stack,"",%progbits
ARM GAS  /tmp/ccxgpRfJ.s 			page 100


DEFINED SYMBOLS
                            *ABS*:00000000 chprintf.c
     /tmp/ccxgpRfJ.s:20     .text.chvprintf:00000000 $t
     /tmp/ccxgpRfJ.s:26     .text.chvprintf:00000000 chvprintf
     /tmp/ccxgpRfJ.s:207    .rodata.chvprintf:00000000 $d
     /tmp/ccxgpRfJ.s:1043   .text.chvprintf:00000420 $d
     /tmp/ccxgpRfJ.s:1048   .text.chvprintf:00000428 $t
     /tmp/ccxgpRfJ.s:1287   .text.chvprintf:00000514 $d
     /tmp/ccxgpRfJ.s:1293   .text.chprintf:00000000 $t
     /tmp/ccxgpRfJ.s:1299   .text.chprintf:00000000 chprintf
     /tmp/ccxgpRfJ.s:1329   .text.chsnprintf:00000000 $t
     /tmp/ccxgpRfJ.s:1335   .text.chsnprintf:00000000 chsnprintf
     /tmp/ccxgpRfJ.s:1422   .rodata.str1.4:00000000 $d
                     .debug_frame:00000010 $d
     /tmp/ccxgpRfJ.s:1292   .text.chvprintf:0000051c $t

UNDEFINED SYMBOLS
__aeabi_uidivmod
__aeabi_uidiv
msObjectInit
