ARM GAS  /tmp/ccxgpRfJ.s 			page 1


   1              		.cpu cortex-m0
   2              		.fpu softvfp
   3              		.eabi_attribute 20, 1
   4              		.eabi_attribute 21, 1
   5              		.eabi_attribute 23, 3
   6              		.eabi_attribute 24, 1
   7              		.eabi_attribute 25, 1
   8              		.eabi_attribute 26, 2
   9              		.eabi_attribute 30, 2
  10              		.eabi_attribute 34, 0
  11              		.eabi_attribute 18, 4
  12              		.code	16
  13              		.file	"chprintf.c"
  14              		.text
  15              	.Ltext0:
  16              		.cfi_sections	.debug_frame
  17              		.global	__aeabi_uidivmod
  18              		.global	__aeabi_uidiv
  19              		.section	.text.chvprintf,"ax",%progbits
  20              		.align	2
  21              		.p2align 4,,15
  22              		.global	chvprintf
  23              		.code	16
  24              		.thumb_func
  25              		.type	chvprintf, %function
  26              	chvprintf:
  27              	.LFB83:
  28              		.file 1 "../os/hal/lib/streams/chprintf.c"
  29              		.loc 1 121 0
  30              		.cfi_startproc
  31              	.LVL0:
  32 0000 F0B5     		push	{r4, r5, r6, r7, lr}
  33              		.cfi_def_cfa_offset 20
  34              		.cfi_offset 4, -20
  35              		.cfi_offset 5, -16
  36              		.cfi_offset 6, -12
  37              		.cfi_offset 7, -8
  38              		.cfi_offset 14, -4
  39 0002 5646     		mov	r6, r10
  40 0004 4D46     		mov	r5, r9
  41 0006 9246     		mov	r10, r2
  42              	.LVL1:
  43 0008 5F46     		mov	r7, fp
  44 000a 4446     		mov	r4, r8
  45              		.loc 1 124 0
  46 000c 0023     		mov	r3, #0
  47              		.loc 1 121 0
  48 000e F0B4     		push	{r4, r5, r6, r7}
  49              		.cfi_def_cfa_offset 36
  50              		.cfi_offset 8, -36
  51              		.cfi_offset 9, -32
  52              		.cfi_offset 10, -28
  53              		.cfi_offset 11, -24
  54 0010 5646     		mov	r6, r10
  55 0012 051C     		mov	r5, r0
  56 0014 8BB0     		sub	sp, sp, #44
  57              		.cfi_def_cfa_offset 80
ARM GAS  /tmp/ccxgpRfJ.s 			page 2


  58              		.loc 1 124 0
  59 0016 0093     		str	r3, [sp]
  60 0018 06AB     		add	r3, sp, #24
  61 001a 0533     		add	r3, r3, #5
  62 001c 07AA     		add	r2, sp, #28
  63              	.LVL2:
  64 001e 9B1A     		sub	r3, r3, r2
  65              		.loc 1 121 0
  66 0020 0191     		str	r1, [sp, #4]
  67 0022 0493     		str	r3, [sp, #16]
  68              	.LVL3:
  69              	.L2:
  70              		.loc 1 135 0
  71 0024 019B     		ldr	r3, [sp, #4]
  72 0026 1978     		ldrb	r1, [r3]
  73 0028 5F1C     		add	r7, r3, #1
  74              	.LVL4:
  75              		.loc 1 136 0
  76 002a 0029     		cmp	r1, #0
  77 002c 0ED0     		beq	.L121
  78              	.L136:
  79              		.loc 1 138 0
  80 002e 2529     		cmp	r1, #37
  81 0030 14D0     		beq	.L4
  82              		.loc 1 139 0
  83 0032 2B68     		ldr	r3, [r5]
  84 0034 281C     		mov	r0, r5
  85 0036 9B68     		ldr	r3, [r3, #8]
  86 0038 9847     		blx	r3
  87              	.LVL5:
  88              		.loc 1 140 0
  89 003a 009B     		ldr	r3, [sp]
  90              		.loc 1 135 0
  91 003c 0197     		str	r7, [sp, #4]
  92              		.loc 1 140 0
  93 003e 0133     		add	r3, r3, #1
  94 0040 0093     		str	r3, [sp]
  95              	.LVL6:
  96              		.loc 1 135 0
  97 0042 019B     		ldr	r3, [sp, #4]
  98              	.LVL7:
  99 0044 1978     		ldrb	r1, [r3]
 100 0046 5F1C     		add	r7, r3, #1
 101              	.LVL8:
 102              		.loc 1 136 0
 103 0048 0029     		cmp	r1, #0
 104 004a F0D1     		bne	.L136
 105              	.L121:
 106              		.loc 1 277 0
 107 004c 0098     		ldr	r0, [sp]
 108 004e 0BB0     		add	sp, sp, #44
 109              	.LVL9:
 110              		@ sp needed
 111              	.LVL10:
 112              	.LVL11:
 113 0050 3CBC     		pop	{r2, r3, r4, r5}
 114 0052 9046     		mov	r8, r2
ARM GAS  /tmp/ccxgpRfJ.s 			page 3


 115 0054 9946     		mov	r9, r3
 116 0056 A246     		mov	r10, r4
 117 0058 AB46     		mov	fp, r5
 118 005a F0BD     		pop	{r4, r5, r6, r7, pc}
 119              	.LVL12:
 120              	.L4:
 121              		.loc 1 146 0
 122 005c 019B     		ldr	r3, [sp, #4]
 123 005e 5B78     		ldrb	r3, [r3, #1]
 124 0060 2D2B     		cmp	r3, #45
 125 0062 00D1     		bne	.LCB118
 126 0064 EEE1     		b	.L137	@long jump
 127              	.LCB118:
 128              		.loc 1 145 0
 129 0066 0022     		mov	r2, #0
 130 0068 0392     		str	r2, [sp, #12]
 131              	.LVL13:
 132              	.L6:
 133              		.loc 1 150 0
 134 006a 2022     		mov	r2, #32
 135 006c 9246     		mov	r10, r2
 136              		.loc 1 151 0
 137 006e 302B     		cmp	r3, #48
 138 0070 00D1     		bne	.LCB131
 139 0072 E4E1     		b	.L138	@long jump
 140              	.LCB131:
 141              	.LVL14:
 142              	.L7:
 143              		.loc 1 155 0
 144 0074 0023     		mov	r3, #0
 145 0076 1C1C     		mov	r4, r3
 146 0078 05E0     		b	.L10
 147              	.LVL15:
 148              	.L139:
 149              		.loc 1 161 0
 150 007a 3278     		ldrb	r2, [r6]
 151              	.LVL16:
 152 007c 0436     		add	r6, r6, #4
 153              	.LVL17:
 154              	.L8:
 155              		.loc 1 164 0
 156 007e A300     		lsl	r3, r4, #2
 157 0080 1C19     		add	r4, r3, r4
 158              	.LVL18:
 159 0082 6400     		lsl	r4, r4, #1
 160 0084 A418     		add	r4, r4, r2
 161              	.LVL19:
 162              	.L10:
 163              		.loc 1 157 0
 164 0086 0137     		add	r7, r7, #1
 165              	.LVL20:
 166 0088 7B1E     		sub	r3, r7, #1
 167 008a 1B78     		ldrb	r3, [r3]
 168              	.LVL21:
 169              		.loc 1 158 0
 170 008c 1A1C     		mov	r2, r3
 171 008e 303A     		sub	r2, r2, #48
ARM GAS  /tmp/ccxgpRfJ.s 			page 4


 172 0090 D2B2     		uxtb	r2, r2
 173 0092 092A     		cmp	r2, #9
 174 0094 F3D9     		bls	.L8
 175              		.loc 1 160 0
 176 0096 2A2B     		cmp	r3, #42
 177 0098 EFD0     		beq	.L139
 178 009a 0294     		str	r4, [sp, #8]
 179              	.LVL22:
 180              		.loc 1 166 0
 181 009c 0022     		mov	r2, #0
 182              		.loc 1 167 0
 183 009e 2E2B     		cmp	r3, #46
 184 00a0 13D0     		beq	.L13
 185              	.LVL23:
 186              		.loc 1 181 0
 187 00a2 DF21     		mov	r1, #223
 188 00a4 1940     		and	r1, r3
 189 00a6 4C29     		cmp	r1, #76
 190 00a8 1ED0     		beq	.L140
 191              	.L122:
 192              	.LVL24:
 193              		.loc 1 190 0
 194 00aa 181C     		mov	r0, r3
 195 00ac 4438     		sub	r0, r0, #68
 196 00ae C0B2     		uxtb	r0, r0
 197 00b0 3428     		cmp	r0, #52
 198 00b2 00D9     		bls	.LCB207
 199 00b4 B9E1     		b	.L16	@long jump
 200              	.LCB207:
 201 00b6 DA4C     		ldr	r4, .L146
 202              	.LVL25:
 203 00b8 8000     		lsl	r0, r0, #2
 204 00ba 2058     		ldr	r0, [r4, r0]
 205 00bc 8746     		mov	pc, r0
 206              		.section	.rodata.chvprintf,"a",%progbits
 207              		.align	2
 208              	.L25:
 209 0000 20030000 		.word	.L33
 210 0004 2A040000 		.word	.L16
 211 0008 2A040000 		.word	.L16
 212 000c 2A040000 		.word	.L16
 213 0010 2A040000 		.word	.L16
 214 0014 20030000 		.word	.L33
 215 0018 2A040000 		.word	.L16
 216 001c 2A040000 		.word	.L16
 217 0020 2A040000 		.word	.L16
 218 0024 2A040000 		.word	.L16
 219 0028 2A040000 		.word	.L16
 220 002c 18020000 		.word	.L19
 221 0030 2A040000 		.word	.L16
 222 0034 2A040000 		.word	.L16
 223 0038 2A040000 		.word	.L16
 224 003c 2A040000 		.word	.L16
 225 0040 2A040000 		.word	.L16
 226 0044 18040000 		.word	.L20
 227 0048 2A040000 		.word	.L16
 228 004c 2A040000 		.word	.L16
ARM GAS  /tmp/ccxgpRfJ.s 			page 5


 229 0050 60040000 		.word	.L79
 230 0054 2A040000 		.word	.L16
 231 0058 2A040000 		.word	.L16
 232 005c 2A040000 		.word	.L16
 233 0060 2A040000 		.word	.L16
 234 0064 2A040000 		.word	.L16
 235 0068 2A040000 		.word	.L16
 236 006c 2A040000 		.word	.L16
 237 0070 2A040000 		.word	.L16
 238 0074 2A040000 		.word	.L16
 239 0078 2A040000 		.word	.L16
 240 007c 5E010000 		.word	.L22
 241 0080 20030000 		.word	.L33
 242 0084 2A040000 		.word	.L16
 243 0088 2A040000 		.word	.L16
 244 008c 2A040000 		.word	.L16
 245 0090 2A040000 		.word	.L16
 246 0094 20030000 		.word	.L33
 247 0098 2A040000 		.word	.L16
 248 009c 2A040000 		.word	.L16
 249 00a0 2A040000 		.word	.L16
 250 00a4 2A040000 		.word	.L16
 251 00a8 2A040000 		.word	.L16
 252 00ac 18020000 		.word	.L19
 253 00b0 2A040000 		.word	.L16
 254 00b4 2A040000 		.word	.L16
 255 00b8 2A040000 		.word	.L16
 256 00bc 06010000 		.word	.L23
 257 00c0 2A040000 		.word	.L16
 258 00c4 18040000 		.word	.L20
 259 00c8 2A040000 		.word	.L16
 260 00cc 2A040000 		.word	.L16
 261 00d0 60040000 		.word	.L79
 262              		.section	.text.chvprintf
 263              	.LVL26:
 264              	.L141:
 265              		.loc 1 173 0
 266 00be 3178     		ldrb	r1, [r6]
 267              	.LVL27:
 268 00c0 0436     		add	r6, r6, #4
 269              	.LVL28:
 270              	.L12:
 271              		.loc 1 176 0
 272 00c2 9300     		lsl	r3, r2, #2
 273 00c4 9A18     		add	r2, r3, r2
 274              	.LVL29:
 275 00c6 5200     		lsl	r2, r2, #1
 276              	.LVL30:
 277              		.loc 1 177 0
 278 00c8 8A18     		add	r2, r1, r2
 279              	.LVL31:
 280              	.L13:
 281              		.loc 1 169 0
 282 00ca 0137     		add	r7, r7, #1
 283              	.LVL32:
 284 00cc 7B1E     		sub	r3, r7, #1
 285 00ce 1B78     		ldrb	r3, [r3]
ARM GAS  /tmp/ccxgpRfJ.s 			page 6


 286              	.LVL33:
 287              		.loc 1 170 0
 288 00d0 191C     		mov	r1, r3
 289 00d2 3039     		sub	r1, r1, #48
 290 00d4 C9B2     		uxtb	r1, r1
 291 00d6 0929     		cmp	r1, #9
 292 00d8 F3D9     		bls	.L12
 293              		.loc 1 172 0
 294 00da 2A2B     		cmp	r3, #42
 295 00dc EFD0     		beq	.L141
 296              		.loc 1 181 0
 297 00de DF21     		mov	r1, #223
 298 00e0 0294     		str	r4, [sp, #8]
 299 00e2 1940     		and	r1, r3
 300 00e4 4C29     		cmp	r1, #76
 301 00e6 E0D1     		bne	.L122
 302              	.L140:
 303              	.LVL34:
 304              		.loc 1 183 0
 305 00e8 3978     		ldrb	r1, [r7]
 306 00ea 0029     		cmp	r1, #0
 307 00ec 00D1     		bne	.LCB280
 308 00ee 9CE1     		b	.L16	@long jump
 309              	.LCB280:
 310              		.loc 1 190 0
 311 00f0 0B1C     		mov	r3, r1
 312              	.LVL35:
 313 00f2 443B     		sub	r3, r3, #68
 314 00f4 DBB2     		uxtb	r3, r3
 315              		.loc 1 184 0
 316 00f6 0137     		add	r7, r7, #1
 317              	.LVL36:
 318              		.loc 1 190 0
 319 00f8 342B     		cmp	r3, #52
 320 00fa 00D9     		bls	.LCB292
 321 00fc 94E1     		b	.L76	@long jump
 322              	.LCB292:
 323 00fe C948     		ldr	r0, .L146+4
 324 0100 9B00     		lsl	r3, r3, #2
 325 0102 C358     		ldr	r3, [r0, r3]
 326 0104 9F46     		mov	pc, r3
 327              		.section	.rodata.chvprintf
 328              		.align	2
 329              	.L18:
 330 00d4 20030000 		.word	.L33
 331 00d8 28040000 		.word	.L76
 332 00dc 28040000 		.word	.L76
 333 00e0 28040000 		.word	.L76
 334 00e4 28040000 		.word	.L76
 335 00e8 20030000 		.word	.L33
 336 00ec 28040000 		.word	.L76
 337 00f0 28040000 		.word	.L76
 338 00f4 28040000 		.word	.L76
 339 00f8 28040000 		.word	.L76
 340 00fc 28040000 		.word	.L76
 341 0100 18020000 		.word	.L19
 342 0104 28040000 		.word	.L76
ARM GAS  /tmp/ccxgpRfJ.s 			page 7


 343 0108 28040000 		.word	.L76
 344 010c 28040000 		.word	.L76
 345 0110 28040000 		.word	.L76
 346 0114 28040000 		.word	.L76
 347 0118 18040000 		.word	.L20
 348 011c 28040000 		.word	.L76
 349 0120 28040000 		.word	.L76
 350 0124 B4040000 		.word	.L21
 351 0128 28040000 		.word	.L76
 352 012c 28040000 		.word	.L76
 353 0130 28040000 		.word	.L76
 354 0134 28040000 		.word	.L76
 355 0138 28040000 		.word	.L76
 356 013c 28040000 		.word	.L76
 357 0140 28040000 		.word	.L76
 358 0144 28040000 		.word	.L76
 359 0148 28040000 		.word	.L76
 360 014c 28040000 		.word	.L76
 361 0150 5E010000 		.word	.L22
 362 0154 20030000 		.word	.L33
 363 0158 28040000 		.word	.L76
 364 015c 28040000 		.word	.L76
 365 0160 28040000 		.word	.L76
 366 0164 28040000 		.word	.L76
 367 0168 20030000 		.word	.L33
 368 016c 28040000 		.word	.L76
 369 0170 28040000 		.word	.L76
 370 0174 28040000 		.word	.L76
 371 0178 28040000 		.word	.L76
 372 017c 28040000 		.word	.L76
 373 0180 18020000 		.word	.L19
 374 0184 28040000 		.word	.L76
 375 0188 28040000 		.word	.L76
 376 018c 28040000 		.word	.L76
 377 0190 06010000 		.word	.L23
 378 0194 28040000 		.word	.L76
 379 0198 18040000 		.word	.L20
 380 019c 28040000 		.word	.L76
 381 01a0 28040000 		.word	.L76
 382 01a4 B4040000 		.word	.L21
 383              		.section	.text.chvprintf
 384              	.LVL37:
 385              	.L23:
 386              		.loc 1 197 0
 387 0106 3368     		ldr	r3, [r6]
 388 0108 311D     		add	r1, r6, #4
 389 010a 9846     		mov	r8, r3
 390              	.LVL38:
 391 010c 002B     		cmp	r3, #0
 392 010e 00D1     		bne	.LCB315
 393 0110 EBE1     		b	.L142	@long jump
 394              	.LCB315:
 395              	.LVL39:
 396              	.L28:
 397              		.loc 1 201 0
 398 0112 4346     		mov	r3, r8
 399 0114 1B78     		ldrb	r3, [r3]
ARM GAS  /tmp/ccxgpRfJ.s 			page 8


 400              		.loc 1 199 0
 401 0116 002A     		cmp	r2, #0
 402 0118 00D1     		bne	.LCB322
 403 011a A5E1     		b	.L29	@long jump
 404              	.LCB322:
 405              	.LVL40:
 406              		.loc 1 201 0 discriminator 1
 407 011c 002B     		cmp	r3, #0
 408 011e 00D1     		bne	.LCB326
 409 0120 E6E1     		b	.L30	@long jump
 410              	.LCB326:
 411              		.loc 1 201 0 is_stmt 0
 412 0122 013A     		sub	r2, r2, #1
 413              	.LVL41:
 414              	.L67:
 415              		.loc 1 201 0 discriminator 4
 416 0124 4346     		mov	r3, r8
 417 0126 029C     		ldr	r4, [sp, #8]
 418 0128 01E0     		b	.L32
 419              	.LVL42:
 420              	.L143:
 421              		.loc 1 201 0 discriminator 3
 422 012a 013A     		sub	r2, r2, #1
 423 012c 03D4     		bmi	.L130
 424              	.LVL43:
 425              	.L32:
 426              		.loc 1 201 0 discriminator 4
 427 012e 0133     		add	r3, r3, #1
 428              	.LVL44:
 429 0130 1878     		ldrb	r0, [r3]
 430 0132 0028     		cmp	r0, #0
 431 0134 F9D1     		bne	.L143
 432              	.L130:
 433              		.loc 1 197 0 is_stmt 1
 434 0136 0E1C     		mov	r6, r1
 435              		.loc 1 196 0
 436 0138 2021     		mov	r1, #32
 437 013a 4246     		mov	r2, r8
 438              	.LVL45:
 439 013c 8A46     		mov	r10, r1
 440 013e 211C     		mov	r1, r4
 441 0140 9B1A     		sub	r3, r3, r2
 442              	.LVL46:
 443 0142 0294     		str	r4, [sp, #8]
 444              	.LVL47:
 445              		.loc 1 251 0
 446 0144 CC1A     		sub	r4, r1, r3
 447 0146 5A1E     		sub	r2, r3, #1
 448              	.LVL48:
 449 0148 E343     		mvn	r3, r4
 450              	.LVL49:
 451 014a DB17     		asr	r3, r3, #31
 452 014c 1C40     		and	r4, r3
 453              	.LVL50:
 454              		.loc 1 253 0
 455 014e 039B     		ldr	r3, [sp, #12]
 456              		.loc 1 201 0
ARM GAS  /tmp/ccxgpRfJ.s 			page 9


 457 0150 0197     		str	r7, [sp, #4]
 458 0152 9146     		mov	r9, r2
 459              		.loc 1 253 0
 460 0154 002B     		cmp	r3, #0
 461 0156 17D0     		beq	.L70
 462              	.LVL51:
 463              	.L57:
 464              		.loc 1 266 0
 465 0158 002A     		cmp	r2, #0
 466 015a 34DA     		bge	.L68
 467 015c 48E0     		b	.L62
 468              	.LVL52:
 469              	.L22:
 470              		.loc 1 192 0
 471 015e 2021     		mov	r1, #32
 472              		.loc 1 193 0
 473 0160 3278     		ldrb	r2, [r6]
 474              	.LVL53:
 475 0162 06AB     		add	r3, sp, #24
 476 0164 1A71     		strb	r2, [r3, #4]
 477              		.loc 1 192 0
 478 0166 8A46     		mov	r10, r1
 479 0168 049A     		ldr	r2, [sp, #16]
 480              		.loc 1 144 0
 481 016a 07A9     		add	r1, sp, #28
 482              	.LVL54:
 483 016c 8846     		mov	r8, r1
 484 016e 0299     		ldr	r1, [sp, #8]
 485              	.LVL55:
 486 0170 131C     		mov	r3, r2
 487              		.loc 1 193 0
 488 0172 0436     		add	r6, r6, #4
 489 0174 013A     		sub	r2, r2, #1
 490              		.loc 1 194 0
 491 0176 0197     		str	r7, [sp, #4]
 492              	.LVL56:
 493              	.L27:
 494              		.loc 1 251 0
 495 0178 CC1A     		sub	r4, r1, r3
 496 017a E343     		mvn	r3, r4
 497              	.LVL57:
 498 017c DB17     		asr	r3, r3, #31
 499 017e 1C40     		and	r4, r3
 500              	.LVL58:
 501              		.loc 1 253 0
 502 0180 039B     		ldr	r3, [sp, #12]
 503 0182 9146     		mov	r9, r2
 504 0184 002B     		cmp	r3, #0
 505 0186 E7D1     		bne	.L57
 506              	.LVL59:
 507              	.L70:
 508              		.loc 1 254 0
 509 0188 6742     		neg	r7, r4
 510              	.LVL60:
 511              		.loc 1 255 0
 512 018a 002F     		cmp	r7, #0
 513 018c 00D1     		bne	.LCB466
ARM GAS  /tmp/ccxgpRfJ.s 			page 10


 514 018e 5FE1     		b	.L58	@long jump
 515              	.LCB466:
 516              		.loc 1 256 0
 517 0190 4346     		mov	r3, r8
 518 0192 1B78     		ldrb	r3, [r3]
 519 0194 2D2B     		cmp	r3, #45
 520 0196 00D1     		bne	.LCB470
 521 0198 76E1     		b	.L144	@long jump
 522              	.LCB470:
 523              	.L59:
 524              		.loc 1 258 0 discriminator 1
 525 019a 331C     		mov	r3, r6
 526 019c 3C1C     		mov	r4, r7
 527 019e 5646     		mov	r6, r10
 528 01a0 9A46     		mov	r10, r3
 529              	.LVL61:
 530              	.L60:
 531              		.loc 1 262 0 discriminator 1
 532 01a2 2B68     		ldr	r3, [r5]
 533 01a4 281C     		mov	r0, r5
 534 01a6 9B68     		ldr	r3, [r3, #8]
 535 01a8 311C     		mov	r1, r6
 536              		.loc 1 264 0 discriminator 1
 537 01aa 0134     		add	r4, r4, #1
 538              	.LVL62:
 539              		.loc 1 262 0 discriminator 1
 540 01ac 9847     		blx	r3
 541              	.LVL63:
 542              		.loc 1 264 0 discriminator 1
 543 01ae 002C     		cmp	r4, #0
 544 01b0 F7D1     		bne	.L60
 545 01b2 5346     		mov	r3, r10
 546 01b4 B246     		mov	r10, r6
 547 01b6 1E1C     		mov	r6, r3
 548 01b8 009B     		ldr	r3, [sp]
 549 01ba DB1B     		sub	r3, r3, r7
 550 01bc 0093     		str	r3, [sp]
 551              	.LVL64:
 552              		.loc 1 266 0
 553 01be 4B46     		mov	r3, r9
 554              	.LVL65:
 555 01c0 002B     		cmp	r3, #0
 556 01c2 00DA     		bge	.LCB511
 557 01c4 2EE7     		b	.L2	@long jump
 558              	.LCB511:
 559              	.LVL66:
 560              	.L68:
 561 01c6 4746     		mov	r7, r8
 562 01c8 A046     		mov	r8, r4
 563              	.LVL67:
 564 01ca 4C46     		mov	r4, r9
 565              	.LVL68:
 566              	.L63:
 567              		.loc 1 267 0
 568 01cc 2B68     		ldr	r3, [r5]
 569 01ce 3978     		ldrb	r1, [r7]
 570 01d0 9B68     		ldr	r3, [r3, #8]
ARM GAS  /tmp/ccxgpRfJ.s 			page 11


 571 01d2 281C     		mov	r0, r5
 572 01d4 9847     		blx	r3
 573              	.LVL69:
 574 01d6 0137     		add	r7, r7, #1
 575              	.LVL70:
 576              		.loc 1 266 0
 577 01d8 013C     		sub	r4, r4, #1
 578 01da F7D2     		bcs	.L63
 579              	.LVL71:
 580 01dc 4B46     		mov	r3, r9
 581 01de DB43     		mvn	r3, r3
 582 01e0 4946     		mov	r1, r9
 583 01e2 4446     		mov	r4, r8
 584              	.LVL72:
 585 01e4 009A     		ldr	r2, [sp]
 586 01e6 DB17     		asr	r3, r3, #31
 587 01e8 0132     		add	r2, r2, #1
 588 01ea 0B40     		and	r3, r1
 589 01ec D318     		add	r3, r2, r3
 590 01ee 0093     		str	r3, [sp]
 591              	.LVL73:
 592              	.L62:
 593              		.loc 1 271 0
 594 01f0 002C     		cmp	r4, #0
 595 01f2 00D1     		bne	.LCB564
 596 01f4 16E7     		b	.L2	@long jump
 597              	.LCB564:
 598 01f6 271C     		mov	r7, r4
 599 01f8 A046     		mov	r8, r4
 600 01fa 5446     		mov	r4, r10
 601              	.LVL74:
 602              	.L65:
 603              		.loc 1 272 0
 604 01fc 2B68     		ldr	r3, [r5]
 605 01fe 281C     		mov	r0, r5
 606 0200 9B68     		ldr	r3, [r3, #8]
 607 0202 211C     		mov	r1, r4
 608              		.loc 1 274 0
 609 0204 013F     		sub	r7, r7, #1
 610              	.LVL75:
 611              		.loc 1 272 0
 612 0206 9847     		blx	r3
 613              	.LVL76:
 614              		.loc 1 271 0
 615 0208 002F     		cmp	r7, #0
 616 020a F7D1     		bne	.L65
 617 020c 009B     		ldr	r3, [sp]
 618 020e 9C46     		mov	ip, r3
 619 0210 C444     		add	ip, ip, r8
 620 0212 6346     		mov	r3, ip
 621 0214 0093     		str	r3, [sp]
 622 0216 05E7     		b	.L2
 623              	.LVL77:
 624              	.L19:
 625 0218 0823     		mov	r3, #8
 626 021a 9B46     		mov	fp, r3
 627 021c 0197     		str	r7, [sp, #4]
ARM GAS  /tmp/ccxgpRfJ.s 			page 12


 628              	.L26:
 629              	.LVL78:
 630              	.L44:
 631              		.loc 1 243 0
 632 021e 3368     		ldr	r3, [r6]
 633              	.LBB14:
 634              	.LBB15:
 635              	.LBB16:
 636              		.loc 1 52 0
 637 0220 06AA     		add	r2, sp, #24
 638              	.LVL79:
 639              	.LBE16:
 640              	.LBE15:
 641              	.LBE14:
 642              		.loc 1 243 0
 643 0222 9946     		mov	r9, r3
 644              	.LVL80:
 645              	.LBB25:
 646              	.LBB21:
 647              	.LBB17:
 648              		.loc 1 52 0
 649 0224 9446     		mov	ip, r2
 650 0226 0F23     		mov	r3, #15
 651              	.LVL81:
 652 0228 6344     		add	r3, r3, ip
 653 022a 1F1C     		mov	r7, r3
 654              	.LVL82:
 655 022c 2B1C     		mov	r3, r5
 656 022e 029A     		ldr	r2, [sp, #8]
 657              	.LBE17:
 658              	.LBE21:
 659              	.LBE25:
 660              		.loc 1 243 0
 661 0230 0436     		add	r6, r6, #4
 662              	.LVL83:
 663              	.LBB26:
 664              	.LBB22:
 665              	.LBB18:
 666              		.loc 1 52 0
 667 0232 4D46     		mov	r5, r9
 668              	.LVL84:
 669 0234 4C46     		mov	r4, r9
 670 0236 9046     		mov	r8, r2
 671 0238 B146     		mov	r9, r6
 672              	.LVL85:
 673 023a 5E46     		mov	r6, fp
 674 023c 9B46     		mov	fp, r3
 675              	.LVL86:
 676              	.L48:
 677              		.loc 1 54 0
 678 023e 201C     		mov	r0, r4
 679 0240 311C     		mov	r1, r6
 680 0242 FFF7FEFF 		bl	__aeabi_uidivmod
 681              	.LVL87:
 682              		.loc 1 57 0
 683 0246 0B1C     		mov	r3, r1
 684 0248 3031     		add	r1, r1, #48
ARM GAS  /tmp/ccxgpRfJ.s 			page 13


 685 024a 3733     		add	r3, r3, #55
 686              		.loc 1 58 0
 687 024c 013F     		sub	r7, r7, #1
 688              	.LVL88:
 689 024e 3929     		cmp	r1, #57
 690 0250 00DD     		ble	.L47
 691 0252 191C     		mov	r1, r3
 692              	.L47:
 693 0254 3970     		strb	r1, [r7]
 694              		.loc 1 59 0
 695 0256 201C     		mov	r0, r4
 696 0258 311C     		mov	r1, r6
 697 025a FFF7FEFF 		bl	__aeabi_uidiv
 698              	.LVL89:
 699              		.loc 1 60 0
 700 025e 311C     		mov	r1, r6
 701              		.loc 1 59 0
 702 0260 041C     		mov	r4, r0
 703              	.LVL90:
 704              		.loc 1 60 0
 705 0262 281C     		mov	r0, r5
 706              	.LVL91:
 707 0264 FFF7FEFF 		bl	__aeabi_uidiv
 708              	.LVL92:
 709 0268 051E     		sub	r5, r0, #0
 710              	.LVL93:
 711 026a E8D1     		bne	.L48
 712 026c 4346     		mov	r3, r8
 713              		.loc 1 62 0
 714 026e 06AA     		add	r2, sp, #24
 715 0270 9446     		mov	ip, r2
 716 0272 0293     		str	r3, [sp, #8]
 717              	.LVL94:
 718 0274 0F23     		mov	r3, #15
 719 0276 8046     		mov	r8, r0
 720 0278 0821     		mov	r1, #8
 721 027a 0320     		mov	r0, #3
 722              	.LVL95:
 723 027c 6344     		add	r3, r3, ip
 724 027e DA1B     		sub	r2, r3, r7
 725 0280 9142     		cmp	r1, r2
 726 0282 8941     		sbc	r1, r1, r1
 727 0284 3840     		and	r0, r7
 728 0286 4442     		neg	r4, r0
 729 0288 4441     		adc	r4, r4, r0
 730              	.LVL96:
 731 028a 4942     		neg	r1, r1
 732 028c 4E46     		mov	r6, r9
 733              	.LVL97:
 734 028e 5D46     		mov	r5, fp
 735              	.LVL98:
 736 0290 9146     		mov	r9, r2
 737 0292 0C42     		tst	r4, r1
 738 0294 00D1     		bne	.LCB742
 739 0296 EBE0     		b	.L83	@long jump
 740              	.LCB742:
 741              	.LVL99:
ARM GAS  /tmp/ccxgpRfJ.s 			page 14


 742 0298 4046     		mov	r0, r8
 743 029a 4446     		mov	r4, r8
 744 029c 391D     		add	r1, r7, #4
 745 029e 07AB     		add	r3, sp, #28
 746              	.LVL100:
 747 02a0 8B42     		cmp	r3, r1
 748 02a2 4041     		adc	r0, r0, r0
 749 02a4 08A9     		add	r1, sp, #32
 750 02a6 8F42     		cmp	r7, r1
 751 02a8 6441     		adc	r4, r4, r4
 752 02aa 211C     		mov	r1, r4
 753 02ac 0143     		orr	r1, r0
 754 02ae C9B2     		uxtb	r1, r1
 755 02b0 0029     		cmp	r1, #0
 756 02b2 00D1     		bne	.LCB759
 757 02b4 DCE0     		b	.L83	@long jump
 758              	.LCB759:
 759 02b6 111F     		sub	r1, r2, #4
 760 02b8 8908     		lsr	r1, r1, #2
 761 02ba 0131     		add	r1, r1, #1
 762 02bc 8B00     		lsl	r3, r1, #2
 763              	.LVL101:
 764 02be 501E     		sub	r0, r2, #1
 765 02c0 9846     		mov	r8, r3
 766              	.LVL102:
 767 02c2 0228     		cmp	r0, #2
 768 02c4 00D8     		bhi	.LCB772
 769 02c6 C9E0     		b	.L84	@long jump
 770              	.LCB772:
 771 02c8 0023     		mov	r3, #0
 772 02ca 9C46     		mov	ip, r3
 773 02cc 029B     		ldr	r3, [sp, #8]
 774 02ce 0020     		mov	r0, #0
 775 02d0 9B46     		mov	fp, r3
 776 02d2 0B1C     		mov	r3, r1
 777 02d4 6146     		mov	r1, ip
 778 02d6 9446     		mov	ip, r2
 779 02d8 0592     		str	r2, [sp, #20]
 780              	.LVL103:
 781              	.L51:
 782              		.loc 1 64 0
 783 02da 3C58     		ldr	r4, [r7, r0]
 784 02dc 07AA     		add	r2, sp, #28
 785              	.LVL104:
 786 02de 0131     		add	r1, r1, #1
 787 02e0 1450     		str	r4, [r2, r0]
 788 02e2 0430     		add	r0, r0, #4
 789 02e4 9942     		cmp	r1, r3
 790 02e6 F8D3     		bcc	.L51
 791 02e8 5B46     		mov	r3, fp
 792 02ea 0293     		str	r3, [sp, #8]
 793 02ec 4346     		mov	r3, r8
 794 02ee 059A     		ldr	r2, [sp, #20]
 795              	.LVL105:
 796 02f0 07A9     		add	r1, sp, #28
 797              	.LVL106:
 798 02f2 E146     		mov	r9, ip
ARM GAS  /tmp/ccxgpRfJ.s 			page 15


 799 02f4 4144     		add	r1, r1, r8
 800              	.LVL107:
 801 02f6 D21A     		sub	r2, r2, r3
 802 02f8 4744     		add	r7, r7, r8
 803 02fa E045     		cmp	r8, ip
 804 02fc 0AD0     		beq	.L55
 805 02fe 501E     		sub	r0, r2, #1
 806              	.L50:
 807              	.LVL108:
 808 0300 3B78     		ldrb	r3, [r7]
 809 0302 0B70     		strb	r3, [r1]
 810              		.loc 1 65 0
 811 0304 0028     		cmp	r0, #0
 812 0306 05D0     		beq	.L55
 813              	.LVL109:
 814              		.loc 1 64 0
 815 0308 7878     		ldrb	r0, [r7, #1]
 816 030a 4870     		strb	r0, [r1, #1]
 817              		.loc 1 65 0
 818 030c 022A     		cmp	r2, #2
 819 030e 01D0     		beq	.L55
 820              	.LVL110:
 821              		.loc 1 64 0
 822 0310 BA78     		ldrb	r2, [r7, #2]
 823 0312 8A70     		strb	r2, [r1, #2]
 824              	.LVL111:
 825              	.L55:
 826 0314 4B46     		mov	r3, r9
 827              	.LBE18:
 828              	.LBE22:
 829              	.LBE26:
 830              		.loc 1 144 0
 831 0316 07A9     		add	r1, sp, #28
 832              	.LVL112:
 833 0318 8846     		mov	r8, r1
 834 031a 5A1E     		sub	r2, r3, #1
 835 031c 0299     		ldr	r1, [sp, #8]
 836              	.LVL113:
 837              		.loc 1 245 0
 838 031e 2BE7     		b	.L27
 839              	.LVL114:
 840              	.L33:
 841              		.loc 1 211 0
 842 0320 3368     		ldr	r3, [r6]
 843 0322 0436     		add	r6, r6, #4
 844 0324 9946     		mov	r9, r3
 845              	.LVL115:
 846              		.loc 1 143 0
 847 0326 07AB     		add	r3, sp, #28
 848              	.LVL116:
 849 0328 9B46     		mov	fp, r3
 850              		.loc 1 212 0
 851 032a 4B46     		mov	r3, r9
 852              	.LVL117:
 853              		.loc 1 211 0
 854 032c 0197     		str	r7, [sp, #4]
 855              		.loc 1 212 0
ARM GAS  /tmp/ccxgpRfJ.s 			page 16


 856 032e 002B     		cmp	r3, #0
 857 0330 00DA     		bge	.LCB898
 858 0332 C3E0     		b	.L145	@long jump
 859              	.LCB898:
 860              	.LVL118:
 861              	.L35:
 862              	.LBB27:
 863              	.LBB28:
 864              	.LBB29:
 865              		.loc 1 52 0
 866 0334 0B23     		mov	r3, #11
 867 0336 5B44     		add	r3, r3, fp
 868 0338 0593     		str	r3, [sp, #20]
 869              	.LVL119:
 870 033a 1F1C     		mov	r7, r3
 871              	.LVL120:
 872 033c 2B1C     		mov	r3, r5
 873              	.LVL121:
 874 033e 029A     		ldr	r2, [sp, #8]
 875 0340 4D46     		mov	r5, r9
 876              	.LVL122:
 877 0342 4C46     		mov	r4, r9
 878 0344 9046     		mov	r8, r2
 879 0346 9946     		mov	r9, r3
 880              	.LVL123:
 881              	.L36:
 882              		.loc 1 54 0
 883 0348 201C     		mov	r0, r4
 884 034a 0A21     		mov	r1, #10
 885 034c FFF7FEFF 		bl	__aeabi_uidivmod
 886              	.LVL124:
 887              		.loc 1 58 0
 888 0350 013F     		sub	r7, r7, #1
 889              	.LVL125:
 890              		.loc 1 55 0
 891 0352 3031     		add	r1, r1, #48
 892              	.LVL126:
 893              		.loc 1 58 0
 894 0354 3970     		strb	r1, [r7]
 895              		.loc 1 59 0
 896 0356 201C     		mov	r0, r4
 897 0358 0A21     		mov	r1, #10
 898              	.LVL127:
 899 035a FFF7FEFF 		bl	__aeabi_uidiv
 900              	.LVL128:
 901              		.loc 1 60 0
 902 035e 0A21     		mov	r1, #10
 903              		.loc 1 59 0
 904 0360 041C     		mov	r4, r0
 905              	.LVL129:
 906              		.loc 1 60 0
 907 0362 281C     		mov	r0, r5
 908              	.LVL130:
 909 0364 FFF7FEFF 		bl	__aeabi_uidiv
 910              	.LVL131:
 911 0368 051E     		sub	r5, r0, #0
 912              	.LVL132:
ARM GAS  /tmp/ccxgpRfJ.s 			page 17


 913 036a EDD1     		bne	.L36
 914 036c 4346     		mov	r3, r8
 915 036e 8046     		mov	r8, r0
 916 0370 0920     		mov	r0, #9
 917              	.LVL133:
 918 0372 0293     		str	r3, [sp, #8]
 919              	.LVL134:
 920              		.loc 1 62 0
 921 0374 059B     		ldr	r3, [sp, #20]
 922 0376 4446     		mov	r4, r8
 923              	.LVL135:
 924 0378 DA1B     		sub	r2, r3, r7
 925 037a 9042     		cmp	r0, r2
 926 037c 8041     		sbc	r0, r0, r0
 927 037e 4342     		neg	r3, r0
 928 0380 0593     		str	r3, [sp, #20]
 929 0382 5B46     		mov	r3, fp
 930 0384 391D     		add	r1, r7, #4
 931 0386 8B42     		cmp	r3, r1
 932 0388 6441     		adc	r4, r4, r4
 933 038a 4046     		mov	r0, r8
 934 038c A446     		mov	ip, r4
 935 038e 4446     		mov	r4, r8
 936 0390 191D     		add	r1, r3, #4
 937 0392 8F42     		cmp	r7, r1
 938 0394 4441     		adc	r4, r4, r0
 939 0396 6346     		mov	r3, ip
 940 0398 211C     		mov	r1, r4
 941 039a 1943     		orr	r1, r3
 942 039c 059B     		ldr	r3, [sp, #20]
 943 039e 4D46     		mov	r5, r9
 944              	.LVL136:
 945 03a0 9146     		mov	r9, r2
 946              	.LVL137:
 947 03a2 1942     		tst	r1, r3
 948 03a4 00D1     		bne	.LCB1015
 949 03a6 93E0     		b	.L81	@long jump
 950              	.LCB1015:
 951 03a8 5946     		mov	r1, fp
 952 03aa 3943     		orr	r1, r7
 953 03ac 8B07     		lsl	r3, r1, #30
 954 03ae 00D0     		beq	.LCB1024
 955 03b0 8EE0     		b	.L81	@long jump
 956              	.LCB1024:
 957 03b2 111F     		sub	r1, r2, #4
 958 03b4 8908     		lsr	r1, r1, #2
 959 03b6 0131     		add	r1, r1, #1
 960 03b8 8B00     		lsl	r3, r1, #2
 961 03ba 501E     		sub	r0, r2, #1
 962              	.LVL138:
 963 03bc 9846     		mov	r8, r3
 964              	.LVL139:
 965 03be 0228     		cmp	r0, #2
 966 03c0 76D9     		bls	.L82
 967 03c2 0023     		mov	r3, #0
 968 03c4 9C46     		mov	ip, r3
 969 03c6 0020     		mov	r0, #0
ARM GAS  /tmp/ccxgpRfJ.s 			page 18


 970 03c8 0B1C     		mov	r3, r1
 971 03ca 6146     		mov	r1, ip
 972 03cc 9446     		mov	ip, r2
 973 03ce 0592     		str	r2, [sp, #20]
 974              	.LVL140:
 975              	.L39:
 976              		.loc 1 64 0
 977 03d0 5A46     		mov	r2, fp
 978 03d2 3C58     		ldr	r4, [r7, r0]
 979 03d4 0131     		add	r1, r1, #1
 980 03d6 1450     		str	r4, [r2, r0]
 981 03d8 0430     		add	r0, r0, #4
 982 03da 9942     		cmp	r1, r3
 983 03dc F8D3     		bcc	.L39
 984              	.LVL141:
 985 03de 5946     		mov	r1, fp
 986 03e0 4346     		mov	r3, r8
 987 03e2 059A     		ldr	r2, [sp, #20]
 988              	.LVL142:
 989 03e4 E146     		mov	r9, ip
 990 03e6 4144     		add	r1, r1, r8
 991 03e8 D21A     		sub	r2, r2, r3
 992 03ea 4744     		add	r7, r7, r8
 993 03ec C445     		cmp	ip, r8
 994 03ee 0AD0     		beq	.L43
 995 03f0 501E     		sub	r0, r2, #1
 996              	.L38:
 997              	.LVL143:
 998 03f2 3B78     		ldrb	r3, [r7]
 999 03f4 0B70     		strb	r3, [r1]
 1000              		.loc 1 65 0
 1001 03f6 0028     		cmp	r0, #0
 1002 03f8 05D0     		beq	.L43
 1003              	.LVL144:
 1004              		.loc 1 64 0
 1005 03fa 7878     		ldrb	r0, [r7, #1]
 1006 03fc 4870     		strb	r0, [r1, #1]
 1007              		.loc 1 65 0
 1008 03fe 022A     		cmp	r2, #2
 1009 0400 01D0     		beq	.L43
 1010              	.LVL145:
 1011              		.loc 1 64 0
 1012 0402 BA78     		ldrb	r2, [r7, #2]
 1013 0404 8A70     		strb	r2, [r1, #2]
 1014              	.LVL146:
 1015              	.L43:
 1016 0406 4B46     		mov	r3, r9
 1017 0408 07AA     		add	r2, sp, #28
 1018              	.LVL147:
 1019 040a 5B44     		add	r3, r3, fp
 1020              	.LBE29:
 1021              	.LBE28:
 1022              	.LBE27:
 1023              		.loc 1 144 0
 1024 040c 07A9     		add	r1, sp, #28
 1025 040e 9B1A     		sub	r3, r3, r2
 1026 0410 8846     		mov	r8, r1
ARM GAS  /tmp/ccxgpRfJ.s 			page 19


 1027 0412 5A1E     		sub	r2, r3, #1
 1028              	.LVL148:
 1029 0414 0299     		ldr	r1, [sp, #8]
 1030              	.LVL149:
 1031              		.loc 1 217 0
 1032 0416 AFE6     		b	.L27
 1033              	.LVL150:
 1034              	.L20:
 1035              		.loc 1 235 0
 1036 0418 0A23     		mov	r3, #10
 1037 041a 0197     		str	r7, [sp, #4]
 1038 041c 9B46     		mov	fp, r3
 1039 041e FEE6     		b	.L44
 1040              	.L147:
 1041              		.align	2
 1042              	.L146:
 1043 0420 00000000 		.word	.L25
 1044 0424 D4000000 		.word	.L18
 1045              	.LVL151:
 1046              	.L76:
 1047              		.loc 1 190 0
 1048 0428 0B1C     		mov	r3, r1
 1049              	.LVL152:
 1050              	.L16:
 1051              		.loc 1 247 0
 1052 042a 06AA     		add	r2, sp, #24
 1053              	.LVL153:
 1054 042c 1371     		strb	r3, [r2, #4]
 1055 042e 049A     		ldr	r2, [sp, #16]
 1056              		.loc 1 144 0
 1057 0430 07A9     		add	r1, sp, #28
 1058              	.LVL154:
 1059 0432 131C     		mov	r3, r2
 1060 0434 8846     		mov	r8, r1
 1061 0436 013A     		sub	r2, r2, #1
 1062              		.loc 1 248 0
 1063 0438 0197     		str	r7, [sp, #4]
 1064 043a 0299     		ldr	r1, [sp, #8]
 1065              	.LVL155:
 1066 043c 9CE6     		b	.L27
 1067              	.LVL156:
 1068              	.L138:
 1069              		.loc 1 152 0
 1070 043e 0137     		add	r7, r7, #1
 1071              	.LVL157:
 1072              		.loc 1 153 0
 1073 0440 9A46     		mov	r10, r3
 1074 0442 17E6     		b	.L7
 1075              	.LVL158:
 1076              	.L137:
 1077              		.loc 1 148 0
 1078 0444 0122     		mov	r2, #1
 1079              		.loc 1 147 0
 1080 0446 019B     		ldr	r3, [sp, #4]
 1081              		.loc 1 148 0
 1082 0448 0392     		str	r2, [sp, #12]
 1083              		.loc 1 147 0
ARM GAS  /tmp/ccxgpRfJ.s 			page 20


 1084 044a 9F1C     		add	r7, r3, #2
 1085              	.LVL159:
 1086 044c 9B78     		ldrb	r3, [r3, #2]
 1087 044e 0CE6     		b	.L6
 1088              	.LVL160:
 1089              	.L58:
 1090              		.loc 1 266 0
 1091 0450 4B46     		mov	r3, r9
 1092 0452 0024     		mov	r4, #0
 1093              	.LVL161:
 1094 0454 002B     		cmp	r3, #0
 1095 0456 00DB     		blt	.LCB1226
 1096 0458 B5E6     		b	.L68	@long jump
 1097              	.LCB1226:
 1098 045a E3E5     		b	.L2
 1099              	.LVL162:
 1100              	.L84:
 1101              	.LBB34:
 1102              	.LBB23:
 1103              	.LBB19:
 1104              		.loc 1 62 0
 1105 045c 07A9     		add	r1, sp, #28
 1106              	.LVL163:
 1107 045e 4FE7     		b	.L50
 1108              	.LVL164:
 1109              	.L79:
 1110              	.LBE19:
 1111              	.LBE23:
 1112              	.LBE34:
 1113              		.loc 1 190 0
 1114 0460 1023     		mov	r3, #16
 1115              	.LVL165:
 1116 0462 0197     		str	r7, [sp, #4]
 1117 0464 9B46     		mov	fp, r3
 1118 0466 DAE6     		b	.L44
 1119              	.LVL166:
 1120              	.L29:
 1121              		.loc 1 201 0
 1122 0468 002B     		cmp	r3, #0
 1123 046a 41D0     		beq	.L30
 1124 046c 294A     		ldr	r2, .L148
 1125 046e 59E6     		b	.L67
 1126              	.LVL167:
 1127              	.L83:
 1128              	.LBB35:
 1129              	.LBB24:
 1130              	.LBB20:
 1131              		.loc 1 62 0
 1132 0470 0021     		mov	r1, #0
 1133 0472 CC46     		mov	ip, r9
 1134 0474 029C     		ldr	r4, [sp, #8]
 1135              	.LVL168:
 1136              	.L49:
 1137              		.loc 1 64 0
 1138 0476 785C     		ldrb	r0, [r7, r1]
 1139 0478 07AB     		add	r3, sp, #28
 1140              	.LVL169:
ARM GAS  /tmp/ccxgpRfJ.s 			page 21


 1141 047a 5854     		strb	r0, [r3, r1]
 1142              	.LVL170:
 1143 047c 0131     		add	r1, r1, #1
 1144              	.LVL171:
 1145              		.loc 1 65 0
 1146 047e 8A42     		cmp	r2, r1
 1147 0480 F9D1     		bne	.L49
 1148 0482 0294     		str	r4, [sp, #8]
 1149 0484 E146     		mov	r9, ip
 1150 0486 45E7     		b	.L55
 1151              	.LVL172:
 1152              	.L144:
 1153              	.LBE20:
 1154              	.LBE24:
 1155              	.LBE35:
 1156              		.loc 1 256 0 discriminator 1
 1157 0488 5346     		mov	r3, r10
 1158 048a 302B     		cmp	r3, #48
 1159 048c 00D0     		beq	.LCB1386
 1160 048e 84E6     		b	.L59	@long jump
 1161              	.LCB1386:
 1162              		.loc 1 257 0
 1163 0490 0123     		mov	r3, #1
 1164 0492 9C46     		mov	ip, r3
 1165 0494 2B68     		ldr	r3, [r5]
 1166 0496 281C     		mov	r0, r5
 1167 0498 9B68     		ldr	r3, [r3, #8]
 1168 049a 2D21     		mov	r1, #45
 1169 049c E044     		add	r8, r8, ip
 1170              	.LVL173:
 1171 049e 9847     		blx	r3
 1172              	.LVL174:
 1173              		.loc 1 258 0
 1174 04a0 009B     		ldr	r3, [sp]
 1175 04a2 0133     		add	r3, r3, #1
 1176 04a4 0093     		str	r3, [sp]
 1177              	.LVL175:
 1178 04a6 0123     		mov	r3, #1
 1179              	.LVL176:
 1180 04a8 5B42     		neg	r3, r3
 1181 04aa 9C46     		mov	ip, r3
 1182 04ac E144     		add	r9, r9, ip
 1183              	.LVL177:
 1184 04ae 74E6     		b	.L59
 1185              	.LVL178:
 1186              	.L82:
 1187              	.LBB36:
 1188              	.LBB32:
 1189              	.LBB30:
 1190              		.loc 1 62 0
 1191 04b0 5946     		mov	r1, fp
 1192 04b2 9EE7     		b	.L38
 1193              	.LVL179:
 1194              	.L21:
 1195              	.LBE30:
 1196              	.LBE32:
 1197              	.LBE36:
ARM GAS  /tmp/ccxgpRfJ.s 			page 22


 1198              		.loc 1 190 0
 1199 04b4 1023     		mov	r3, #16
 1200              		.loc 1 184 0
 1201 04b6 0197     		str	r7, [sp, #4]
 1202              		.loc 1 190 0
 1203 04b8 9B46     		mov	fp, r3
 1204              	.LVL180:
 1205 04ba B0E6     		b	.L44
 1206              	.LVL181:
 1207              	.L145:
 1208              		.loc 1 213 0
 1209 04bc 2D23     		mov	r3, #45
 1210              	.LVL182:
 1211 04be 06AA     		add	r2, sp, #24
 1212              	.LVL183:
 1213 04c0 1371     		strb	r3, [r2, #4]
 1214              		.loc 1 214 0
 1215 04c2 4B46     		mov	r3, r9
 1216 04c4 5B42     		neg	r3, r3
 1217 04c6 9946     		mov	r9, r3
 1218              	.LVL184:
 1219              		.loc 1 213 0
 1220 04c8 131C     		mov	r3, r2
 1221              	.LVL185:
 1222 04ca 0533     		add	r3, r3, #5
 1223 04cc 9B46     		mov	fp, r3
 1224              	.LVL186:
 1225 04ce 31E7     		b	.L35
 1226              	.LVL187:
 1227              	.L81:
 1228              	.LBB37:
 1229              	.LBB33:
 1230              	.LBB31:
 1231              		.loc 1 62 0
 1232 04d0 0021     		mov	r1, #0
 1233 04d2 CC46     		mov	ip, r9
 1234 04d4 5B46     		mov	r3, fp
 1235 04d6 029C     		ldr	r4, [sp, #8]
 1236              	.LVL188:
 1237              	.L37:
 1238              		.loc 1 64 0
 1239 04d8 785C     		ldrb	r0, [r7, r1]
 1240 04da 5854     		strb	r0, [r3, r1]
 1241 04dc 0131     		add	r1, r1, #1
 1242              	.LVL189:
 1243              		.loc 1 65 0
 1244 04de 8A42     		cmp	r2, r1
 1245 04e0 FAD1     		bne	.L37
 1246 04e2 9B46     		mov	fp, r3
 1247 04e4 0294     		str	r4, [sp, #8]
 1248 04e6 E146     		mov	r9, ip
 1249 04e8 8DE7     		b	.L43
 1250              	.LVL190:
 1251              	.L142:
 1252              	.LBE31:
 1253              	.LBE33:
 1254              	.LBE37:
ARM GAS  /tmp/ccxgpRfJ.s 			page 23


 1255              		.loc 1 198 0
 1256 04ea 0B4B     		ldr	r3, .L148+4
 1257              	.LVL191:
 1258 04ec 9846     		mov	r8, r3
 1259              	.LVL192:
 1260 04ee 10E6     		b	.L28
 1261              	.LVL193:
 1262              	.L30:
 1263 04f0 029C     		ldr	r4, [sp, #8]
 1264              		.loc 1 253 0
 1265 04f2 0197     		str	r7, [sp, #4]
 1266 04f4 E343     		mvn	r3, r4
 1267 04f6 DB17     		asr	r3, r3, #31
 1268 04f8 1C40     		and	r4, r3
 1269              	.LVL194:
 1270 04fa 039B     		ldr	r3, [sp, #12]
 1271 04fc 0E1C     		mov	r6, r1
 1272 04fe 002B     		cmp	r3, #0
 1273 0500 05D1     		bne	.L86
 1274 0502 0123     		mov	r3, #1
 1275 0504 5B42     		neg	r3, r3
 1276 0506 9946     		mov	r9, r3
 1277 0508 2023     		mov	r3, #32
 1278 050a 9A46     		mov	r10, r3
 1279 050c 3CE6     		b	.L70
 1280              	.L86:
 1281 050e 2023     		mov	r3, #32
 1282 0510 9A46     		mov	r10, r3
 1283 0512 6DE6     		b	.L62
 1284              	.L149:
 1285              		.align	2
 1286              	.L148:
 1287 0514 FE7F0000 		.word	32766
 1288 0518 00000000 		.word	.LC3
 1289              		.cfi_endproc
 1290              	.LFE83:
 1291              		.size	chvprintf, .-chvprintf
 1292 051c C046C046 		.section	.text.chprintf,"ax",%progbits
 1293              		.align	2
 1294              		.p2align 4,,15
 1295              		.global	chprintf
 1296              		.code	16
 1297              		.thumb_func
 1298              		.type	chprintf, %function
 1299              	chprintf:
 1300              	.LFB84:
 1301              		.loc 1 302 0
 1302              		.cfi_startproc
 1303              	.LVL195:
 1304 0000 0EB4     		push	{r1, r2, r3}
 1305              		.cfi_def_cfa_offset 12
 1306 0002 00B5     		push	{lr}
 1307              		.cfi_def_cfa_offset 16
 1308              		.cfi_offset 14, -16
 1309 0004 82B0     		sub	sp, sp, #8
 1310              		.cfi_def_cfa_offset 24
 1311              		.loc 1 302 0
ARM GAS  /tmp/ccxgpRfJ.s 			page 24


 1312 0006 03AA     		add	r2, sp, #12
 1313 0008 02CA     		ldmia	r2!, {r1}
 1314              		.loc 1 306 0
 1315 000a 0192     		str	r2, [sp, #4]
 1316              		.loc 1 307 0
 1317 000c FFF7FEFF 		bl	chvprintf
 1318              	.LVL196:
 1319              		.loc 1 311 0
 1320 0010 02B0     		add	sp, sp, #8
 1321              		@ sp needed
 1322 0012 08BC     		pop	{r3}
 1323 0014 03B0     		add	sp, sp, #12
 1324 0016 1847     		bx	r3
 1325              		.cfi_endproc
 1326              	.LFE84:
 1327              		.size	chprintf, .-chprintf
 1328 0018 C046C046 		.section	.text.chsnprintf,"ax",%progbits
 1328      C046C046 
 1329              		.align	2
 1330              		.p2align 4,,15
 1331              		.global	chsnprintf
 1332              		.code	16
 1333              		.thumb_func
 1334              		.type	chsnprintf, %function
 1335              	chsnprintf:
 1336              	.LFB85:
 1337              		.loc 1 341 0
 1338              		.cfi_startproc
 1339              	.LVL197:
 1340 0000 0CB4     		push	{r2, r3}
 1341              		.cfi_def_cfa_offset 8
 1342 0002 30B5     		push	{r4, r5, lr}
 1343              		.cfi_def_cfa_offset 20
 1344              		.cfi_offset 4, -20
 1345              		.cfi_offset 5, -16
 1346              		.cfi_offset 14, -12
 1347 0004 051C     		mov	r5, r0
 1348 0006 87B0     		sub	sp, sp, #28
 1349              		.cfi_def_cfa_offset 48
 1350              		.loc 1 341 0
 1351 0008 0C1E     		sub	r4, r1, #0
 1352              		.loc 1 348 0
 1353 000a 15D0     		beq	.L152
 1354              	.LVL198:
 1355              		.loc 1 349 0
 1356 000c 4A1E     		sub	r2, r1, #1
 1357              	.LVL199:
 1358              		.loc 1 355 0
 1359 000e 0023     		mov	r3, #0
 1360 0010 01A8     		add	r0, sp, #4
 1361              	.LVL200:
 1362 0012 291C     		mov	r1, r5
 1363              	.LVL201:
 1364 0014 FFF7FEFF 		bl	msObjectInit
 1365              	.LVL202:
 1366              		.loc 1 359 0
 1367 0018 0BAA     		add	r2, sp, #44
ARM GAS  /tmp/ccxgpRfJ.s 			page 25


 1368              		.loc 1 360 0
 1369 001a 01A8     		add	r0, sp, #4
 1370              	.LVL203:
 1371 001c 0A99     		ldr	r1, [sp, #40]
 1372              		.loc 1 359 0
 1373 001e 0092     		str	r2, [sp]
 1374              		.loc 1 360 0
 1375 0020 FFF7FEFF 		bl	chvprintf
 1376              	.LVL204:
 1377              		.loc 1 364 0
 1378 0024 049B     		ldr	r3, [sp, #16]
 1379 0026 9C42     		cmp	r4, r3
 1380 0028 01D9     		bls	.L154
 1381              		.loc 1 365 0
 1382 002a 0022     		mov	r2, #0
 1383 002c EA54     		strb	r2, [r5, r3]
 1384              	.LVL205:
 1385              	.L154:
 1386              		.loc 1 369 0
 1387 002e 07B0     		add	sp, sp, #28
 1388              		@ sp needed
 1389              	.LVL206:
 1390              	.LVL207:
 1391 0030 30BC     		pop	{r4, r5}
 1392 0032 08BC     		pop	{r3}
 1393 0034 02B0     		add	sp, sp, #8
 1394 0036 1847     		bx	r3
 1395              	.LVL208:
 1396              	.L152:
 1397              		.loc 1 355 0
 1398 0038 01A8     		add	r0, sp, #4
 1399              	.LVL209:
 1400 003a 291C     		mov	r1, r5
 1401              	.LVL210:
 1402 003c 0022     		mov	r2, #0
 1403 003e 0023     		mov	r3, #0
 1404 0040 FFF7FEFF 		bl	msObjectInit
 1405              	.LVL211:
 1406              		.loc 1 359 0
 1407 0044 0BAA     		add	r2, sp, #44
 1408              		.loc 1 360 0
 1409 0046 01A8     		add	r0, sp, #4
 1410              	.LVL212:
 1411 0048 0A99     		ldr	r1, [sp, #40]
 1412              		.loc 1 359 0
 1413 004a 0092     		str	r2, [sp]
 1414              		.loc 1 360 0
 1415 004c FFF7FEFF 		bl	chvprintf
 1416              	.LVL213:
 1417 0050 EDE7     		b	.L154
 1418              		.cfi_endproc
 1419              	.LFE85:
 1420              		.size	chsnprintf, .-chsnprintf
 1421 0052 C046C046 		.section	.rodata.str1.4,"aMS",%progbits,1
 1421      C046C046 
 1421      C046C046 
 1421      C046
ARM GAS  /tmp/ccxgpRfJ.s 			page 26


 1422              		.align	2
 1423              	.LC3:
 1424 0000 286E756C 		.ascii	"(null)\000"
 1424      6C2900
 1425 0007 00       		.text
 1426              	.Letext0:
 1427              		.file 2 "/usr/lib/gcc/arm-linux-gnueabihf/4.9/include/stddef.h"
 1428              		.file 3 "/usr/include/stdint.h"
 1429              		.file 4 "../os/nil/include/nil.h"
 1430              		.file 5 "../os/nil/ports/ARMCMx/compilers/GCC/niltypes.h"
 1431              		.file 6 "../os/nil/ports/ARMCMx/nilcore.h"
 1432              		.file 7 "../os/nil/ports/ARMCMx/nilcore_v6m.h"
 1433              		.file 8 "../os/hal/include/hal_streams.h"
 1434              		.file 9 "/usr/lib/gcc/arm-linux-gnueabihf/4.9/include/stdarg.h"
 1435              		.file 10 "<built-in>"
 1436              		.file 11 "../os/hal/lib/streams/memstreams.h"
 5425              		.section	.note.GNU-stack,"",%progbits
ARM GAS  /tmp/ccxgpRfJ.s 			page 100

