ARM GAS  /tmp/ccivIdKj.s 			page 1


   1              		.cpu cortex-m0
   2              		.fpu softvfp
   3              		.eabi_attribute 20, 1
   4              		.eabi_attribute 21, 1
   5              		.eabi_attribute 23, 3
   6              		.eabi_attribute 24, 1
   7              		.eabi_attribute 25, 1
   8              		.eabi_attribute 26, 2
   9              		.eabi_attribute 30, 2
  10              		.eabi_attribute 34, 0
  11              		.eabi_attribute 18, 4
  12              		.code	16
  13              		.file	"crt1.c"
  14              		.text
  15              	.Ltext0:
  16              		.cfi_sections	.debug_frame
  17              		.section	.text.__core_init,"ax",%progbits
  18              		.align	2
  19              		.p2align 4,,15
  20              		.weak	__core_init
  21              		.code	16
  22              		.thumb_func
  23              		.type	__core_init, %function
  24              	__core_init:
  25              	.LFB34:
  26              		.file 1 "../os/common/ports/ARMCMx/compilers/GCC/crt1.c"
  27              		.loc 1 136 0
  28              		.cfi_startproc
  29              		.loc 1 142 0
  30              		@ sp needed
  31 0000 7047     		bx	lr
  32              		.cfi_endproc
  33              	.LFE34:
  34              		.size	__core_init, .-__core_init
  35 0002 C046C046 		.section	.text.__early_init,"ax",%progbits
  35      C046C046 
  35      C046C046 
  35      C046
  36              		.align	2
  37              		.p2align 4,,15
  38              		.weak	__early_init
  39              		.code	16
  40              		.thumb_func
  41              		.type	__early_init, %function
  42              	__early_init:
  43              	.LFB35:
  44              		.loc 1 155 0
  45              		.cfi_startproc
  46              		.loc 1 155 0
  47              		@ sp needed
  48 0000 7047     		bx	lr
  49              		.cfi_endproc
  50              	.LFE35:
  51              		.size	__early_init, .-__early_init
  52 0002 C046C046 		.section	.text.__late_init,"ax",%progbits
  52      C046C046 
  52      C046C046 
ARM GAS  /tmp/ccivIdKj.s 			page 2


  52      C046
  53              		.align	2
  54              		.p2align 4,,15
  55              		.weak	__late_init
  56              		.code	16
  57              		.thumb_func
  58              		.type	__late_init, %function
  59              	__late_init:
  60              	.LFB36:
  61              		.loc 1 169 0
  62              		.cfi_startproc
  63              		.loc 1 169 0
  64              		@ sp needed
  65 0000 7047     		bx	lr
  66              		.cfi_endproc
  67              	.LFE36:
  68              		.size	__late_init, .-__late_init
  69 0002 C046C046 		.section	.text.__default_exit,"ax",%progbits
  69      C046C046 
  69      C046C046 
  69      C046
  70              		.align	2
  71              		.p2align 4,,15
  72              		.weak	__default_exit
  73              		.code	16
  74              		.thumb_func
  75              		.type	__default_exit, %function
  76              	__default_exit:
  77              	.LFB37:
  78              		.loc 1 182 0
  79              		.cfi_startproc
  80              	.L5:
  81              		.loc 1 186 0 discriminator 1
  82 0000 FEE7     		b	.L5
  83              		.cfi_endproc
  84              	.LFE37:
  85              		.size	__default_exit, .-__default_exit
  86 0002 C046C046 		.section	.text.__init_ram_areas,"ax",%progbits
  86      C046C046 
  86      C046C046 
  86      C046
  87              		.align	2
  88              		.p2align 4,,15
  89              		.global	__init_ram_areas
  90              		.code	16
  91              		.thumb_func
  92              		.type	__init_ram_areas, %function
  93              	__init_ram_areas:
  94              	.LFB38:
  95              		.loc 1 192 0
  96              		.cfi_startproc
  97              	.LVL0:
  98 0000 38B5     		push	{r3, r4, r5, lr}
  99              		.cfi_def_cfa_offset 16
 100              		.cfi_offset 3, -16
 101              		.cfi_offset 4, -12
 102              		.cfi_offset 5, -8
ARM GAS  /tmp/ccivIdKj.s 			page 3


 103              		.cfi_offset 14, -4
 104              	.LBB2:
 105              		.loc 1 201 0
 106 0002 0E4D     		ldr	r5, .L12
 107 0004 0E4B     		ldr	r3, .L12+4
 108 0006 9D42     		cmp	r5, r3
 109 0008 16D2     		bcs	.L10
 110              		.loc 1 202 0
 111 000a EC43     		mvn	r4, r5
 112 000c E418     		add	r4, r4, r3
 113 000e A408     		lsr	r4, r4, #2
 114 0010 0134     		add	r4, r4, #1
 115 0012 A400     		lsl	r4, r4, #2
 116 0014 281C     		mov	r0, r5
 117 0016 0B49     		ldr	r1, .L12+8
 118 0018 221C     		mov	r2, r4
 119 001a FFF7FEFF 		bl	memcpy
 120              	.LVL1:
 121 001e 6019     		add	r0, r4, r5
 122              	.L7:
 123              	.LVL2:
 124              		.loc 1 208 0
 125 0020 094B     		ldr	r3, .L12+12
 126 0022 9842     		cmp	r0, r3
 127 0024 07D2     		bcs	.L6
 128              		.loc 1 209 0
 129 0026 C243     		mvn	r2, r0
 130 0028 D218     		add	r2, r2, r3
 131 002a 9208     		lsr	r2, r2, #2
 132 002c 0132     		add	r2, r2, #1
 133 002e 9200     		lsl	r2, r2, #2
 134 0030 0021     		mov	r1, #0
 135 0032 FFF7FEFF 		bl	memset
 136              	.LVL3:
 137              	.L6:
 138              	.LBE2:
 139              		.loc 1 216 0
 140              		@ sp needed
 141 0036 38BD     		pop	{r3, r4, r5, pc}
 142              	.LVL4:
 143              	.L10:
 144              	.LBB3:
 145              		.loc 1 198 0
 146 0038 281C     		mov	r0, r5
 147 003a F1E7     		b	.L7
 148              	.L13:
 149              		.align	2
 150              	.L12:
 151 003c 00000000 		.word	__ram0_init__
 152 0040 00000000 		.word	__ram0_clear__
 153 0044 00000000 		.word	__ram0_init_text__
 154 0048 00000000 		.word	__ram0_noinit__
 155              	.LBE3:
 156              		.cfi_endproc
 157              	.LFE38:
 158              		.size	__init_ram_areas, .-__init_ram_areas
 159 004c C046C046 		.text
ARM GAS  /tmp/ccivIdKj.s 			page 4


 160              	.Letext0:
 161              		.file 2 "/usr/include/stdint.h"
 862              		.section	.note.GNU-stack,"",%progbits
ARM GAS  /tmp/ccivIdKj.s 			page 19

