ARM GAS  /tmp/ccaYQjuj.s 			page 1


   1              		.cpu cortex-m0
   2              		.fpu softvfp
   3              		.eabi_attribute 20, 1
   4              		.eabi_attribute 21, 1
   5              		.eabi_attribute 23, 3
   6              		.eabi_attribute 24, 1
   7              		.eabi_attribute 25, 1
   8              		.eabi_attribute 26, 2
   9              		.eabi_attribute 30, 2
  10              		.eabi_attribute 34, 0
  11              		.eabi_attribute 18, 4
  12              		.code	16
  13              		.file	"ext.c"
  14              		.text
  15              	.Ltext0:
  16              		.cfi_sections	.debug_frame
  17              		.section	.text.extInit,"ax",%progbits
  18              		.align	2
  19              		.p2align 4,,15
  20              		.global	extInit
  21              		.code	16
  22              		.thumb_func
  23              		.type	extInit, %function
  24              	extInit:
  25              	.LFB81:
  26              		.file 1 "../os/hal/src/ext.c"
  27              		.loc 1 56 0
  28              		.cfi_startproc
  29 0000 08B5     		push	{r3, lr}
  30              		.cfi_def_cfa_offset 8
  31              		.cfi_offset 3, -8
  32              		.cfi_offset 14, -4
  33              		.loc 1 58 0
  34 0002 FFF7FEFF 		bl	ext_lld_init
  35              	.LVL0:
  36              		.loc 1 59 0
  37              		@ sp needed
  38 0006 08BD     		pop	{r3, pc}
  39              		.cfi_endproc
  40              	.LFE81:
  41              		.size	extInit, .-extInit
  42 0008 C046C046 		.section	.text.extObjectInit,"ax",%progbits
  42      C046C046 
  43              		.align	2
  44              		.p2align 4,,15
  45              		.global	extObjectInit
  46              		.code	16
  47              		.thumb_func
  48              		.type	extObjectInit, %function
  49              	extObjectInit:
  50              	.LFB82:
  51              		.loc 1 68 0
  52              		.cfi_startproc
  53              	.LVL1:
  54              		.loc 1 71 0
  55 0000 0122     		mov	r2, #1
  56 0002 0023     		mov	r3, #0
ARM GAS  /tmp/ccaYQjuj.s 			page 2


  57              		.loc 1 72 0
  58              		@ sp needed
  59              		.loc 1 71 0
  60 0004 0CC0     		stmia	r0!, {r2, r3}
  61              	.LVL2:
  62              		.loc 1 72 0
  63 0006 7047     		bx	lr
  64              		.cfi_endproc
  65              	.LFE82:
  66              		.size	extObjectInit, .-extObjectInit
  67 0008 C046C046 		.section	.text.extStart,"ax",%progbits
  67      C046C046 
  68              		.align	2
  69              		.p2align 4,,15
  70              		.global	extStart
  71              		.code	16
  72              		.thumb_func
  73              		.type	extStart, %function
  74              	extStart:
  75              	.LFB83:
  76              		.loc 1 84 0
  77              		.cfi_startproc
  78              	.LVL3:
  79 0000 10B5     		push	{r4, lr}
  80              		.cfi_def_cfa_offset 8
  81              		.cfi_offset 4, -8
  82              		.cfi_offset 14, -4
  83              		.loc 1 84 0
  84 0002 041C     		mov	r4, r0
  85              	.LBB54:
  86              	.LBB55:
  87              	.LBB56:
  88              	.LBB57:
  89              		.file 2 "../os/ext/CMSIS/include/core_cmFunc.h"
  90              		.loc 2 344 0
  91              	#APP
  92              	@ 344 "../os/ext/CMSIS/include/core_cmFunc.h" 1
  93 0004 72B6     		cpsid i
  94              	@ 0 "" 2
  95              		.code	16
  96              	.LBE57:
  97              	.LBE56:
  98              	.LBE55:
  99              	.LBE54:
 100              		.loc 1 91 0
 101 0006 4160     		str	r1, [r0, #4]
 102              		.loc 1 92 0
 103 0008 FFF7FEFF 		bl	ext_lld_start
 104              	.LVL4:
 105              		.loc 1 93 0
 106 000c 0223     		mov	r3, #2
 107 000e 2360     		str	r3, [r4]
 108              	.LBB58:
 109              	.LBB59:
 110              	.LBB60:
 111              	.LBB61:
 112              		.loc 2 333 0
ARM GAS  /tmp/ccaYQjuj.s 			page 3


 113              	#APP
 114              	@ 333 "../os/ext/CMSIS/include/core_cmFunc.h" 1
 115 0010 62B6     		cpsie i
 116              	@ 0 "" 2
 117              		.code	16
 118              	.LBE61:
 119              	.LBE60:
 120              	.LBE59:
 121              	.LBE58:
 122              		.loc 1 95 0
 123              		@ sp needed
 124              	.LVL5:
 125 0012 10BD     		pop	{r4, pc}
 126              		.cfi_endproc
 127              	.LFE83:
 128              		.size	extStart, .-extStart
 129 0014 C046C046 		.section	.text.extStop,"ax",%progbits
 129      C046C046 
 129      C046C046 
 130              		.align	2
 131              		.p2align 4,,15
 132              		.global	extStop
 133              		.code	16
 134              		.thumb_func
 135              		.type	extStop, %function
 136              	extStop:
 137              	.LFB84:
 138              		.loc 1 104 0
 139              		.cfi_startproc
 140              	.LVL6:
 141 0000 10B5     		push	{r4, lr}
 142              		.cfi_def_cfa_offset 8
 143              		.cfi_offset 4, -8
 144              		.cfi_offset 14, -4
 145              		.loc 1 104 0
 146 0002 041C     		mov	r4, r0
 147              	.LBB62:
 148              	.LBB63:
 149              	.LBB64:
 150              	.LBB65:
 151              		.loc 2 344 0
 152              	#APP
 153              	@ 344 "../os/ext/CMSIS/include/core_cmFunc.h" 1
 154 0004 72B6     		cpsid i
 155              	@ 0 "" 2
 156              		.code	16
 157              	.LBE65:
 158              	.LBE64:
 159              	.LBE63:
 160              	.LBE62:
 161              		.loc 1 111 0
 162 0006 FFF7FEFF 		bl	ext_lld_stop
 163              	.LVL7:
 164              		.loc 1 112 0
 165 000a 0123     		mov	r3, #1
 166 000c 2360     		str	r3, [r4]
 167              	.LBB66:
ARM GAS  /tmp/ccaYQjuj.s 			page 4


 168              	.LBB67:
 169              	.LBB68:
 170              	.LBB69:
 171              		.loc 2 333 0
 172              	#APP
 173              	@ 333 "../os/ext/CMSIS/include/core_cmFunc.h" 1
 174 000e 62B6     		cpsie i
 175              	@ 0 "" 2
 176              		.code	16
 177              	.LBE69:
 178              	.LBE68:
 179              	.LBE67:
 180              	.LBE66:
 181              		.loc 1 114 0
 182              		@ sp needed
 183              	.LVL8:
 184 0010 10BD     		pop	{r4, pc}
 185              		.cfi_endproc
 186              	.LFE84:
 187              		.size	extStop, .-extStop
 188 0012 C046C046 		.section	.text.extChannelEnable,"ax",%progbits
 188      C046C046 
 188      C046C046 
 188      C046
 189              		.align	2
 190              		.p2align 4,,15
 191              		.global	extChannelEnable
 192              		.code	16
 193              		.thumb_func
 194              		.type	extChannelEnable, %function
 195              	extChannelEnable:
 196              	.LFB85:
 197              		.loc 1 125 0
 198              		.cfi_startproc
 199              	.LVL9:
 200 0000 08B5     		push	{r3, lr}
 201              		.cfi_def_cfa_offset 8
 202              		.cfi_offset 3, -8
 203              		.cfi_offset 14, -4
 204              	.LBB70:
 205              	.LBB71:
 206              	.LBB72:
 207              	.LBB73:
 208              		.loc 2 344 0
 209              	#APP
 210              	@ 344 "../os/ext/CMSIS/include/core_cmFunc.h" 1
 211 0002 72B6     		cpsid i
 212              	@ 0 "" 2
 213              		.code	16
 214              	.LBE73:
 215              	.LBE72:
 216              	.LBE71:
 217              	.LBE70:
 218              		.loc 1 134 0
 219 0004 FFF7FEFF 		bl	ext_lld_channel_enable
 220              	.LVL10:
 221              	.LBB74:
ARM GAS  /tmp/ccaYQjuj.s 			page 5


 222              	.LBB75:
 223              	.LBB76:
 224              	.LBB77:
 225              		.loc 2 333 0
 226              	#APP
 227              	@ 333 "../os/ext/CMSIS/include/core_cmFunc.h" 1
 228 0008 62B6     		cpsie i
 229              	@ 0 "" 2
 230              		.code	16
 231              	.LBE77:
 232              	.LBE76:
 233              	.LBE75:
 234              	.LBE74:
 235              		.loc 1 136 0
 236              		@ sp needed
 237 000a 08BD     		pop	{r3, pc}
 238              		.cfi_endproc
 239              	.LFE85:
 240              		.size	extChannelEnable, .-extChannelEnable
 241 000c C046C046 		.section	.text.extChannelDisable,"ax",%progbits
 242              		.align	2
 243              		.p2align 4,,15
 244              		.global	extChannelDisable
 245              		.code	16
 246              		.thumb_func
 247              		.type	extChannelDisable, %function
 248              	extChannelDisable:
 249              	.LFB86:
 250              		.loc 1 147 0
 251              		.cfi_startproc
 252              	.LVL11:
 253 0000 08B5     		push	{r3, lr}
 254              		.cfi_def_cfa_offset 8
 255              		.cfi_offset 3, -8
 256              		.cfi_offset 14, -4
 257              	.LBB78:
 258              	.LBB79:
 259              	.LBB80:
 260              	.LBB81:
 261              		.loc 2 344 0
 262              	#APP
 263              	@ 344 "../os/ext/CMSIS/include/core_cmFunc.h" 1
 264 0002 72B6     		cpsid i
 265              	@ 0 "" 2
 266              		.code	16
 267              	.LBE81:
 268              	.LBE80:
 269              	.LBE79:
 270              	.LBE78:
 271              		.loc 1 156 0
 272 0004 FFF7FEFF 		bl	ext_lld_channel_disable
 273              	.LVL12:
 274              	.LBB82:
 275              	.LBB83:
 276              	.LBB84:
 277              	.LBB85:
 278              		.loc 2 333 0
ARM GAS  /tmp/ccaYQjuj.s 			page 6


 279              	#APP
 280              	@ 333 "../os/ext/CMSIS/include/core_cmFunc.h" 1
 281 0008 62B6     		cpsie i
 282              	@ 0 "" 2
 283              		.code	16
 284              	.LBE85:
 285              	.LBE84:
 286              	.LBE83:
 287              	.LBE82:
 288              		.loc 1 158 0
 289              		@ sp needed
 290 000a 08BD     		pop	{r3, pc}
 291              		.cfi_endproc
 292              	.LFE86:
 293              		.size	extChannelDisable, .-extChannelDisable
 294 000c C046C046 		.section	.text.extSetChannelModeI,"ax",%progbits
 295              		.align	2
 296              		.p2align 4,,15
 297              		.global	extSetChannelModeI
 298              		.code	16
 299              		.thumb_func
 300              		.type	extSetChannelModeI, %function
 301              	extSetChannelModeI:
 302              	.LFB87:
 303              		.loc 1 179 0
 304              		.cfi_startproc
 305              	.LVL13:
 306 0000 70B5     		push	{r4, r5, r6, lr}
 307              		.cfi_def_cfa_offset 16
 308              		.cfi_offset 4, -16
 309              		.cfi_offset 5, -12
 310              		.cfi_offset 6, -8
 311              		.cfi_offset 14, -4
 312              		.loc 1 196 0
 313 0002 4468     		ldr	r4, [r0, #4]
 314 0004 0B01     		lsl	r3, r1, #4
 315 0006 A446     		mov	ip, r4
 316 0008 6344     		add	r3, r3, ip
 317 000a 70CA     		ldmia	r2!, {r4, r5, r6}
 318 000c 70C3     		stmia	r3!, {r4, r5, r6}
 319              	.LVL14:
 320 000e 1268     		ldr	r2, [r2]
 321              	.LVL15:
 322              		.loc 1 198 0
 323              		@ sp needed
 324              		.loc 1 196 0
 325 0010 1A60     		str	r2, [r3]
 326              		.loc 1 197 0
 327 0012 FFF7FEFF 		bl	ext_lld_channel_enable
 328              	.LVL16:
 329              		.loc 1 198 0
 330 0016 70BD     		pop	{r4, r5, r6, pc}
 331              		.cfi_endproc
 332              	.LFE87:
 333              		.size	extSetChannelModeI, .-extSetChannelModeI
 334 0018 C046C046 		.text
 334      C046C046 
ARM GAS  /tmp/ccaYQjuj.s 			page 7


 335              	.Letext0:
 336              		.file 3 "/usr/include/stdint.h"
 337              		.file 4 "../os/nil/include/nil.h"
 338              		.file 5 "../os/nil/ports/ARMCMx/compilers/GCC/niltypes.h"
 339              		.file 6 "../os/ext/CMSIS/KINETIS/kl02x.h"
 340              		.file 7 "../os/nil/ports/ARMCMx/nilcore.h"
 341              		.file 8 "../os/nil/ports/ARMCMx/nilcore_v6m.h"
 342              		.file 9 "../os/hal/include/ext.h"
 343              		.file 10 "../os/hal/ports/KINETIS/LLD/ext_lld.h"
 344              		.file 11 "../os/hal/osal/nil/osal.h"
 2355              		.section	.note.GNU-stack,"",%progbits
ARM GAS  /tmp/ccaYQjuj.s 			page 47

