ARM GAS  /tmp/cceJiNKO.s 			page 1


   1              		.cpu cortex-m0
   2              		.fpu softvfp
   3              		.eabi_attribute 20, 1
   4              		.eabi_attribute 21, 1
   5              		.eabi_attribute 23, 3
   6              		.eabi_attribute 24, 1
   7              		.eabi_attribute 25, 1
   8              		.eabi_attribute 26, 2
   9              		.eabi_attribute 30, 2
  10              		.eabi_attribute 34, 0
  11              		.eabi_attribute 18, 4
  12              		.code	16
  13              		.file	"ext_lld.c"
  14              		.text
  15              	.Ltext0:
  16              		.cfi_sections	.debug_frame
  17              		.section	.text.VectorB8,"ax",%progbits
  18              		.align	2
  19              		.p2align 4,,15
  20              		.global	VectorB8
  21              		.code	16
  22              		.thumb_func
  23              		.type	VectorB8, %function
  24              	VectorB8:
  25              	.LFB84:
  26              		.file 1 "../os/hal/ports/KINETIS/LLD/ext_lld.c"
  27              		.loc 1 158 0
  28              		.cfi_startproc
  29              	.LBB11:
  30              	.LBB12:
  31              		.loc 1 142 0
  32 0000 0121     		mov	r1, #1
  33              	.LBE12:
  34              	.LBE11:
  35              		.loc 1 158 0
  36 0002 F8B5     		push	{r3, r4, r5, r6, r7, lr}
  37              		.cfi_def_cfa_offset 24
  38              		.cfi_offset 3, -24
  39              		.cfi_offset 4, -20
  40              		.cfi_offset 5, -16
  41              		.cfi_offset 6, -12
  42              		.cfi_offset 7, -8
  43              		.cfi_offset 14, -4
  44 0004 4F46     		mov	r7, r9
  45 0006 4646     		mov	r6, r8
  46              	.LBB20:
  47              	.LBB17:
  48              		.loc 1 139 0
  49 0008 A023     		mov	r3, #160
  50 000a 134A     		ldr	r2, .L10
  51              		.loc 1 142 0
  52 000c 4942     		neg	r1, r1
  53              	.LBE17:
  54              	.LBE20:
  55              		.loc 1 158 0
  56 000e C0B4     		push	{r6, r7}
  57              		.cfi_def_cfa_offset 32
ARM GAS  /tmp/cceJiNKO.s 			page 2


  58              		.cfi_offset 8, -32
  59              		.cfi_offset 9, -28
  60              	.LBB21:
  61              	.LBB18:
  62              		.loc 1 139 0
  63 0010 D658     		ldr	r6, [r2, r3]
  64              		.loc 1 142 0
  65 0012 D150     		str	r1, [r2, r3]
  66              	.LBB13:
  67              		.loc 1 146 0
  68 0014 114B     		ldr	r3, .L10+4
  69              	.LBE13:
  70              	.LBE18:
  71              	.LBE21:
  72              		.loc 1 159 0
  73 0016 F146     		mov	r9, lr
  74              	.LVL0:
  75              	.LBB22:
  76              	.LBB19:
  77              		.loc 1 144 0
  78 0018 0024     		mov	r4, #0
  79              		.loc 1 145 0
  80 001a 0125     		mov	r5, #1
  81              	.LBB14:
  82              		.loc 1 146 0
  83 001c 9846     		mov	r8, r3
  84              		.loc 1 147 0
  85 001e 104F     		ldr	r7, .L10+8
  86 0020 02E0     		b	.L3
  87              	.LVL1:
  88              	.L2:
  89              	.LBE14:
  90              		.loc 1 144 0
  91 0022 0134     		add	r4, r4, #1
  92              	.LVL2:
  93 0024 202C     		cmp	r4, #32
  94 0026 0FD0     		beq	.L9
  95              	.LVL3:
  96              	.L3:
  97              		.loc 1 145 0
  98 0028 2B1C     		mov	r3, r5
  99 002a A340     		lsl	r3, r3, r4
 100 002c 1E42     		tst	r6, r3
 101 002e F8D0     		beq	.L2
 102              	.LBB15:
 103              		.loc 1 146 0
 104 0030 4346     		mov	r3, r8
 105              		.loc 1 147 0
 106 0032 7A68     		ldr	r2, [r7, #4]
 107              		.loc 1 146 0
 108 0034 E15C     		ldrb	r1, [r4, r3]
 109              	.LVL4:
 110              		.loc 1 147 0
 111 0036 9446     		mov	ip, r2
 112 0038 0B01     		lsl	r3, r1, #4
 113 003a 6344     		add	r3, r3, ip
 114 003c 5B68     		ldr	r3, [r3, #4]
ARM GAS  /tmp/cceJiNKO.s 			page 3


 115 003e 381C     		mov	r0, r7
 116              	.LBE15:
 117              		.loc 1 144 0
 118 0040 0134     		add	r4, r4, #1
 119              	.LVL5:
 120              	.LBB16:
 121              		.loc 1 147 0
 122 0042 9847     		blx	r3
 123              	.LVL6:
 124              	.LBE16:
 125              		.loc 1 144 0
 126 0044 202C     		cmp	r4, #32
 127 0046 EFD1     		bne	.L3
 128              	.L9:
 129              	.LBE19:
 130              	.LBE22:
 131              		.loc 1 163 0
 132 0048 4846     		mov	r0, r9
 133 004a FFF7FEFF 		bl	_port_irq_epilogue
 134              	.LVL7:
 135              		.loc 1 164 0
 136              		@ sp needed
 137              	.LVL8:
 138              	.LVL9:
 139              	.LVL10:
 140 004e 0CBC     		pop	{r2, r3}
 141 0050 9046     		mov	r8, r2
 142 0052 9946     		mov	r9, r3
 143 0054 F8BD     		pop	{r3, r4, r5, r6, r7, pc}
 144              	.L11:
 145 0056 C046     		.align	2
 146              	.L10:
 147 0058 00900440 		.word	1074040832
 148 005c 00000000 		.word	.LANCHOR0
 149 0060 00000000 		.word	.LANCHOR1
 150              		.cfi_endproc
 151              	.LFE84:
 152              		.size	VectorB8, .-VectorB8
 153 0064 C046C046 		.section	.text.VectorBC,"ax",%progbits
 153      C046C046 
 153      C046C046 
 154              		.align	2
 155              		.p2align 4,,15
 156              		.global	VectorBC
 157              		.code	16
 158              		.thumb_func
 159              		.type	VectorBC, %function
 160              	VectorBC:
 161              	.LFB85:
 162              		.loc 1 173 0
 163              		.cfi_startproc
 164              	.LBB26:
 165              	.LBB27:
 166              		.loc 1 142 0
 167 0000 0121     		mov	r1, #1
 168              	.LBE27:
 169              	.LBE26:
ARM GAS  /tmp/cceJiNKO.s 			page 4


 170              		.loc 1 173 0
 171 0002 F8B5     		push	{r3, r4, r5, r6, r7, lr}
 172              		.cfi_def_cfa_offset 24
 173              		.cfi_offset 3, -24
 174              		.cfi_offset 4, -20
 175              		.cfi_offset 5, -16
 176              		.cfi_offset 6, -12
 177              		.cfi_offset 7, -8
 178              		.cfi_offset 14, -4
 179 0004 4F46     		mov	r7, r9
 180 0006 4646     		mov	r6, r8
 181              	.LBB35:
 182              	.LBB32:
 183              		.loc 1 139 0
 184 0008 A023     		mov	r3, #160
 185 000a 134A     		ldr	r2, .L20
 186              		.loc 1 142 0
 187 000c 4942     		neg	r1, r1
 188              	.LBE32:
 189              	.LBE35:
 190              		.loc 1 173 0
 191 000e C0B4     		push	{r6, r7}
 192              		.cfi_def_cfa_offset 32
 193              		.cfi_offset 8, -32
 194              		.cfi_offset 9, -28
 195              	.LBB36:
 196              	.LBB33:
 197              		.loc 1 139 0
 198 0010 D658     		ldr	r6, [r2, r3]
 199              		.loc 1 142 0
 200 0012 D150     		str	r1, [r2, r3]
 201              	.LBB28:
 202              		.loc 1 146 0
 203 0014 114B     		ldr	r3, .L20+4
 204              	.LBE28:
 205              	.LBE33:
 206              	.LBE36:
 207              		.loc 1 174 0
 208 0016 F146     		mov	r9, lr
 209              	.LVL11:
 210              	.LBB37:
 211              	.LBB34:
 212              		.loc 1 144 0
 213 0018 0024     		mov	r4, #0
 214              		.loc 1 145 0
 215 001a 0125     		mov	r5, #1
 216              	.LBB29:
 217              		.loc 1 146 0
 218 001c 9846     		mov	r8, r3
 219              		.loc 1 147 0
 220 001e 104F     		ldr	r7, .L20+8
 221 0020 02E0     		b	.L14
 222              	.LVL12:
 223              	.L13:
 224              	.LBE29:
 225              		.loc 1 144 0
 226 0022 0134     		add	r4, r4, #1
ARM GAS  /tmp/cceJiNKO.s 			page 5


 227              	.LVL13:
 228 0024 202C     		cmp	r4, #32
 229 0026 0FD0     		beq	.L19
 230              	.LVL14:
 231              	.L14:
 232              		.loc 1 145 0
 233 0028 2B1C     		mov	r3, r5
 234 002a A340     		lsl	r3, r3, r4
 235 002c 1E42     		tst	r6, r3
 236 002e F8D0     		beq	.L13
 237              	.LBB30:
 238              		.loc 1 146 0
 239 0030 4346     		mov	r3, r8
 240              		.loc 1 147 0
 241 0032 7A68     		ldr	r2, [r7, #4]
 242              		.loc 1 146 0
 243 0034 E15C     		ldrb	r1, [r4, r3]
 244              	.LVL15:
 245              		.loc 1 147 0
 246 0036 9446     		mov	ip, r2
 247 0038 0B01     		lsl	r3, r1, #4
 248 003a 6344     		add	r3, r3, ip
 249 003c 5B68     		ldr	r3, [r3, #4]
 250 003e 381C     		mov	r0, r7
 251              	.LBE30:
 252              		.loc 1 144 0
 253 0040 0134     		add	r4, r4, #1
 254              	.LVL16:
 255              	.LBB31:
 256              		.loc 1 147 0
 257 0042 9847     		blx	r3
 258              	.LVL17:
 259              	.LBE31:
 260              		.loc 1 144 0
 261 0044 202C     		cmp	r4, #32
 262 0046 EFD1     		bne	.L14
 263              	.L19:
 264              	.LBE34:
 265              	.LBE37:
 266              		.loc 1 178 0
 267 0048 4846     		mov	r0, r9
 268 004a FFF7FEFF 		bl	_port_irq_epilogue
 269              	.LVL18:
 270              		.loc 1 179 0
 271              		@ sp needed
 272              	.LVL19:
 273              	.LVL20:
 274              	.LVL21:
 275 004e 0CBC     		pop	{r2, r3}
 276 0050 9046     		mov	r8, r2
 277 0052 9946     		mov	r9, r3
 278 0054 F8BD     		pop	{r3, r4, r5, r6, r7, pc}
 279              	.L21:
 280 0056 C046     		.align	2
 281              	.L20:
 282 0058 00A00440 		.word	1074044928
 283 005c 00000000 		.word	.LANCHOR2
ARM GAS  /tmp/cceJiNKO.s 			page 6


 284 0060 00000000 		.word	.LANCHOR1
 285              		.cfi_endproc
 286              	.LFE85:
 287              		.size	VectorBC, .-VectorBC
 288 0064 C046C046 		.section	.text.ext_lld_init,"ax",%progbits
 288      C046C046 
 288      C046C046 
 289              		.align	2
 290              		.p2align 4,,15
 291              		.global	ext_lld_init
 292              		.code	16
 293              		.thumb_func
 294              		.type	ext_lld_init, %function
 295              	ext_lld_init:
 296              	.LFB86:
 297              		.loc 1 236 0
 298              		.cfi_startproc
 299 0000 08B5     		push	{r3, lr}
 300              		.cfi_def_cfa_offset 8
 301              		.cfi_offset 3, -8
 302              		.cfi_offset 14, -4
 303              		.loc 1 239 0
 304 0002 0248     		ldr	r0, .L23
 305 0004 FFF7FEFF 		bl	extObjectInit
 306              	.LVL22:
 307              		.loc 1 240 0
 308              		@ sp needed
 309 0008 08BD     		pop	{r3, pc}
 310              	.L24:
 311 000a C046     		.align	2
 312              	.L23:
 313 000c 00000000 		.word	.LANCHOR1
 314              		.cfi_endproc
 315              	.LFE86:
 316              		.size	ext_lld_init, .-ext_lld_init
 317              		.section	.text.ext_lld_start,"ax",%progbits
 318              		.align	2
 319              		.p2align 4,,15
 320              		.global	ext_lld_start
 321              		.code	16
 322              		.thumb_func
 323              		.type	ext_lld_start, %function
 324              	ext_lld_start:
 325              	.LFB87:
 326              		.loc 1 249 0
 327              		.cfi_startproc
 328              	.LVL23:
 329 0000 F8B5     		push	{r3, r4, r5, r6, r7, lr}
 330              		.cfi_def_cfa_offset 24
 331              		.cfi_offset 3, -24
 332              		.cfi_offset 4, -20
 333              		.cfi_offset 5, -16
 334              		.cfi_offset 6, -12
 335              		.cfi_offset 7, -8
 336              		.cfi_offset 14, -4
 337 0002 4446     		mov	r4, r8
 338 0004 5F46     		mov	r7, fp
ARM GAS  /tmp/cceJiNKO.s 			page 7


 339 0006 5646     		mov	r6, r10
 340 0008 4D46     		mov	r5, r9
 341              		.loc 1 252 0
 342 000a 0368     		ldr	r3, [r0]
 343              		.loc 1 249 0
 344 000c F0B4     		push	{r4, r5, r6, r7}
 345              		.cfi_def_cfa_offset 40
 346              		.cfi_offset 8, -40
 347              		.cfi_offset 9, -36
 348              		.cfi_offset 10, -32
 349              		.cfi_offset 11, -28
 350              		.loc 1 249 0
 351 000e 8046     		mov	r8, r0
 352              		.loc 1 252 0
 353 0010 012B     		cmp	r3, #1
 354 0012 6BD0     		beq	.L47
 355              	.LVL24:
 356              	.L26:
 357 0014 4346     		mov	r3, r8
 358 0016 5E68     		ldr	r6, [r3, #4]
 359              	.LBB45:
 360              		.loc 1 264 0 discriminator 1
 361 0018 394B     		ldr	r3, .L54
 362              	.LBE45:
 363              		.loc 1 249 0 discriminator 1
 364 001a 0025     		mov	r5, #0
 365              	.LBB56:
 366              		.loc 1 264 0 discriminator 1
 367 001c 9C46     		mov	ip, r3
 368              	.LBB46:
 369              	.LBB47:
 370              		.loc 1 322 0 discriminator 1
 371 001e 0123     		mov	r3, #1
 372 0020 9A46     		mov	r10, r3
 373              		.loc 1 337 0 discriminator 1
 374 0022 384B     		ldr	r3, .L54+4
 375              	.LBE47:
 376              	.LBE46:
 377              		.loc 1 290 0 discriminator 1
 378 0024 0420     		mov	r0, #4
 379              	.LBB51:
 380              	.LBB48:
 381              		.loc 1 337 0 discriminator 1
 382 0026 9946     		mov	r9, r3
 383              		.loc 1 324 0 discriminator 1
 384 0028 0223     		mov	r3, #2
 385 002a 9B46     		mov	fp, r3
 386 002c 08E0     		b	.L33
 387              	.LVL25:
 388              	.L30:
 389              	.LBE48:
 390              	.LBE51:
 391              		.loc 1 292 0
 392 002e 0029     		cmp	r1, #0
 393 0030 03D0     		beq	.L32
 394              	.LVL26:
 395              	.L35:
ARM GAS  /tmp/cceJiNKO.s 			page 8


 396 0032 9B00     		lsl	r3, r3, #2
 397              	.LVL27:
 398 0034 CB18     		add	r3, r1, r3
 399              	.LBB52:
 400              	.LBB53:
 401              		.loc 1 356 0
 402 0036 1968     		ldr	r1, [r3]
 403              	.LVL28:
 404 0038 1960     		str	r1, [r3]
 405              	.LVL29:
 406              	.L32:
 407              	.LBE53:
 408              	.LBE52:
 409              	.LBE56:
 410              		.loc 1 256 0 discriminator 2
 411 003a 0135     		add	r5, r5, #1
 412              	.LVL30:
 413 003c 082D     		cmp	r5, #8
 414 003e 22D0     		beq	.L48
 415              	.LVL31:
 416              	.L33:
 417              	.LBB57:
 418              		.loc 1 258 0
 419 0040 2F01     		lsl	r7, r5, #4
 420              		.loc 1 259 0
 421 0042 3B1C     		mov	r3, r7
 422 0044 0833     		add	r3, r3, #8
 423 0046 9959     		ldr	r1, [r3, r6]
 424              		.loc 1 260 0
 425 0048 F318     		add	r3, r6, r3
 426              		.loc 1 258 0
 427 004a F459     		ldr	r4, [r6, r7]
 428              	.LVL32:
 429              		.loc 1 260 0
 430 004c 5B68     		ldr	r3, [r3, #4]
 431              	.LVL33:
 432              		.loc 1 264 0
 433 004e 6145     		cmp	r1, ip
 434 0050 1FD0     		beq	.L49
 435              		.loc 1 269 0
 436 0052 2D4A     		ldr	r2, .L54+8
 437 0054 9142     		cmp	r1, r2
 438 0056 27D0     		beq	.L50
 439              		.loc 1 290 0
 440 0058 2042     		tst	r0, r4
 441 005a E8D0     		beq	.L30
 442              	.LVL34:
 443              	.LBB54:
 444              	.LBB49:
 445              		.loc 1 322 0
 446 005c 5246     		mov	r2, r10
 447 005e 2242     		tst	r2, r4
 448 0060 30D1     		bne	.L37
 449              	.LVL35:
 450              	.L52:
 451              		.loc 1 324 0
 452 0062 5A46     		mov	r2, fp
ARM GAS  /tmp/cceJiNKO.s 			page 9


 453 0064 2242     		tst	r2, r4
 454 0066 37D1     		bne	.L38
 455              		.loc 1 326 0
 456 0068 0327     		mov	r7, #3
 457 006a 3C40     		and	r4, r7
 458              	.LVL36:
 459 006c 01D0     		beq	.L31
 460 006e B024     		mov	r4, #176
 461 0070 2403     		lsl	r4, r4, #12
 462              	.L31:
 463              	.LVL37:
 464 0072 9B00     		lsl	r3, r3, #2
 465              	.LVL38:
 466 0074 C918     		add	r1, r1, r3
 467              	.LVL39:
 468              		.loc 1 337 0
 469 0076 4B46     		mov	r3, r9
 470              		.loc 1 334 0
 471 0078 0F68     		ldr	r7, [r1]
 472              	.LVL40:
 473              		.loc 1 337 0
 474 007a 1F40     		and	r7, r3
 475              	.LVL41:
 476              		.loc 1 339 0
 477 007c 3C43     		orr	r4, r7
 478              	.LVL42:
 479              		.loc 1 341 0
 480 007e 0C60     		str	r4, [r1]
 481              	.L53:
 482              	.LBE49:
 483              	.LBE54:
 484              	.LBE57:
 485              		.loc 1 256 0
 486 0080 0135     		add	r5, r5, #1
 487              	.LVL43:
 488 0082 082D     		cmp	r5, #8
 489 0084 DCD1     		bne	.L33
 490              	.LVL44:
 491              	.L48:
 492              		.loc 1 295 0
 493              		@ sp needed
 494              	.LVL45:
 495              	.LVL46:
 496 0086 3CBC     		pop	{r2, r3, r4, r5}
 497 0088 9046     		mov	r8, r2
 498 008a 9946     		mov	r9, r3
 499 008c A246     		mov	r10, r4
 500 008e AB46     		mov	fp, r5
 501 0090 F8BD     		pop	{r3, r4, r5, r6, r7, pc}
 502              	.LVL47:
 503              	.L49:
 504              	.LBB58:
 505              		.loc 1 265 0
 506 0092 1E4A     		ldr	r2, .L54+12
 507 0094 D554     		strb	r5, [r2, r3]
 508 0096 4346     		mov	r3, r8
 509              	.LVL48:
ARM GAS  /tmp/cceJiNKO.s 			page 10


 510 0098 5E68     		ldr	r6, [r3, #4]
 511              		.loc 1 290 0
 512 009a 2042     		tst	r0, r4
 513 009c 0AD1     		bne	.L34
 514              	.LVL49:
 515              	.L51:
 516 009e 0837     		add	r7, r7, #8
 517 00a0 B959     		ldr	r1, [r7, r6]
 518              	.LVL50:
 519 00a2 F719     		add	r7, r6, r7
 520 00a4 7B68     		ldr	r3, [r7, #4]
 521              	.LVL51:
 522 00a6 C4E7     		b	.L35
 523              	.LVL52:
 524              	.L50:
 525              		.loc 1 270 0
 526 00a8 194A     		ldr	r2, .L54+16
 527 00aa D554     		strb	r5, [r2, r3]
 528 00ac 4346     		mov	r3, r8
 529              	.LVL53:
 530 00ae 5E68     		ldr	r6, [r3, #4]
 531              		.loc 1 290 0
 532 00b0 2042     		tst	r0, r4
 533 00b2 F4D0     		beq	.L51
 534              	.LVL54:
 535              	.L34:
 536              	.LBB55:
 537              	.LBB50:
 538              		.loc 1 322 0
 539 00b4 5246     		mov	r2, r10
 540 00b6 F459     		ldr	r4, [r6, r7]
 541              	.LVL55:
 542 00b8 0837     		add	r7, r7, #8
 543 00ba B959     		ldr	r1, [r7, r6]
 544              	.LVL56:
 545 00bc F719     		add	r7, r6, r7
 546 00be 7B68     		ldr	r3, [r7, #4]
 547              	.LVL57:
 548 00c0 2242     		tst	r2, r4
 549 00c2 CED0     		beq	.L52
 550              	.L37:
 551 00c4 9B00     		lsl	r3, r3, #2
 552 00c6 C918     		add	r1, r1, r3
 553 00c8 9024     		mov	r4, #144
 554              	.LVL58:
 555              		.loc 1 337 0
 556 00ca 4B46     		mov	r3, r9
 557              		.loc 1 334 0
 558 00cc 0F68     		ldr	r7, [r1]
 559              		.loc 1 322 0
 560 00ce 2403     		lsl	r4, r4, #12
 561              	.LVL59:
 562              		.loc 1 337 0
 563 00d0 1F40     		and	r7, r3
 564              	.LVL60:
 565              		.loc 1 339 0
 566 00d2 3C43     		orr	r4, r7
ARM GAS  /tmp/cceJiNKO.s 			page 11


 567              	.LVL61:
 568              		.loc 1 341 0
 569 00d4 0C60     		str	r4, [r1]
 570 00d6 D3E7     		b	.L53
 571              	.LVL62:
 572              	.L38:
 573 00d8 9B00     		lsl	r3, r3, #2
 574 00da C918     		add	r1, r1, r3
 575              		.loc 1 324 0
 576 00dc A024     		mov	r4, #160
 577              	.LVL63:
 578              		.loc 1 337 0
 579 00de 4B46     		mov	r3, r9
 580              		.loc 1 334 0
 581 00e0 0F68     		ldr	r7, [r1]
 582              		.loc 1 324 0
 583 00e2 2403     		lsl	r4, r4, #12
 584              	.LVL64:
 585              		.loc 1 337 0
 586 00e4 1F40     		and	r7, r3
 587              	.LVL65:
 588              		.loc 1 339 0
 589 00e6 3C43     		orr	r4, r7
 590              	.LVL66:
 591              		.loc 1 341 0
 592 00e8 0C60     		str	r4, [r1]
 593 00ea C9E7     		b	.L53
 594              	.LVL67:
 595              	.L47:
 596              	.LBE50:
 597              	.LBE55:
 598              	.LBE58:
 599              	.LBB59:
 600              	.LBB60:
 601              		.loc 1 90 0
 602 00ec 1E20     		mov	r0, #30
 603              	.LVL68:
 604 00ee 0321     		mov	r1, #3
 605 00f0 FFF7FEFF 		bl	nvicEnableVector
 606              	.LVL69:
 607              		.loc 1 93 0
 608 00f4 1F20     		mov	r0, #31
 609 00f6 0321     		mov	r1, #3
 610 00f8 FFF7FEFF 		bl	nvicEnableVector
 611              	.LVL70:
 612 00fc 8AE7     		b	.L26
 613              	.L55:
 614 00fe C046     		.align	2
 615              	.L54:
 616 0100 00900440 		.word	1074040832
 617 0104 FFFFF0FF 		.word	-983041
 618 0108 00A00440 		.word	1074044928
 619 010c 00000000 		.word	.LANCHOR0
 620 0110 00000000 		.word	.LANCHOR2
 621              	.LBE60:
 622              	.LBE59:
 623              		.cfi_endproc
ARM GAS  /tmp/cceJiNKO.s 			page 12


 624              	.LFE87:
 625              		.size	ext_lld_start, .-ext_lld_start
 626 0114 C046C046 		.section	.text.ext_lld_stop,"ax",%progbits
 626      C046C046 
 626      C046C046 
 627              		.align	2
 628              		.p2align 4,,15
 629              		.global	ext_lld_stop
 630              		.code	16
 631              		.thumb_func
 632              		.type	ext_lld_stop, %function
 633              	ext_lld_stop:
 634              	.LFB88:
 635              		.loc 1 304 0
 636              		.cfi_startproc
 637              	.LVL71:
 638 0000 08B5     		push	{r3, lr}
 639              		.cfi_def_cfa_offset 8
 640              		.cfi_offset 3, -8
 641              		.cfi_offset 14, -4
 642              		.loc 1 306 0
 643 0002 0368     		ldr	r3, [r0]
 644 0004 022B     		cmp	r3, #2
 645 0006 00D0     		beq	.L58
 646              	.LVL72:
 647              	.L56:
 648              		.loc 1 308 0
 649              		@ sp needed
 650 0008 08BD     		pop	{r3, pc}
 651              	.LVL73:
 652              	.L58:
 653              	.LBB61:
 654              	.LBB62:
 655              		.loc 1 114 0
 656 000a 1E20     		mov	r0, #30
 657              	.LVL74:
 658 000c FFF7FEFF 		bl	nvicDisableVector
 659              	.LVL75:
 660              		.loc 1 117 0
 661 0010 1F20     		mov	r0, #31
 662 0012 FFF7FEFF 		bl	nvicDisableVector
 663              	.LVL76:
 664 0016 F7E7     		b	.L56
 665              	.LBE62:
 666              	.LBE61:
 667              		.cfi_endproc
 668              	.LFE88:
 669              		.size	ext_lld_stop, .-ext_lld_stop
 670 0018 C046C046 		.section	.text.ext_lld_channel_enable,"ax",%progbits
 670      C046C046 
 671              		.align	2
 672              		.p2align 4,,15
 673              		.global	ext_lld_channel_enable
 674              		.code	16
 675              		.thumb_func
 676              		.type	ext_lld_channel_enable, %function
 677              	ext_lld_channel_enable:
ARM GAS  /tmp/cceJiNKO.s 			page 13


 678              	.LFB89:
 679              		.loc 1 318 0
 680              		.cfi_startproc
 681              	.LVL77:
 682 0000 10B5     		push	{r4, lr}
 683              		.cfi_def_cfa_offset 8
 684              		.cfi_offset 4, -8
 685              		.cfi_offset 14, -4
 686              		.loc 1 321 0
 687 0002 4468     		ldr	r4, [r0, #4]
 688 0004 0901     		lsl	r1, r1, #4
 689              	.LVL78:
 690 0006 6258     		ldr	r2, [r4, r1]
 691              	.LVL79:
 692              		.loc 1 322 0
 693 0008 D307     		lsl	r3, r2, #31
 694 000a 15D4     		bmi	.L61
 695              		.loc 1 324 0
 696 000c 9307     		lsl	r3, r2, #30
 697 000e 05D4     		bmi	.L62
 698              		.loc 1 326 0
 699 0010 0320     		mov	r0, #3
 700              	.LVL80:
 701 0012 1040     		and	r0, r2
 702 0014 04D0     		beq	.L60
 703 0016 B020     		mov	r0, #176
 704 0018 0003     		lsl	r0, r0, #12
 705 001a 01E0     		b	.L60
 706              	.LVL81:
 707              	.L62:
 708 001c A020     		mov	r0, #160
 709              	.LVL82:
 710 001e 0003     		lsl	r0, r0, #12
 711              	.L60:
 712              	.LVL83:
 713              		.loc 1 331 0
 714 0020 0831     		add	r1, r1, #8
 715              		.loc 1 332 0
 716 0022 6318     		add	r3, r4, r1
 717 0024 5B68     		ldr	r3, [r3, #4]
 718 0026 0A59     		ldr	r2, [r1, r4]
 719              	.LVL84:
 720 0028 9B00     		lsl	r3, r3, #2
 721 002a D318     		add	r3, r2, r3
 722              		.loc 1 334 0
 723 002c 1A68     		ldr	r2, [r3]
 724              	.LVL85:
 725              		.loc 1 337 0
 726 002e 0449     		ldr	r1, .L65
 727              	.LVL86:
 728              		.loc 1 342 0
 729              		@ sp needed
 730              		.loc 1 337 0
 731 0030 0A40     		and	r2, r1
 732              	.LVL87:
 733              		.loc 1 339 0
 734 0032 0243     		orr	r2, r0
ARM GAS  /tmp/cceJiNKO.s 			page 14


 735              	.LVL88:
 736              		.loc 1 341 0
 737 0034 1A60     		str	r2, [r3]
 738              	.LVL89:
 739              	.LVL90:
 740              		.loc 1 342 0
 741 0036 10BD     		pop	{r4, pc}
 742              	.LVL91:
 743              	.L61:
 744 0038 9020     		mov	r0, #144
 745              	.LVL92:
 746 003a 0003     		lsl	r0, r0, #12
 747 003c F0E7     		b	.L60
 748              	.L66:
 749 003e C046     		.align	2
 750              	.L65:
 751 0040 FFFFF0FF 		.word	-983041
 752              		.cfi_endproc
 753              	.LFE89:
 754              		.size	ext_lld_channel_enable, .-ext_lld_channel_enable
 755 0044 C046C046 		.section	.text.ext_lld_channel_disable,"ax",%progbits
 755      C046C046 
 755      C046C046 
 756              		.align	2
 757              		.p2align 4,,15
 758              		.global	ext_lld_channel_disable
 759              		.code	16
 760              		.thumb_func
 761              		.type	ext_lld_channel_disable, %function
 762              	ext_lld_channel_disable:
 763              	.LFB90:
 764              		.loc 1 352 0
 765              		.cfi_startproc
 766              	.LVL93:
 767              		.loc 1 354 0
 768 0000 4268     		ldr	r2, [r0, #4]
 769              	.LVL94:
 770 0002 0901     		lsl	r1, r1, #4
 771              	.LVL95:
 772 0004 0831     		add	r1, r1, #8
 773              		.loc 1 355 0
 774 0006 5318     		add	r3, r2, r1
 775              	.LVL96:
 776 0008 5B68     		ldr	r3, [r3, #4]
 777              	.LVL97:
 778 000a 8A58     		ldr	r2, [r1, r2]
 779              	.LVL98:
 780 000c 9B00     		lsl	r3, r3, #2
 781 000e D318     		add	r3, r2, r3
 782              		.loc 1 356 0
 783 0010 1A68     		ldr	r2, [r3]
 784              	.LVL99:
 785              		.loc 1 357 0
 786              		@ sp needed
 787              		.loc 1 356 0
 788 0012 1A60     		str	r2, [r3]
 789              	.LVL100:
ARM GAS  /tmp/cceJiNKO.s 			page 15


 790              		.loc 1 357 0
 791 0014 7047     		bx	lr
 792              		.cfi_endproc
 793              	.LFE90:
 794              		.size	ext_lld_channel_disable, .-ext_lld_channel_disable
 795              		.global	portb_channel_map
 796              		.global	porta_channel_map
 797              		.global	EXTD1
 798 0016 C046C046 		.section	.bss.EXTD1,"aw",%nobits
 798      C046C046 
 798      C046
 799              		.align	2
 800              	.LANCHOR1 = . + 0
 801              		.type	EXTD1, %object
 802              		.size	EXTD1, 8
 803              	EXTD1:
 804 0000 00000000 		.space	8
 804      00000000 
 805              		.section	.bss.portb_channel_map,"aw",%nobits
 806              		.align	2
 807              	.LANCHOR2 = . + 0
 808              		.type	portb_channel_map, %object
 809              		.size	portb_channel_map, 32
 810              	portb_channel_map:
 811 0000 00000000 		.space	32
 811      00000000 
 811      00000000 
 811      00000000 
 811      00000000 
 812              		.section	.bss.porta_channel_map,"aw",%nobits
 813              		.align	2
 814              	.LANCHOR0 = . + 0
 815              		.type	porta_channel_map, %object
 816              		.size	porta_channel_map, 32
 817              	porta_channel_map:
 818 0000 00000000 		.space	32
 818      00000000 
 818      00000000 
 818      00000000 
 818      00000000 
 819              		.text
 820              	.Letext0:
 821              		.file 2 "/usr/include/stdint.h"
 822              		.file 3 "../os/nil/include/nil.h"
 823              		.file 4 "../os/nil/ports/ARMCMx/compilers/GCC/niltypes.h"
 824              		.file 5 "../os/ext/CMSIS/KINETIS/kl02x.h"
 825              		.file 6 "../os/nil/ports/ARMCMx/nilcore.h"
 826              		.file 7 "../os/nil/ports/ARMCMx/nilcore_v6m.h"
 827              		.file 8 "../os/hal/include/ext.h"
 828              		.file 9 "../os/hal/ports/KINETIS/LLD/ext_lld.h"
 829              		.file 10 "../os/hal/ports/common/ARMCMx/nvic.h"
 3897              		.section	.note.GNU-stack,"",%progbits
ARM GAS  /tmp/cceJiNKO.s 			page 75

