ARM GAS  /tmp/ccM9bgjp.s 			page 1


   1              		.cpu cortex-m0
   2              		.fpu softvfp
   3              		.eabi_attribute 20, 1
   4              		.eabi_attribute 21, 1
   5              		.eabi_attribute 23, 3
   6              		.eabi_attribute 24, 1
   7              		.eabi_attribute 25, 1
   8              		.eabi_attribute 26, 2
   9              		.eabi_attribute 30, 2
  10              		.eabi_attribute 34, 0
  11              		.eabi_attribute 18, 4
  12              		.code	16
  13              		.file	"FlashReadOnce.c"
  14              		.text
  15              	.Ltext0:
  16              		.cfi_sections	.debug_frame
  17              		.section	.text.FlashReadOnce,"ax",%progbits
  18              		.align	2
  19              		.p2align 4,,-1
  20              		.global	FlashReadOnce
  21              		.code	16
  22              		.thumb_func
  23              		.type	FlashReadOnce, %function
  24              	FlashReadOnce:
  25              	.LFB10:
  26              		.file 1 "../ext/C90TFS/source/FlashReadOnce.c"
  27              		.loc 1 67 0
  28              		.cfi_startproc
  29              	.LVL0:
  30 0000 70B5     		push	{r4, r5, r6, lr}
  31              		.cfi_def_cfa_offset 16
  32              		.cfi_offset 4, -16
  33              		.cfi_offset 5, -12
  34              		.cfi_offset 6, -8
  35              		.cfi_offset 14, -4
  36              		.loc 1 73 0
  37 0002 3125     		mov	r5, #49
  38              		.loc 1 67 0
  39 0004 041C     		mov	r4, r0
  40              	.LVL1:
  41              		.loc 1 77 0
  42 0006 4126     		mov	r6, #65
  43              		.loc 1 73 0
  44 0008 0068     		ldr	r0, [r0]
  45              	.LVL2:
  46 000a 0570     		strb	r5, [r0]
  47              	.LVL3:
  48              		.loc 1 76 0
  49 000c 2568     		ldr	r5, [r4]
  50              		.loc 1 83 0
  51 000e 201C     		mov	r0, r4
  52              		.loc 1 77 0
  53 0010 EE71     		strb	r6, [r5, #7]
  54              	.LVL4:
  55              		.loc 1 79 0
  56 0012 2668     		ldr	r6, [r4]
  57              		.loc 1 67 0
ARM GAS  /tmp/ccM9bgjp.s 			page 2


  58 0014 151C     		mov	r5, r2
  59              		.loc 1 80 0
  60 0016 B171     		strb	r1, [r6, #6]
  61              	.LVL5:
  62              		.loc 1 83 0
  63 0018 9847     		blx	r3
  64              	.LVL6:
  65              		.loc 1 85 0
  66 001a 0028     		cmp	r0, #0
  67 001c 0BD1     		bne	.L4
  68              	.LVL7:
  69 001e 2368     		ldr	r3, [r4]
  70              		.loc 1 91 0
  71 0020 1B7A     		ldrb	r3, [r3, #8]
  72 0022 2B70     		strb	r3, [r5]
  73              	.LVL8:
  74              		.loc 1 90 0
  75 0024 2368     		ldr	r3, [r4]
  76              	.LVL9:
  77              		.loc 1 91 0
  78 0026 5B7A     		ldrb	r3, [r3, #9]
  79              	.LVL10:
  80 0028 6B70     		strb	r3, [r5, #1]
  81              	.LVL11:
  82              		.loc 1 90 0
  83 002a 2368     		ldr	r3, [r4]
  84              	.LVL12:
  85              		.loc 1 91 0
  86 002c 9B7A     		ldrb	r3, [r3, #10]
  87              	.LVL13:
  88 002e AB70     		strb	r3, [r5, #2]
  89              	.LVL14:
  90              		.loc 1 90 0
  91 0030 2368     		ldr	r3, [r4]
  92              	.LVL15:
  93              		.loc 1 91 0
  94 0032 DB7A     		ldrb	r3, [r3, #11]
  95              	.LVL16:
  96 0034 EB70     		strb	r3, [r5, #3]
  97              	.LVL17:
  98              	.L4:
  99              		.loc 1 103 0
 100              		@ sp needed
 101              	.LVL18:
 102              	.LVL19:
 103 0036 70BD     		pop	{r4, r5, r6, pc}
 104              		.cfi_endproc
 105              	.LFE10:
 106              		.size	FlashReadOnce, .-FlashReadOnce
 107 0038 C046C046 		.text
 107      C046C046 
 108              	.Letext0:
 109              		.file 2 "/usr/include/stdint.h"
 110              		.file 3 "../ext/C90TFS/include/SSD_Types.h"
 866              		.section	.note.GNU-stack,"",%progbits
ARM GAS  /tmp/ccM9bgjp.s 			page 19

