ARM GAS  /tmp/ccJUAba1.s 			page 1


   1              		.cpu cortex-m0
   2              		.fpu softvfp
   3              		.eabi_attribute 20, 1
   4              		.eabi_attribute 21, 1
   5              		.eabi_attribute 23, 3
   6              		.eabi_attribute 24, 1
   7              		.eabi_attribute 25, 1
   8              		.eabi_attribute 26, 2
   9              		.eabi_attribute 30, 2
  10              		.eabi_attribute 34, 0
  11              		.eabi_attribute 18, 4
  12              		.code	16
  13              		.file	"FlashSecurityBypass.c"
  14              		.text
  15              	.Ltext0:
  16              		.cfi_sections	.debug_frame
  17              		.section	.text.FlashSecurityBypass,"ax",%progbits
  18              		.align	2
  19              		.p2align 4,,-1
  20              		.global	FlashSecurityBypass
  21              		.code	16
  22              		.thumb_func
  23              		.type	FlashSecurityBypass, %function
  24              	FlashSecurityBypass:
  25              	.LFB10:
  26              		.file 1 "../ext/C90TFS/source/FlashSecurityBypass.c"
  27              		.loc 1 68 0
  28              		.cfi_startproc
  29              	.LVL0:
  30 0000 38B5     		push	{r3, r4, r5, lr}
  31              		.cfi_def_cfa_offset 16
  32              		.cfi_offset 3, -16
  33              		.cfi_offset 4, -12
  34              		.cfi_offset 5, -8
  35              		.cfi_offset 14, -4
  36              		.loc 1 75 0
  37 0002 3125     		mov	r5, #49
  38              		.loc 1 79 0
  39 0004 4524     		mov	r4, #69
  40              		.loc 1 75 0
  41 0006 0368     		ldr	r3, [r0]
  42              		.loc 1 97 0
  43              		@ sp needed
  44              		.loc 1 75 0
  45 0008 1D70     		strb	r5, [r3]
  46              	.LVL1:
  47              		.loc 1 78 0
  48 000a 0368     		ldr	r3, [r0]
  49              		.loc 1 79 0
  50 000c DC71     		strb	r4, [r3, #7]
  51              	.LVL2:
  52              		.loc 1 83 0
  53 000e 0C78     		ldrb	r4, [r1]
  54              		.loc 1 82 0
  55 0010 0368     		ldr	r3, [r0]
  56              		.loc 1 83 0
  57 0012 1C72     		strb	r4, [r3, #8]
ARM GAS  /tmp/ccJUAba1.s 			page 2


  58              	.LVL3:
  59 0014 4C78     		ldrb	r4, [r1, #1]
  60              		.loc 1 82 0
  61 0016 0368     		ldr	r3, [r0]
  62              	.LVL4:
  63              		.loc 1 83 0
  64 0018 5C72     		strb	r4, [r3, #9]
  65              	.LVL5:
  66 001a 8C78     		ldrb	r4, [r1, #2]
  67              		.loc 1 82 0
  68 001c 0368     		ldr	r3, [r0]
  69              	.LVL6:
  70              		.loc 1 83 0
  71 001e 9C72     		strb	r4, [r3, #10]
  72              	.LVL7:
  73 0020 CC78     		ldrb	r4, [r1, #3]
  74              		.loc 1 82 0
  75 0022 0368     		ldr	r3, [r0]
  76              	.LVL8:
  77              		.loc 1 83 0
  78 0024 DC72     		strb	r4, [r3, #11]
  79              	.LVL9:
  80 0026 0C79     		ldrb	r4, [r1, #4]
  81              		.loc 1 82 0
  82 0028 0368     		ldr	r3, [r0]
  83              	.LVL10:
  84              		.loc 1 83 0
  85 002a 1C73     		strb	r4, [r3, #12]
  86              	.LVL11:
  87 002c 4C79     		ldrb	r4, [r1, #5]
  88              		.loc 1 82 0
  89 002e 0368     		ldr	r3, [r0]
  90              	.LVL12:
  91              		.loc 1 83 0
  92 0030 5C73     		strb	r4, [r3, #13]
  93              	.LVL13:
  94 0032 8C79     		ldrb	r4, [r1, #6]
  95              		.loc 1 82 0
  96 0034 0368     		ldr	r3, [r0]
  97              	.LVL14:
  98              		.loc 1 83 0
  99 0036 9C73     		strb	r4, [r3, #14]
 100              	.LVL15:
 101 0038 C979     		ldrb	r1, [r1, #7]
 102              	.LVL16:
 103              		.loc 1 82 0
 104 003a 0368     		ldr	r3, [r0]
 105              	.LVL17:
 106              		.loc 1 83 0
 107 003c D973     		strb	r1, [r3, #15]
 108              	.LVL18:
 109              		.loc 1 85 0
 110 003e 9047     		blx	r2
 111              	.LVL19:
 112              		.loc 1 97 0
 113 0040 38BD     		pop	{r3, r4, r5, pc}
 114              		.cfi_endproc
ARM GAS  /tmp/ccJUAba1.s 			page 3


 115              	.LFE10:
 116              		.size	FlashSecurityBypass, .-FlashSecurityBypass
 117 0042 C046C046 		.text
 117      C046C046 
 117      C046C046 
 117      C046
 118              	.Letext0:
 119              		.file 2 "/usr/include/stdint.h"
 120              		.file 3 "../ext/C90TFS/include/SSD_Types.h"
 856              		.section	.note.GNU-stack,"",%progbits
ARM GAS  /tmp/ccJUAba1.s 			page 18


ARM GAS  /tmp/ccJUAba1.s 			page 19

