ARM GAS  /tmp/ccIY18GZ.s 			page 1


   1              		.cpu cortex-m0
   2              		.fpu softvfp
   3              		.eabi_attribute 20, 1
   4              		.eabi_attribute 21, 1
   5              		.eabi_attribute 23, 3
   6              		.eabi_attribute 24, 1
   7              		.eabi_attribute 25, 1
   8              		.eabi_attribute 26, 2
   9              		.eabi_attribute 30, 2
  10              		.eabi_attribute 34, 0
  11              		.eabi_attribute 18, 4
  12              		.code	16
  13              		.file	"flash.c"
  14              		.text
  15              	.Ltext0:
  16              		.cfi_sections	.debug_frame
  17              		.section	.text.callback,"ax",%progbits
  18              		.align	2
  19              		.p2align 4,,15
  20              		.code	16
  21              		.thumb_func
  22              		.type	callback, %function
  23              	callback:
  24              	.LFB95:
  25              		.file 1 "flash.c"
  26              		.loc 1 175 0
  27              		.cfi_startproc
  28              		.loc 1 177 0
  29              		@ sp needed
  30 0000 7047     		bx	lr
  31              		.cfi_endproc
  32              	.LFE95:
  33              		.size	callback, .-callback
  34 0002 C046C046 		.section	.text.flashEraseSectors,"ax",%progbits
  34      C046C046 
  34      C046C046 
  34      C046
  35              		.align	2
  36              		.p2align 4,,15
  37              		.global	flashEraseSectors
  38              		.code	16
  39              		.thumb_func
  40              		.type	flashEraseSectors, %function
  41              	flashEraseSectors:
  42              	.LFB91:
  43              		.loc 1 35 0
  44              		.cfi_startproc
  45              	.LVL0:
  46 0000 F0B5     		push	{r4, r5, r6, r7, lr}
  47              		.cfi_def_cfa_offset 20
  48              		.cfi_offset 4, -20
  49              		.cfi_offset 5, -16
  50              		.cfi_offset 6, -12
  51              		.cfi_offset 7, -8
  52              		.cfi_offset 14, -4
  53 0002 5646     		mov	r6, r10
  54 0004 4D46     		mov	r5, r9
ARM GAS  /tmp/ccIY18GZ.s 			page 2


  55 0006 5F46     		mov	r7, fp
  56 0008 4446     		mov	r4, r8
  57              		.loc 1 44 0
  58 000a 8946     		mov	r9, r1
  59              		.loc 1 35 0
  60 000c F0B4     		push	{r4, r5, r6, r7}
  61              		.cfi_def_cfa_offset 36
  62              		.cfi_offset 8, -36
  63              		.cfi_offset 9, -32
  64              		.cfi_offset 10, -28
  65              		.cfi_offset 11, -24
  66              		.loc 1 46 0
  67 000e 3649     		ldr	r1, .L22
  68              	.LVL1:
  69              		.loc 1 35 0
  70 0010 83B0     		sub	sp, sp, #12
  71              		.cfi_def_cfa_offset 48
  72              		.loc 1 35 0
  73 0012 061C     		mov	r6, r0
  74              		.loc 1 44 0
  75 0014 8144     		add	r9, r9, r0
  76              	.LVL2:
  77              		.loc 1 46 0
  78 0016 890A     		lsr	r1, r1, #10
  79 0018 8842     		cmp	r0, r1
  80 001a 5FD3     		bcc	.L18
  81              		.loc 1 51 0
  82 001c 334F     		ldr	r7, .L22+4
  83 001e 7968     		ldr	r1, [r7, #4]
  84 0020 BB68     		ldr	r3, [r7, #8]
  85 0022 8C46     		mov	ip, r1
  86 0024 6344     		add	r3, r3, ip
  87 0026 9A0A     		lsr	r2, r3, #10
  88 0028 9145     		cmp	r9, r2
  89 002a 51D8     		bhi	.L19
  90              		.loc 1 58 0
  91 002c 4B46     		mov	r3, r9
  92 002e 3048     		ldr	r0, .L22+8
  93              	.LVL3:
  94 0030 5A1E     		sub	r2, r3, #1
  95 0032 311C     		mov	r1, r6
  96 0034 FFF7FEFF 		bl	tfp_printf
  97              	.LVL4:
  98              		.loc 1 60 0
  99 0038 4E45     		cmp	r6, r9
 100 003a 39D2     		bcs	.L10
 101 003c 0023     		mov	r3, #0
 102 003e 9A46     		mov	r10, r3
 103 0040 2C4B     		ldr	r3, .L22+12
 104 0042 B502     		lsl	r5, r6, #10
 105 0044 9846     		mov	r8, r3
 106              		.loc 1 85 0
 107 0046 2C4B     		ldr	r3, .L22+16
 108 0048 9B46     		mov	fp, r3
 109 004a 0AE0     		b	.L9
 110              	.LVL5:
 111              	.L21:
ARM GAS  /tmp/ccIY18GZ.s 			page 3


 112 004c 311C     		mov	r1, r6
 113 004e 5846     		mov	r0, fp
 114 0050 FFF7FEFF 		bl	tfp_printf
 115              	.LVL6:
 116 0054 8023     		mov	r3, #128
 117 0056 DB00     		lsl	r3, r3, #3
 118 0058 9C46     		mov	ip, r3
 119              		.loc 1 86 0
 120 005a 0136     		add	r6, r6, #1
 121              	.LVL7:
 122 005c 6544     		add	r5, r5, ip
 123              		.loc 1 60 0
 124 005e B145     		cmp	r9, r6
 125 0060 28D9     		bls	.L6
 126              	.LVL8:
 127              	.L9:
 128              	.LBB38:
 129              	.LBB39:
 130              	.LBB40:
 131              		.file 2 "../os/ext/CMSIS/include/core_cmFunc.h"
 132              		.loc 2 344 0
 133              	#APP
 134              	@ 344 "../os/ext/CMSIS/include/core_cmFunc.h" 1
 135 0062 72B6     		cpsid i
 136              	@ 0 "" 2
 137              		.code	16
 138              	.LBE40:
 139              	.LBE39:
 140              	.LBE38:
 141              		.loc 1 62 0
 142 0064 8022     		mov	r2, #128
 143 0066 4346     		mov	r3, r8
 144 0068 381C     		mov	r0, r7
 145 006a 291C     		mov	r1, r5
 146 006c D200     		lsl	r2, r2, #3
 147 006e 1B68     		ldr	r3, [r3]
 148 0070 FFF7FEFF 		bl	FlashEraseSector
 149              	.LVL9:
 150              	.LBB41:
 151              	.LBB42:
 152              	.LBB43:
 153              		.loc 2 333 0
 154              	#APP
 155              	@ 333 "../os/ext/CMSIS/include/core_cmFunc.h" 1
 156 0074 62B6     		cpsie i
 157              	@ 0 "" 2
 158              		.code	16
 159              	.LBE43:
 160              	.LBE42:
 161              	.LBE41:
 162              		.loc 1 65 0
 163 0076 0028     		cmp	r0, #0
 164 0078 28D1     		bne	.L11
 165 007a 0024     		mov	r4, #0
 166              	.LVL10:
 167              	.L8:
 168              	.LBB44:
ARM GAS  /tmp/ccIY18GZ.s 			page 4


 169              	.LBB45:
 170              	.LBB46:
 171              		.loc 2 344 0
 172              	#APP
 173              	@ 344 "../os/ext/CMSIS/include/core_cmFunc.h" 1
 174 007c 72B6     		cpsid i
 175              	@ 0 "" 2
 176              		.code	16
 177              	.LBE46:
 178              	.LBE45:
 179              	.LBE44:
 180              		.loc 1 77 0
 181 007e 4246     		mov	r2, r8
 182 0080 1268     		ldr	r2, [r2]
 183 0082 291C     		mov	r1, r5
 184 0084 0092     		str	r2, [sp]
 185 0086 8022     		mov	r2, #128
 186 0088 E3B2     		uxtb	r3, r4
 187 008a 381C     		mov	r0, r7
 188 008c 5200     		lsl	r2, r2, #1
 189 008e FFF7FEFF 		bl	FlashVerifySection
 190              	.LVL11:
 191 0092 011C     		mov	r1, r0
 192              	.LVL12:
 193              	.LBB47:
 194              	.LBB48:
 195              	.LBB49:
 196              		.loc 2 333 0
 197              	#APP
 198              	@ 333 "../os/ext/CMSIS/include/core_cmFunc.h" 1
 199 0094 62B6     		cpsie i
 200              	@ 0 "" 2
 201              		.code	16
 202              	.LBE49:
 203              	.LBE48:
 204              	.LBE47:
 205              		.loc 1 79 0
 206 0096 0028     		cmp	r0, #0
 207 0098 03D1     		bne	.L20
 208              	.LVL13:
 209              	.L7:
 210              		.loc 1 75 0 discriminator 2
 211 009a 012C     		cmp	r4, #1
 212 009c D6D0     		beq	.L21
 213 009e 0124     		mov	r4, #1
 214              	.LVL14:
 215 00a0 ECE7     		b	.L8
 216              	.LVL15:
 217              	.L20:
 218              		.loc 1 80 0
 219 00a2 1648     		ldr	r0, .L22+20
 220              	.LVL16:
 221 00a4 221C     		mov	r2, r4
 222 00a6 FFF7FEFF 		bl	tfp_printf
 223              	.LVL17:
 224              		.loc 1 81 0
 225 00aa FD23     		mov	r3, #253
ARM GAS  /tmp/ccIY18GZ.s 			page 5


 226 00ac 9A46     		mov	r10, r3
 227 00ae F4E7     		b	.L7
 228              	.LVL18:
 229              	.L10:
 230              		.loc 1 41 0
 231 00b0 0023     		mov	r3, #0
 232 00b2 9A46     		mov	r10, r3
 233              	.LVL19:
 234              	.L6:
 235              		.loc 1 89 0
 236 00b4 1248     		ldr	r0, .L22+24
 237 00b6 FFF7FEFF 		bl	tfp_printf
 238              	.LVL20:
 239              		.loc 1 91 0
 240 00ba 5046     		mov	r0, r10
 241              	.L4:
 242 00bc 40B2     		sxtb	r0, r0
 243              		.loc 1 92 0
 244 00be 03B0     		add	sp, sp, #12
 245              		@ sp needed
 246              	.LVL21:
 247              	.LVL22:
 248 00c0 3CBC     		pop	{r2, r3, r4, r5}
 249 00c2 9046     		mov	r8, r2
 250 00c4 9946     		mov	r9, r3
 251 00c6 A246     		mov	r10, r4
 252 00c8 AB46     		mov	fp, r5
 253 00ca F0BD     		pop	{r4, r5, r6, r7, pc}
 254              	.LVL23:
 255              	.L11:
 256              		.loc 1 67 0
 257 00cc FD20     		mov	r0, #253
 258              	.LVL24:
 259 00ce F5E7     		b	.L4
 260              	.LVL25:
 261              	.L19:
 262              		.loc 1 52 0
 263 00d0 0C48     		ldr	r0, .L22+28
 264              	.LVL26:
 265 00d2 4946     		mov	r1, r9
 266 00d4 FFF7FEFF 		bl	tfp_printf
 267              	.LVL27:
 268              		.loc 1 55 0
 269 00d8 FC20     		mov	r0, #252
 270 00da EFE7     		b	.L4
 271              	.LVL28:
 272              	.L18:
 273              		.loc 1 47 0
 274 00dc 0A48     		ldr	r0, .L22+32
 275              	.LVL29:
 276 00de FFF7FEFF 		bl	tfp_printf
 277              	.LVL30:
 278              		.loc 1 49 0
 279 00e2 FC20     		mov	r0, #252
 280 00e4 EAE7     		b	.L4
 281              	.L23:
 282 00e6 C046     		.align	2
ARM GAS  /tmp/ccIY18GZ.s 			page 6


 283              	.L22:
 284 00e8 00000000 		.word	__storage_start__
 285 00ec 00000000 		.word	.LANCHOR0
 286 00f0 70000000 		.word	.LC6
 287 00f4 00000000 		.word	.LANCHOR1
 288 00f8 B0000000 		.word	.LC11
 289 00fc 7C000000 		.word	.LC9
 290 0100 B8000000 		.word	.LC13
 291 0104 28000000 		.word	.LC4
 292 0108 00000000 		.word	.LC1
 293              		.cfi_endproc
 294              	.LFE91:
 295              		.size	flashEraseSectors, .-flashEraseSectors
 296 010c C046C046 		.section	.text.flashStart,"ax",%progbits
 297              		.align	2
 298              		.p2align 4,,15
 299              		.global	flashStart
 300              		.code	16
 301              		.thumb_func
 302              		.type	flashStart, %function
 303              	flashStart:
 304              	.LFB92:
 305              		.loc 1 94 0
 306              		.cfi_startproc
 307              		.loc 1 97 0
 308 0000 0022     		mov	r2, #0
 309              		.loc 1 94 0
 310 0002 10B5     		push	{r4, lr}
 311              		.cfi_def_cfa_offset 8
 312              		.cfi_offset 4, -8
 313              		.cfi_offset 14, -4
 314              		.loc 1 99 0
 315 0004 0C4C     		ldr	r4, .L29
 316              		.loc 1 97 0
 317 0006 0D4B     		ldr	r3, .L29+4
 318              		.loc 1 99 0
 319 0008 201C     		mov	r0, r4
 320              		.loc 1 97 0
 321 000a 1A60     		str	r2, [r3]
 322              		.loc 1 99 0
 323 000c FFF7FEFF 		bl	FlashInit
 324              	.LVL31:
 325              		.loc 1 100 0
 326 0010 0028     		cmp	r0, #0
 327 0012 02D0     		beq	.L25
 328              		.loc 1 101 0
 329 0014 0A48     		ldr	r0, .L29+8
 330              	.LVL32:
 331 0016 FFF7FEFF 		bl	tfp_printf
 332              	.LVL33:
 333              	.L25:
 334              		.loc 1 105 0
 335 001a 8021     		mov	r1, #128
 336 001c 094A     		ldr	r2, .L29+12
 337 001e 0A48     		ldr	r0, .L29+16
 338 0020 FFF7FEFF 		bl	RelocateFunction
 339              	.LVL34:
ARM GAS  /tmp/ccIY18GZ.s 			page 7


 340              		.loc 1 106 0
 341 0024 8021     		mov	r1, #128
 342              		.loc 1 105 0
 343 0026 2062     		str	r0, [r4, #32]
 344              		.loc 1 106 0
 345 0028 4900     		lsl	r1, r1, #1
 346 002a 084A     		ldr	r2, .L29+20
 347 002c 0848     		ldr	r0, .L29+24
 348 002e FFF7FEFF 		bl	RelocateFunction
 349              	.LVL35:
 350 0032 084B     		ldr	r3, .L29+28
 351              		.loc 1 108 0
 352              		@ sp needed
 353              		.loc 1 106 0
 354 0034 1860     		str	r0, [r3]
 355              		.loc 1 108 0
 356 0036 10BD     		pop	{r4, pc}
 357              	.L30:
 358              		.align	2
 359              	.L29:
 360 0038 00000000 		.word	.LANCHOR0
 361 003c 00000000 		.word	.LANCHOR2
 362 0040 BC000000 		.word	.LC17
 363 0044 00000000 		.word	callback
 364 0048 00000000 		.word	.LANCHOR3
 365 004c 00000000 		.word	FlashCommandSequence
 366 0050 00000000 		.word	.LANCHOR4
 367 0054 00000000 		.word	.LANCHOR1
 368              		.cfi_endproc
 369              	.LFE92:
 370              		.size	flashStart, .-flashStart
 371 0058 C046C046 		.section	.text.flashGetSecurity,"ax",%progbits
 371      C046C046 
 372              		.align	2
 373              		.p2align 4,,15
 374              		.global	flashGetSecurity
 375              		.code	16
 376              		.thumb_func
 377              		.type	flashGetSecurity, %function
 378              	flashGetSecurity:
 379              	.LFB93:
 380              		.loc 1 110 0
 381              		.cfi_startproc
 382 0000 00B5     		push	{lr}
 383              		.cfi_def_cfa_offset 4
 384              		.cfi_offset 14, -4
 385 0002 83B0     		sub	sp, sp, #12
 386              		.cfi_def_cfa_offset 16
 387              		.loc 1 114 0
 388 0004 6B46     		mov	r3, sp
 389 0006 D91D     		add	r1, r3, #7
 390 0008 0023     		mov	r3, #0
 391              		.loc 1 115 0
 392 000a 0348     		ldr	r0, .L32
 393              		.loc 1 114 0
 394 000c 0B70     		strb	r3, [r1]
 395              		.loc 1 115 0
ARM GAS  /tmp/ccIY18GZ.s 			page 8


 396 000e FFF7FEFF 		bl	FlashGetSecurityState
 397              	.LVL36:
 398              		.loc 1 118 0
 399 0012 03B0     		add	sp, sp, #12
 400              		@ sp needed
 401 0014 00BD     		pop	{pc}
 402              	.L33:
 403 0016 C046     		.align	2
 404              	.L32:
 405 0018 00000000 		.word	.LANCHOR0
 406              		.cfi_endproc
 407              	.LFE93:
 408              		.size	flashGetSecurity, .-flashGetSecurity
 409 001c C046C046 		.section	.text.flashProgram,"ax",%progbits
 410              		.align	2
 411              		.p2align 4,,15
 412              		.global	flashProgram
 413              		.code	16
 414              		.thumb_func
 415              		.type	flashProgram, %function
 416              	flashProgram:
 417              	.LFB94:
 418              		.loc 1 122 0
 419              		.cfi_startproc
 420              	.LVL37:
 421 0000 F0B5     		push	{r4, r5, r6, r7, lr}
 422              		.cfi_def_cfa_offset 20
 423              		.cfi_offset 4, -20
 424              		.cfi_offset 5, -16
 425              		.cfi_offset 6, -12
 426              		.cfi_offset 7, -8
 427              		.cfi_offset 14, -4
 428 0002 4746     		mov	r7, r8
 429 0004 80B4     		push	{r7}
 430              		.cfi_def_cfa_offset 24
 431              		.cfi_offset 8, -24
 432 0006 86B0     		sub	sp, sp, #24
 433              		.cfi_def_cfa_offset 48
 434              		.loc 1 129 0
 435 0008 002A     		cmp	r2, #0
 436 000a 3DD0     		beq	.L40
 437              		.loc 1 133 0
 438 000c 284C     		ldr	r4, .L52
 439 000e A40A     		lsr	r4, r4, #10
 440 0010 A402     		lsl	r4, r4, #10
 441 0012 A142     		cmp	r1, r4
 442 0014 46D3     		bcc	.L42
 443              		.loc 1 134 0 discriminator 1
 444 0016 274B     		ldr	r3, .L52+4
 445 0018 8F18     		add	r7, r1, r2
 446 001a 1C1C     		mov	r4, r3
 447 001c 6468     		ldr	r4, [r4, #4]
 448 001e 9846     		mov	r8, r3
 449 0020 A446     		mov	ip, r4
 450 0022 9B68     		ldr	r3, [r3, #8]
 451 0024 6344     		add	r3, r3, ip
 452              		.loc 1 133 0 discriminator 1
ARM GAS  /tmp/ccIY18GZ.s 			page 9


 453 0026 9F42     		cmp	r7, r3
 454 0028 3CD8     		bhi	.L42
 455              		.loc 1 139 0
 456 002a 0323     		mov	r3, #3
 457 002c 1342     		tst	r3, r2
 458 002e 3BD1     		bne	.L44
 459              		.loc 1 139 0 is_stmt 0 discriminator 1
 460 0030 1942     		tst	r1, r3
 461 0032 39D1     		bne	.L44
 462              		.loc 1 139 0
 463 0034 0C1C     		mov	r4, r1
 464 0036 0025     		mov	r5, #0
 465              	.LVL38:
 466              	.L39:
 467 0038 2678     		ldrb	r6, [r4]
 468 003a FF2E     		cmp	r6, #255
 469 003c 00D0     		beq	.L38
 470 003e 0125     		mov	r5, #1
 471              	.L38:
 472 0040 0134     		add	r4, r4, #1
 473 0042 EDB2     		uxtb	r5, r5
 474              	.LVL39:
 475              		.loc 1 145 0 is_stmt 1
 476 0044 BC42     		cmp	r4, r7
 477 0046 F7D1     		bne	.L39
 478              		.loc 1 149 0
 479 0048 002D     		cmp	r5, #0
 480 004a 23D1     		bne	.L45
 481 004c 151C     		mov	r5, r2
 482 004e 0E1C     		mov	r6, r1
 483 0050 041C     		mov	r4, r0
 484              	.LBB50:
 485              	.LBB51:
 486              	.LBB52:
 487              		.loc 2 344 0
 488              	#APP
 489              	@ 344 "../os/ext/CMSIS/include/core_cmFunc.h" 1
 490 0052 72B6     		cpsid i
 491              	@ 0 "" 2
 492              		.code	16
 493              	.LBE52:
 494              	.LBE51:
 495              	.LBE50:
 496              		.loc 1 153 0
 497 0054 184F     		ldr	r7, .L52+8
 498 0056 4046     		mov	r0, r8
 499              	.LVL40:
 500 0058 3B68     		ldr	r3, [r7]
 501 005a 0093     		str	r3, [sp]
 502 005c 231C     		mov	r3, r4
 503 005e FFF7FEFF 		bl	FlashProgram
 504              	.LVL41:
 505              	.LBB53:
 506              	.LBB54:
 507              	.LBB55:
 508              		.loc 2 333 0
 509              	#APP
ARM GAS  /tmp/ccIY18GZ.s 			page 10


 510              	@ 333 "../os/ext/CMSIS/include/core_cmFunc.h" 1
 511 0062 62B6     		cpsie i
 512              	@ 0 "" 2
 513              		.code	16
 514              	.LBE55:
 515              	.LBE54:
 516              	.LBE53:
 517              		.loc 1 156 0
 518 0064 0028     		cmp	r0, #0
 519 0066 21D1     		bne	.L46
 520              	.LBB56:
 521              	.LBB57:
 522              	.LBB58:
 523              		.loc 2 344 0
 524              	#APP
 525              	@ 344 "../os/ext/CMSIS/include/core_cmFunc.h" 1
 526 0068 72B6     		cpsid i
 527              	@ 0 "" 2
 528              		.code	16
 529              	.LBE58:
 530              	.LBE57:
 531              	.LBE56:
 532              		.loc 1 162 0
 533 006a 05AB     		add	r3, sp, #20
 534 006c 0093     		str	r3, [sp]
 535 006e 0123     		mov	r3, #1
 536 0070 0193     		str	r3, [sp, #4]
 537 0072 3B68     		ldr	r3, [r7]
 538 0074 4046     		mov	r0, r8
 539              	.LVL42:
 540 0076 0293     		str	r3, [sp, #8]
 541 0078 311C     		mov	r1, r6
 542 007a 2A1C     		mov	r2, r5
 543 007c 231C     		mov	r3, r4
 544 007e FFF7FEFF 		bl	FlashProgramCheck
 545              	.LVL43:
 546              	.LBB59:
 547              	.LBB60:
 548              	.LBB61:
 549              		.loc 2 333 0
 550              	#APP
 551              	@ 333 "../os/ext/CMSIS/include/core_cmFunc.h" 1
 552 0082 62B6     		cpsie i
 553              	@ 0 "" 2
 554              		.code	16
 555              	.LBE61:
 556              	.LBE60:
 557              	.LBE59:
 558              		.loc 1 166 0
 559 0084 0028     		cmp	r0, #0
 560 0086 07D1     		bne	.L51
 561              	.LVL44:
 562              	.L40:
 563              		.loc 1 130 0
 564 0088 0020     		mov	r0, #0
 565              	.L36:
 566 008a 40B2     		sxtb	r0, r0
ARM GAS  /tmp/ccIY18GZ.s 			page 11


 567              		.loc 1 172 0
 568 008c 06B0     		add	sp, sp, #24
 569              		@ sp needed
 570 008e 04BC     		pop	{r2}
 571 0090 9046     		mov	r8, r2
 572 0092 F0BD     		pop	{r4, r5, r6, r7, pc}
 573              	.LVL45:
 574              	.L45:
 575              		.loc 1 150 0
 576 0094 FF20     		mov	r0, #255
 577              	.LVL46:
 578 0096 F8E7     		b	.L36
 579              	.LVL47:
 580              	.L51:
 581              		.loc 1 167 0
 582 0098 0848     		ldr	r0, .L52+12
 583              	.LVL48:
 584 009a 0599     		ldr	r1, [sp, #20]
 585 009c FFF7FEFF 		bl	tfp_printf
 586              	.LVL49:
 587              		.loc 1 168 0
 588 00a0 FA20     		mov	r0, #250
 589 00a2 F2E7     		b	.L36
 590              	.LVL50:
 591              	.L42:
 592              		.loc 1 135 0
 593 00a4 FC20     		mov	r0, #252
 594              	.LVL51:
 595 00a6 F0E7     		b	.L36
 596              	.LVL52:
 597              	.L44:
 598              		.loc 1 140 0
 599 00a8 FE20     		mov	r0, #254
 600              	.LVL53:
 601 00aa EEE7     		b	.L36
 602              	.LVL54:
 603              	.L46:
 604              		.loc 1 157 0
 605 00ac FD20     		mov	r0, #253
 606              	.LVL55:
 607 00ae ECE7     		b	.L36
 608              	.L53:
 609              		.align	2
 610              	.L52:
 611 00b0 00000000 		.word	__storage_start__
 612 00b4 00000000 		.word	.LANCHOR0
 613 00b8 00000000 		.word	.LANCHOR1
 614 00bc D0000000 		.word	.LC30
 615              		.cfi_endproc
 616              	.LFE94:
 617              		.size	flashProgram, .-flashProgram
 618              		.global	flashSSDConfig
 619              		.global	__ram_for_callback
 620              		.global	__ram_func
 621              		.global	g_FlashLaunchCommand
 622              		.global	gCallBackCnt
 623              		.section	.data.g_FlashLaunchCommand,"aw",%progbits
ARM GAS  /tmp/ccIY18GZ.s 			page 12


 624              		.align	2
 625              	.LANCHOR1 = . + 0
 626              		.type	g_FlashLaunchCommand, %object
 627              		.size	g_FlashLaunchCommand, 4
 628              	g_FlashLaunchCommand:
 629 0000 FFFFFFFF 		.word	-1
 630              		.section	.bss.__ram_func,"aw",%nobits
 631              		.align	2
 632              	.LANCHOR4 = . + 0
 633              		.type	__ram_func, %object
 634              		.size	__ram_func, 256
 635              	__ram_func:
 636 0000 00000000 		.space	256
 636      00000000 
 636      00000000 
 636      00000000 
 636      00000000 
 637              		.section	.rodata.str1.4,"aMS",%progbits,1
 638              		.align	2
 639              	.LC1:
 640 0000 55736572 		.ascii	"User sectors start at %d, aborting.\012\015\000"
 640      20736563 
 640      746F7273 
 640      20737461 
 640      72742061 
 641 0026 0000     		.space	2
 642              	.LC4:
 643 0028 546F6F20 		.ascii	"Too many sectors requested, end at %d but we only h"
 643      6D616E79 
 643      20736563 
 643      746F7273 
 643      20726571 
 644 005b 61766520 		.ascii	"ave %d sectors.\012\015\000"
 644      25642073 
 644      6563746F 
 644      72732E0A 
 644      0D00
 645 006d 000000   		.space	3
 646              	.LC6:
 647 0070 45532564 		.ascii	"ES%d-%d\012\015\000"
 647      2D25640A 
 647      0D00
 648 007a 0000     		.space	2
 649              	.LC9:
 650 007c 45726173 		.ascii	"Erase verify failed (%d), margin read level: %d\012"
 650      65207665 
 650      72696679 
 650      20666169 
 650      6C656420 
 651 00ac 0D00     		.ascii	"\015\000"
 652 00ae 0000     		.space	2
 653              	.LC11:
 654 00b0 20652564 		.ascii	" e%d \000"
 654      2000
 655 00b6 0000     		.space	2
 656              	.LC13:
 657 00b8 0A0D00   		.ascii	"\012\015\000"
ARM GAS  /tmp/ccIY18GZ.s 			page 13


 658 00bb 00       		.space	1
 659              	.LC17:
 660 00bc 466C6173 		.ascii	"Flash init failed\012\015\000"
 660      6820696E 
 660      69742066 
 660      61696C65 
 660      640A0D00 
 661              	.LC30:
 662 00d0 4661696C 		.ascii	"Failed programming verification at USER margin leve"
 662      65642070 
 662      726F6772 
 662      616D6D69 
 662      6E672076 
 663 0103 6C733A20 		.ascii	"ls: worry a little bit. Failure address: %08x\012\015"
 663      776F7272 
 663      79206120 
 663      6C697474 
 663      6C652062 
 664 0132 00       		.ascii	"\000"
 665 0133 00       		.section	.bss.gCallBackCnt,"aw",%nobits
 666              		.align	2
 667              	.LANCHOR2 = . + 0
 668              		.type	gCallBackCnt, %object
 669              		.size	gCallBackCnt, 4
 670              	gCallBackCnt:
 671 0000 00000000 		.space	4
 672              		.section	.data.flashSSDConfig,"aw",%progbits
 673              		.align	2
 674              	.LANCHOR0 = . + 0
 675              		.type	flashSSDConfig, %object
 676              		.size	flashSSDConfig, 36
 677              	flashSSDConfig:
 678 0000 00000240 		.word	1073872896
 679 0004 00000000 		.word	0
 680 0008 00000200 		.word	131072
 681 000c 00000000 		.word	0
 682 0010 00000000 		.word	0
 683 0014 00000000 		.word	0
 684 0018 00000000 		.word	0
 685 001c 00       		.byte	0
 686 001d 000000   		.space	3
 687 0020 FFFFFFFF 		.word	-1
 688              		.section	.bss.__ram_for_callback,"aw",%nobits
 689              		.align	2
 690              	.LANCHOR3 = . + 0
 691              		.type	__ram_for_callback, %object
 692              		.size	__ram_for_callback, 128
 693              	__ram_for_callback:
 694 0000 00000000 		.space	128
 694      00000000 
 694      00000000 
 694      00000000 
 694      00000000 
 695              		.text
 696              	.Letext0:
 697              		.file 3 "../os/nil/include/nil.h"
 698              		.file 4 "/usr/include/stdint.h"
ARM GAS  /tmp/ccIY18GZ.s 			page 14


 699              		.file 5 "../os/nil/ports/ARMCMx/compilers/GCC/niltypes.h"
 700              		.file 6 "../os/nil/ports/ARMCMx/nilcore.h"
 701              		.file 7 "../os/nil/ports/ARMCMx/nilcore_v6m.h"
 702              		.file 8 "../ext/C90TFS/include/SSD_Types.h"
 703              		.file 9 "../os/hal/boards/CHIBITRONICS_ESPLANADE/board.h"
 704              		.file 10 "../ext/C90TFS/include/SSD_FTFx.h"
 705              		.file 11 "printf.h"
 706              		.section	.debug_info,"",%progbits
 707              	.Ldebug_info0:
 708 0000 240A0000 		.4byte	0xa24
 709 0004 0400     		.2byte	0x4
 710 0006 00000000 		.4byte	.Ldebug_abbrev0
 711 000a 04       		.byte	0x4
 712 000b 01       		.uleb128 0x1
 713 000c B5000000 		.4byte	.LASF92
 714 0010 01       		.byte	0x1
 715 0011 61030000 		.4byte	.LASF93
 716 0015 AB040000 		.4byte	.LASF94
 717 0019 00000000 		.4byte	.Ldebug_ranges0+0
 718 001d 00000000 		.4byte	0
 719 0021 00000000 		.4byte	.Ldebug_line0
 720 0025 02       		.uleb128 0x2
 721 0026 00000000 		.4byte	.LASF6
 722 002a 03       		.byte	0x3
 723 002b 25       		.byte	0x25
 724 002c 30000000 		.4byte	0x30
 725 0030 03       		.uleb128 0x3
 726 0031 91000000 		.4byte	.LASF27
 727 0035 18       		.byte	0x18
 728 0036 03       		.byte	0x3
 729 0037 6201     		.2byte	0x162
 730 0039 8B000000 		.4byte	0x8b
 731 003d 04       		.uleb128 0x4
 732 003e 52030000 		.4byte	.LASF0
 733 0042 03       		.byte	0x3
 734 0043 6301     		.2byte	0x163
 735 0045 7F020000 		.4byte	0x27f
 736 0049 00       		.byte	0
 737 004a 04       		.uleb128 0x4
 738 004b 40000000 		.4byte	.LASF1
 739 004f 03       		.byte	0x3
 740 0050 6401     		.2byte	0x164
 741 0052 05010000 		.4byte	0x105
 742 0056 04       		.byte	0x4
 743 0057 05       		.uleb128 0x5
 744 0058 753100   		.ascii	"u1\000"
 745 005b 03       		.byte	0x3
 746 005c 6F01     		.2byte	0x16f
 747 005e 2F020000 		.4byte	0x22f
 748 0062 08       		.byte	0x8
 749 0063 04       		.uleb128 0x4
 750 0064 AD000000 		.4byte	.LASF2
 751 0068 03       		.byte	0x3
 752 0069 7001     		.2byte	0x170
 753 006b 85020000 		.4byte	0x285
 754 006f 0C       		.byte	0xc
 755 0070 04       		.uleb128 0x4
ARM GAS  /tmp/ccIY18GZ.s 			page 15


 756 0071 20000000 		.4byte	.LASF3
 757 0075 03       		.byte	0x3
 758 0076 7301     		.2byte	0x173
 759 0078 1B010000 		.4byte	0x11b
 760 007c 10       		.byte	0x10
 761 007d 04       		.uleb128 0x4
 762 007e 08050000 		.4byte	.LASF4
 763 0082 03       		.byte	0x3
 764 0083 7601     		.2byte	0x176
 765 0085 05020000 		.4byte	0x205
 766 0089 14       		.byte	0x14
 767 008a 00       		.byte	0
 768 008b 06       		.uleb128 0x6
 769 008c 04       		.byte	0x4
 770 008d 05       		.byte	0x5
 771 008e 696E7400 		.ascii	"int\000"
 772 0092 07       		.uleb128 0x7
 773 0093 04       		.byte	0x4
 774 0094 07       		.byte	0x7
 775 0095 F8020000 		.4byte	.LASF5
 776 0099 02       		.uleb128 0x2
 777 009a 39000000 		.4byte	.LASF7
 778 009e 04       		.byte	0x4
 779 009f 24       		.byte	0x24
 780 00a0 A4000000 		.4byte	0xa4
 781 00a4 07       		.uleb128 0x7
 782 00a5 01       		.byte	0x1
 783 00a6 06       		.byte	0x6
 784 00a7 46030000 		.4byte	.LASF8
 785 00ab 07       		.uleb128 0x7
 786 00ac 02       		.byte	0x2
 787 00ad 05       		.byte	0x5
 788 00ae 4F000000 		.4byte	.LASF9
 789 00b2 02       		.uleb128 0x2
 790 00b3 93030000 		.4byte	.LASF10
 791 00b7 04       		.byte	0x4
 792 00b8 26       		.byte	0x26
 793 00b9 8B000000 		.4byte	0x8b
 794 00bd 07       		.uleb128 0x7
 795 00be 08       		.byte	0x8
 796 00bf 05       		.byte	0x5
 797 00c0 54040000 		.4byte	.LASF11
 798 00c4 02       		.uleb128 0x2
 799 00c5 C6010000 		.4byte	.LASF12
 800 00c9 04       		.byte	0x4
 801 00ca 30       		.byte	0x30
 802 00cb CF000000 		.4byte	0xcf
 803 00cf 07       		.uleb128 0x7
 804 00d0 01       		.byte	0x1
 805 00d1 08       		.byte	0x8
 806 00d2 B7020000 		.4byte	.LASF13
 807 00d6 02       		.uleb128 0x2
 808 00d7 05030000 		.4byte	.LASF14
 809 00db 04       		.byte	0x4
 810 00dc 31       		.byte	0x31
 811 00dd E1000000 		.4byte	0xe1
 812 00e1 07       		.uleb128 0x7
ARM GAS  /tmp/ccIY18GZ.s 			page 16


 813 00e2 02       		.byte	0x2
 814 00e3 07       		.byte	0x7
 815 00e4 B3030000 		.4byte	.LASF15
 816 00e8 02       		.uleb128 0x2
 817 00e9 EF020000 		.4byte	.LASF16
 818 00ed 04       		.byte	0x4
 819 00ee 33       		.byte	0x33
 820 00ef 92000000 		.4byte	0x92
 821 00f3 02       		.uleb128 0x2
 822 00f4 46000000 		.4byte	.LASF17
 823 00f8 04       		.byte	0x4
 824 00f9 3A       		.byte	0x3a
 825 00fa FE000000 		.4byte	0xfe
 826 00fe 07       		.uleb128 0x7
 827 00ff 08       		.byte	0x8
 828 0100 07       		.byte	0x7
 829 0101 D8020000 		.4byte	.LASF18
 830 0105 02       		.uleb128 0x2
 831 0106 A2040000 		.4byte	.LASF19
 832 010a 05       		.byte	0x5
 833 010b 37       		.byte	0x37
 834 010c C4000000 		.4byte	0xc4
 835 0110 02       		.uleb128 0x2
 836 0111 3F050000 		.4byte	.LASF20
 837 0115 05       		.byte	0x5
 838 0116 38       		.byte	0x38
 839 0117 B2000000 		.4byte	0xb2
 840 011b 02       		.uleb128 0x2
 841 011c 85000000 		.4byte	.LASF21
 842 0120 05       		.byte	0x5
 843 0121 39       		.byte	0x39
 844 0122 E8000000 		.4byte	0xe8
 845 0126 02       		.uleb128 0x2
 846 0127 AD030000 		.4byte	.LASF22
 847 012b 05       		.byte	0x5
 848 012c 3A       		.byte	0x3a
 849 012d B2000000 		.4byte	0xb2
 850 0131 02       		.uleb128 0x2
 851 0132 57030000 		.4byte	.LASF23
 852 0136 05       		.byte	0x5
 853 0137 41       		.byte	0x41
 854 0138 E8000000 		.4byte	0xe8
 855 013c 07       		.uleb128 0x7
 856 013d 04       		.byte	0x4
 857 013e 07       		.byte	0x7
 858 013f E5040000 		.4byte	.LASF24
 859 0143 02       		.uleb128 0x2
 860 0144 B4010000 		.4byte	.LASF25
 861 0148 06       		.byte	0x6
 862 0149 65       		.byte	0x65
 863 014a 4E010000 		.4byte	0x14e
 864 014e 08       		.uleb128 0x8
 865 014f 04       		.byte	0x4
 866 0150 02       		.uleb128 0x2
 867 0151 01040000 		.4byte	.LASF26
 868 0155 06       		.byte	0x6
 869 0156 6D       		.byte	0x6d
ARM GAS  /tmp/ccIY18GZ.s 			page 17


 870 0157 F3000000 		.4byte	0xf3
 871 015b 09       		.uleb128 0x9
 872 015c 62040000 		.4byte	.LASF28
 873 0160 24       		.byte	0x24
 874 0161 07       		.byte	0x7
 875 0162 A4       		.byte	0xa4
 876 0163 CD010000 		.4byte	0x1cd
 877 0167 0A       		.uleb128 0xa
 878 0168 723800   		.ascii	"r8\000"
 879 016b 07       		.byte	0x7
 880 016c A5       		.byte	0xa5
 881 016d 43010000 		.4byte	0x143
 882 0171 00       		.byte	0
 883 0172 0A       		.uleb128 0xa
 884 0173 723900   		.ascii	"r9\000"
 885 0176 07       		.byte	0x7
 886 0177 A6       		.byte	0xa6
 887 0178 43010000 		.4byte	0x143
 888 017c 04       		.byte	0x4
 889 017d 0A       		.uleb128 0xa
 890 017e 72313000 		.ascii	"r10\000"
 891 0182 07       		.byte	0x7
 892 0183 A7       		.byte	0xa7
 893 0184 43010000 		.4byte	0x143
 894 0188 08       		.byte	0x8
 895 0189 0A       		.uleb128 0xa
 896 018a 72313100 		.ascii	"r11\000"
 897 018e 07       		.byte	0x7
 898 018f A8       		.byte	0xa8
 899 0190 43010000 		.4byte	0x143
 900 0194 0C       		.byte	0xc
 901 0195 0A       		.uleb128 0xa
 902 0196 723400   		.ascii	"r4\000"
 903 0199 07       		.byte	0x7
 904 019a A9       		.byte	0xa9
 905 019b 43010000 		.4byte	0x143
 906 019f 10       		.byte	0x10
 907 01a0 0A       		.uleb128 0xa
 908 01a1 723500   		.ascii	"r5\000"
 909 01a4 07       		.byte	0x7
 910 01a5 AA       		.byte	0xaa
 911 01a6 43010000 		.4byte	0x143
 912 01aa 14       		.byte	0x14
 913 01ab 0A       		.uleb128 0xa
 914 01ac 723600   		.ascii	"r6\000"
 915 01af 07       		.byte	0x7
 916 01b0 AB       		.byte	0xab
 917 01b1 43010000 		.4byte	0x143
 918 01b5 18       		.byte	0x18
 919 01b6 0A       		.uleb128 0xa
 920 01b7 723700   		.ascii	"r7\000"
 921 01ba 07       		.byte	0x7
 922 01bb AC       		.byte	0xac
 923 01bc 43010000 		.4byte	0x143
 924 01c0 1C       		.byte	0x1c
 925 01c1 0A       		.uleb128 0xa
 926 01c2 6C7200   		.ascii	"lr\000"
ARM GAS  /tmp/ccIY18GZ.s 			page 18


 927 01c5 07       		.byte	0x7
 928 01c6 AD       		.byte	0xad
 929 01c7 43010000 		.4byte	0x143
 930 01cb 20       		.byte	0x20
 931 01cc 00       		.byte	0
 932 01cd 0B       		.uleb128 0xb
 933 01ce 8A030000 		.4byte	.LASF29
 934 01d2 03       		.byte	0x3
 935 01d3 3701     		.2byte	0x137
 936 01d5 5B010000 		.4byte	0x15b
 937 01d9 0B       		.uleb128 0xb
 938 01da 0E020000 		.4byte	.LASF30
 939 01de 03       		.byte	0x3
 940 01df 3C01     		.2byte	0x13c
 941 01e1 E5010000 		.4byte	0x1e5
 942 01e5 03       		.uleb128 0x3
 943 01e6 49020000 		.4byte	.LASF31
 944 01ea 04       		.byte	0x4
 945 01eb 03       		.byte	0x3
 946 01ec 4101     		.2byte	0x141
 947 01ee 00020000 		.4byte	0x200
 948 01f2 05       		.uleb128 0x5
 949 01f3 636E7400 		.ascii	"cnt\000"
 950 01f7 03       		.byte	0x3
 951 01f8 4201     		.2byte	0x142
 952 01fa 00020000 		.4byte	0x200
 953 01fe 00       		.byte	0
 954 01ff 00       		.byte	0
 955 0200 0C       		.uleb128 0xc
 956 0201 26010000 		.4byte	0x126
 957 0205 0D       		.uleb128 0xd
 958 0206 04       		.byte	0x4
 959 0207 50010000 		.4byte	0x150
 960 020b 0D       		.uleb128 0xd
 961 020c 04       		.byte	0x4
 962 020d 11020000 		.4byte	0x211
 963 0211 0E       		.uleb128 0xe
 964 0212 16020000 		.4byte	0x216
 965 0216 07       		.uleb128 0x7
 966 0217 01       		.byte	0x1
 967 0218 08       		.byte	0x8
 968 0219 69030000 		.4byte	.LASF32
 969 021d 0B       		.uleb128 0xb
 970 021e C6030000 		.4byte	.LASF33
 971 0222 03       		.byte	0x3
 972 0223 5D01     		.2byte	0x15d
 973 0225 29020000 		.4byte	0x229
 974 0229 0D       		.uleb128 0xd
 975 022a 04       		.byte	0x4
 976 022b 25000000 		.4byte	0x25
 977 022f 0F       		.uleb128 0xf
 978 0230 04       		.byte	0x4
 979 0231 03       		.byte	0x3
 980 0232 6701     		.2byte	0x167
 981 0234 73020000 		.4byte	0x273
 982 0238 10       		.uleb128 0x10
 983 0239 6D736700 		.ascii	"msg\000"
ARM GAS  /tmp/ccIY18GZ.s 			page 19


 984 023d 03       		.byte	0x3
 985 023e 6801     		.2byte	0x168
 986 0240 10010000 		.4byte	0x110
 987 0244 10       		.uleb128 0x10
 988 0245 7000     		.ascii	"p\000"
 989 0247 03       		.byte	0x3
 990 0248 6901     		.2byte	0x169
 991 024a 4E010000 		.4byte	0x14e
 992 024e 10       		.uleb128 0x10
 993 024f 74727000 		.ascii	"trp\000"
 994 0253 03       		.byte	0x3
 995 0254 6A01     		.2byte	0x16a
 996 0256 73020000 		.4byte	0x273
 997 025a 11       		.uleb128 0x11
 998 025b 7F040000 		.4byte	.LASF34
 999 025f 03       		.byte	0x3
 1000 0260 6B01     		.2byte	0x16b
 1001 0262 79020000 		.4byte	0x279
 1002 0266 11       		.uleb128 0x11
 1003 0267 C5020000 		.4byte	.LASF35
 1004 026b 03       		.byte	0x3
 1005 026c 6D01     		.2byte	0x16d
 1006 026e 1B010000 		.4byte	0x11b
 1007 0272 00       		.byte	0
 1008 0273 0D       		.uleb128 0xd
 1009 0274 04       		.byte	0x4
 1010 0275 1D020000 		.4byte	0x21d
 1011 0279 0D       		.uleb128 0xd
 1012 027a 04       		.byte	0x4
 1013 027b D9010000 		.4byte	0x1d9
 1014 027f 0D       		.uleb128 0xd
 1015 0280 04       		.byte	0x4
 1016 0281 CD010000 		.4byte	0x1cd
 1017 0285 0C       		.uleb128 0xc
 1018 0286 31010000 		.4byte	0x131
 1019 028a 0B       		.uleb128 0xb
 1020 028b 6E000000 		.4byte	.LASF36
 1021 028f 03       		.byte	0x3
 1022 0290 7F01     		.2byte	0x17f
 1023 0292 96020000 		.4byte	0x296
 1024 0296 03       		.uleb128 0x3
 1025 0297 03020000 		.4byte	.LASF37
 1026 029b 40       		.byte	0x40
 1027 029c 03       		.byte	0x3
 1028 029d 8601     		.2byte	0x186
 1029 029f E5020000 		.4byte	0x2e5
 1030 02a3 04       		.uleb128 0x4
 1031 02a4 0E030000 		.4byte	.LASF38
 1032 02a8 03       		.byte	0x3
 1033 02a9 8A01     		.2byte	0x18a
 1034 02ab 29020000 		.4byte	0x229
 1035 02af 00       		.byte	0
 1036 02b0 04       		.uleb128 0x4
 1037 02b1 5F050000 		.4byte	.LASF39
 1038 02b5 03       		.byte	0x3
 1039 02b6 9001     		.2byte	0x190
 1040 02b8 29020000 		.4byte	0x229
ARM GAS  /tmp/ccIY18GZ.s 			page 20


 1041 02bc 04       		.byte	0x4
 1042 02bd 04       		.uleb128 0x4
 1043 02be 37050000 		.4byte	.LASF40
 1044 02c2 03       		.byte	0x3
 1045 02c3 9501     		.2byte	0x195
 1046 02c5 85020000 		.4byte	0x285
 1047 02c9 08       		.byte	0x8
 1048 02ca 04       		.uleb128 0x4
 1049 02cb 36020000 		.4byte	.LASF41
 1050 02cf 03       		.byte	0x3
 1051 02d0 A401     		.2byte	0x1a4
 1052 02d2 E5020000 		.4byte	0x2e5
 1053 02d6 0C       		.byte	0xc
 1054 02d7 04       		.uleb128 0x4
 1055 02d8 FA040000 		.4byte	.LASF42
 1056 02dc 03       		.byte	0x3
 1057 02dd AD01     		.2byte	0x1ad
 1058 02df F5020000 		.4byte	0x2f5
 1059 02e3 3C       		.byte	0x3c
 1060 02e4 00       		.byte	0
 1061 02e5 12       		.uleb128 0x12
 1062 02e6 25000000 		.4byte	0x25
 1063 02ea F5020000 		.4byte	0x2f5
 1064 02ee 13       		.uleb128 0x13
 1065 02ef 3C010000 		.4byte	0x13c
 1066 02f3 01       		.byte	0x1
 1067 02f4 00       		.byte	0
 1068 02f5 0C       		.uleb128 0xc
 1069 02f6 0B020000 		.4byte	0x20b
 1070 02fa 0D       		.uleb128 0xd
 1071 02fb 04       		.byte	0x4
 1072 02fc C4000000 		.4byte	0xc4
 1073 0300 07       		.uleb128 0x7
 1074 0301 01       		.byte	0x1
 1075 0302 02       		.byte	0x2
 1076 0303 D9030000 		.4byte	.LASF43
 1077 0307 02       		.uleb128 0x2
 1078 0308 9C000000 		.4byte	.LASF44
 1079 030c 08       		.byte	0x8
 1080 030d 59       		.byte	0x59
 1081 030e 12030000 		.4byte	0x312
 1082 0312 0D       		.uleb128 0xd
 1083 0313 04       		.byte	0x4
 1084 0314 18030000 		.4byte	0x318
 1085 0318 14       		.uleb128 0x14
 1086 0319 09       		.uleb128 0x9
 1087 031a 16030000 		.4byte	.LASF45
 1088 031e 24       		.byte	0x24
 1089 031f 08       		.byte	0x8
 1090 0320 6A       		.byte	0x6a
 1091 0321 92030000 		.4byte	0x392
 1092 0325 15       		.uleb128 0x15
 1093 0326 EB030000 		.4byte	.LASF46
 1094 032a 08       		.byte	0x8
 1095 032b 6C       		.byte	0x6c
 1096 032c E8000000 		.4byte	0xe8
 1097 0330 00       		.byte	0
ARM GAS  /tmp/ccIY18GZ.s 			page 21


 1098 0331 15       		.uleb128 0x15
 1099 0332 1A020000 		.4byte	.LASF47
 1100 0336 08       		.byte	0x8
 1101 0337 6D       		.byte	0x6d
 1102 0338 E8000000 		.4byte	0xe8
 1103 033c 04       		.byte	0x4
 1104 033d 15       		.uleb128 0x15
 1105 033e 6E030000 		.4byte	.LASF48
 1106 0342 08       		.byte	0x8
 1107 0343 6E       		.byte	0x6e
 1108 0344 E8000000 		.4byte	0xe8
 1109 0348 08       		.byte	0x8
 1110 0349 15       		.uleb128 0x15
 1111 034a 54050000 		.4byte	.LASF49
 1112 034e 08       		.byte	0x8
 1113 034f 6F       		.byte	0x6f
 1114 0350 E8000000 		.4byte	0xe8
 1115 0354 0C       		.byte	0xc
 1116 0355 15       		.uleb128 0x15
 1117 0356 3E020000 		.4byte	.LASF50
 1118 035a 08       		.byte	0x8
 1119 035b 70       		.byte	0x70
 1120 035c E8000000 		.4byte	0xe8
 1121 0360 10       		.byte	0x10
 1122 0361 15       		.uleb128 0x15
 1123 0362 8F040000 		.4byte	.LASF51
 1124 0366 08       		.byte	0x8
 1125 0367 73       		.byte	0x73
 1126 0368 E8000000 		.4byte	0xe8
 1127 036c 14       		.byte	0x14
 1128 036d 15       		.uleb128 0x15
 1129 036e 09000000 		.4byte	.LASF52
 1130 0372 08       		.byte	0x8
 1131 0373 75       		.byte	0x75
 1132 0374 E8000000 		.4byte	0xe8
 1133 0378 18       		.byte	0x18
 1134 0379 15       		.uleb128 0x15
 1135 037a EE040000 		.4byte	.LASF53
 1136 037e 08       		.byte	0x8
 1137 037f 78       		.byte	0x78
 1138 0380 00030000 		.4byte	0x300
 1139 0384 1C       		.byte	0x1c
 1140 0385 15       		.uleb128 0x15
 1141 0386 99040000 		.4byte	.LASF54
 1142 038a 08       		.byte	0x8
 1143 038b 79       		.byte	0x79
 1144 038c 07030000 		.4byte	0x307
 1145 0390 20       		.byte	0x20
 1146 0391 00       		.byte	0
 1147 0392 02       		.uleb128 0x2
 1148 0393 35030000 		.4byte	.LASF55
 1149 0397 08       		.byte	0x8
 1150 0398 7A       		.byte	0x7a
 1151 0399 19030000 		.4byte	0x319
 1152 039d 02       		.uleb128 0x2
 1153 039e 9B030000 		.4byte	.LASF56
 1154 03a2 08       		.byte	0x8
ARM GAS  /tmp/ccIY18GZ.s 			page 22


 1155 03a3 7A       		.byte	0x7a
 1156 03a4 A8030000 		.4byte	0x3a8
 1157 03a8 0D       		.uleb128 0xd
 1158 03a9 04       		.byte	0x4
 1159 03aa 19030000 		.4byte	0x319
 1160 03ae 02       		.uleb128 0x2
 1161 03af 57020000 		.4byte	.LASF57
 1162 03b3 08       		.byte	0x8
 1163 03b4 7E       		.byte	0x7e
 1164 03b5 B9030000 		.4byte	0x3b9
 1165 03b9 0D       		.uleb128 0xd
 1166 03ba 04       		.byte	0x4
 1167 03bb BF030000 		.4byte	0x3bf
 1168 03bf 16       		.uleb128 0x16
 1169 03c0 E8000000 		.4byte	0xe8
 1170 03c4 CE030000 		.4byte	0x3ce
 1171 03c8 17       		.uleb128 0x17
 1172 03c9 9D030000 		.4byte	0x39d
 1173 03cd 00       		.byte	0
 1174 03ce 0D       		.uleb128 0xd
 1175 03cf 04       		.byte	0x4
 1176 03d0 E8000000 		.4byte	0xe8
 1177 03d4 07       		.uleb128 0x7
 1178 03d5 04       		.byte	0x4
 1179 03d6 07       		.byte	0x7
 1180 03d7 2B040000 		.4byte	.LASF58
 1181 03db 07       		.uleb128 0x7
 1182 03dc 04       		.byte	0x4
 1183 03dd 05       		.byte	0x5
 1184 03de 6D020000 		.4byte	.LASF59
 1185 03e2 0D       		.uleb128 0xd
 1186 03e3 04       		.byte	0x4
 1187 03e4 16020000 		.4byte	0x216
 1188 03e8 18       		.uleb128 0x18
 1189 03e9 9C020000 		.4byte	.LASF60
 1190 03ed 02       		.byte	0x2
 1191 03ee 5601     		.2byte	0x156
 1192 03f0 03       		.byte	0x3
 1193 03f1 18       		.uleb128 0x18
 1194 03f2 8F020000 		.4byte	.LASF61
 1195 03f6 02       		.byte	0x2
 1196 03f7 4B01     		.2byte	0x14b
 1197 03f9 03       		.byte	0x3
 1198 03fa 18       		.uleb128 0x18
 1199 03fb 7B000000 		.4byte	.LASF62
 1200 03ff 07       		.byte	0x7
 1201 0400 4901     		.2byte	0x149
 1202 0402 03       		.byte	0x3
 1203 0403 18       		.uleb128 0x18
 1204 0404 DF030000 		.4byte	.LASF63
 1205 0408 07       		.byte	0x7
 1206 0409 5201     		.2byte	0x152
 1207 040b 03       		.byte	0x3
 1208 040c 19       		.uleb128 0x19
 1209 040d 64050000 		.4byte	.LASF95
 1210 0411 01       		.byte	0x1
 1211 0412 AE       		.byte	0xae
ARM GAS  /tmp/ccIY18GZ.s 			page 23


 1212 0413 00000000 		.4byte	.LFB95
 1213 0417 02000000 		.4byte	.LFE95-.LFB95
 1214 041b 01       		.uleb128 0x1
 1215 041c 9C       		.byte	0x9c
 1216 041d 1A       		.uleb128 0x1a
 1217 041e 7D020000 		.4byte	.LASF69
 1218 0422 01       		.byte	0x1
 1219 0423 23       		.byte	0x23
 1220 0424 99000000 		.4byte	0x99
 1221 0428 00000000 		.4byte	.LFB91
 1222 042c 0C010000 		.4byte	.LFE91-.LFB91
 1223 0430 01       		.uleb128 0x1
 1224 0431 9C       		.byte	0x9c
 1225 0432 24060000 		.4byte	0x624
 1226 0436 1B       		.uleb128 0x1b
 1227 0437 76020000 		.4byte	.LASF64
 1228 043b 01       		.byte	0x1
 1229 043c 23       		.byte	0x23
 1230 043d E8000000 		.4byte	0xe8
 1231 0441 00000000 		.4byte	.LLST0
 1232 0445 1B       		.uleb128 0x1b
 1233 0446 CC020000 		.4byte	.LASF65
 1234 044a 01       		.byte	0x1
 1235 044b 23       		.byte	0x23
 1236 044c D6000000 		.4byte	0xd6
 1237 0450 71000000 		.4byte	.LLST1
 1238 0454 1C       		.uleb128 0x1c
 1239 0455 3D040000 		.4byte	.LASF66
 1240 0459 01       		.byte	0x1
 1241 045a 24       		.byte	0x24
 1242 045b E8000000 		.4byte	0xe8
 1243 045f 92000000 		.4byte	.LLST2
 1244 0463 1D       		.uleb128 0x1d
 1245 0464 656E6400 		.ascii	"end\000"
 1246 0468 01       		.byte	0x1
 1247 0469 25       		.byte	0x25
 1248 046a E8000000 		.4byte	0xe8
 1249 046e E7000000 		.4byte	.LLST3
 1250 0472 1E       		.uleb128 0x1e
 1251 0473 0F050000 		.4byte	.LASF76
 1252 0477 01       		.byte	0x1
 1253 0478 26       		.byte	0x26
 1254 0479 D6000000 		.4byte	0xd6
 1255 047d 1C       		.uleb128 0x1c
 1256 047e 0C040000 		.4byte	.LASF67
 1257 0482 01       		.byte	0x1
 1258 0483 27       		.byte	0x27
 1259 0484 E8000000 		.4byte	0xe8
 1260 0488 05010000 		.4byte	.LLST4
 1261 048c 1D       		.uleb128 0x1d
 1262 048d 72657400 		.ascii	"ret\000"
 1263 0491 01       		.byte	0x1
 1264 0492 28       		.byte	0x28
 1265 0493 E8000000 		.4byte	0xe8
 1266 0497 3D010000 		.4byte	.LLST5
 1267 049b 1C       		.uleb128 0x1c
 1268 049c A6000000 		.4byte	.LASF68
ARM GAS  /tmp/ccIY18GZ.s 			page 24


 1269 04a0 01       		.byte	0x1
 1270 04a1 29       		.byte	0x29
 1271 04a2 99000000 		.4byte	0x99
 1272 04a6 7C010000 		.4byte	.LLST6
 1273 04aa 1F       		.uleb128 0x1f
 1274 04ab FA030000 		.4byte	0x3fa
 1275 04af 62000000 		.4byte	.LBB38
 1276 04b3 02000000 		.4byte	.LBE38-.LBB38
 1277 04b7 01       		.byte	0x1
 1278 04b8 3D       		.byte	0x3d
 1279 04b9 CE040000 		.4byte	0x4ce
 1280 04bd 20       		.uleb128 0x20
 1281 04be E8030000 		.4byte	0x3e8
 1282 04c2 62000000 		.4byte	.LBB39
 1283 04c6 02000000 		.4byte	.LBE39-.LBB39
 1284 04ca 07       		.byte	0x7
 1285 04cb 4B01     		.2byte	0x14b
 1286 04cd 00       		.byte	0
 1287 04ce 1F       		.uleb128 0x1f
 1288 04cf 03040000 		.4byte	0x403
 1289 04d3 74000000 		.4byte	.LBB41
 1290 04d7 02000000 		.4byte	.LBE41-.LBB41
 1291 04db 01       		.byte	0x1
 1292 04dc 40       		.byte	0x40
 1293 04dd F2040000 		.4byte	0x4f2
 1294 04e1 20       		.uleb128 0x20
 1295 04e2 F1030000 		.4byte	0x3f1
 1296 04e6 74000000 		.4byte	.LBB42
 1297 04ea 02000000 		.4byte	.LBE42-.LBB42
 1298 04ee 07       		.byte	0x7
 1299 04ef 5401     		.2byte	0x154
 1300 04f1 00       		.byte	0
 1301 04f2 1F       		.uleb128 0x1f
 1302 04f3 FA030000 		.4byte	0x3fa
 1303 04f7 7C000000 		.4byte	.LBB44
 1304 04fb 02000000 		.4byte	.LBE44-.LBB44
 1305 04ff 01       		.byte	0x1
 1306 0500 4C       		.byte	0x4c
 1307 0501 16050000 		.4byte	0x516
 1308 0505 20       		.uleb128 0x20
 1309 0506 E8030000 		.4byte	0x3e8
 1310 050a 7C000000 		.4byte	.LBB45
 1311 050e 02000000 		.4byte	.LBE45-.LBB45
 1312 0512 07       		.byte	0x7
 1313 0513 4B01     		.2byte	0x14b
 1314 0515 00       		.byte	0
 1315 0516 1F       		.uleb128 0x1f
 1316 0517 03040000 		.4byte	0x403
 1317 051b 94000000 		.4byte	.LBB47
 1318 051f 02000000 		.4byte	.LBE47-.LBB47
 1319 0523 01       		.byte	0x1
 1320 0524 4E       		.byte	0x4e
 1321 0525 3A050000 		.4byte	0x53a
 1322 0529 20       		.uleb128 0x20
 1323 052a F1030000 		.4byte	0x3f1
 1324 052e 94000000 		.4byte	.LBB48
 1325 0532 02000000 		.4byte	.LBE48-.LBB48
ARM GAS  /tmp/ccIY18GZ.s 			page 25


 1326 0536 07       		.byte	0x7
 1327 0537 5401     		.2byte	0x154
 1328 0539 00       		.byte	0
 1329 053a 21       		.uleb128 0x21
 1330 053b 38000000 		.4byte	.LVL4
 1331 053f 1D090000 		.4byte	0x91d
 1332 0543 5D050000 		.4byte	0x55d
 1333 0547 22       		.uleb128 0x22
 1334 0548 01       		.uleb128 0x1
 1335 0549 52       		.byte	0x52
 1336 054a 02       		.uleb128 0x2
 1337 054b 79       		.byte	0x79
 1338 054c 7F       		.sleb128 -1
 1339 054d 22       		.uleb128 0x22
 1340 054e 01       		.uleb128 0x1
 1341 054f 51       		.byte	0x51
 1342 0550 02       		.uleb128 0x2
 1343 0551 76       		.byte	0x76
 1344 0552 00       		.sleb128 0
 1345 0553 22       		.uleb128 0x22
 1346 0554 01       		.uleb128 0x1
 1347 0555 50       		.byte	0x50
 1348 0556 05       		.uleb128 0x5
 1349 0557 03       		.byte	0x3
 1350 0558 70000000 		.4byte	.LC6
 1351 055c 00       		.byte	0
 1352 055d 21       		.uleb128 0x21
 1353 055e 54000000 		.4byte	.LVL6
 1354 0562 1D090000 		.4byte	0x91d
 1355 0566 77050000 		.4byte	0x577
 1356 056a 22       		.uleb128 0x22
 1357 056b 01       		.uleb128 0x1
 1358 056c 51       		.byte	0x51
 1359 056d 02       		.uleb128 0x2
 1360 056e 76       		.byte	0x76
 1361 056f 00       		.sleb128 0
 1362 0570 22       		.uleb128 0x22
 1363 0571 01       		.uleb128 0x1
 1364 0572 50       		.byte	0x50
 1365 0573 02       		.uleb128 0x2
 1366 0574 7B       		.byte	0x7b
 1367 0575 00       		.sleb128 0
 1368 0576 00       		.byte	0
 1369 0577 21       		.uleb128 0x21
 1370 0578 74000000 		.4byte	.LVL9
 1371 057c 2F090000 		.4byte	0x92f
 1372 0580 98050000 		.4byte	0x598
 1373 0584 22       		.uleb128 0x22
 1374 0585 01       		.uleb128 0x1
 1375 0586 52       		.byte	0x52
 1376 0587 03       		.uleb128 0x3
 1377 0588 0A       		.byte	0xa
 1378 0589 0004     		.2byte	0x400
 1379 058b 22       		.uleb128 0x22
 1380 058c 01       		.uleb128 0x1
 1381 058d 51       		.byte	0x51
 1382 058e 02       		.uleb128 0x2
ARM GAS  /tmp/ccIY18GZ.s 			page 26


 1383 058f 75       		.byte	0x75
 1384 0590 00       		.sleb128 0
 1385 0591 22       		.uleb128 0x22
 1386 0592 01       		.uleb128 0x1
 1387 0593 50       		.byte	0x50
 1388 0594 02       		.uleb128 0x2
 1389 0595 77       		.byte	0x77
 1390 0596 00       		.sleb128 0
 1391 0597 00       		.byte	0
 1392 0598 21       		.uleb128 0x21
 1393 0599 92000000 		.4byte	.LVL11
 1394 059d 54090000 		.4byte	0x954
 1395 05a1 BF050000 		.4byte	0x5bf
 1396 05a5 22       		.uleb128 0x22
 1397 05a6 01       		.uleb128 0x1
 1398 05a7 53       		.byte	0x53
 1399 05a8 02       		.uleb128 0x2
 1400 05a9 74       		.byte	0x74
 1401 05aa 00       		.sleb128 0
 1402 05ab 22       		.uleb128 0x22
 1403 05ac 01       		.uleb128 0x1
 1404 05ad 52       		.byte	0x52
 1405 05ae 03       		.uleb128 0x3
 1406 05af 0A       		.byte	0xa
 1407 05b0 0001     		.2byte	0x100
 1408 05b2 22       		.uleb128 0x22
 1409 05b3 01       		.uleb128 0x1
 1410 05b4 51       		.byte	0x51
 1411 05b5 02       		.uleb128 0x2
 1412 05b6 75       		.byte	0x75
 1413 05b7 00       		.sleb128 0
 1414 05b8 22       		.uleb128 0x22
 1415 05b9 01       		.uleb128 0x1
 1416 05ba 50       		.byte	0x50
 1417 05bb 02       		.uleb128 0x2
 1418 05bc 77       		.byte	0x77
 1419 05bd 00       		.sleb128 0
 1420 05be 00       		.byte	0
 1421 05bf 21       		.uleb128 0x21
 1422 05c0 AA000000 		.4byte	.LVL17
 1423 05c4 1D090000 		.4byte	0x91d
 1424 05c8 DC050000 		.4byte	0x5dc
 1425 05cc 22       		.uleb128 0x22
 1426 05cd 01       		.uleb128 0x1
 1427 05ce 52       		.byte	0x52
 1428 05cf 02       		.uleb128 0x2
 1429 05d0 74       		.byte	0x74
 1430 05d1 00       		.sleb128 0
 1431 05d2 22       		.uleb128 0x22
 1432 05d3 01       		.uleb128 0x1
 1433 05d4 50       		.byte	0x50
 1434 05d5 05       		.uleb128 0x5
 1435 05d6 03       		.byte	0x3
 1436 05d7 7C000000 		.4byte	.LC9
 1437 05db 00       		.byte	0
 1438 05dc 21       		.uleb128 0x21
 1439 05dd BA000000 		.4byte	.LVL20
ARM GAS  /tmp/ccIY18GZ.s 			page 27


 1440 05e1 1D090000 		.4byte	0x91d
 1441 05e5 F3050000 		.4byte	0x5f3
 1442 05e9 22       		.uleb128 0x22
 1443 05ea 01       		.uleb128 0x1
 1444 05eb 50       		.byte	0x50
 1445 05ec 05       		.uleb128 0x5
 1446 05ed 03       		.byte	0x3
 1447 05ee B8000000 		.4byte	.LC13
 1448 05f2 00       		.byte	0
 1449 05f3 21       		.uleb128 0x21
 1450 05f4 D8000000 		.4byte	.LVL27
 1451 05f8 1D090000 		.4byte	0x91d
 1452 05fc 10060000 		.4byte	0x610
 1453 0600 22       		.uleb128 0x22
 1454 0601 01       		.uleb128 0x1
 1455 0602 51       		.byte	0x51
 1456 0603 02       		.uleb128 0x2
 1457 0604 79       		.byte	0x79
 1458 0605 00       		.sleb128 0
 1459 0606 22       		.uleb128 0x22
 1460 0607 01       		.uleb128 0x1
 1461 0608 50       		.byte	0x50
 1462 0609 05       		.uleb128 0x5
 1463 060a 03       		.byte	0x3
 1464 060b 28000000 		.4byte	.LC4
 1465 060f 00       		.byte	0
 1466 0610 23       		.uleb128 0x23
 1467 0611 E2000000 		.4byte	.LVL30
 1468 0615 1D090000 		.4byte	0x91d
 1469 0619 22       		.uleb128 0x22
 1470 061a 01       		.uleb128 0x1
 1471 061b 50       		.byte	0x50
 1472 061c 05       		.uleb128 0x5
 1473 061d 03       		.byte	0x3
 1474 061e 00000000 		.4byte	.LC1
 1475 0622 00       		.byte	0
 1476 0623 00       		.byte	0
 1477 0624 24       		.uleb128 0x24
 1478 0625 16050000 		.4byte	.LASF96
 1479 0629 01       		.byte	0x1
 1480 062a 5E       		.byte	0x5e
 1481 062b 00000000 		.4byte	.LFB92
 1482 062f 58000000 		.4byte	.LFE92-.LFB92
 1483 0633 01       		.uleb128 0x1
 1484 0634 9C       		.byte	0x9c
 1485 0635 B4060000 		.4byte	0x6b4
 1486 0639 1D       		.uleb128 0x1d
 1487 063a 72657400 		.ascii	"ret\000"
 1488 063e 01       		.byte	0x1
 1489 063f 5F       		.byte	0x5f
 1490 0640 E8000000 		.4byte	0xe8
 1491 0644 F1010000 		.4byte	.LLST7
 1492 0648 21       		.uleb128 0x21
 1493 0649 10000000 		.4byte	.LVL31
 1494 064d 7E090000 		.4byte	0x97e
 1495 0651 5C060000 		.4byte	0x65c
 1496 0655 22       		.uleb128 0x22
ARM GAS  /tmp/ccIY18GZ.s 			page 28


 1497 0656 01       		.uleb128 0x1
 1498 0657 50       		.byte	0x50
 1499 0658 02       		.uleb128 0x2
 1500 0659 74       		.byte	0x74
 1501 065a 00       		.sleb128 0
 1502 065b 00       		.byte	0
 1503 065c 21       		.uleb128 0x21
 1504 065d 1A000000 		.4byte	.LVL33
 1505 0661 1D090000 		.4byte	0x91d
 1506 0665 73060000 		.4byte	0x673
 1507 0669 22       		.uleb128 0x22
 1508 066a 01       		.uleb128 0x1
 1509 066b 50       		.byte	0x50
 1510 066c 05       		.uleb128 0x5
 1511 066d 03       		.byte	0x3
 1512 066e BC000000 		.4byte	.LC17
 1513 0672 00       		.byte	0
 1514 0673 21       		.uleb128 0x21
 1515 0674 24000000 		.4byte	.LVL34
 1516 0678 93090000 		.4byte	0x993
 1517 067c 99060000 		.4byte	0x699
 1518 0680 22       		.uleb128 0x22
 1519 0681 01       		.uleb128 0x1
 1520 0682 52       		.byte	0x52
 1521 0683 05       		.uleb128 0x5
 1522 0684 03       		.byte	0x3
 1523 0685 00000000 		.4byte	callback
 1524 0689 22       		.uleb128 0x22
 1525 068a 01       		.uleb128 0x1
 1526 068b 51       		.byte	0x51
 1527 068c 02       		.uleb128 0x2
 1528 068d 08       		.byte	0x8
 1529 068e 80       		.byte	0x80
 1530 068f 22       		.uleb128 0x22
 1531 0690 01       		.uleb128 0x1
 1532 0691 50       		.byte	0x50
 1533 0692 05       		.uleb128 0x5
 1534 0693 03       		.byte	0x3
 1535 0694 00000000 		.4byte	.LANCHOR3
 1536 0698 00       		.byte	0
 1537 0699 23       		.uleb128 0x23
 1538 069a 32000000 		.4byte	.LVL35
 1539 069e 93090000 		.4byte	0x993
 1540 06a2 22       		.uleb128 0x22
 1541 06a3 01       		.uleb128 0x1
 1542 06a4 51       		.byte	0x51
 1543 06a5 03       		.uleb128 0x3
 1544 06a6 0A       		.byte	0xa
 1545 06a7 0001     		.2byte	0x100
 1546 06a9 22       		.uleb128 0x22
 1547 06aa 01       		.uleb128 0x1
 1548 06ab 50       		.byte	0x50
 1549 06ac 05       		.uleb128 0x5
 1550 06ad 03       		.byte	0x3
 1551 06ae 00000000 		.4byte	.LANCHOR4
 1552 06b2 00       		.byte	0
 1553 06b3 00       		.byte	0
ARM GAS  /tmp/ccIY18GZ.s 			page 29


 1554 06b4 1A       		.uleb128 0x1a
 1555 06b5 25020000 		.4byte	.LASF70
 1556 06b9 01       		.byte	0x1
 1557 06ba 6E       		.byte	0x6e
 1558 06bb E8000000 		.4byte	0xe8
 1559 06bf 00000000 		.4byte	.LFB93
 1560 06c3 1C000000 		.4byte	.LFE93-.LFB93
 1561 06c7 01       		.uleb128 0x1
 1562 06c8 9C       		.byte	0x9c
 1563 06c9 02070000 		.4byte	0x702
 1564 06cd 25       		.uleb128 0x25
 1565 06ce 45050000 		.4byte	.LASF71
 1566 06d2 01       		.byte	0x1
 1567 06d3 6F       		.byte	0x6f
 1568 06d4 C4000000 		.4byte	0xc4
 1569 06d8 02       		.uleb128 0x2
 1570 06d9 91       		.byte	0x91
 1571 06da 77       		.sleb128 -9
 1572 06db 26       		.uleb128 0x26
 1573 06dc 72657400 		.ascii	"ret\000"
 1574 06e0 01       		.byte	0x1
 1575 06e1 70       		.byte	0x70
 1576 06e2 E8000000 		.4byte	0xe8
 1577 06e6 01       		.uleb128 0x1
 1578 06e7 50       		.byte	0x50
 1579 06e8 23       		.uleb128 0x23
 1580 06e9 12000000 		.4byte	.LVL36
 1581 06ed B2090000 		.4byte	0x9b2
 1582 06f1 22       		.uleb128 0x22
 1583 06f2 01       		.uleb128 0x1
 1584 06f3 51       		.byte	0x51
 1585 06f4 02       		.uleb128 0x2
 1586 06f5 7D       		.byte	0x7d
 1587 06f6 07       		.sleb128 7
 1588 06f7 22       		.uleb128 0x22
 1589 06f8 01       		.uleb128 0x1
 1590 06f9 50       		.byte	0x50
 1591 06fa 05       		.uleb128 0x5
 1592 06fb 03       		.byte	0x3
 1593 06fc 00000000 		.4byte	.LANCHOR0
 1594 0700 00       		.byte	0
 1595 0701 00       		.byte	0
 1596 0702 1A       		.uleb128 0x1a
 1597 0703 2C000000 		.4byte	.LASF72
 1598 0707 01       		.byte	0x1
 1599 0708 7A       		.byte	0x7a
 1600 0709 99000000 		.4byte	0x99
 1601 070d 00000000 		.4byte	.LFB94
 1602 0711 C0000000 		.4byte	.LFE94-.LFB94
 1603 0715 01       		.uleb128 0x1
 1604 0716 9C       		.byte	0x9c
 1605 0717 86080000 		.4byte	0x886
 1606 071b 27       		.uleb128 0x27
 1607 071c 73726300 		.ascii	"src\000"
 1608 0720 01       		.byte	0x1
 1609 0721 7A       		.byte	0x7a
 1610 0722 FA020000 		.4byte	0x2fa
ARM GAS  /tmp/ccIY18GZ.s 			page 30


 1611 0726 04020000 		.4byte	.LLST8
 1612 072a 1B       		.uleb128 0x1b
 1613 072b 27000000 		.4byte	.LASF73
 1614 072f 01       		.byte	0x1
 1615 0730 7A       		.byte	0x7a
 1616 0731 FA020000 		.4byte	0x2fa
 1617 0735 91020000 		.4byte	.LLST9
 1618 0739 1B       		.uleb128 0x1b
 1619 073a CE010000 		.4byte	.LASF74
 1620 073e 01       		.byte	0x1
 1621 073f 7A       		.byte	0x7a
 1622 0740 E8000000 		.4byte	0xe8
 1623 0744 E9020000 		.4byte	.LLST10
 1624 0748 28       		.uleb128 0x28
 1625 0749 A6000000 		.4byte	.LASF68
 1626 074d 01       		.byte	0x1
 1627 074e 7B       		.byte	0x7b
 1628 074f 99000000 		.4byte	0x99
 1629 0753 00       		.byte	0
 1630 0754 1C       		.uleb128 0x1c
 1631 0755 F7030000 		.4byte	.LASF75
 1632 0759 01       		.byte	0x1
 1633 075a 7C       		.byte	0x7c
 1634 075b C4000000 		.4byte	0xc4
 1635 075f 41030000 		.4byte	.LLST11
 1636 0763 29       		.uleb128 0x29
 1637 0764 6900     		.ascii	"i\000"
 1638 0766 01       		.byte	0x1
 1639 0767 7D       		.byte	0x7d
 1640 0768 E8000000 		.4byte	0xe8
 1641 076c 1D       		.uleb128 0x1d
 1642 076d 72657400 		.ascii	"ret\000"
 1643 0771 01       		.byte	0x1
 1644 0772 7E       		.byte	0x7e
 1645 0773 E8000000 		.4byte	0xe8
 1646 0777 61030000 		.4byte	.LLST12
 1647 077b 25       		.uleb128 0x25
 1648 077c BD010000 		.4byte	.LASF77
 1649 0780 01       		.byte	0x1
 1650 0781 7F       		.byte	0x7f
 1651 0782 E8000000 		.4byte	0xe8
 1652 0786 02       		.uleb128 0x2
 1653 0787 91       		.byte	0x91
 1654 0788 64       		.sleb128 -28
 1655 0789 1F       		.uleb128 0x1f
 1656 078a FA030000 		.4byte	0x3fa
 1657 078e 52000000 		.4byte	.LBB50
 1658 0792 02000000 		.4byte	.LBE50-.LBB50
 1659 0796 01       		.byte	0x1
 1660 0797 98       		.byte	0x98
 1661 0798 AD070000 		.4byte	0x7ad
 1662 079c 20       		.uleb128 0x20
 1663 079d E8030000 		.4byte	0x3e8
 1664 07a1 52000000 		.4byte	.LBB51
 1665 07a5 02000000 		.4byte	.LBE51-.LBB51
 1666 07a9 07       		.byte	0x7
 1667 07aa 4B01     		.2byte	0x14b
ARM GAS  /tmp/ccIY18GZ.s 			page 31


 1668 07ac 00       		.byte	0
 1669 07ad 1F       		.uleb128 0x1f
 1670 07ae 03040000 		.4byte	0x403
 1671 07b2 62000000 		.4byte	.LBB53
 1672 07b6 02000000 		.4byte	.LBE53-.LBB53
 1673 07ba 01       		.byte	0x1
 1674 07bb 9A       		.byte	0x9a
 1675 07bc D1070000 		.4byte	0x7d1
 1676 07c0 20       		.uleb128 0x20
 1677 07c1 F1030000 		.4byte	0x3f1
 1678 07c5 62000000 		.4byte	.LBB54
 1679 07c9 02000000 		.4byte	.LBE54-.LBB54
 1680 07cd 07       		.byte	0x7
 1681 07ce 5401     		.2byte	0x154
 1682 07d0 00       		.byte	0
 1683 07d1 1F       		.uleb128 0x1f
 1684 07d2 FA030000 		.4byte	0x3fa
 1685 07d6 68000000 		.4byte	.LBB56
 1686 07da 02000000 		.4byte	.LBE56-.LBB56
 1687 07de 01       		.byte	0x1
 1688 07df A1       		.byte	0xa1
 1689 07e0 F5070000 		.4byte	0x7f5
 1690 07e4 20       		.uleb128 0x20
 1691 07e5 E8030000 		.4byte	0x3e8
 1692 07e9 68000000 		.4byte	.LBB57
 1693 07ed 02000000 		.4byte	.LBE57-.LBB57
 1694 07f1 07       		.byte	0x7
 1695 07f2 4B01     		.2byte	0x14b
 1696 07f4 00       		.byte	0
 1697 07f5 1F       		.uleb128 0x1f
 1698 07f6 03040000 		.4byte	0x403
 1699 07fa 82000000 		.4byte	.LBB59
 1700 07fe 02000000 		.4byte	.LBE59-.LBB59
 1701 0802 01       		.byte	0x1
 1702 0803 A4       		.byte	0xa4
 1703 0804 19080000 		.4byte	0x819
 1704 0808 20       		.uleb128 0x20
 1705 0809 F1030000 		.4byte	0x3f1
 1706 080d 82000000 		.4byte	.LBB60
 1707 0811 02000000 		.4byte	.LBE60-.LBB60
 1708 0815 07       		.byte	0x7
 1709 0816 5401     		.2byte	0x154
 1710 0818 00       		.byte	0
 1711 0819 21       		.uleb128 0x21
 1712 081a 62000000 		.4byte	.LVL41
 1713 081e CD090000 		.4byte	0x9cd
 1714 0822 3F080000 		.4byte	0x83f
 1715 0826 22       		.uleb128 0x22
 1716 0827 01       		.uleb128 0x1
 1717 0828 53       		.byte	0x53
 1718 0829 02       		.uleb128 0x2
 1719 082a 74       		.byte	0x74
 1720 082b 00       		.sleb128 0
 1721 082c 22       		.uleb128 0x22
 1722 082d 01       		.uleb128 0x1
 1723 082e 52       		.byte	0x52
 1724 082f 02       		.uleb128 0x2
ARM GAS  /tmp/ccIY18GZ.s 			page 32


 1725 0830 75       		.byte	0x75
 1726 0831 00       		.sleb128 0
 1727 0832 22       		.uleb128 0x22
 1728 0833 01       		.uleb128 0x1
 1729 0834 51       		.byte	0x51
 1730 0835 02       		.uleb128 0x2
 1731 0836 76       		.byte	0x76
 1732 0837 00       		.sleb128 0
 1733 0838 22       		.uleb128 0x22
 1734 0839 01       		.uleb128 0x1
 1735 083a 50       		.byte	0x50
 1736 083b 02       		.uleb128 0x2
 1737 083c 78       		.byte	0x78
 1738 083d 00       		.sleb128 0
 1739 083e 00       		.byte	0
 1740 083f 21       		.uleb128 0x21
 1741 0840 82000000 		.4byte	.LVL43
 1742 0844 F7090000 		.4byte	0x9f7
 1743 0848 72080000 		.4byte	0x872
 1744 084c 22       		.uleb128 0x22
 1745 084d 01       		.uleb128 0x1
 1746 084e 53       		.byte	0x53
 1747 084f 02       		.uleb128 0x2
 1748 0850 74       		.byte	0x74
 1749 0851 00       		.sleb128 0
 1750 0852 22       		.uleb128 0x22
 1751 0853 01       		.uleb128 0x1
 1752 0854 52       		.byte	0x52
 1753 0855 02       		.uleb128 0x2
 1754 0856 75       		.byte	0x75
 1755 0857 00       		.sleb128 0
 1756 0858 22       		.uleb128 0x22
 1757 0859 01       		.uleb128 0x1
 1758 085a 51       		.byte	0x51
 1759 085b 02       		.uleb128 0x2
 1760 085c 76       		.byte	0x76
 1761 085d 00       		.sleb128 0
 1762 085e 22       		.uleb128 0x22
 1763 085f 01       		.uleb128 0x1
 1764 0860 50       		.byte	0x50
 1765 0861 02       		.uleb128 0x2
 1766 0862 78       		.byte	0x78
 1767 0863 00       		.sleb128 0
 1768 0864 22       		.uleb128 0x22
 1769 0865 02       		.uleb128 0x2
 1770 0866 7D       		.byte	0x7d
 1771 0867 04       		.sleb128 4
 1772 0868 01       		.uleb128 0x1
 1773 0869 31       		.byte	0x31
 1774 086a 22       		.uleb128 0x22
 1775 086b 02       		.uleb128 0x2
 1776 086c 7D       		.byte	0x7d
 1777 086d 00       		.sleb128 0
 1778 086e 02       		.uleb128 0x2
 1779 086f 91       		.byte	0x91
 1780 0870 64       		.sleb128 -28
 1781 0871 00       		.byte	0
ARM GAS  /tmp/ccIY18GZ.s 			page 33


 1782 0872 23       		.uleb128 0x23
 1783 0873 A0000000 		.4byte	.LVL49
 1784 0877 1D090000 		.4byte	0x91d
 1785 087b 22       		.uleb128 0x22
 1786 087c 01       		.uleb128 0x1
 1787 087d 50       		.byte	0x50
 1788 087e 05       		.uleb128 0x5
 1789 087f 03       		.byte	0x3
 1790 0880 D0000000 		.4byte	.LC30
 1791 0884 00       		.byte	0
 1792 0885 00       		.byte	0
 1793 0886 2A       		.uleb128 0x2a
 1794 0887 6E696C00 		.ascii	"nil\000"
 1795 088b 03       		.byte	0x3
 1796 088c C203     		.2byte	0x3c2
 1797 088e 8A020000 		.4byte	0x28a
 1798 0892 12       		.uleb128 0x12
 1799 0893 E8000000 		.4byte	0xe8
 1800 0897 9D080000 		.4byte	0x89d
 1801 089b 2B       		.uleb128 0x2b
 1802 089c 00       		.byte	0
 1803 089d 2C       		.uleb128 0x2c
 1804 089e DE010000 		.4byte	.LASF78
 1805 08a2 09       		.byte	0x9
 1806 08a3 27       		.byte	0x27
 1807 08a4 92080000 		.4byte	0x892
 1808 08a8 2D       		.uleb128 0x2d
 1809 08a9 AA020000 		.4byte	.LASF79
 1810 08ad 01       		.byte	0x1
 1811 08ae 09       		.byte	0x9
 1812 08af E8000000 		.4byte	0xe8
 1813 08b3 05       		.uleb128 0x5
 1814 08b4 03       		.byte	0x3
 1815 08b5 00000000 		.4byte	gCallBackCnt
 1816 08b9 2D       		.uleb128 0x2d
 1817 08ba 59000000 		.4byte	.LASF80
 1818 08be 01       		.byte	0x1
 1819 08bf 0A       		.byte	0xa
 1820 08c0 AE030000 		.4byte	0x3ae
 1821 08c4 05       		.uleb128 0x5
 1822 08c5 03       		.byte	0x3
 1823 08c6 00000000 		.4byte	g_FlashLaunchCommand
 1824 08ca 12       		.uleb128 0x12
 1825 08cb D6000000 		.4byte	0xd6
 1826 08cf DA080000 		.4byte	0x8da
 1827 08d3 13       		.uleb128 0x13
 1828 08d4 3C010000 		.4byte	0x13c
 1829 08d8 7F       		.byte	0x7f
 1830 08d9 00       		.byte	0
 1831 08da 2D       		.uleb128 0x2d
 1832 08db 84040000 		.4byte	.LASF81
 1833 08df 01       		.byte	0x1
 1834 08e0 0D       		.byte	0xd
 1835 08e1 CA080000 		.4byte	0x8ca
 1836 08e5 05       		.uleb128 0x5
 1837 08e6 03       		.byte	0x3
 1838 08e7 00000000 		.4byte	__ram_func
ARM GAS  /tmp/ccIY18GZ.s 			page 34


 1839 08eb 12       		.uleb128 0x12
 1840 08ec D6000000 		.4byte	0xd6
 1841 08f0 FB080000 		.4byte	0x8fb
 1842 08f4 13       		.uleb128 0x13
 1843 08f5 3C010000 		.4byte	0x13c
 1844 08f9 3F       		.byte	0x3f
 1845 08fa 00       		.byte	0
 1846 08fb 2D       		.uleb128 0x2d
 1847 08fc 22030000 		.4byte	.LASF82
 1848 0900 01       		.byte	0x1
 1849 0901 0E       		.byte	0xe
 1850 0902 EB080000 		.4byte	0x8eb
 1851 0906 05       		.uleb128 0x5
 1852 0907 03       		.byte	0x3
 1853 0908 00000000 		.4byte	__ram_for_callback
 1854 090c 2D       		.uleb128 0x2d
 1855 090d 11000000 		.4byte	.LASF83
 1856 0911 01       		.byte	0x1
 1857 0912 14       		.byte	0x14
 1858 0913 92030000 		.4byte	0x392
 1859 0917 05       		.uleb128 0x5
 1860 0918 03       		.byte	0x3
 1861 0919 00000000 		.4byte	flashSSDConfig
 1862 091d 2E       		.uleb128 0x2e
 1863 091e 49040000 		.4byte	.LASF90
 1864 0922 0B       		.byte	0xb
 1865 0923 62       		.byte	0x62
 1866 0924 2F090000 		.4byte	0x92f
 1867 0928 17       		.uleb128 0x17
 1868 0929 E2030000 		.4byte	0x3e2
 1869 092d 2F       		.uleb128 0x2f
 1870 092e 00       		.byte	0
 1871 092f 30       		.uleb128 0x30
 1872 0930 79030000 		.4byte	.LASF84
 1873 0934 0A       		.byte	0xa
 1874 0935 8D01     		.2byte	0x18d
 1875 0937 E8000000 		.4byte	0xe8
 1876 093b 54090000 		.4byte	0x954
 1877 093f 17       		.uleb128 0x17
 1878 0940 9D030000 		.4byte	0x39d
 1879 0944 17       		.uleb128 0x17
 1880 0945 E8000000 		.4byte	0xe8
 1881 0949 17       		.uleb128 0x17
 1882 094a E8000000 		.4byte	0xe8
 1883 094e 17       		.uleb128 0x17
 1884 094f AE030000 		.4byte	0x3ae
 1885 0953 00       		.byte	0
 1886 0954 30       		.uleb128 0x30
 1887 0955 F0010000 		.4byte	.LASF85
 1888 0959 0A       		.byte	0xa
 1889 095a A401     		.2byte	0x1a4
 1890 095c E8000000 		.4byte	0xe8
 1891 0960 7E090000 		.4byte	0x97e
 1892 0964 17       		.uleb128 0x17
 1893 0965 9D030000 		.4byte	0x39d
 1894 0969 17       		.uleb128 0x17
 1895 096a E8000000 		.4byte	0xe8
ARM GAS  /tmp/ccIY18GZ.s 			page 35


 1896 096e 17       		.uleb128 0x17
 1897 096f D6000000 		.4byte	0xd6
 1898 0973 17       		.uleb128 0x17
 1899 0974 C4000000 		.4byte	0xc4
 1900 0978 17       		.uleb128 0x17
 1901 0979 AE030000 		.4byte	0x3ae
 1902 097d 00       		.byte	0
 1903 097e 31       		.uleb128 0x31
 1904 097f D4010000 		.4byte	.LASF86
 1905 0983 0A       		.byte	0xa
 1906 0984 FD       		.byte	0xfd
 1907 0985 E8000000 		.4byte	0xe8
 1908 0989 93090000 		.4byte	0x993
 1909 098d 17       		.uleb128 0x17
 1910 098e 9D030000 		.4byte	0x39d
 1911 0992 00       		.byte	0
 1912 0993 31       		.uleb128 0x31
 1913 0994 6E040000 		.4byte	.LASF87
 1914 0998 01       		.byte	0x1
 1915 0999 11       		.byte	0x11
 1916 099a E8000000 		.4byte	0xe8
 1917 099e B2090000 		.4byte	0x9b2
 1918 09a2 17       		.uleb128 0x17
 1919 09a3 E8000000 		.4byte	0xe8
 1920 09a7 17       		.uleb128 0x17
 1921 09a8 E8000000 		.4byte	0xe8
 1922 09ac 17       		.uleb128 0x17
 1923 09ad E8000000 		.4byte	0xe8
 1924 09b1 00       		.byte	0
 1925 09b2 30       		.uleb128 0x30
 1926 09b3 21050000 		.4byte	.LASF88
 1927 09b7 0A       		.byte	0xa
 1928 09b8 4901     		.2byte	0x149
 1929 09ba E8000000 		.4byte	0xe8
 1930 09be CD090000 		.4byte	0x9cd
 1931 09c2 17       		.uleb128 0x17
 1932 09c3 9D030000 		.4byte	0x39d
 1933 09c7 17       		.uleb128 0x17
 1934 09c8 FA020000 		.4byte	0x2fa
 1935 09cc 00       		.byte	0
 1936 09cd 30       		.uleb128 0x30
 1937 09ce 1E040000 		.4byte	.LASF89
 1938 09d2 0A       		.byte	0xa
 1939 09d3 0B02     		.2byte	0x20b
 1940 09d5 E8000000 		.4byte	0xe8
 1941 09d9 F7090000 		.4byte	0x9f7
 1942 09dd 17       		.uleb128 0x17
 1943 09de 9D030000 		.4byte	0x39d
 1944 09e2 17       		.uleb128 0x17
 1945 09e3 E8000000 		.4byte	0xe8
 1946 09e7 17       		.uleb128 0x17
 1947 09e8 E8000000 		.4byte	0xe8
 1948 09ec 17       		.uleb128 0x17
 1949 09ed FA020000 		.4byte	0x2fa
 1950 09f1 17       		.uleb128 0x17
 1951 09f2 AE030000 		.4byte	0x3ae
 1952 09f6 00       		.byte	0
ARM GAS  /tmp/ccIY18GZ.s 			page 36


 1953 09f7 32       		.uleb128 0x32
 1954 09f8 D3040000 		.4byte	.LASF91
 1955 09fc 0A       		.byte	0xa
 1956 09fd 2502     		.2byte	0x225
 1957 09ff E8000000 		.4byte	0xe8
 1958 0a03 17       		.uleb128 0x17
 1959 0a04 9D030000 		.4byte	0x39d
 1960 0a08 17       		.uleb128 0x17
 1961 0a09 E8000000 		.4byte	0xe8
 1962 0a0d 17       		.uleb128 0x17
 1963 0a0e E8000000 		.4byte	0xe8
 1964 0a12 17       		.uleb128 0x17
 1965 0a13 FA020000 		.4byte	0x2fa
 1966 0a17 17       		.uleb128 0x17
 1967 0a18 CE030000 		.4byte	0x3ce
 1968 0a1c 17       		.uleb128 0x17
 1969 0a1d C4000000 		.4byte	0xc4
 1970 0a21 17       		.uleb128 0x17
 1971 0a22 AE030000 		.4byte	0x3ae
 1972 0a26 00       		.byte	0
 1973 0a27 00       		.byte	0
 1974              		.section	.debug_abbrev,"",%progbits
 1975              	.Ldebug_abbrev0:
 1976 0000 01       		.uleb128 0x1
 1977 0001 11       		.uleb128 0x11
 1978 0002 01       		.byte	0x1
 1979 0003 25       		.uleb128 0x25
 1980 0004 0E       		.uleb128 0xe
 1981 0005 13       		.uleb128 0x13
 1982 0006 0B       		.uleb128 0xb
 1983 0007 03       		.uleb128 0x3
 1984 0008 0E       		.uleb128 0xe
 1985 0009 1B       		.uleb128 0x1b
 1986 000a 0E       		.uleb128 0xe
 1987 000b 55       		.uleb128 0x55
 1988 000c 17       		.uleb128 0x17
 1989 000d 11       		.uleb128 0x11
 1990 000e 01       		.uleb128 0x1
 1991 000f 10       		.uleb128 0x10
 1992 0010 17       		.uleb128 0x17
 1993 0011 00       		.byte	0
 1994 0012 00       		.byte	0
 1995 0013 02       		.uleb128 0x2
 1996 0014 16       		.uleb128 0x16
 1997 0015 00       		.byte	0
 1998 0016 03       		.uleb128 0x3
 1999 0017 0E       		.uleb128 0xe
 2000 0018 3A       		.uleb128 0x3a
 2001 0019 0B       		.uleb128 0xb
 2002 001a 3B       		.uleb128 0x3b
 2003 001b 0B       		.uleb128 0xb
 2004 001c 49       		.uleb128 0x49
 2005 001d 13       		.uleb128 0x13
 2006 001e 00       		.byte	0
 2007 001f 00       		.byte	0
 2008 0020 03       		.uleb128 0x3
 2009 0021 13       		.uleb128 0x13
ARM GAS  /tmp/ccIY18GZ.s 			page 37


 2010 0022 01       		.byte	0x1
 2011 0023 03       		.uleb128 0x3
 2012 0024 0E       		.uleb128 0xe
 2013 0025 0B       		.uleb128 0xb
 2014 0026 0B       		.uleb128 0xb
 2015 0027 3A       		.uleb128 0x3a
 2016 0028 0B       		.uleb128 0xb
 2017 0029 3B       		.uleb128 0x3b
 2018 002a 05       		.uleb128 0x5
 2019 002b 01       		.uleb128 0x1
 2020 002c 13       		.uleb128 0x13
 2021 002d 00       		.byte	0
 2022 002e 00       		.byte	0
 2023 002f 04       		.uleb128 0x4
 2024 0030 0D       		.uleb128 0xd
 2025 0031 00       		.byte	0
 2026 0032 03       		.uleb128 0x3
 2027 0033 0E       		.uleb128 0xe
 2028 0034 3A       		.uleb128 0x3a
 2029 0035 0B       		.uleb128 0xb
 2030 0036 3B       		.uleb128 0x3b
 2031 0037 05       		.uleb128 0x5
 2032 0038 49       		.uleb128 0x49
 2033 0039 13       		.uleb128 0x13
 2034 003a 38       		.uleb128 0x38
 2035 003b 0B       		.uleb128 0xb
 2036 003c 00       		.byte	0
 2037 003d 00       		.byte	0
 2038 003e 05       		.uleb128 0x5
 2039 003f 0D       		.uleb128 0xd
 2040 0040 00       		.byte	0
 2041 0041 03       		.uleb128 0x3
 2042 0042 08       		.uleb128 0x8
 2043 0043 3A       		.uleb128 0x3a
 2044 0044 0B       		.uleb128 0xb
 2045 0045 3B       		.uleb128 0x3b
 2046 0046 05       		.uleb128 0x5
 2047 0047 49       		.uleb128 0x49
 2048 0048 13       		.uleb128 0x13
 2049 0049 38       		.uleb128 0x38
 2050 004a 0B       		.uleb128 0xb
 2051 004b 00       		.byte	0
 2052 004c 00       		.byte	0
 2053 004d 06       		.uleb128 0x6
 2054 004e 24       		.uleb128 0x24
 2055 004f 00       		.byte	0
 2056 0050 0B       		.uleb128 0xb
 2057 0051 0B       		.uleb128 0xb
 2058 0052 3E       		.uleb128 0x3e
 2059 0053 0B       		.uleb128 0xb
 2060 0054 03       		.uleb128 0x3
 2061 0055 08       		.uleb128 0x8
 2062 0056 00       		.byte	0
 2063 0057 00       		.byte	0
 2064 0058 07       		.uleb128 0x7
 2065 0059 24       		.uleb128 0x24
 2066 005a 00       		.byte	0
ARM GAS  /tmp/ccIY18GZ.s 			page 38


 2067 005b 0B       		.uleb128 0xb
 2068 005c 0B       		.uleb128 0xb
 2069 005d 3E       		.uleb128 0x3e
 2070 005e 0B       		.uleb128 0xb
 2071 005f 03       		.uleb128 0x3
 2072 0060 0E       		.uleb128 0xe
 2073 0061 00       		.byte	0
 2074 0062 00       		.byte	0
 2075 0063 08       		.uleb128 0x8
 2076 0064 0F       		.uleb128 0xf
 2077 0065 00       		.byte	0
 2078 0066 0B       		.uleb128 0xb
 2079 0067 0B       		.uleb128 0xb
 2080 0068 00       		.byte	0
 2081 0069 00       		.byte	0
 2082 006a 09       		.uleb128 0x9
 2083 006b 13       		.uleb128 0x13
 2084 006c 01       		.byte	0x1
 2085 006d 03       		.uleb128 0x3
 2086 006e 0E       		.uleb128 0xe
 2087 006f 0B       		.uleb128 0xb
 2088 0070 0B       		.uleb128 0xb
 2089 0071 3A       		.uleb128 0x3a
 2090 0072 0B       		.uleb128 0xb
 2091 0073 3B       		.uleb128 0x3b
 2092 0074 0B       		.uleb128 0xb
 2093 0075 01       		.uleb128 0x1
 2094 0076 13       		.uleb128 0x13
 2095 0077 00       		.byte	0
 2096 0078 00       		.byte	0
 2097 0079 0A       		.uleb128 0xa
 2098 007a 0D       		.uleb128 0xd
 2099 007b 00       		.byte	0
 2100 007c 03       		.uleb128 0x3
 2101 007d 08       		.uleb128 0x8
 2102 007e 3A       		.uleb128 0x3a
 2103 007f 0B       		.uleb128 0xb
 2104 0080 3B       		.uleb128 0x3b
 2105 0081 0B       		.uleb128 0xb
 2106 0082 49       		.uleb128 0x49
 2107 0083 13       		.uleb128 0x13
 2108 0084 38       		.uleb128 0x38
 2109 0085 0B       		.uleb128 0xb
 2110 0086 00       		.byte	0
 2111 0087 00       		.byte	0
 2112 0088 0B       		.uleb128 0xb
 2113 0089 16       		.uleb128 0x16
 2114 008a 00       		.byte	0
 2115 008b 03       		.uleb128 0x3
 2116 008c 0E       		.uleb128 0xe
 2117 008d 3A       		.uleb128 0x3a
 2118 008e 0B       		.uleb128 0xb
 2119 008f 3B       		.uleb128 0x3b
 2120 0090 05       		.uleb128 0x5
 2121 0091 49       		.uleb128 0x49
 2122 0092 13       		.uleb128 0x13
 2123 0093 00       		.byte	0
ARM GAS  /tmp/ccIY18GZ.s 			page 39


 2124 0094 00       		.byte	0
 2125 0095 0C       		.uleb128 0xc
 2126 0096 35       		.uleb128 0x35
 2127 0097 00       		.byte	0
 2128 0098 49       		.uleb128 0x49
 2129 0099 13       		.uleb128 0x13
 2130 009a 00       		.byte	0
 2131 009b 00       		.byte	0
 2132 009c 0D       		.uleb128 0xd
 2133 009d 0F       		.uleb128 0xf
 2134 009e 00       		.byte	0
 2135 009f 0B       		.uleb128 0xb
 2136 00a0 0B       		.uleb128 0xb
 2137 00a1 49       		.uleb128 0x49
 2138 00a2 13       		.uleb128 0x13
 2139 00a3 00       		.byte	0
 2140 00a4 00       		.byte	0
 2141 00a5 0E       		.uleb128 0xe
 2142 00a6 26       		.uleb128 0x26
 2143 00a7 00       		.byte	0
 2144 00a8 49       		.uleb128 0x49
 2145 00a9 13       		.uleb128 0x13
 2146 00aa 00       		.byte	0
 2147 00ab 00       		.byte	0
 2148 00ac 0F       		.uleb128 0xf
 2149 00ad 17       		.uleb128 0x17
 2150 00ae 01       		.byte	0x1
 2151 00af 0B       		.uleb128 0xb
 2152 00b0 0B       		.uleb128 0xb
 2153 00b1 3A       		.uleb128 0x3a
 2154 00b2 0B       		.uleb128 0xb
 2155 00b3 3B       		.uleb128 0x3b
 2156 00b4 05       		.uleb128 0x5
 2157 00b5 01       		.uleb128 0x1
 2158 00b6 13       		.uleb128 0x13
 2159 00b7 00       		.byte	0
 2160 00b8 00       		.byte	0
 2161 00b9 10       		.uleb128 0x10
 2162 00ba 0D       		.uleb128 0xd
 2163 00bb 00       		.byte	0
 2164 00bc 03       		.uleb128 0x3
 2165 00bd 08       		.uleb128 0x8
 2166 00be 3A       		.uleb128 0x3a
 2167 00bf 0B       		.uleb128 0xb
 2168 00c0 3B       		.uleb128 0x3b
 2169 00c1 05       		.uleb128 0x5
 2170 00c2 49       		.uleb128 0x49
 2171 00c3 13       		.uleb128 0x13
 2172 00c4 00       		.byte	0
 2173 00c5 00       		.byte	0
 2174 00c6 11       		.uleb128 0x11
 2175 00c7 0D       		.uleb128 0xd
 2176 00c8 00       		.byte	0
 2177 00c9 03       		.uleb128 0x3
 2178 00ca 0E       		.uleb128 0xe
 2179 00cb 3A       		.uleb128 0x3a
 2180 00cc 0B       		.uleb128 0xb
ARM GAS  /tmp/ccIY18GZ.s 			page 40


 2181 00cd 3B       		.uleb128 0x3b
 2182 00ce 05       		.uleb128 0x5
 2183 00cf 49       		.uleb128 0x49
 2184 00d0 13       		.uleb128 0x13
 2185 00d1 00       		.byte	0
 2186 00d2 00       		.byte	0
 2187 00d3 12       		.uleb128 0x12
 2188 00d4 01       		.uleb128 0x1
 2189 00d5 01       		.byte	0x1
 2190 00d6 49       		.uleb128 0x49
 2191 00d7 13       		.uleb128 0x13
 2192 00d8 01       		.uleb128 0x1
 2193 00d9 13       		.uleb128 0x13
 2194 00da 00       		.byte	0
 2195 00db 00       		.byte	0
 2196 00dc 13       		.uleb128 0x13
 2197 00dd 21       		.uleb128 0x21
 2198 00de 00       		.byte	0
 2199 00df 49       		.uleb128 0x49
 2200 00e0 13       		.uleb128 0x13
 2201 00e1 2F       		.uleb128 0x2f
 2202 00e2 0B       		.uleb128 0xb
 2203 00e3 00       		.byte	0
 2204 00e4 00       		.byte	0
 2205 00e5 14       		.uleb128 0x14
 2206 00e6 15       		.uleb128 0x15
 2207 00e7 00       		.byte	0
 2208 00e8 27       		.uleb128 0x27
 2209 00e9 19       		.uleb128 0x19
 2210 00ea 00       		.byte	0
 2211 00eb 00       		.byte	0
 2212 00ec 15       		.uleb128 0x15
 2213 00ed 0D       		.uleb128 0xd
 2214 00ee 00       		.byte	0
 2215 00ef 03       		.uleb128 0x3
 2216 00f0 0E       		.uleb128 0xe
 2217 00f1 3A       		.uleb128 0x3a
 2218 00f2 0B       		.uleb128 0xb
 2219 00f3 3B       		.uleb128 0x3b
 2220 00f4 0B       		.uleb128 0xb
 2221 00f5 49       		.uleb128 0x49
 2222 00f6 13       		.uleb128 0x13
 2223 00f7 38       		.uleb128 0x38
 2224 00f8 0B       		.uleb128 0xb
 2225 00f9 00       		.byte	0
 2226 00fa 00       		.byte	0
 2227 00fb 16       		.uleb128 0x16
 2228 00fc 15       		.uleb128 0x15
 2229 00fd 01       		.byte	0x1
 2230 00fe 27       		.uleb128 0x27
 2231 00ff 19       		.uleb128 0x19
 2232 0100 49       		.uleb128 0x49
 2233 0101 13       		.uleb128 0x13
 2234 0102 01       		.uleb128 0x1
 2235 0103 13       		.uleb128 0x13
 2236 0104 00       		.byte	0
 2237 0105 00       		.byte	0
ARM GAS  /tmp/ccIY18GZ.s 			page 41


 2238 0106 17       		.uleb128 0x17
 2239 0107 05       		.uleb128 0x5
 2240 0108 00       		.byte	0
 2241 0109 49       		.uleb128 0x49
 2242 010a 13       		.uleb128 0x13
 2243 010b 00       		.byte	0
 2244 010c 00       		.byte	0
 2245 010d 18       		.uleb128 0x18
 2246 010e 2E       		.uleb128 0x2e
 2247 010f 00       		.byte	0
 2248 0110 03       		.uleb128 0x3
 2249 0111 0E       		.uleb128 0xe
 2250 0112 3A       		.uleb128 0x3a
 2251 0113 0B       		.uleb128 0xb
 2252 0114 3B       		.uleb128 0x3b
 2253 0115 05       		.uleb128 0x5
 2254 0116 27       		.uleb128 0x27
 2255 0117 19       		.uleb128 0x19
 2256 0118 20       		.uleb128 0x20
 2257 0119 0B       		.uleb128 0xb
 2258 011a 00       		.byte	0
 2259 011b 00       		.byte	0
 2260 011c 19       		.uleb128 0x19
 2261 011d 2E       		.uleb128 0x2e
 2262 011e 00       		.byte	0
 2263 011f 03       		.uleb128 0x3
 2264 0120 0E       		.uleb128 0xe
 2265 0121 3A       		.uleb128 0x3a
 2266 0122 0B       		.uleb128 0xb
 2267 0123 3B       		.uleb128 0x3b
 2268 0124 0B       		.uleb128 0xb
 2269 0125 27       		.uleb128 0x27
 2270 0126 19       		.uleb128 0x19
 2271 0127 11       		.uleb128 0x11
 2272 0128 01       		.uleb128 0x1
 2273 0129 12       		.uleb128 0x12
 2274 012a 06       		.uleb128 0x6
 2275 012b 40       		.uleb128 0x40
 2276 012c 18       		.uleb128 0x18
 2277 012d 9742     		.uleb128 0x2117
 2278 012f 19       		.uleb128 0x19
 2279 0130 00       		.byte	0
 2280 0131 00       		.byte	0
 2281 0132 1A       		.uleb128 0x1a
 2282 0133 2E       		.uleb128 0x2e
 2283 0134 01       		.byte	0x1
 2284 0135 3F       		.uleb128 0x3f
 2285 0136 19       		.uleb128 0x19
 2286 0137 03       		.uleb128 0x3
 2287 0138 0E       		.uleb128 0xe
 2288 0139 3A       		.uleb128 0x3a
 2289 013a 0B       		.uleb128 0xb
 2290 013b 3B       		.uleb128 0x3b
 2291 013c 0B       		.uleb128 0xb
 2292 013d 27       		.uleb128 0x27
 2293 013e 19       		.uleb128 0x19
 2294 013f 49       		.uleb128 0x49
ARM GAS  /tmp/ccIY18GZ.s 			page 42


 2295 0140 13       		.uleb128 0x13
 2296 0141 11       		.uleb128 0x11
 2297 0142 01       		.uleb128 0x1
 2298 0143 12       		.uleb128 0x12
 2299 0144 06       		.uleb128 0x6
 2300 0145 40       		.uleb128 0x40
 2301 0146 18       		.uleb128 0x18
 2302 0147 9742     		.uleb128 0x2117
 2303 0149 19       		.uleb128 0x19
 2304 014a 01       		.uleb128 0x1
 2305 014b 13       		.uleb128 0x13
 2306 014c 00       		.byte	0
 2307 014d 00       		.byte	0
 2308 014e 1B       		.uleb128 0x1b
 2309 014f 05       		.uleb128 0x5
 2310 0150 00       		.byte	0
 2311 0151 03       		.uleb128 0x3
 2312 0152 0E       		.uleb128 0xe
 2313 0153 3A       		.uleb128 0x3a
 2314 0154 0B       		.uleb128 0xb
 2315 0155 3B       		.uleb128 0x3b
 2316 0156 0B       		.uleb128 0xb
 2317 0157 49       		.uleb128 0x49
 2318 0158 13       		.uleb128 0x13
 2319 0159 02       		.uleb128 0x2
 2320 015a 17       		.uleb128 0x17
 2321 015b 00       		.byte	0
 2322 015c 00       		.byte	0
 2323 015d 1C       		.uleb128 0x1c
 2324 015e 34       		.uleb128 0x34
 2325 015f 00       		.byte	0
 2326 0160 03       		.uleb128 0x3
 2327 0161 0E       		.uleb128 0xe
 2328 0162 3A       		.uleb128 0x3a
 2329 0163 0B       		.uleb128 0xb
 2330 0164 3B       		.uleb128 0x3b
 2331 0165 0B       		.uleb128 0xb
 2332 0166 49       		.uleb128 0x49
 2333 0167 13       		.uleb128 0x13
 2334 0168 02       		.uleb128 0x2
 2335 0169 17       		.uleb128 0x17
 2336 016a 00       		.byte	0
 2337 016b 00       		.byte	0
 2338 016c 1D       		.uleb128 0x1d
 2339 016d 34       		.uleb128 0x34
 2340 016e 00       		.byte	0
 2341 016f 03       		.uleb128 0x3
 2342 0170 08       		.uleb128 0x8
 2343 0171 3A       		.uleb128 0x3a
 2344 0172 0B       		.uleb128 0xb
 2345 0173 3B       		.uleb128 0x3b
 2346 0174 0B       		.uleb128 0xb
 2347 0175 49       		.uleb128 0x49
 2348 0176 13       		.uleb128 0x13
 2349 0177 02       		.uleb128 0x2
 2350 0178 17       		.uleb128 0x17
 2351 0179 00       		.byte	0
ARM GAS  /tmp/ccIY18GZ.s 			page 43


 2352 017a 00       		.byte	0
 2353 017b 1E       		.uleb128 0x1e
 2354 017c 34       		.uleb128 0x34
 2355 017d 00       		.byte	0
 2356 017e 03       		.uleb128 0x3
 2357 017f 0E       		.uleb128 0xe
 2358 0180 3A       		.uleb128 0x3a
 2359 0181 0B       		.uleb128 0xb
 2360 0182 3B       		.uleb128 0x3b
 2361 0183 0B       		.uleb128 0xb
 2362 0184 49       		.uleb128 0x49
 2363 0185 13       		.uleb128 0x13
 2364 0186 00       		.byte	0
 2365 0187 00       		.byte	0
 2366 0188 1F       		.uleb128 0x1f
 2367 0189 1D       		.uleb128 0x1d
 2368 018a 01       		.byte	0x1
 2369 018b 31       		.uleb128 0x31
 2370 018c 13       		.uleb128 0x13
 2371 018d 11       		.uleb128 0x11
 2372 018e 01       		.uleb128 0x1
 2373 018f 12       		.uleb128 0x12
 2374 0190 06       		.uleb128 0x6
 2375 0191 58       		.uleb128 0x58
 2376 0192 0B       		.uleb128 0xb
 2377 0193 59       		.uleb128 0x59
 2378 0194 0B       		.uleb128 0xb
 2379 0195 01       		.uleb128 0x1
 2380 0196 13       		.uleb128 0x13
 2381 0197 00       		.byte	0
 2382 0198 00       		.byte	0
 2383 0199 20       		.uleb128 0x20
 2384 019a 1D       		.uleb128 0x1d
 2385 019b 00       		.byte	0
 2386 019c 31       		.uleb128 0x31
 2387 019d 13       		.uleb128 0x13
 2388 019e 11       		.uleb128 0x11
 2389 019f 01       		.uleb128 0x1
 2390 01a0 12       		.uleb128 0x12
 2391 01a1 06       		.uleb128 0x6
 2392 01a2 58       		.uleb128 0x58
 2393 01a3 0B       		.uleb128 0xb
 2394 01a4 59       		.uleb128 0x59
 2395 01a5 05       		.uleb128 0x5
 2396 01a6 00       		.byte	0
 2397 01a7 00       		.byte	0
 2398 01a8 21       		.uleb128 0x21
 2399 01a9 898201   		.uleb128 0x4109
 2400 01ac 01       		.byte	0x1
 2401 01ad 11       		.uleb128 0x11
 2402 01ae 01       		.uleb128 0x1
 2403 01af 31       		.uleb128 0x31
 2404 01b0 13       		.uleb128 0x13
 2405 01b1 01       		.uleb128 0x1
 2406 01b2 13       		.uleb128 0x13
 2407 01b3 00       		.byte	0
 2408 01b4 00       		.byte	0
ARM GAS  /tmp/ccIY18GZ.s 			page 44


 2409 01b5 22       		.uleb128 0x22
 2410 01b6 8A8201   		.uleb128 0x410a
 2411 01b9 00       		.byte	0
 2412 01ba 02       		.uleb128 0x2
 2413 01bb 18       		.uleb128 0x18
 2414 01bc 9142     		.uleb128 0x2111
 2415 01be 18       		.uleb128 0x18
 2416 01bf 00       		.byte	0
 2417 01c0 00       		.byte	0
 2418 01c1 23       		.uleb128 0x23
 2419 01c2 898201   		.uleb128 0x4109
 2420 01c5 01       		.byte	0x1
 2421 01c6 11       		.uleb128 0x11
 2422 01c7 01       		.uleb128 0x1
 2423 01c8 31       		.uleb128 0x31
 2424 01c9 13       		.uleb128 0x13
 2425 01ca 00       		.byte	0
 2426 01cb 00       		.byte	0
 2427 01cc 24       		.uleb128 0x24
 2428 01cd 2E       		.uleb128 0x2e
 2429 01ce 01       		.byte	0x1
 2430 01cf 3F       		.uleb128 0x3f
 2431 01d0 19       		.uleb128 0x19
 2432 01d1 03       		.uleb128 0x3
 2433 01d2 0E       		.uleb128 0xe
 2434 01d3 3A       		.uleb128 0x3a
 2435 01d4 0B       		.uleb128 0xb
 2436 01d5 3B       		.uleb128 0x3b
 2437 01d6 0B       		.uleb128 0xb
 2438 01d7 27       		.uleb128 0x27
 2439 01d8 19       		.uleb128 0x19
 2440 01d9 11       		.uleb128 0x11
 2441 01da 01       		.uleb128 0x1
 2442 01db 12       		.uleb128 0x12
 2443 01dc 06       		.uleb128 0x6
 2444 01dd 40       		.uleb128 0x40
 2445 01de 18       		.uleb128 0x18
 2446 01df 9742     		.uleb128 0x2117
 2447 01e1 19       		.uleb128 0x19
 2448 01e2 01       		.uleb128 0x1
 2449 01e3 13       		.uleb128 0x13
 2450 01e4 00       		.byte	0
 2451 01e5 00       		.byte	0
 2452 01e6 25       		.uleb128 0x25
 2453 01e7 34       		.uleb128 0x34
 2454 01e8 00       		.byte	0
 2455 01e9 03       		.uleb128 0x3
 2456 01ea 0E       		.uleb128 0xe
 2457 01eb 3A       		.uleb128 0x3a
 2458 01ec 0B       		.uleb128 0xb
 2459 01ed 3B       		.uleb128 0x3b
 2460 01ee 0B       		.uleb128 0xb
 2461 01ef 49       		.uleb128 0x49
 2462 01f0 13       		.uleb128 0x13
 2463 01f1 02       		.uleb128 0x2
 2464 01f2 18       		.uleb128 0x18
 2465 01f3 00       		.byte	0
ARM GAS  /tmp/ccIY18GZ.s 			page 45


 2466 01f4 00       		.byte	0
 2467 01f5 26       		.uleb128 0x26
 2468 01f6 34       		.uleb128 0x34
 2469 01f7 00       		.byte	0
 2470 01f8 03       		.uleb128 0x3
 2471 01f9 08       		.uleb128 0x8
 2472 01fa 3A       		.uleb128 0x3a
 2473 01fb 0B       		.uleb128 0xb
 2474 01fc 3B       		.uleb128 0x3b
 2475 01fd 0B       		.uleb128 0xb
 2476 01fe 49       		.uleb128 0x49
 2477 01ff 13       		.uleb128 0x13
 2478 0200 02       		.uleb128 0x2
 2479 0201 18       		.uleb128 0x18
 2480 0202 00       		.byte	0
 2481 0203 00       		.byte	0
 2482 0204 27       		.uleb128 0x27
 2483 0205 05       		.uleb128 0x5
 2484 0206 00       		.byte	0
 2485 0207 03       		.uleb128 0x3
 2486 0208 08       		.uleb128 0x8
 2487 0209 3A       		.uleb128 0x3a
 2488 020a 0B       		.uleb128 0xb
 2489 020b 3B       		.uleb128 0x3b
 2490 020c 0B       		.uleb128 0xb
 2491 020d 49       		.uleb128 0x49
 2492 020e 13       		.uleb128 0x13
 2493 020f 02       		.uleb128 0x2
 2494 0210 17       		.uleb128 0x17
 2495 0211 00       		.byte	0
 2496 0212 00       		.byte	0
 2497 0213 28       		.uleb128 0x28
 2498 0214 34       		.uleb128 0x34
 2499 0215 00       		.byte	0
 2500 0216 03       		.uleb128 0x3
 2501 0217 0E       		.uleb128 0xe
 2502 0218 3A       		.uleb128 0x3a
 2503 0219 0B       		.uleb128 0xb
 2504 021a 3B       		.uleb128 0x3b
 2505 021b 0B       		.uleb128 0xb
 2506 021c 49       		.uleb128 0x49
 2507 021d 13       		.uleb128 0x13
 2508 021e 1C       		.uleb128 0x1c
 2509 021f 0B       		.uleb128 0xb
 2510 0220 00       		.byte	0
 2511 0221 00       		.byte	0
 2512 0222 29       		.uleb128 0x29
 2513 0223 34       		.uleb128 0x34
 2514 0224 00       		.byte	0
 2515 0225 03       		.uleb128 0x3
 2516 0226 08       		.uleb128 0x8
 2517 0227 3A       		.uleb128 0x3a
 2518 0228 0B       		.uleb128 0xb
 2519 0229 3B       		.uleb128 0x3b
 2520 022a 0B       		.uleb128 0xb
 2521 022b 49       		.uleb128 0x49
 2522 022c 13       		.uleb128 0x13
ARM GAS  /tmp/ccIY18GZ.s 			page 46


 2523 022d 00       		.byte	0
 2524 022e 00       		.byte	0
 2525 022f 2A       		.uleb128 0x2a
 2526 0230 34       		.uleb128 0x34
 2527 0231 00       		.byte	0
 2528 0232 03       		.uleb128 0x3
 2529 0233 08       		.uleb128 0x8
 2530 0234 3A       		.uleb128 0x3a
 2531 0235 0B       		.uleb128 0xb
 2532 0236 3B       		.uleb128 0x3b
 2533 0237 05       		.uleb128 0x5
 2534 0238 49       		.uleb128 0x49
 2535 0239 13       		.uleb128 0x13
 2536 023a 3F       		.uleb128 0x3f
 2537 023b 19       		.uleb128 0x19
 2538 023c 3C       		.uleb128 0x3c
 2539 023d 19       		.uleb128 0x19
 2540 023e 00       		.byte	0
 2541 023f 00       		.byte	0
 2542 0240 2B       		.uleb128 0x2b
 2543 0241 21       		.uleb128 0x21
 2544 0242 00       		.byte	0
 2545 0243 00       		.byte	0
 2546 0244 00       		.byte	0
 2547 0245 2C       		.uleb128 0x2c
 2548 0246 34       		.uleb128 0x34
 2549 0247 00       		.byte	0
 2550 0248 03       		.uleb128 0x3
 2551 0249 0E       		.uleb128 0xe
 2552 024a 3A       		.uleb128 0x3a
 2553 024b 0B       		.uleb128 0xb
 2554 024c 3B       		.uleb128 0x3b
 2555 024d 0B       		.uleb128 0xb
 2556 024e 49       		.uleb128 0x49
 2557 024f 13       		.uleb128 0x13
 2558 0250 3F       		.uleb128 0x3f
 2559 0251 19       		.uleb128 0x19
 2560 0252 3C       		.uleb128 0x3c
 2561 0253 19       		.uleb128 0x19
 2562 0254 00       		.byte	0
 2563 0255 00       		.byte	0
 2564 0256 2D       		.uleb128 0x2d
 2565 0257 34       		.uleb128 0x34
 2566 0258 00       		.byte	0
 2567 0259 03       		.uleb128 0x3
 2568 025a 0E       		.uleb128 0xe
 2569 025b 3A       		.uleb128 0x3a
 2570 025c 0B       		.uleb128 0xb
 2571 025d 3B       		.uleb128 0x3b
 2572 025e 0B       		.uleb128 0xb
 2573 025f 49       		.uleb128 0x49
 2574 0260 13       		.uleb128 0x13
 2575 0261 3F       		.uleb128 0x3f
 2576 0262 19       		.uleb128 0x19
 2577 0263 02       		.uleb128 0x2
 2578 0264 18       		.uleb128 0x18
 2579 0265 00       		.byte	0
ARM GAS  /tmp/ccIY18GZ.s 			page 47


 2580 0266 00       		.byte	0
 2581 0267 2E       		.uleb128 0x2e
 2582 0268 2E       		.uleb128 0x2e
 2583 0269 01       		.byte	0x1
 2584 026a 3F       		.uleb128 0x3f
 2585 026b 19       		.uleb128 0x19
 2586 026c 03       		.uleb128 0x3
 2587 026d 0E       		.uleb128 0xe
 2588 026e 3A       		.uleb128 0x3a
 2589 026f 0B       		.uleb128 0xb
 2590 0270 3B       		.uleb128 0x3b
 2591 0271 0B       		.uleb128 0xb
 2592 0272 27       		.uleb128 0x27
 2593 0273 19       		.uleb128 0x19
 2594 0274 3C       		.uleb128 0x3c
 2595 0275 19       		.uleb128 0x19
 2596 0276 01       		.uleb128 0x1
 2597 0277 13       		.uleb128 0x13
 2598 0278 00       		.byte	0
 2599 0279 00       		.byte	0
 2600 027a 2F       		.uleb128 0x2f
 2601 027b 18       		.uleb128 0x18
 2602 027c 00       		.byte	0
 2603 027d 00       		.byte	0
 2604 027e 00       		.byte	0
 2605 027f 30       		.uleb128 0x30
 2606 0280 2E       		.uleb128 0x2e
 2607 0281 01       		.byte	0x1
 2608 0282 3F       		.uleb128 0x3f
 2609 0283 19       		.uleb128 0x19
 2610 0284 03       		.uleb128 0x3
 2611 0285 0E       		.uleb128 0xe
 2612 0286 3A       		.uleb128 0x3a
 2613 0287 0B       		.uleb128 0xb
 2614 0288 3B       		.uleb128 0x3b
 2615 0289 05       		.uleb128 0x5
 2616 028a 27       		.uleb128 0x27
 2617 028b 19       		.uleb128 0x19
 2618 028c 49       		.uleb128 0x49
 2619 028d 13       		.uleb128 0x13
 2620 028e 3C       		.uleb128 0x3c
 2621 028f 19       		.uleb128 0x19
 2622 0290 01       		.uleb128 0x1
 2623 0291 13       		.uleb128 0x13
 2624 0292 00       		.byte	0
 2625 0293 00       		.byte	0
 2626 0294 31       		.uleb128 0x31
 2627 0295 2E       		.uleb128 0x2e
 2628 0296 01       		.byte	0x1
 2629 0297 3F       		.uleb128 0x3f
 2630 0298 19       		.uleb128 0x19
 2631 0299 03       		.uleb128 0x3
 2632 029a 0E       		.uleb128 0xe
 2633 029b 3A       		.uleb128 0x3a
 2634 029c 0B       		.uleb128 0xb
 2635 029d 3B       		.uleb128 0x3b
 2636 029e 0B       		.uleb128 0xb
ARM GAS  /tmp/ccIY18GZ.s 			page 48


 2637 029f 27       		.uleb128 0x27
 2638 02a0 19       		.uleb128 0x19
 2639 02a1 49       		.uleb128 0x49
 2640 02a2 13       		.uleb128 0x13
 2641 02a3 3C       		.uleb128 0x3c
 2642 02a4 19       		.uleb128 0x19
 2643 02a5 01       		.uleb128 0x1
 2644 02a6 13       		.uleb128 0x13
 2645 02a7 00       		.byte	0
 2646 02a8 00       		.byte	0
 2647 02a9 32       		.uleb128 0x32
 2648 02aa 2E       		.uleb128 0x2e
 2649 02ab 01       		.byte	0x1
 2650 02ac 3F       		.uleb128 0x3f
 2651 02ad 19       		.uleb128 0x19
 2652 02ae 03       		.uleb128 0x3
 2653 02af 0E       		.uleb128 0xe
 2654 02b0 3A       		.uleb128 0x3a
 2655 02b1 0B       		.uleb128 0xb
 2656 02b2 3B       		.uleb128 0x3b
 2657 02b3 05       		.uleb128 0x5
 2658 02b4 27       		.uleb128 0x27
 2659 02b5 19       		.uleb128 0x19
 2660 02b6 49       		.uleb128 0x49
 2661 02b7 13       		.uleb128 0x13
 2662 02b8 3C       		.uleb128 0x3c
 2663 02b9 19       		.uleb128 0x19
 2664 02ba 00       		.byte	0
 2665 02bb 00       		.byte	0
 2666 02bc 00       		.byte	0
 2667              		.section	.debug_loc,"",%progbits
 2668              	.Ldebug_loc0:
 2669              	.LLST0:
 2670 0000 00000000 		.4byte	.LVL0
 2671 0004 30000000 		.4byte	.LVL3
 2672 0008 0100     		.2byte	0x1
 2673 000a 50       		.byte	0x50
 2674 000b 30000000 		.4byte	.LVL3
 2675 000f 4C000000 		.4byte	.LVL5
 2676 0013 0100     		.2byte	0x1
 2677 0015 56       		.byte	0x56
 2678 0016 4C000000 		.4byte	.LVL5
 2679 001a B0000000 		.4byte	.LVL18
 2680 001e 0400     		.2byte	0x4
 2681 0020 F3       		.byte	0xf3
 2682 0021 01       		.uleb128 0x1
 2683 0022 50       		.byte	0x50
 2684 0023 9F       		.byte	0x9f
 2685 0024 B0000000 		.4byte	.LVL18
 2686 0028 B4000000 		.4byte	.LVL19
 2687 002c 0100     		.2byte	0x1
 2688 002e 56       		.byte	0x56
 2689 002f B4000000 		.4byte	.LVL19
 2690 0033 D0000000 		.4byte	.LVL25
 2691 0037 0400     		.2byte	0x4
 2692 0039 F3       		.byte	0xf3
 2693 003a 01       		.uleb128 0x1
ARM GAS  /tmp/ccIY18GZ.s 			page 49


 2694 003b 50       		.byte	0x50
 2695 003c 9F       		.byte	0x9f
 2696 003d D0000000 		.4byte	.LVL25
 2697 0041 D2000000 		.4byte	.LVL26
 2698 0045 0100     		.2byte	0x1
 2699 0047 50       		.byte	0x50
 2700 0048 D2000000 		.4byte	.LVL26
 2701 004c DC000000 		.4byte	.LVL28
 2702 0050 0100     		.2byte	0x1
 2703 0052 56       		.byte	0x56
 2704 0053 DC000000 		.4byte	.LVL28
 2705 0057 DE000000 		.4byte	.LVL29
 2706 005b 0100     		.2byte	0x1
 2707 005d 50       		.byte	0x50
 2708 005e DE000000 		.4byte	.LVL29
 2709 0062 0C010000 		.4byte	.LFE91
 2710 0066 0100     		.2byte	0x1
 2711 0068 56       		.byte	0x56
 2712 0069 00000000 		.4byte	0
 2713 006d 00000000 		.4byte	0
 2714              	.LLST1:
 2715 0071 00000000 		.4byte	.LVL0
 2716 0075 10000000 		.4byte	.LVL1
 2717 0079 0100     		.2byte	0x1
 2718 007b 51       		.byte	0x51
 2719 007c 10000000 		.4byte	.LVL1
 2720 0080 0C010000 		.4byte	.LFE91
 2721 0084 0400     		.2byte	0x4
 2722 0086 F3       		.byte	0xf3
 2723 0087 01       		.uleb128 0x1
 2724 0088 51       		.byte	0x51
 2725 0089 9F       		.byte	0x9f
 2726 008a 00000000 		.4byte	0
 2727 008e 00000000 		.4byte	0
 2728              	.LLST2:
 2729 0092 00000000 		.4byte	.LVL0
 2730 0096 30000000 		.4byte	.LVL3
 2731 009a 0100     		.2byte	0x1
 2732 009c 50       		.byte	0x50
 2733 009d 30000000 		.4byte	.LVL3
 2734 00a1 C0000000 		.4byte	.LVL21
 2735 00a5 0100     		.2byte	0x1
 2736 00a7 56       		.byte	0x56
 2737 00a8 CC000000 		.4byte	.LVL23
 2738 00ac D0000000 		.4byte	.LVL25
 2739 00b0 0100     		.2byte	0x1
 2740 00b2 56       		.byte	0x56
 2741 00b3 D0000000 		.4byte	.LVL25
 2742 00b7 D2000000 		.4byte	.LVL26
 2743 00bb 0100     		.2byte	0x1
 2744 00bd 50       		.byte	0x50
 2745 00be D2000000 		.4byte	.LVL26
 2746 00c2 DC000000 		.4byte	.LVL28
 2747 00c6 0100     		.2byte	0x1
 2748 00c8 56       		.byte	0x56
 2749 00c9 DC000000 		.4byte	.LVL28
 2750 00cd DE000000 		.4byte	.LVL29
ARM GAS  /tmp/ccIY18GZ.s 			page 50


 2751 00d1 0100     		.2byte	0x1
 2752 00d3 50       		.byte	0x50
 2753 00d4 DE000000 		.4byte	.LVL29
 2754 00d8 0C010000 		.4byte	.LFE91
 2755 00dc 0100     		.2byte	0x1
 2756 00de 56       		.byte	0x56
 2757 00df 00000000 		.4byte	0
 2758 00e3 00000000 		.4byte	0
 2759              	.LLST3:
 2760 00e7 16000000 		.4byte	.LVL2
 2761 00eb C0000000 		.4byte	.LVL22
 2762 00ef 0100     		.2byte	0x1
 2763 00f1 59       		.byte	0x59
 2764 00f2 CC000000 		.4byte	.LVL23
 2765 00f6 0C010000 		.4byte	.LFE91
 2766 00fa 0100     		.2byte	0x1
 2767 00fc 59       		.byte	0x59
 2768 00fd 00000000 		.4byte	0
 2769 0101 00000000 		.4byte	0
 2770              	.LLST4:
 2771 0105 4C000000 		.4byte	.LVL5
 2772 0109 62000000 		.4byte	.LVL8
 2773 010d 0300     		.2byte	0x3
 2774 010f 74       		.byte	0x74
 2775 0110 01       		.sleb128 1
 2776 0111 9F       		.byte	0x9f
 2777 0112 7C000000 		.4byte	.LVL10
 2778 0116 9A000000 		.4byte	.LVL13
 2779 011a 0100     		.2byte	0x1
 2780 011c 54       		.byte	0x54
 2781 011d 9A000000 		.4byte	.LVL13
 2782 0121 A0000000 		.4byte	.LVL14
 2783 0125 0300     		.2byte	0x3
 2784 0127 74       		.byte	0x74
 2785 0128 01       		.sleb128 1
 2786 0129 9F       		.byte	0x9f
 2787 012a A2000000 		.4byte	.LVL15
 2788 012e B0000000 		.4byte	.LVL18
 2789 0132 0100     		.2byte	0x1
 2790 0134 54       		.byte	0x54
 2791 0135 00000000 		.4byte	0
 2792 0139 00000000 		.4byte	0
 2793              	.LLST5:
 2794 013d 74000000 		.4byte	.LVL9
 2795 0141 7C000000 		.4byte	.LVL10
 2796 0145 0100     		.2byte	0x1
 2797 0147 50       		.byte	0x50
 2798 0148 94000000 		.4byte	.LVL12
 2799 014c 9A000000 		.4byte	.LVL13
 2800 0150 0100     		.2byte	0x1
 2801 0152 50       		.byte	0x50
 2802 0153 A2000000 		.4byte	.LVL15
 2803 0157 A4000000 		.4byte	.LVL16
 2804 015b 0100     		.2byte	0x1
 2805 015d 50       		.byte	0x50
 2806 015e A4000000 		.4byte	.LVL16
 2807 0162 A9000000 		.4byte	.LVL17-1
ARM GAS  /tmp/ccIY18GZ.s 			page 51


 2808 0166 0100     		.2byte	0x1
 2809 0168 51       		.byte	0x51
 2810 0169 CC000000 		.4byte	.LVL23
 2811 016d CE000000 		.4byte	.LVL24
 2812 0171 0100     		.2byte	0x1
 2813 0173 50       		.byte	0x50
 2814 0174 00000000 		.4byte	0
 2815 0178 00000000 		.4byte	0
 2816              	.LLST6:
 2817 017c 00000000 		.4byte	.LVL0
 2818 0180 4C000000 		.4byte	.LVL5
 2819 0184 0200     		.2byte	0x2
 2820 0186 30       		.byte	0x30
 2821 0187 9F       		.byte	0x9f
 2822 0188 4C000000 		.4byte	.LVL5
 2823 018c AA000000 		.4byte	.LVL17
 2824 0190 0100     		.2byte	0x1
 2825 0192 5A       		.byte	0x5a
 2826 0193 AA000000 		.4byte	.LVL17
 2827 0197 B0000000 		.4byte	.LVL18
 2828 019b 0300     		.2byte	0x3
 2829 019d 09       		.byte	0x9
 2830 019e FD       		.byte	0xfd
 2831 019f 9F       		.byte	0x9f
 2832 01a0 B0000000 		.4byte	.LVL18
 2833 01a4 B4000000 		.4byte	.LVL19
 2834 01a8 0200     		.2byte	0x2
 2835 01aa 30       		.byte	0x30
 2836 01ab 9F       		.byte	0x9f
 2837 01ac CC000000 		.4byte	.LVL23
 2838 01b0 D0000000 		.4byte	.LVL25
 2839 01b4 0100     		.2byte	0x1
 2840 01b6 5A       		.byte	0x5a
 2841 01b7 D0000000 		.4byte	.LVL25
 2842 01bb D8000000 		.4byte	.LVL27
 2843 01bf 0200     		.2byte	0x2
 2844 01c1 30       		.byte	0x30
 2845 01c2 9F       		.byte	0x9f
 2846 01c3 D8000000 		.4byte	.LVL27
 2847 01c7 DC000000 		.4byte	.LVL28
 2848 01cb 0300     		.2byte	0x3
 2849 01cd 09       		.byte	0x9
 2850 01ce FC       		.byte	0xfc
 2851 01cf 9F       		.byte	0x9f
 2852 01d0 DC000000 		.4byte	.LVL28
 2853 01d4 E2000000 		.4byte	.LVL30
 2854 01d8 0200     		.2byte	0x2
 2855 01da 30       		.byte	0x30
 2856 01db 9F       		.byte	0x9f
 2857 01dc E2000000 		.4byte	.LVL30
 2858 01e0 0C010000 		.4byte	.LFE91
 2859 01e4 0300     		.2byte	0x3
 2860 01e6 09       		.byte	0x9
 2861 01e7 FC       		.byte	0xfc
 2862 01e8 9F       		.byte	0x9f
 2863 01e9 00000000 		.4byte	0
 2864 01ed 00000000 		.4byte	0
ARM GAS  /tmp/ccIY18GZ.s 			page 52


 2865              	.LLST7:
 2866 01f1 10000000 		.4byte	.LVL31
 2867 01f5 16000000 		.4byte	.LVL32
 2868 01f9 0100     		.2byte	0x1
 2869 01fb 50       		.byte	0x50
 2870 01fc 00000000 		.4byte	0
 2871 0200 00000000 		.4byte	0
 2872              	.LLST8:
 2873 0204 00000000 		.4byte	.LVL37
 2874 0208 58000000 		.4byte	.LVL40
 2875 020c 0100     		.2byte	0x1
 2876 020e 50       		.byte	0x50
 2877 020f 58000000 		.4byte	.LVL40
 2878 0213 88000000 		.4byte	.LVL44
 2879 0217 0100     		.2byte	0x1
 2880 0219 54       		.byte	0x54
 2881 021a 88000000 		.4byte	.LVL44
 2882 021e 94000000 		.4byte	.LVL45
 2883 0222 0400     		.2byte	0x4
 2884 0224 F3       		.byte	0xf3
 2885 0225 01       		.uleb128 0x1
 2886 0226 50       		.byte	0x50
 2887 0227 9F       		.byte	0x9f
 2888 0228 94000000 		.4byte	.LVL45
 2889 022c 96000000 		.4byte	.LVL46
 2890 0230 0100     		.2byte	0x1
 2891 0232 50       		.byte	0x50
 2892 0233 96000000 		.4byte	.LVL46
 2893 0237 98000000 		.4byte	.LVL47
 2894 023b 0400     		.2byte	0x4
 2895 023d F3       		.byte	0xf3
 2896 023e 01       		.uleb128 0x1
 2897 023f 50       		.byte	0x50
 2898 0240 9F       		.byte	0x9f
 2899 0241 98000000 		.4byte	.LVL47
 2900 0245 A4000000 		.4byte	.LVL50
 2901 0249 0100     		.2byte	0x1
 2902 024b 54       		.byte	0x54
 2903 024c A4000000 		.4byte	.LVL50
 2904 0250 A6000000 		.4byte	.LVL51
 2905 0254 0100     		.2byte	0x1
 2906 0256 50       		.byte	0x50
 2907 0257 A6000000 		.4byte	.LVL51
 2908 025b A8000000 		.4byte	.LVL52
 2909 025f 0400     		.2byte	0x4
 2910 0261 F3       		.byte	0xf3
 2911 0262 01       		.uleb128 0x1
 2912 0263 50       		.byte	0x50
 2913 0264 9F       		.byte	0x9f
 2914 0265 A8000000 		.4byte	.LVL52
 2915 0269 AA000000 		.4byte	.LVL53
 2916 026d 0100     		.2byte	0x1
 2917 026f 50       		.byte	0x50
 2918 0270 AA000000 		.4byte	.LVL53
 2919 0274 AC000000 		.4byte	.LVL54
 2920 0278 0400     		.2byte	0x4
 2921 027a F3       		.byte	0xf3
ARM GAS  /tmp/ccIY18GZ.s 			page 53


 2922 027b 01       		.uleb128 0x1
 2923 027c 50       		.byte	0x50
 2924 027d 9F       		.byte	0x9f
 2925 027e AC000000 		.4byte	.LVL54
 2926 0282 C0000000 		.4byte	.LFE94
 2927 0286 0100     		.2byte	0x1
 2928 0288 54       		.byte	0x54
 2929 0289 00000000 		.4byte	0
 2930 028d 00000000 		.4byte	0
 2931              	.LLST9:
 2932 0291 00000000 		.4byte	.LVL37
 2933 0295 61000000 		.4byte	.LVL41-1
 2934 0299 0100     		.2byte	0x1
 2935 029b 51       		.byte	0x51
 2936 029c 61000000 		.4byte	.LVL41-1
 2937 02a0 88000000 		.4byte	.LVL44
 2938 02a4 0100     		.2byte	0x1
 2939 02a6 56       		.byte	0x56
 2940 02a7 88000000 		.4byte	.LVL44
 2941 02ab 94000000 		.4byte	.LVL45
 2942 02af 0400     		.2byte	0x4
 2943 02b1 F3       		.byte	0xf3
 2944 02b2 01       		.uleb128 0x1
 2945 02b3 51       		.byte	0x51
 2946 02b4 9F       		.byte	0x9f
 2947 02b5 94000000 		.4byte	.LVL45
 2948 02b9 98000000 		.4byte	.LVL47
 2949 02bd 0100     		.2byte	0x1
 2950 02bf 51       		.byte	0x51
 2951 02c0 98000000 		.4byte	.LVL47
 2952 02c4 A4000000 		.4byte	.LVL50
 2953 02c8 0100     		.2byte	0x1
 2954 02ca 56       		.byte	0x56
 2955 02cb A4000000 		.4byte	.LVL50
 2956 02cf AC000000 		.4byte	.LVL54
 2957 02d3 0100     		.2byte	0x1
 2958 02d5 51       		.byte	0x51
 2959 02d6 AC000000 		.4byte	.LVL54
 2960 02da C0000000 		.4byte	.LFE94
 2961 02de 0100     		.2byte	0x1
 2962 02e0 56       		.byte	0x56
 2963 02e1 00000000 		.4byte	0
 2964 02e5 00000000 		.4byte	0
 2965              	.LLST10:
 2966 02e9 00000000 		.4byte	.LVL37
 2967 02ed 61000000 		.4byte	.LVL41-1
 2968 02f1 0100     		.2byte	0x1
 2969 02f3 52       		.byte	0x52
 2970 02f4 61000000 		.4byte	.LVL41-1
 2971 02f8 88000000 		.4byte	.LVL44
 2972 02fc 0100     		.2byte	0x1
 2973 02fe 55       		.byte	0x55
 2974 02ff 88000000 		.4byte	.LVL44
 2975 0303 94000000 		.4byte	.LVL45
 2976 0307 0400     		.2byte	0x4
 2977 0309 F3       		.byte	0xf3
 2978 030a 01       		.uleb128 0x1
ARM GAS  /tmp/ccIY18GZ.s 			page 54


 2979 030b 52       		.byte	0x52
 2980 030c 9F       		.byte	0x9f
 2981 030d 94000000 		.4byte	.LVL45
 2982 0311 98000000 		.4byte	.LVL47
 2983 0315 0100     		.2byte	0x1
 2984 0317 52       		.byte	0x52
 2985 0318 98000000 		.4byte	.LVL47
 2986 031c A4000000 		.4byte	.LVL50
 2987 0320 0100     		.2byte	0x1
 2988 0322 55       		.byte	0x55
 2989 0323 A4000000 		.4byte	.LVL50
 2990 0327 AC000000 		.4byte	.LVL54
 2991 032b 0100     		.2byte	0x1
 2992 032d 52       		.byte	0x52
 2993 032e AC000000 		.4byte	.LVL54
 2994 0332 C0000000 		.4byte	.LFE94
 2995 0336 0100     		.2byte	0x1
 2996 0338 55       		.byte	0x55
 2997 0339 00000000 		.4byte	0
 2998 033d 00000000 		.4byte	0
 2999              	.LLST11:
 3000 0341 00000000 		.4byte	.LVL37
 3001 0345 38000000 		.4byte	.LVL38
 3002 0349 0200     		.2byte	0x2
 3003 034b 30       		.byte	0x30
 3004 034c 9F       		.byte	0x9f
 3005 034d A4000000 		.4byte	.LVL50
 3006 0351 AC000000 		.4byte	.LVL54
 3007 0355 0200     		.2byte	0x2
 3008 0357 30       		.byte	0x30
 3009 0358 9F       		.byte	0x9f
 3010 0359 00000000 		.4byte	0
 3011 035d 00000000 		.4byte	0
 3012              	.LLST12:
 3013 0361 62000000 		.4byte	.LVL41
 3014 0365 76000000 		.4byte	.LVL42
 3015 0369 0100     		.2byte	0x1
 3016 036b 50       		.byte	0x50
 3017 036c 82000000 		.4byte	.LVL43
 3018 0370 88000000 		.4byte	.LVL44
 3019 0374 0100     		.2byte	0x1
 3020 0376 50       		.byte	0x50
 3021 0377 98000000 		.4byte	.LVL47
 3022 037b 9A000000 		.4byte	.LVL48
 3023 037f 0100     		.2byte	0x1
 3024 0381 50       		.byte	0x50
 3025 0382 AC000000 		.4byte	.LVL54
 3026 0386 AE000000 		.4byte	.LVL55
 3027 038a 0100     		.2byte	0x1
 3028 038c 50       		.byte	0x50
 3029 038d 00000000 		.4byte	0
 3030 0391 00000000 		.4byte	0
 3031              		.section	.debug_aranges,"",%progbits
 3032 0000 3C000000 		.4byte	0x3c
 3033 0004 0200     		.2byte	0x2
 3034 0006 00000000 		.4byte	.Ldebug_info0
 3035 000a 04       		.byte	0x4
ARM GAS  /tmp/ccIY18GZ.s 			page 55


 3036 000b 00       		.byte	0
 3037 000c 0000     		.2byte	0
 3038 000e 0000     		.2byte	0
 3039 0010 00000000 		.4byte	.LFB95
 3040 0014 02000000 		.4byte	.LFE95-.LFB95
 3041 0018 00000000 		.4byte	.LFB91
 3042 001c 0C010000 		.4byte	.LFE91-.LFB91
 3043 0020 00000000 		.4byte	.LFB92
 3044 0024 58000000 		.4byte	.LFE92-.LFB92
 3045 0028 00000000 		.4byte	.LFB93
 3046 002c 1C000000 		.4byte	.LFE93-.LFB93
 3047 0030 00000000 		.4byte	.LFB94
 3048 0034 C0000000 		.4byte	.LFE94-.LFB94
 3049 0038 00000000 		.4byte	0
 3050 003c 00000000 		.4byte	0
 3051              		.section	.debug_ranges,"",%progbits
 3052              	.Ldebug_ranges0:
 3053 0000 00000000 		.4byte	.LFB95
 3054 0004 02000000 		.4byte	.LFE95
 3055 0008 00000000 		.4byte	.LFB91
 3056 000c 0C010000 		.4byte	.LFE91
 3057 0010 00000000 		.4byte	.LFB92
 3058 0014 58000000 		.4byte	.LFE92
 3059 0018 00000000 		.4byte	.LFB93
 3060 001c 1C000000 		.4byte	.LFE93
 3061 0020 00000000 		.4byte	.LFB94
 3062 0024 C0000000 		.4byte	.LFE94
 3063 0028 00000000 		.4byte	0
 3064 002c 00000000 		.4byte	0
 3065              		.section	.debug_line,"",%progbits
 3066              	.Ldebug_line0:
 3067 0000 7F020000 		.section	.debug_str,"MS",%progbits,1
 3067      02005501 
 3067      00000201 
 3067      FB0E0D00 
 3067      01010101 
 3068              	.LASF6:
 3069 0000 74687265 		.ascii	"thread_t\000"
 3069      61645F74 
 3069      00
 3070              	.LASF52:
 3071 0009 45454553 		.ascii	"EEESize\000"
 3071      697A6500 
 3072              	.LASF83:
 3073 0011 666C6173 		.ascii	"flashSSDConfig\000"
 3073      68535344 
 3073      436F6E66 
 3073      696700
 3074              	.LASF3:
 3075 0020 65706D61 		.ascii	"epmask\000"
 3075      736B00
 3076              	.LASF73:
 3077 0027 64657374 		.ascii	"dest\000"
 3077      00
 3078              	.LASF72:
 3079 002c 666C6173 		.ascii	"flashProgram\000"
 3079      6850726F 
ARM GAS  /tmp/ccIY18GZ.s 			page 56


 3079      6772616D 
 3079      00
 3080              	.LASF7:
 3081 0039 696E7438 		.ascii	"int8_t\000"
 3081      5F7400
 3082              	.LASF1:
 3083 0040 73746174 		.ascii	"state\000"
 3083      6500
 3084              	.LASF17:
 3085 0046 75696E74 		.ascii	"uint64_t\000"
 3085      36345F74 
 3085      00
 3086              	.LASF9:
 3087 004f 73686F72 		.ascii	"short int\000"
 3087      7420696E 
 3087      7400
 3088              	.LASF80:
 3089 0059 675F466C 		.ascii	"g_FlashLaunchCommand\000"
 3089      6173684C 
 3089      61756E63 
 3089      68436F6D 
 3089      6D616E64 
 3090              	.LASF36:
 3091 006e 6E696C5F 		.ascii	"nil_system_t\000"
 3091      73797374 
 3091      656D5F74 
 3091      00
 3092              	.LASF62:
 3093 007b 706F7274 		.ascii	"port_lock\000"
 3093      5F6C6F63 
 3093      6B00
 3094              	.LASF21:
 3095 0085 6576656E 		.ascii	"eventmask_t\000"
 3095      746D6173 
 3095      6B5F7400 
 3096              	.LASF27:
 3097 0091 6E696C5F 		.ascii	"nil_thread\000"
 3097      74687265 
 3097      616400
 3098              	.LASF44:
 3099 009c 5043414C 		.ascii	"PCALLBACK\000"
 3099      4C424143 
 3099      4B00
 3100              	.LASF68:
 3101 00a6 72657476 		.ascii	"retval\000"
 3101      616C00
 3102              	.LASF2:
 3103 00ad 74696D65 		.ascii	"timeout\000"
 3103      6F757400 
 3104              	.LASF92:
 3105 00b5 474E5520 		.ascii	"GNU C 4.9.2 -mcpu=cortex-m0 -mfloat-abi=soft -mfp16"
 3105      4320342E 
 3105      392E3220 
 3105      2D6D6370 
 3105      753D636F 
 3106 00e8 2D666F72 		.ascii	"-format=none -mno-thumb-interwork -mthumb -mfloat-a"
 3106      6D61743D 
ARM GAS  /tmp/ccIY18GZ.s 			page 57


 3106      6E6F6E65 
 3106      202D6D6E 
 3106      6F2D7468 
 3107 011b 62693D73 		.ascii	"bi=soft -mfpu=vfpv3-d16 -mtls-dialect=gnu -ggdb -O3"
 3107      6F667420 
 3107      2D6D6670 
 3107      753D7666 
 3107      7076332D 
 3108 014e 202D7374 		.ascii	" -std=gnu99 -fomit-frame-pointer -falign-functions="
 3108      643D676E 
 3108      75393920 
 3108      2D666F6D 
 3108      69742D66 
 3109 0181 3136202D 		.ascii	"16 -ffunction-sections -fdata-sections -fno-common\000"
 3109      6666756E 
 3109      6374696F 
 3109      6E2D7365 
 3109      6374696F 
 3110              	.LASF25:
 3111 01b4 72656761 		.ascii	"regarm_t\000"
 3111      726D5F74 
 3111      00
 3112              	.LASF77:
 3113 01bd 6661696C 		.ascii	"failaddr\000"
 3113      61646472 
 3113      00
 3114              	.LASF12:
 3115 01c6 75696E74 		.ascii	"uint8_t\000"
 3115      385F7400 
 3116              	.LASF74:
 3117 01ce 636F756E 		.ascii	"count\000"
 3117      7400
 3118              	.LASF86:
 3119 01d4 466C6173 		.ascii	"FlashInit\000"
 3119      68496E69 
 3119      7400
 3120              	.LASF78:
 3121 01de 5F5F7374 		.ascii	"__storage_start__\000"
 3121      6F726167 
 3121      655F7374 
 3121      6172745F 
 3121      5F00
 3122              	.LASF85:
 3123 01f0 466C6173 		.ascii	"FlashVerifySection\000"
 3123      68566572 
 3123      69667953 
 3123      65637469 
 3123      6F6E00
 3124              	.LASF37:
 3125 0203 6E696C5F 		.ascii	"nil_system\000"
 3125      73797374 
 3125      656D00
 3126              	.LASF30:
 3127 020e 73656D61 		.ascii	"semaphore_t\000"
 3127      70686F72 
 3127      655F7400 
 3128              	.LASF47:
ARM GAS  /tmp/ccIY18GZ.s 			page 58


 3129 021a 50466C61 		.ascii	"PFlashBase\000"
 3129      73684261 
 3129      736500
 3130              	.LASF70:
 3131 0225 666C6173 		.ascii	"flashGetSecurity\000"
 3131      68476574 
 3131      53656375 
 3131      72697479 
 3131      00
 3132              	.LASF41:
 3133 0236 74687265 		.ascii	"threads\000"
 3133      61647300 
 3134              	.LASF50:
 3135 023e 44466C61 		.ascii	"DFlashSize\000"
 3135      73685369 
 3135      7A6500
 3136              	.LASF31:
 3137 0249 6E696C5F 		.ascii	"nil_semaphore\000"
 3137      73656D61 
 3137      70686F72 
 3137      6500
 3138              	.LASF57:
 3139 0257 70464C41 		.ascii	"pFLASHCOMMANDSEQUENCE\000"
 3139      5348434F 
 3139      4D4D414E 
 3139      44534551 
 3139      55454E43 
 3140              	.LASF59:
 3141 026d 6C6F6E67 		.ascii	"long int\000"
 3141      20696E74 
 3141      00
 3142              	.LASF64:
 3143 0276 6F666673 		.ascii	"offset\000"
 3143      657400
 3144              	.LASF69:
 3145 027d 666C6173 		.ascii	"flashEraseSectors\000"
 3145      68457261 
 3145      73655365 
 3145      63746F72 
 3145      7300
 3146              	.LASF61:
 3147 028f 5F5F656E 		.ascii	"__enable_irq\000"
 3147      61626C65 
 3147      5F697271 
 3147      00
 3148              	.LASF60:
 3149 029c 5F5F6469 		.ascii	"__disable_irq\000"
 3149      7361626C 
 3149      655F6972 
 3149      7100
 3150              	.LASF79:
 3151 02aa 6743616C 		.ascii	"gCallBackCnt\000"
 3151      6C426163 
 3151      6B436E74 
 3151      00
 3152              	.LASF13:
 3153 02b7 756E7369 		.ascii	"unsigned char\000"
ARM GAS  /tmp/ccIY18GZ.s 			page 59


 3153      676E6564 
 3153      20636861 
 3153      7200
 3154              	.LASF35:
 3155 02c5 65776D61 		.ascii	"ewmask\000"
 3155      736B00
 3156              	.LASF65:
 3157 02cc 73656374 		.ascii	"sectorCount\000"
 3157      6F72436F 
 3157      756E7400 
 3158              	.LASF18:
 3159 02d8 6C6F6E67 		.ascii	"long long unsigned int\000"
 3159      206C6F6E 
 3159      6720756E 
 3159      7369676E 
 3159      65642069 
 3160              	.LASF16:
 3161 02ef 75696E74 		.ascii	"uint32_t\000"
 3161      33325F74 
 3161      00
 3162              	.LASF5:
 3163 02f8 756E7369 		.ascii	"unsigned int\000"
 3163      676E6564 
 3163      20696E74 
 3163      00
 3164              	.LASF14:
 3165 0305 75696E74 		.ascii	"uint16_t\000"
 3165      31365F74 
 3165      00
 3166              	.LASF38:
 3167 030e 63757272 		.ascii	"current\000"
 3167      656E7400 
 3168              	.LASF45:
 3169 0316 5F737364 		.ascii	"_ssd_config\000"
 3169      5F636F6E 
 3169      66696700 
 3170              	.LASF82:
 3171 0322 5F5F7261 		.ascii	"__ram_for_callback\000"
 3171      6D5F666F 
 3171      725F6361 
 3171      6C6C6261 
 3171      636B00
 3172              	.LASF55:
 3173 0335 464C4153 		.ascii	"FLASH_SSD_CONFIG\000"
 3173      485F5353 
 3173      445F434F 
 3173      4E464947 
 3173      00
 3174              	.LASF8:
 3175 0346 7369676E 		.ascii	"signed char\000"
 3175      65642063 
 3175      68617200 
 3176              	.LASF0:
 3177 0352 63747870 		.ascii	"ctxp\000"
 3177      00
 3178              	.LASF23:
 3179 0357 73797374 		.ascii	"systime_t\000"
ARM GAS  /tmp/ccIY18GZ.s 			page 60


 3179      696D655F 
 3179      7400
 3180              	.LASF93:
 3181 0361 666C6173 		.ascii	"flash.c\000"
 3181      682E6300 
 3182              	.LASF32:
 3183 0369 63686172 		.ascii	"char\000"
 3183      00
 3184              	.LASF48:
 3185 036e 50466C61 		.ascii	"PFlashSize\000"
 3185      73685369 
 3185      7A6500
 3186              	.LASF84:
 3187 0379 466C6173 		.ascii	"FlashEraseSector\000"
 3187      68457261 
 3187      73655365 
 3187      63746F72 
 3187      00
 3188              	.LASF29:
 3189 038a 696E7463 		.ascii	"intctx_t\000"
 3189      74785F74 
 3189      00
 3190              	.LASF10:
 3191 0393 696E7433 		.ascii	"int32_t\000"
 3191      325F7400 
 3192              	.LASF56:
 3193 039b 50464C41 		.ascii	"PFLASH_SSD_CONFIG\000"
 3193      53485F53 
 3193      53445F43 
 3193      4F4E4649 
 3193      4700
 3194              	.LASF22:
 3195 03ad 636E745F 		.ascii	"cnt_t\000"
 3195      7400
 3196              	.LASF15:
 3197 03b3 73686F72 		.ascii	"short unsigned int\000"
 3197      7420756E 
 3197      7369676E 
 3197      65642069 
 3197      6E7400
 3198              	.LASF33:
 3199 03c6 74687265 		.ascii	"thread_reference_t\000"
 3199      61645F72 
 3199      65666572 
 3199      656E6365 
 3199      5F7400
 3200              	.LASF43:
 3201 03d9 5F426F6F 		.ascii	"_Bool\000"
 3201      6C00
 3202              	.LASF63:
 3203 03df 706F7274 		.ascii	"port_unlock\000"
 3203      5F756E6C 
 3203      6F636B00 
 3204              	.LASF46:
 3205 03eb 66746678 		.ascii	"ftfxRegBase\000"
 3205      52656742 
 3205      61736500 
ARM GAS  /tmp/ccIY18GZ.s 			page 61


 3206              	.LASF75:
 3207 03f7 6E6F7465 		.ascii	"noterased\000"
 3207      72617365 
 3207      6400
 3208              	.LASF26:
 3209 0401 73746B61 		.ascii	"stkalign_t\000"
 3209      6C69676E 
 3209      5F7400
 3210              	.LASF67:
 3211 040c 6D617267 		.ascii	"margin_read_level\000"
 3211      696E5F72 
 3211      6561645F 
 3211      6C657665 
 3211      6C00
 3212              	.LASF89:
 3213 041e 466C6173 		.ascii	"FlashProgram\000"
 3213      6850726F 
 3213      6772616D 
 3213      00
 3214              	.LASF58:
 3215 042b 6C6F6E67 		.ascii	"long unsigned int\000"
 3215      20756E73 
 3215      69676E65 
 3215      6420696E 
 3215      7400
 3216              	.LASF66:
 3217 043d 64657374 		.ascii	"destination\000"
 3217      696E6174 
 3217      696F6E00 
 3218              	.LASF90:
 3219 0449 7466705F 		.ascii	"tfp_printf\000"
 3219      7072696E 
 3219      746600
 3220              	.LASF11:
 3221 0454 6C6F6E67 		.ascii	"long long int\000"
 3221      206C6F6E 
 3221      6720696E 
 3221      7400
 3222              	.LASF28:
 3223 0462 706F7274 		.ascii	"port_intctx\000"
 3223      5F696E74 
 3223      63747800 
 3224              	.LASF87:
 3225 046e 52656C6F 		.ascii	"RelocateFunction\000"
 3225      63617465 
 3225      46756E63 
 3225      74696F6E 
 3225      00
 3226              	.LASF34:
 3227 047f 73656D70 		.ascii	"semp\000"
 3227      00
 3228              	.LASF81:
 3229 0484 5F5F7261 		.ascii	"__ram_func\000"
 3229      6D5F6675 
 3229      6E6300
 3230              	.LASF51:
 3231 048f 45455241 		.ascii	"EERAMBase\000"
ARM GAS  /tmp/ccIY18GZ.s 			page 62


 3231      4D426173 
 3231      6500
 3232              	.LASF54:
 3233 0499 43616C6C 		.ascii	"CallBack\000"
 3233      4261636B 
 3233      00
 3234              	.LASF19:
 3235 04a2 74737461 		.ascii	"tstate_t\000"
 3235      74655F74 
 3235      00
 3236              	.LASF94:
 3237 04ab 2F686F6D 		.ascii	"/home/bunnie/code/chibi-chibios/orchard\000"
 3237      652F6275 
 3237      6E6E6965 
 3237      2F636F64 
 3237      652F6368 
 3238              	.LASF91:
 3239 04d3 466C6173 		.ascii	"FlashProgramCheck\000"
 3239      6850726F 
 3239      6772616D 
 3239      43686563 
 3239      6B00
 3240              	.LASF24:
 3241 04e5 73697A65 		.ascii	"sizetype\000"
 3241      74797065 
 3241      00
 3242              	.LASF53:
 3243 04ee 44656275 		.ascii	"DebugEnable\000"
 3243      67456E61 
 3243      626C6500 
 3244              	.LASF42:
 3245 04fa 6462675F 		.ascii	"dbg_panic_msg\000"
 3245      70616E69 
 3245      635F6D73 
 3245      6700
 3246              	.LASF4:
 3247 0508 73746B6C 		.ascii	"stklim\000"
 3247      696D00
 3248              	.LASF76:
 3249 050f 6E756D62 		.ascii	"number\000"
 3249      657200
 3250              	.LASF96:
 3251 0516 666C6173 		.ascii	"flashStart\000"
 3251      68537461 
 3251      727400
 3252              	.LASF88:
 3253 0521 466C6173 		.ascii	"FlashGetSecurityState\000"
 3253      68476574 
 3253      53656375 
 3253      72697479 
 3253      53746174 
 3254              	.LASF40:
 3255 0537 73797374 		.ascii	"systime\000"
 3255      696D6500 
 3256              	.LASF20:
 3257 053f 6D73675F 		.ascii	"msg_t\000"
 3257      7400
ARM GAS  /tmp/ccIY18GZ.s 			page 63


 3258              	.LASF71:
 3259 0545 73656375 		.ascii	"securityStatus\000"
 3259      72697479 
 3259      53746174 
 3259      757300
 3260              	.LASF49:
 3261 0554 44466C61 		.ascii	"DFlashBase\000"
 3261      73684261 
 3261      736500
 3262              	.LASF39:
 3263 055f 6E657874 		.ascii	"next\000"
 3263      00
 3264              	.LASF95:
 3265 0564 63616C6C 		.ascii	"callback\000"
 3265      6261636B 
 3265      00
 3266              		.ident	"GCC: (Debian 4.9.2-10) 4.9.2"
 3267              		.section	.note.GNU-stack,"",%progbits
ARM GAS  /tmp/ccIY18GZ.s 			page 64


DEFINED SYMBOLS
                            *ABS*:00000000 flash.c
     /tmp/ccIY18GZ.s:18     .text.callback:00000000 $t
     /tmp/ccIY18GZ.s:23     .text.callback:00000000 callback
     /tmp/ccIY18GZ.s:35     .text.flashEraseSectors:00000000 $t
     /tmp/ccIY18GZ.s:41     .text.flashEraseSectors:00000000 flashEraseSectors
     /tmp/ccIY18GZ.s:284    .text.flashEraseSectors:000000e8 $d
     /tmp/ccIY18GZ.s:297    .text.flashStart:00000000 $t
     /tmp/ccIY18GZ.s:303    .text.flashStart:00000000 flashStart
     /tmp/ccIY18GZ.s:360    .text.flashStart:00000038 $d
     /tmp/ccIY18GZ.s:372    .text.flashGetSecurity:00000000 $t
     /tmp/ccIY18GZ.s:378    .text.flashGetSecurity:00000000 flashGetSecurity
     /tmp/ccIY18GZ.s:405    .text.flashGetSecurity:00000018 $d
     /tmp/ccIY18GZ.s:410    .text.flashProgram:00000000 $t
     /tmp/ccIY18GZ.s:416    .text.flashProgram:00000000 flashProgram
     /tmp/ccIY18GZ.s:611    .text.flashProgram:000000b0 $d
     /tmp/ccIY18GZ.s:677    .data.flashSSDConfig:00000000 flashSSDConfig
     /tmp/ccIY18GZ.s:693    .bss.__ram_for_callback:00000000 __ram_for_callback
     /tmp/ccIY18GZ.s:635    .bss.__ram_func:00000000 __ram_func
     /tmp/ccIY18GZ.s:628    .data.g_FlashLaunchCommand:00000000 g_FlashLaunchCommand
     /tmp/ccIY18GZ.s:670    .bss.gCallBackCnt:00000000 gCallBackCnt
     /tmp/ccIY18GZ.s:624    .data.g_FlashLaunchCommand:00000000 $d
     /tmp/ccIY18GZ.s:631    .bss.__ram_func:00000000 $d
     /tmp/ccIY18GZ.s:638    .rodata.str1.4:00000000 $d
     /tmp/ccIY18GZ.s:666    .bss.gCallBackCnt:00000000 $d
     /tmp/ccIY18GZ.s:673    .data.flashSSDConfig:00000000 $d
     /tmp/ccIY18GZ.s:689    .bss.__ram_for_callback:00000000 $d
                     .debug_frame:00000010 $d
     /tmp/ccIY18GZ.s:296    .text.flashEraseSectors:0000010c $t
     /tmp/ccIY18GZ.s:371    .text.flashStart:00000058 $t
     /tmp/ccIY18GZ.s:409    .text.flashGetSecurity:0000001c $t

UNDEFINED SYMBOLS
tfp_printf
FlashEraseSector
FlashVerifySection
__storage_start__
FlashInit
RelocateFunction
FlashCommandSequence
FlashGetSecurityState
FlashProgram
FlashProgramCheck
