ARM GAS  /tmp/cc99Fkab.s 			page 1


   1              		.cpu cortex-m0
   2              		.fpu softvfp
   3              		.eabi_attribute 20, 1
   4              		.eabi_attribute 21, 1
   5              		.eabi_attribute 23, 3
   6              		.eabi_attribute 24, 1
   7              		.eabi_attribute 25, 1
   8              		.eabi_attribute 26, 2
   9              		.eabi_attribute 30, 2
  10              		.eabi_attribute 34, 0
  11              		.eabi_attribute 18, 4
  12              		.code	16
  13              		.file	"FlashCommandSequence.c"
  14              		.text
  15              	.Ltext0:
  16              		.cfi_sections	.debug_frame
  17              		.section	.text.FlashCommandSequence,"ax",%progbits
  18              		.align	2
  19              		.p2align 4,,-1
  20              		.global	FlashCommandSequence
  21              		.code	16
  22              		.thumb_func
  23              		.type	FlashCommandSequence, %function
  24              	FlashCommandSequence:
  25              	.LFB10:
  26              		.file 1 "../ext/C90TFS/source/FlashCommandSequence.c"
  27              		.loc 1 64 0
  28              		.cfi_startproc
  29              	.LVL0:
  30 0000 38B5     		push	{r3, r4, r5, lr}
  31              		.cfi_def_cfa_offset 16
  32              		.cfi_offset 3, -16
  33              		.cfi_offset 4, -12
  34              		.cfi_offset 5, -8
  35              		.cfi_offset 14, -4
  36              		.loc 1 70 0
  37 0002 8023     		mov	r3, #128
  38 0004 0268     		ldr	r2, [r0]
  39              		.loc 1 64 0
  40 0006 041C     		mov	r4, r0
  41              	.LVL1:
  42              		.loc 1 70 0
  43 0008 1178     		ldrb	r1, [r2]
  44 000a 0B43     		orr	r3, r1
  45 000c 1370     		strb	r3, [r2]
  46              	.LVL2:
  47 000e 0568     		ldr	r5, [r0]
  48              		.loc 1 74 0
  49 0010 02E0     		b	.L3
  50              	.LVL3:
  51              	.L4:
  52              		.loc 1 78 0
  53 0012 236A     		ldr	r3, [r4, #32]
  54 0014 5A1C     		add	r2, r3, #1
  55 0016 08D1     		bne	.L8
  56              	.L3:
  57              		.loc 1 74 0
ARM GAS  /tmp/cc99Fkab.s 			page 2


  58 0018 2B78     		ldrb	r3, [r5]
  59 001a 5BB2     		sxtb	r3, r3
  60 001c 002B     		cmp	r3, #0
  61 001e F8DA     		bge	.L4
  62              	.LVL4:
  63              		.loc 1 85 0
  64 0020 3120     		mov	r0, #49
  65 0022 2368     		ldr	r3, [r4]
  66              		.loc 1 87 0
  67              		@ sp needed
  68              		.loc 1 85 0
  69 0024 1B78     		ldrb	r3, [r3]
  70              	.LVL5:
  71 0026 1840     		and	r0, r3
  72              	.LVL6:
  73              		.loc 1 87 0
  74 0028 38BD     		pop	{r3, r4, r5, pc}
  75              	.LVL7:
  76              	.L8:
  77              		.loc 1 80 0
  78 002a 9847     		blx	r3
  79              	.LVL8:
  80 002c F4E7     		b	.L3
  81              		.cfi_endproc
  82              	.LFE10:
  83              		.size	FlashCommandSequence, .-FlashCommandSequence
  84 002e C046     		.text
  85              	.Letext0:
  86              		.file 2 "/usr/include/stdint.h"
  87              		.file 3 "../ext/C90TFS/include/SSD_Types.h"
 620              		.section	.note.GNU-stack,"",%progbits
ARM GAS  /tmp/cc99Fkab.s 			page 14

