ARM GAS  /tmp/ccBKfMNj.s 			page 1


   1              		.cpu cortex-m0
   2              		.fpu softvfp
   3              		.eabi_attribute 20, 1
   4              		.eabi_attribute 21, 1
   5              		.eabi_attribute 23, 3
   6              		.eabi_attribute 24, 1
   7              		.eabi_attribute 25, 1
   8              		.eabi_attribute 26, 2
   9              		.eabi_attribute 30, 2
  10              		.eabi_attribute 34, 0
  11              		.eabi_attribute 18, 4
  12              		.code	16
  13              		.file	"FlashProgram.c"
  14              		.text
  15              	.Ltext0:
  16              		.cfi_sections	.debug_frame
  17              		.section	.text.FlashProgram,"ax",%progbits
  18              		.align	2
  19              		.p2align 4,,-1
  20              		.global	FlashProgram
  21              		.code	16
  22              		.thumb_func
  23              		.type	FlashProgram, %function
  24              	FlashProgram:
  25              	.LFB10:
  26              		.file 1 "../ext/C90TFS/source/FlashProgram.c"
  27              		.loc 1 68 0
  28              		.cfi_startproc
  29              	.LVL0:
  30 0000 F8B5     		push	{r3, r4, r5, r6, r7, lr}
  31              		.cfi_def_cfa_offset 24
  32              		.cfi_offset 3, -24
  33              		.cfi_offset 4, -20
  34              		.cfi_offset 5, -16
  35              		.cfi_offset 6, -12
  36              		.cfi_offset 7, -8
  37              		.cfi_offset 14, -4
  38 0002 5746     		mov	r7, r10
  39 0004 4646     		mov	r6, r8
  40 0006 041C     		mov	r4, r0
  41 0008 C0B4     		push	{r6, r7}
  42              		.cfi_def_cfa_offset 32
  43              		.cfi_offset 8, -32
  44              		.cfi_offset 10, -28
  45              		.loc 1 68 0
  46 000a 1D1C     		mov	r5, r3
  47 000c 171C     		mov	r7, r2
  48              		.loc 1 73 0
  49 000e 9307     		lsl	r3, r2, #30
  50 0010 05D0     		beq	.L14
  51              	.LVL1:
  52              		.loc 1 75 0
  53 0012 8020     		mov	r0, #128
  54              	.LVL2:
  55 0014 8001     		lsl	r0, r0, #6
  56              	.LVL3:
  57              	.L2:
ARM GAS  /tmp/ccBKfMNj.s 			page 2


  58              		.loc 1 146 0
  59              		@ sp needed
  60              	.LVL4:
  61              	.LVL5:
  62              	.LVL6:
  63 0016 0CBC     		pop	{r2, r3}
  64 0018 9046     		mov	r8, r2
  65 001a 9A46     		mov	r10, r3
  66 001c F8BD     		pop	{r3, r4, r5, r6, r7, pc}
  67              	.LVL7:
  68              	.L14:
  69              		.loc 1 90 0
  70 001e 4668     		ldr	r6, [r0, #4]
  71              	.LVL8:
  72 0020 2020     		mov	r0, #32
  73              	.LVL9:
  74              		.loc 1 91 0
  75 0022 B142     		cmp	r1, r6
  76 0024 F7D3     		bcc	.L2
  77              		.loc 1 91 0 is_stmt 0 discriminator 1
  78 0026 A368     		ldr	r3, [r4, #8]
  79 0028 F318     		add	r3, r6, r3
  80 002a 9942     		cmp	r1, r3
  81 002c F3D2     		bcs	.L2
  82              		.loc 1 93 0 is_stmt 1
  83 002e 8E1B     		sub	r6, r1, r6
  84              	.LVL10:
  85              		.loc 1 100 0
  86 0030 002A     		cmp	r2, #0
  87 0032 2CD0     		beq	.L7
  88              		.loc 1 104 0
  89 0034 3123     		mov	r3, #49
  90 0036 9A46     		mov	r10, r3
  91              		.loc 1 111 0
  92 0038 0623     		mov	r3, #6
  93 003a 9846     		mov	r8, r3
  94 003c 01E0     		b	.L3
  95              	.LVL11:
  96              	.L15:
  97              		.loc 1 100 0 discriminator 1
  98 003e 0028     		cmp	r0, #0
  99 0040 E9D1     		bne	.L2
 100              	.LVL12:
 101              	.L3:
 102              		.loc 1 104 0
 103 0042 5146     		mov	r1, r10
 104 0044 2368     		ldr	r3, [r4]
 105              		.loc 1 114 0
 106 0046 320C     		lsr	r2, r6, #16
 107              		.loc 1 104 0
 108 0048 1970     		strb	r1, [r3]
 109              	.LVL13:
 110              		.loc 1 111 0
 111 004a 4146     		mov	r1, r8
 112              		.loc 1 110 0
 113 004c 2368     		ldr	r3, [r4]
 114              		.loc 1 114 0
ARM GAS  /tmp/ccBKfMNj.s 			page 3


 115 004e D2B2     		uxtb	r2, r2
 116              		.loc 1 111 0
 117 0050 D971     		strb	r1, [r3, #7]
 118              	.LVL14:
 119              		.loc 1 113 0
 120 0052 2168     		ldr	r1, [r4]
 121              		.loc 1 116 0
 122 0054 330A     		lsr	r3, r6, #8
 123              		.loc 1 114 0
 124 0056 8A71     		strb	r2, [r1, #6]
 125              	.LVL15:
 126              		.loc 1 115 0
 127 0058 2268     		ldr	r2, [r4]
 128              		.loc 1 116 0
 129 005a DBB2     		uxtb	r3, r3
 130 005c 5371     		strb	r3, [r2, #5]
 131              	.LVL16:
 132              		.loc 1 117 0
 133 005e 2368     		ldr	r3, [r4]
 134              		.loc 1 118 0
 135 0060 F2B2     		uxtb	r2, r6
 136 0062 1A71     		strb	r2, [r3, #4]
 137              	.LVL17:
 138              		.loc 1 123 0
 139 0064 2A78     		ldrb	r2, [r5]
 140              		.loc 1 122 0
 141 0066 2368     		ldr	r3, [r4]
 142              		.loc 1 132 0
 143 0068 043F     		sub	r7, r7, #4
 144              	.LVL18:
 145              		.loc 1 123 0
 146 006a 1A72     		strb	r2, [r3, #8]
 147              	.LVL19:
 148 006c 6A78     		ldrb	r2, [r5, #1]
 149              		.loc 1 122 0
 150 006e 2368     		ldr	r3, [r4]
 151              		.loc 1 127 0
 152 0070 201C     		mov	r0, r4
 153              		.loc 1 123 0
 154 0072 5A72     		strb	r2, [r3, #9]
 155              	.LVL20:
 156 0074 AA78     		ldrb	r2, [r5, #2]
 157              		.loc 1 122 0
 158 0076 2368     		ldr	r3, [r4]
 159              		.loc 1 130 0
 160 0078 0436     		add	r6, r6, #4
 161              	.LVL21:
 162              		.loc 1 123 0
 163 007a 9A72     		strb	r2, [r3, #10]
 164              	.LVL22:
 165              		.loc 1 122 0
 166 007c 2368     		ldr	r3, [r4]
 167              		.loc 1 123 0
 168 007e EA78     		ldrb	r2, [r5, #3]
 169              		.loc 1 134 0
 170 0080 0435     		add	r5, r5, #4
 171              	.LVL23:
ARM GAS  /tmp/ccBKfMNj.s 			page 4


 172              		.loc 1 123 0
 173 0082 DA72     		strb	r2, [r3, #11]
 174              	.LVL24:
 175              		.loc 1 127 0
 176 0084 089B     		ldr	r3, [sp, #32]
 177              	.LVL25:
 178 0086 9847     		blx	r3
 179              	.LVL26:
 180              		.loc 1 100 0
 181 0088 002F     		cmp	r7, #0
 182 008a D8D1     		bne	.L15
 183 008c C3E7     		b	.L2
 184              	.LVL27:
 185              	.L7:
 186              		.loc 1 69 0
 187 008e 0020     		mov	r0, #0
 188 0090 C1E7     		b	.L2
 189              		.cfi_endproc
 190              	.LFE10:
 191              		.size	FlashProgram, .-FlashProgram
 192 0092 C046C046 		.text
 192      C046C046 
 192      C046C046 
 192      C046
 193              	.Letext0:
 194              		.file 2 "/usr/include/stdint.h"
 195              		.file 3 "../ext/C90TFS/include/SSD_Types.h"
 1060              		.section	.note.GNU-stack,"",%progbits
ARM GAS  /tmp/ccBKfMNj.s 			page 22

