ARM GAS  /tmp/ccIY18GZ.s 			page 1


   1              		.cpu cortex-m0
   2              		.fpu softvfp
   3              		.eabi_attribute 20, 1
   4              		.eabi_attribute 21, 1
   5              		.eabi_attribute 23, 3
   6              		.eabi_attribute 24, 1
   7              		.eabi_attribute 25, 1
   8              		.eabi_attribute 26, 2
   9              		.eabi_attribute 30, 2
  10              		.eabi_attribute 34, 0
  11              		.eabi_attribute 18, 4
  12              		.code	16
  13              		.file	"flash.c"
  14              		.text
  15              	.Ltext0:
  16              		.cfi_sections	.debug_frame
  17              		.section	.text.callback,"ax",%progbits
  18              		.align	2
  19              		.p2align 4,,15
  20              		.code	16
  21              		.thumb_func
  22              		.type	callback, %function
  23              	callback:
  24              	.LFB95:
  25              		.file 1 "flash.c"
  26              		.loc 1 175 0
  27              		.cfi_startproc
  28              		.loc 1 177 0
  29              		@ sp needed
  30 0000 7047     		bx	lr
  31              		.cfi_endproc
  32              	.LFE95:
  33              		.size	callback, .-callback
  34 0002 C046C046 		.section	.text.flashEraseSectors,"ax",%progbits
  34      C046C046 
  34      C046C046 
  34      C046
  35              		.align	2
  36              		.p2align 4,,15
  37              		.global	flashEraseSectors
  38              		.code	16
  39              		.thumb_func
  40              		.type	flashEraseSectors, %function
  41              	flashEraseSectors:
  42              	.LFB91:
  43              		.loc 1 35 0
  44              		.cfi_startproc
  45              	.LVL0:
  46 0000 F0B5     		push	{r4, r5, r6, r7, lr}
  47              		.cfi_def_cfa_offset 20
  48              		.cfi_offset 4, -20
  49              		.cfi_offset 5, -16
  50              		.cfi_offset 6, -12
  51              		.cfi_offset 7, -8
  52              		.cfi_offset 14, -4
  53 0002 5646     		mov	r6, r10
  54 0004 4D46     		mov	r5, r9
ARM GAS  /tmp/ccIY18GZ.s 			page 2


  55 0006 5F46     		mov	r7, fp
  56 0008 4446     		mov	r4, r8
  57              		.loc 1 44 0
  58 000a 8946     		mov	r9, r1
  59              		.loc 1 35 0
  60 000c F0B4     		push	{r4, r5, r6, r7}
  61              		.cfi_def_cfa_offset 36
  62              		.cfi_offset 8, -36
  63              		.cfi_offset 9, -32
  64              		.cfi_offset 10, -28
  65              		.cfi_offset 11, -24
  66              		.loc 1 46 0
  67 000e 3649     		ldr	r1, .L22
  68              	.LVL1:
  69              		.loc 1 35 0
  70 0010 83B0     		sub	sp, sp, #12
  71              		.cfi_def_cfa_offset 48
  72              		.loc 1 35 0
  73 0012 061C     		mov	r6, r0
  74              		.loc 1 44 0
  75 0014 8144     		add	r9, r9, r0
  76              	.LVL2:
  77              		.loc 1 46 0
  78 0016 890A     		lsr	r1, r1, #10
  79 0018 8842     		cmp	r0, r1
  80 001a 5FD3     		bcc	.L18
  81              		.loc 1 51 0
  82 001c 334F     		ldr	r7, .L22+4
  83 001e 7968     		ldr	r1, [r7, #4]
  84 0020 BB68     		ldr	r3, [r7, #8]
  85 0022 8C46     		mov	ip, r1
  86 0024 6344     		add	r3, r3, ip
  87 0026 9A0A     		lsr	r2, r3, #10
  88 0028 9145     		cmp	r9, r2
  89 002a 51D8     		bhi	.L19
  90              		.loc 1 58 0
  91 002c 4B46     		mov	r3, r9
  92 002e 3048     		ldr	r0, .L22+8
  93              	.LVL3:
  94 0030 5A1E     		sub	r2, r3, #1
  95 0032 311C     		mov	r1, r6
  96 0034 FFF7FEFF 		bl	tfp_printf
  97              	.LVL4:
  98              		.loc 1 60 0
  99 0038 4E45     		cmp	r6, r9
 100 003a 39D2     		bcs	.L10
 101 003c 0023     		mov	r3, #0
 102 003e 9A46     		mov	r10, r3
 103 0040 2C4B     		ldr	r3, .L22+12
 104 0042 B502     		lsl	r5, r6, #10
 105 0044 9846     		mov	r8, r3
 106              		.loc 1 85 0
 107 0046 2C4B     		ldr	r3, .L22+16
 108 0048 9B46     		mov	fp, r3
 109 004a 0AE0     		b	.L9
 110              	.LVL5:
 111              	.L21:
ARM GAS  /tmp/ccIY18GZ.s 			page 3


 112 004c 311C     		mov	r1, r6
 113 004e 5846     		mov	r0, fp
 114 0050 FFF7FEFF 		bl	tfp_printf
 115              	.LVL6:
 116 0054 8023     		mov	r3, #128
 117 0056 DB00     		lsl	r3, r3, #3
 118 0058 9C46     		mov	ip, r3
 119              		.loc 1 86 0
 120 005a 0136     		add	r6, r6, #1
 121              	.LVL7:
 122 005c 6544     		add	r5, r5, ip
 123              		.loc 1 60 0
 124 005e B145     		cmp	r9, r6
 125 0060 28D9     		bls	.L6
 126              	.LVL8:
 127              	.L9:
 128              	.LBB38:
 129              	.LBB39:
 130              	.LBB40:
 131              		.file 2 "../os/ext/CMSIS/include/core_cmFunc.h"
 132              		.loc 2 344 0
 133              	#APP
 134              	@ 344 "../os/ext/CMSIS/include/core_cmFunc.h" 1
 135 0062 72B6     		cpsid i
 136              	@ 0 "" 2
 137              		.code	16
 138              	.LBE40:
 139              	.LBE39:
 140              	.LBE38:
 141              		.loc 1 62 0
 142 0064 8022     		mov	r2, #128
 143 0066 4346     		mov	r3, r8
 144 0068 381C     		mov	r0, r7
 145 006a 291C     		mov	r1, r5
 146 006c D200     		lsl	r2, r2, #3
 147 006e 1B68     		ldr	r3, [r3]
 148 0070 FFF7FEFF 		bl	FlashEraseSector
 149              	.LVL9:
 150              	.LBB41:
 151              	.LBB42:
 152              	.LBB43:
 153              		.loc 2 333 0
 154              	#APP
 155              	@ 333 "../os/ext/CMSIS/include/core_cmFunc.h" 1
 156 0074 62B6     		cpsie i
 157              	@ 0 "" 2
 158              		.code	16
 159              	.LBE43:
 160              	.LBE42:
 161              	.LBE41:
 162              		.loc 1 65 0
 163 0076 0028     		cmp	r0, #0
 164 0078 28D1     		bne	.L11
 165 007a 0024     		mov	r4, #0
 166              	.LVL10:
 167              	.L8:
 168              	.LBB44:
ARM GAS  /tmp/ccIY18GZ.s 			page 4


 169              	.LBB45:
 170              	.LBB46:
 171              		.loc 2 344 0
 172              	#APP
 173              	@ 344 "../os/ext/CMSIS/include/core_cmFunc.h" 1
 174 007c 72B6     		cpsid i
 175              	@ 0 "" 2
 176              		.code	16
 177              	.LBE46:
 178              	.LBE45:
 179              	.LBE44:
 180              		.loc 1 77 0
 181 007e 4246     		mov	r2, r8
 182 0080 1268     		ldr	r2, [r2]
 183 0082 291C     		mov	r1, r5
 184 0084 0092     		str	r2, [sp]
 185 0086 8022     		mov	r2, #128
 186 0088 E3B2     		uxtb	r3, r4
 187 008a 381C     		mov	r0, r7
 188 008c 5200     		lsl	r2, r2, #1
 189 008e FFF7FEFF 		bl	FlashVerifySection
 190              	.LVL11:
 191 0092 011C     		mov	r1, r0
 192              	.LVL12:
 193              	.LBB47:
 194              	.LBB48:
 195              	.LBB49:
 196              		.loc 2 333 0
 197              	#APP
 198              	@ 333 "../os/ext/CMSIS/include/core_cmFunc.h" 1
 199 0094 62B6     		cpsie i
 200              	@ 0 "" 2
 201              		.code	16
 202              	.LBE49:
 203              	.LBE48:
 204              	.LBE47:
 205              		.loc 1 79 0
 206 0096 0028     		cmp	r0, #0
 207 0098 03D1     		bne	.L20
 208              	.LVL13:
 209              	.L7:
 210              		.loc 1 75 0 discriminator 2
 211 009a 012C     		cmp	r4, #1
 212 009c D6D0     		beq	.L21
 213 009e 0124     		mov	r4, #1
 214              	.LVL14:
 215 00a0 ECE7     		b	.L8
 216              	.LVL15:
 217              	.L20:
 218              		.loc 1 80 0
 219 00a2 1648     		ldr	r0, .L22+20
 220              	.LVL16:
 221 00a4 221C     		mov	r2, r4
 222 00a6 FFF7FEFF 		bl	tfp_printf
 223              	.LVL17:
 224              		.loc 1 81 0
 225 00aa FD23     		mov	r3, #253
ARM GAS  /tmp/ccIY18GZ.s 			page 5


 226 00ac 9A46     		mov	r10, r3
 227 00ae F4E7     		b	.L7
 228              	.LVL18:
 229              	.L10:
 230              		.loc 1 41 0
 231 00b0 0023     		mov	r3, #0
 232 00b2 9A46     		mov	r10, r3
 233              	.LVL19:
 234              	.L6:
 235              		.loc 1 89 0
 236 00b4 1248     		ldr	r0, .L22+24
 237 00b6 FFF7FEFF 		bl	tfp_printf
 238              	.LVL20:
 239              		.loc 1 91 0
 240 00ba 5046     		mov	r0, r10
 241              	.L4:
 242 00bc 40B2     		sxtb	r0, r0
 243              		.loc 1 92 0
 244 00be 03B0     		add	sp, sp, #12
 245              		@ sp needed
 246              	.LVL21:
 247              	.LVL22:
 248 00c0 3CBC     		pop	{r2, r3, r4, r5}
 249 00c2 9046     		mov	r8, r2
 250 00c4 9946     		mov	r9, r3
 251 00c6 A246     		mov	r10, r4
 252 00c8 AB46     		mov	fp, r5
 253 00ca F0BD     		pop	{r4, r5, r6, r7, pc}
 254              	.LVL23:
 255              	.L11:
 256              		.loc 1 67 0
 257 00cc FD20     		mov	r0, #253
 258              	.LVL24:
 259 00ce F5E7     		b	.L4
 260              	.LVL25:
 261              	.L19:
 262              		.loc 1 52 0
 263 00d0 0C48     		ldr	r0, .L22+28
 264              	.LVL26:
 265 00d2 4946     		mov	r1, r9
 266 00d4 FFF7FEFF 		bl	tfp_printf
 267              	.LVL27:
 268              		.loc 1 55 0
 269 00d8 FC20     		mov	r0, #252
 270 00da EFE7     		b	.L4
 271              	.LVL28:
 272              	.L18:
 273              		.loc 1 47 0
 274 00dc 0A48     		ldr	r0, .L22+32
 275              	.LVL29:
 276 00de FFF7FEFF 		bl	tfp_printf
 277              	.LVL30:
 278              		.loc 1 49 0
 279 00e2 FC20     		mov	r0, #252
 280 00e4 EAE7     		b	.L4
 281              	.L23:
 282 00e6 C046     		.align	2
ARM GAS  /tmp/ccIY18GZ.s 			page 6


 283              	.L22:
 284 00e8 00000000 		.word	__storage_start__
 285 00ec 00000000 		.word	.LANCHOR0
 286 00f0 70000000 		.word	.LC6
 287 00f4 00000000 		.word	.LANCHOR1
 288 00f8 B0000000 		.word	.LC11
 289 00fc 7C000000 		.word	.LC9
 290 0100 B8000000 		.word	.LC13
 291 0104 28000000 		.word	.LC4
 292 0108 00000000 		.word	.LC1
 293              		.cfi_endproc
 294              	.LFE91:
 295              		.size	flashEraseSectors, .-flashEraseSectors
 296 010c C046C046 		.section	.text.flashStart,"ax",%progbits
 297              		.align	2
 298              		.p2align 4,,15
 299              		.global	flashStart
 300              		.code	16
 301              		.thumb_func
 302              		.type	flashStart, %function
 303              	flashStart:
 304              	.LFB92:
 305              		.loc 1 94 0
 306              		.cfi_startproc
 307              		.loc 1 97 0
 308 0000 0022     		mov	r2, #0
 309              		.loc 1 94 0
 310 0002 10B5     		push	{r4, lr}
 311              		.cfi_def_cfa_offset 8
 312              		.cfi_offset 4, -8
 313              		.cfi_offset 14, -4
 314              		.loc 1 99 0
 315 0004 0C4C     		ldr	r4, .L29
 316              		.loc 1 97 0
 317 0006 0D4B     		ldr	r3, .L29+4
 318              		.loc 1 99 0
 319 0008 201C     		mov	r0, r4
 320              		.loc 1 97 0
 321 000a 1A60     		str	r2, [r3]
 322              		.loc 1 99 0
 323 000c FFF7FEFF 		bl	FlashInit
 324              	.LVL31:
 325              		.loc 1 100 0
 326 0010 0028     		cmp	r0, #0
 327 0012 02D0     		beq	.L25
 328              		.loc 1 101 0
 329 0014 0A48     		ldr	r0, .L29+8
 330              	.LVL32:
 331 0016 FFF7FEFF 		bl	tfp_printf
 332              	.LVL33:
 333              	.L25:
 334              		.loc 1 105 0
 335 001a 8021     		mov	r1, #128
 336 001c 094A     		ldr	r2, .L29+12
 337 001e 0A48     		ldr	r0, .L29+16
 338 0020 FFF7FEFF 		bl	RelocateFunction
 339              	.LVL34:
ARM GAS  /tmp/ccIY18GZ.s 			page 7


 340              		.loc 1 106 0
 341 0024 8021     		mov	r1, #128
 342              		.loc 1 105 0
 343 0026 2062     		str	r0, [r4, #32]
 344              		.loc 1 106 0
 345 0028 4900     		lsl	r1, r1, #1
 346 002a 084A     		ldr	r2, .L29+20
 347 002c 0848     		ldr	r0, .L29+24
 348 002e FFF7FEFF 		bl	RelocateFunction
 349              	.LVL35:
 350 0032 084B     		ldr	r3, .L29+28
 351              		.loc 1 108 0
 352              		@ sp needed
 353              		.loc 1 106 0
 354 0034 1860     		str	r0, [r3]
 355              		.loc 1 108 0
 356 0036 10BD     		pop	{r4, pc}
 357              	.L30:
 358              		.align	2
 359              	.L29:
 360 0038 00000000 		.word	.LANCHOR0
 361 003c 00000000 		.word	.LANCHOR2
 362 0040 BC000000 		.word	.LC17
 363 0044 00000000 		.word	callback
 364 0048 00000000 		.word	.LANCHOR3
 365 004c 00000000 		.word	FlashCommandSequence
 366 0050 00000000 		.word	.LANCHOR4
 367 0054 00000000 		.word	.LANCHOR1
 368              		.cfi_endproc
 369              	.LFE92:
 370              		.size	flashStart, .-flashStart
 371 0058 C046C046 		.section	.text.flashGetSecurity,"ax",%progbits
 371      C046C046 
 372              		.align	2
 373              		.p2align 4,,15
 374              		.global	flashGetSecurity
 375              		.code	16
 376              		.thumb_func
 377              		.type	flashGetSecurity, %function
 378              	flashGetSecurity:
 379              	.LFB93:
 380              		.loc 1 110 0
 381              		.cfi_startproc
 382 0000 00B5     		push	{lr}
 383              		.cfi_def_cfa_offset 4
 384              		.cfi_offset 14, -4
 385 0002 83B0     		sub	sp, sp, #12
 386              		.cfi_def_cfa_offset 16
 387              		.loc 1 114 0
 388 0004 6B46     		mov	r3, sp
 389 0006 D91D     		add	r1, r3, #7
 390 0008 0023     		mov	r3, #0
 391              		.loc 1 115 0
 392 000a 0348     		ldr	r0, .L32
 393              		.loc 1 114 0
 394 000c 0B70     		strb	r3, [r1]
 395              		.loc 1 115 0
ARM GAS  /tmp/ccIY18GZ.s 			page 8


 396 000e FFF7FEFF 		bl	FlashGetSecurityState
 397              	.LVL36:
 398              		.loc 1 118 0
 399 0012 03B0     		add	sp, sp, #12
 400              		@ sp needed
 401 0014 00BD     		pop	{pc}
 402              	.L33:
 403 0016 C046     		.align	2
 404              	.L32:
 405 0018 00000000 		.word	.LANCHOR0
 406              		.cfi_endproc
 407              	.LFE93:
 408              		.size	flashGetSecurity, .-flashGetSecurity
 409 001c C046C046 		.section	.text.flashProgram,"ax",%progbits
 410              		.align	2
 411              		.p2align 4,,15
 412              		.global	flashProgram
 413              		.code	16
 414              		.thumb_func
 415              		.type	flashProgram, %function
 416              	flashProgram:
 417              	.LFB94:
 418              		.loc 1 122 0
 419              		.cfi_startproc
 420              	.LVL37:
 421 0000 F0B5     		push	{r4, r5, r6, r7, lr}
 422              		.cfi_def_cfa_offset 20
 423              		.cfi_offset 4, -20
 424              		.cfi_offset 5, -16
 425              		.cfi_offset 6, -12
 426              		.cfi_offset 7, -8
 427              		.cfi_offset 14, -4
 428 0002 4746     		mov	r7, r8
 429 0004 80B4     		push	{r7}
 430              		.cfi_def_cfa_offset 24
 431              		.cfi_offset 8, -24
 432 0006 86B0     		sub	sp, sp, #24
 433              		.cfi_def_cfa_offset 48
 434              		.loc 1 129 0
 435 0008 002A     		cmp	r2, #0
 436 000a 3DD0     		beq	.L40
 437              		.loc 1 133 0
 438 000c 284C     		ldr	r4, .L52
 439 000e A40A     		lsr	r4, r4, #10
 440 0010 A402     		lsl	r4, r4, #10
 441 0012 A142     		cmp	r1, r4
 442 0014 46D3     		bcc	.L42
 443              		.loc 1 134 0 discriminator 1
 444 0016 274B     		ldr	r3, .L52+4
 445 0018 8F18     		add	r7, r1, r2
 446 001a 1C1C     		mov	r4, r3
 447 001c 6468     		ldr	r4, [r4, #4]
 448 001e 9846     		mov	r8, r3
 449 0020 A446     		mov	ip, r4
 450 0022 9B68     		ldr	r3, [r3, #8]
 451 0024 6344     		add	r3, r3, ip
 452              		.loc 1 133 0 discriminator 1
ARM GAS  /tmp/ccIY18GZ.s 			page 9


 453 0026 9F42     		cmp	r7, r3
 454 0028 3CD8     		bhi	.L42
 455              		.loc 1 139 0
 456 002a 0323     		mov	r3, #3
 457 002c 1342     		tst	r3, r2
 458 002e 3BD1     		bne	.L44
 459              		.loc 1 139 0 is_stmt 0 discriminator 1
 460 0030 1942     		tst	r1, r3
 461 0032 39D1     		bne	.L44
 462              		.loc 1 139 0
 463 0034 0C1C     		mov	r4, r1
 464 0036 0025     		mov	r5, #0
 465              	.LVL38:
 466              	.L39:
 467 0038 2678     		ldrb	r6, [r4]
 468 003a FF2E     		cmp	r6, #255
 469 003c 00D0     		beq	.L38
 470 003e 0125     		mov	r5, #1
 471              	.L38:
 472 0040 0134     		add	r4, r4, #1
 473 0042 EDB2     		uxtb	r5, r5
 474              	.LVL39:
 475              		.loc 1 145 0 is_stmt 1
 476 0044 BC42     		cmp	r4, r7
 477 0046 F7D1     		bne	.L39
 478              		.loc 1 149 0
 479 0048 002D     		cmp	r5, #0
 480 004a 23D1     		bne	.L45
 481 004c 151C     		mov	r5, r2
 482 004e 0E1C     		mov	r6, r1
 483 0050 041C     		mov	r4, r0
 484              	.LBB50:
 485              	.LBB51:
 486              	.LBB52:
 487              		.loc 2 344 0
 488              	#APP
 489              	@ 344 "../os/ext/CMSIS/include/core_cmFunc.h" 1
 490 0052 72B6     		cpsid i
 491              	@ 0 "" 2
 492              		.code	16
 493              	.LBE52:
 494              	.LBE51:
 495              	.LBE50:
 496              		.loc 1 153 0
 497 0054 184F     		ldr	r7, .L52+8
 498 0056 4046     		mov	r0, r8
 499              	.LVL40:
 500 0058 3B68     		ldr	r3, [r7]
 501 005a 0093     		str	r3, [sp]
 502 005c 231C     		mov	r3, r4
 503 005e FFF7FEFF 		bl	FlashProgram
 504              	.LVL41:
 505              	.LBB53:
 506              	.LBB54:
 507              	.LBB55:
 508              		.loc 2 333 0
 509              	#APP
ARM GAS  /tmp/ccIY18GZ.s 			page 10


 510              	@ 333 "../os/ext/CMSIS/include/core_cmFunc.h" 1
 511 0062 62B6     		cpsie i
 512              	@ 0 "" 2
 513              		.code	16
 514              	.LBE55:
 515              	.LBE54:
 516              	.LBE53:
 517              		.loc 1 156 0
 518 0064 0028     		cmp	r0, #0
 519 0066 21D1     		bne	.L46
 520              	.LBB56:
 521              	.LBB57:
 522              	.LBB58:
 523              		.loc 2 344 0
 524              	#APP
 525              	@ 344 "../os/ext/CMSIS/include/core_cmFunc.h" 1
 526 0068 72B6     		cpsid i
 527              	@ 0 "" 2
 528              		.code	16
 529              	.LBE58:
 530              	.LBE57:
 531              	.LBE56:
 532              		.loc 1 162 0
 533 006a 05AB     		add	r3, sp, #20
 534 006c 0093     		str	r3, [sp]
 535 006e 0123     		mov	r3, #1
 536 0070 0193     		str	r3, [sp, #4]
 537 0072 3B68     		ldr	r3, [r7]
 538 0074 4046     		mov	r0, r8
 539              	.LVL42:
 540 0076 0293     		str	r3, [sp, #8]
 541 0078 311C     		mov	r1, r6
 542 007a 2A1C     		mov	r2, r5
 543 007c 231C     		mov	r3, r4
 544 007e FFF7FEFF 		bl	FlashProgramCheck
 545              	.LVL43:
 546              	.LBB59:
 547              	.LBB60:
 548              	.LBB61:
 549              		.loc 2 333 0
 550              	#APP
 551              	@ 333 "../os/ext/CMSIS/include/core_cmFunc.h" 1
 552 0082 62B6     		cpsie i
 553              	@ 0 "" 2
 554              		.code	16
 555              	.LBE61:
 556              	.LBE60:
 557              	.LBE59:
 558              		.loc 1 166 0
 559 0084 0028     		cmp	r0, #0
 560 0086 07D1     		bne	.L51
 561              	.LVL44:
 562              	.L40:
 563              		.loc 1 130 0
 564 0088 0020     		mov	r0, #0
 565              	.L36:
 566 008a 40B2     		sxtb	r0, r0
ARM GAS  /tmp/ccIY18GZ.s 			page 11


 567              		.loc 1 172 0
 568 008c 06B0     		add	sp, sp, #24
 569              		@ sp needed
 570 008e 04BC     		pop	{r2}
 571 0090 9046     		mov	r8, r2
 572 0092 F0BD     		pop	{r4, r5, r6, r7, pc}
 573              	.LVL45:
 574              	.L45:
 575              		.loc 1 150 0
 576 0094 FF20     		mov	r0, #255
 577              	.LVL46:
 578 0096 F8E7     		b	.L36
 579              	.LVL47:
 580              	.L51:
 581              		.loc 1 167 0
 582 0098 0848     		ldr	r0, .L52+12
 583              	.LVL48:
 584 009a 0599     		ldr	r1, [sp, #20]
 585 009c FFF7FEFF 		bl	tfp_printf
 586              	.LVL49:
 587              		.loc 1 168 0
 588 00a0 FA20     		mov	r0, #250
 589 00a2 F2E7     		b	.L36
 590              	.LVL50:
 591              	.L42:
 592              		.loc 1 135 0
 593 00a4 FC20     		mov	r0, #252
 594              	.LVL51:
 595 00a6 F0E7     		b	.L36
 596              	.LVL52:
 597              	.L44:
 598              		.loc 1 140 0
 599 00a8 FE20     		mov	r0, #254
 600              	.LVL53:
 601 00aa EEE7     		b	.L36
 602              	.LVL54:
 603              	.L46:
 604              		.loc 1 157 0
 605 00ac FD20     		mov	r0, #253
 606              	.LVL55:
 607 00ae ECE7     		b	.L36
 608              	.L53:
 609              		.align	2
 610              	.L52:
 611 00b0 00000000 		.word	__storage_start__
 612 00b4 00000000 		.word	.LANCHOR0
 613 00b8 00000000 		.word	.LANCHOR1
 614 00bc D0000000 		.word	.LC30
 615              		.cfi_endproc
 616              	.LFE94:
 617              		.size	flashProgram, .-flashProgram
 618              		.global	flashSSDConfig
 619              		.global	__ram_for_callback
 620              		.global	__ram_func
 621              		.global	g_FlashLaunchCommand
 622              		.global	gCallBackCnt
 623              		.section	.data.g_FlashLaunchCommand,"aw",%progbits
ARM GAS  /tmp/ccIY18GZ.s 			page 12


 624              		.align	2
 625              	.LANCHOR1 = . + 0
 626              		.type	g_FlashLaunchCommand, %object
 627              		.size	g_FlashLaunchCommand, 4
 628              	g_FlashLaunchCommand:
 629 0000 FFFFFFFF 		.word	-1
 630              		.section	.bss.__ram_func,"aw",%nobits
 631              		.align	2
 632              	.LANCHOR4 = . + 0
 633              		.type	__ram_func, %object
 634              		.size	__ram_func, 256
 635              	__ram_func:
 636 0000 00000000 		.space	256
 636      00000000 
 636      00000000 
 636      00000000 
 636      00000000 
 637              		.section	.rodata.str1.4,"aMS",%progbits,1
 638              		.align	2
 639              	.LC1:
 640 0000 55736572 		.ascii	"User sectors start at %d, aborting.\012\015\000"
 640      20736563 
 640      746F7273 
 640      20737461 
 640      72742061 
 641 0026 0000     		.space	2
 642              	.LC4:
 643 0028 546F6F20 		.ascii	"Too many sectors requested, end at %d but we only h"
 643      6D616E79 
 643      20736563 
 643      746F7273 
 643      20726571 
 644 005b 61766520 		.ascii	"ave %d sectors.\012\015\000"
 644      25642073 
 644      6563746F 
 644      72732E0A 
 644      0D00
 645 006d 000000   		.space	3
 646              	.LC6:
 647 0070 45532564 		.ascii	"ES%d-%d\012\015\000"
 647      2D25640A 
 647      0D00
 648 007a 0000     		.space	2
 649              	.LC9:
 650 007c 45726173 		.ascii	"Erase verify failed (%d), margin read level: %d\012"
 650      65207665 
 650      72696679 
 650      20666169 
 650      6C656420 
 651 00ac 0D00     		.ascii	"\015\000"
 652 00ae 0000     		.space	2
 653              	.LC11:
 654 00b0 20652564 		.ascii	" e%d \000"
 654      2000
 655 00b6 0000     		.space	2
 656              	.LC13:
 657 00b8 0A0D00   		.ascii	"\012\015\000"
ARM GAS  /tmp/ccIY18GZ.s 			page 13


 658 00bb 00       		.space	1
 659              	.LC17:
 660 00bc 466C6173 		.ascii	"Flash init failed\012\015\000"
 660      6820696E 
 660      69742066 
 660      61696C65 
 660      640A0D00 
 661              	.LC30:
 662 00d0 4661696C 		.ascii	"Failed programming verification at USER margin leve"
 662      65642070 
 662      726F6772 
 662      616D6D69 
 662      6E672076 
 663 0103 6C733A20 		.ascii	"ls: worry a little bit. Failure address: %08x\012\015"
 663      776F7272 
 663      79206120 
 663      6C697474 
 663      6C652062 
 664 0132 00       		.ascii	"\000"
 665 0133 00       		.section	.bss.gCallBackCnt,"aw",%nobits
 666              		.align	2
 667              	.LANCHOR2 = . + 0
 668              		.type	gCallBackCnt, %object
 669              		.size	gCallBackCnt, 4
 670              	gCallBackCnt:
 671 0000 00000000 		.space	4
 672              		.section	.data.flashSSDConfig,"aw",%progbits
 673              		.align	2
 674              	.LANCHOR0 = . + 0
 675              		.type	flashSSDConfig, %object
 676              		.size	flashSSDConfig, 36
 677              	flashSSDConfig:
 678 0000 00000240 		.word	1073872896
 679 0004 00000000 		.word	0
 680 0008 00000200 		.word	131072
 681 000c 00000000 		.word	0
 682 0010 00000000 		.word	0
 683 0014 00000000 		.word	0
 684 0018 00000000 		.word	0
 685 001c 00       		.byte	0
 686 001d 000000   		.space	3
 687 0020 FFFFFFFF 		.word	-1
 688              		.section	.bss.__ram_for_callback,"aw",%nobits
 689              		.align	2
 690              	.LANCHOR3 = . + 0
 691              		.type	__ram_for_callback, %object
 692              		.size	__ram_for_callback, 128
 693              	__ram_for_callback:
 694 0000 00000000 		.space	128
 694      00000000 
 694      00000000 
 694      00000000 
 694      00000000 
 695              		.text
 696              	.Letext0:
 697              		.file 3 "../os/nil/include/nil.h"
 698              		.file 4 "/usr/include/stdint.h"
ARM GAS  /tmp/ccIY18GZ.s 			page 14


 699              		.file 5 "../os/nil/ports/ARMCMx/compilers/GCC/niltypes.h"
 700              		.file 6 "../os/nil/ports/ARMCMx/nilcore.h"
 701              		.file 7 "../os/nil/ports/ARMCMx/nilcore_v6m.h"
 702              		.file 8 "../ext/C90TFS/include/SSD_Types.h"
 703              		.file 9 "../os/hal/boards/CHIBITRONICS_ESPLANADE/board.h"
 704              		.file 10 "../ext/C90TFS/include/SSD_FTFx.h"
 705              		.file 11 "printf.h"
 3267              		.section	.note.GNU-stack,"",%progbits
ARM GAS  /tmp/ccIY18GZ.s 			page 64

