ARM GAS  /tmp/cctAjgwv.s 			page 1


   1              		.cpu cortex-m0
   2              		.fpu softvfp
   3              		.eabi_attribute 20, 1
   4              		.eabi_attribute 21, 1
   5              		.eabi_attribute 23, 3
   6              		.eabi_attribute 24, 1
   7              		.eabi_attribute 25, 1
   8              		.eabi_attribute 26, 2
   9              		.eabi_attribute 30, 2
  10              		.eabi_attribute 34, 0
  11              		.eabi_attribute 18, 4
  12              		.code	16
  13              		.file	"FlashEraseSector.c"
  14              		.text
  15              	.Ltext0:
  16              		.cfi_sections	.debug_frame
  17              		.section	.text.FlashEraseSector,"ax",%progbits
  18              		.align	2
  19              		.p2align 4,,-1
  20              		.global	FlashEraseSector
  21              		.code	16
  22              		.thumb_func
  23              		.type	FlashEraseSector, %function
  24              	FlashEraseSector:
  25              	.LFB10:
  26              		.file 1 "../ext/C90TFS/source/FlashEraseSector.c"
  27              		.loc 1 68 0
  28              		.cfi_startproc
  29              	.LVL0:
  30 0000 F8B5     		push	{r3, r4, r5, r6, r7, lr}
  31              		.cfi_def_cfa_offset 24
  32              		.cfi_offset 3, -24
  33              		.cfi_offset 4, -20
  34              		.cfi_offset 5, -16
  35              		.cfi_offset 6, -12
  36              		.cfi_offset 7, -8
  37              		.cfi_offset 14, -4
  38 0002 4F46     		mov	r7, r9
  39 0004 4646     		mov	r6, r8
  40              		.loc 1 88 0
  41 0006 4568     		ldr	r5, [r0, #4]
  42              	.LVL1:
  43              		.loc 1 68 0
  44 0008 C0B4     		push	{r6, r7}
  45              		.cfi_def_cfa_offset 32
  46              		.cfi_offset 8, -32
  47              		.cfi_offset 9, -28
  48              		.loc 1 68 0
  49 000a 041C     		mov	r4, r0
  50 000c 161C     		mov	r6, r2
  51 000e 1F1C     		mov	r7, r3
  52 0010 2020     		mov	r0, #32
  53              	.LVL2:
  54              		.loc 1 89 0
  55 0012 A942     		cmp	r1, r5
  56 0014 08D3     		bcc	.L2
  57              		.loc 1 89 0 is_stmt 0 discriminator 1
ARM GAS  /tmp/cctAjgwv.s 			page 2


  58 0016 A368     		ldr	r3, [r4, #8]
  59              	.LVL3:
  60 0018 EB18     		add	r3, r5, r3
  61 001a 9942     		cmp	r1, r3
  62 001c 04D2     		bcs	.L2
  63              	.LVL4:
  64              		.loc 1 105 0 is_stmt 1
  65 001e 8020     		mov	r0, #128
  66              		.loc 1 102 0
  67 0020 9305     		lsl	r3, r2, #22
  68              		.loc 1 105 0
  69 0022 8001     		lsl	r0, r0, #6
  70              		.loc 1 102 0
  71 0024 002B     		cmp	r3, #0
  72 0026 03D0     		beq	.L15
  73              	.LVL5:
  74              	.L2:
  75              		.loc 1 145 0
  76              		@ sp needed
  77              	.LVL6:
  78              	.LVL7:
  79              	.LVL8:
  80 0028 0CBC     		pop	{r2, r3}
  81 002a 9046     		mov	r8, r2
  82 002c 9946     		mov	r9, r3
  83 002e F8BD     		pop	{r3, r4, r5, r6, r7, pc}
  84              	.LVL9:
  85              	.L15:
  86              		.loc 1 91 0
  87 0030 4D1B     		sub	r5, r1, r5
  88              	.LVL10:
  89              		.loc 1 70 0
  90 0032 0020     		mov	r0, #0
  91              		.loc 1 108 0
  92 0034 002A     		cmp	r2, #0
  93 0036 F7D0     		beq	.L2
  94              		.loc 1 112 0
  95 0038 3123     		mov	r3, #49
  96 003a 9946     		mov	r9, r3
  97              		.loc 1 116 0
  98 003c 0923     		mov	r3, #9
  99 003e 9846     		mov	r8, r3
 100 0040 01E0     		b	.L3
 101              	.LVL11:
 102              	.L16:
 103              		.loc 1 108 0 discriminator 1
 104 0042 0028     		cmp	r0, #0
 105 0044 F0D1     		bne	.L2
 106              	.LVL12:
 107              	.L3:
 108              		.loc 1 112 0
 109 0046 4946     		mov	r1, r9
 110 0048 2268     		ldr	r2, [r4]
 111              		.loc 1 119 0
 112 004a 2B0C     		lsr	r3, r5, #16
 113              		.loc 1 112 0
 114 004c 1170     		strb	r1, [r2]
ARM GAS  /tmp/cctAjgwv.s 			page 3


 115              	.LVL13:
 116              		.loc 1 116 0
 117 004e 4146     		mov	r1, r8
 118              		.loc 1 115 0
 119 0050 2268     		ldr	r2, [r4]
 120              		.loc 1 119 0
 121 0052 DBB2     		uxtb	r3, r3
 122              		.loc 1 116 0
 123 0054 D171     		strb	r1, [r2, #7]
 124              	.LVL14:
 125              		.loc 1 118 0
 126 0056 2268     		ldr	r2, [r4]
 127              		.loc 1 122 0
 128 0058 290A     		lsr	r1, r5, #8
 129              		.loc 1 119 0
 130 005a 9371     		strb	r3, [r2, #6]
 131              	.LVL15:
 132              		.loc 1 121 0
 133 005c 2368     		ldr	r3, [r4]
 134              		.loc 1 122 0
 135 005e C9B2     		uxtb	r1, r1
 136 0060 5971     		strb	r1, [r3, #5]
 137              	.LVL16:
 138              		.loc 1 124 0
 139 0062 2368     		ldr	r3, [r4]
 140              		.loc 1 125 0
 141 0064 EAB2     		uxtb	r2, r5
 142              		.loc 1 131 0
 143 0066 0649     		ldr	r1, .L17
 144              		.loc 1 125 0
 145 0068 1A71     		strb	r2, [r3, #4]
 146              	.LVL17:
 147              		.loc 1 132 0
 148 006a 8023     		mov	r3, #128
 149              	.LVL18:
 150              		.loc 1 131 0
 151 006c 8C46     		mov	ip, r1
 152              		.loc 1 132 0
 153 006e DB00     		lsl	r3, r3, #3
 154              		.loc 1 131 0
 155 0070 6644     		add	r6, r6, ip
 156              	.LVL19:
 157              		.loc 1 132 0
 158 0072 9C46     		mov	ip, r3
 159              		.loc 1 128 0
 160 0074 201C     		mov	r0, r4
 161              		.loc 1 132 0
 162 0076 6544     		add	r5, r5, ip
 163              	.LVL20:
 164              		.loc 1 128 0
 165 0078 B847     		blx	r7
 166              	.LVL21:
 167              		.loc 1 108 0
 168 007a 002E     		cmp	r6, #0
 169 007c E1D1     		bne	.L16
 170 007e D3E7     		b	.L2
 171              	.L18:
ARM GAS  /tmp/cctAjgwv.s 			page 4


 172              		.align	2
 173              	.L17:
 174 0080 00FCFFFF 		.word	-1024
 175              		.cfi_endproc
 176              	.LFE10:
 177              		.size	FlashEraseSector, .-FlashEraseSector
 178              		.text
 179              	.Letext0:
 180              		.file 2 "/usr/include/stdint.h"
 181              		.file 3 "../ext/C90TFS/include/SSD_Types.h"
 953              		.section	.note.GNU-stack,"",%progbits
ARM GAS  /tmp/cctAjgwv.s 			page 20

