ARM GAS  /tmp/ccjC49s9.s 			page 1


   1              		.cpu cortex-m0
   2              		.fpu softvfp
   3              		.eabi_attribute 20, 1
   4              		.eabi_attribute 21, 1
   5              		.eabi_attribute 23, 3
   6              		.eabi_attribute 24, 1
   7              		.eabi_attribute 25, 1
   8              		.eabi_attribute 26, 2
   9              		.eabi_attribute 30, 2
  10              		.eabi_attribute 34, 0
  11              		.eabi_attribute 18, 4
  12              		.code	16
  13              		.file	"FlashProgramOnce.c"
  14              		.text
  15              	.Ltext0:
  16              		.cfi_sections	.debug_frame
  17              		.section	.text.FlashProgramOnce,"ax",%progbits
  18              		.align	2
  19              		.p2align 4,,-1
  20              		.global	FlashProgramOnce
  21              		.code	16
  22              		.thumb_func
  23              		.type	FlashProgramOnce, %function
  24              	FlashProgramOnce:
  25              	.LFB10:
  26              		.file 1 "../ext/C90TFS/source/FlashProgramOnce.c"
  27              		.loc 1 69 0
  28              		.cfi_startproc
  29              	.LVL0:
  30 0000 70B5     		push	{r4, r5, r6, lr}
  31              		.cfi_def_cfa_offset 16
  32              		.cfi_offset 4, -16
  33              		.cfi_offset 5, -12
  34              		.cfi_offset 6, -8
  35              		.cfi_offset 14, -4
  36              		.loc 1 77 0
  37 0002 3126     		mov	r6, #49
  38              		.loc 1 81 0
  39 0004 4325     		mov	r5, #67
  40              		.loc 1 77 0
  41 0006 0468     		ldr	r4, [r0]
  42              		.loc 1 103 0
  43              		@ sp needed
  44              		.loc 1 77 0
  45 0008 2670     		strb	r6, [r4]
  46              	.LVL1:
  47              		.loc 1 80 0
  48 000a 0468     		ldr	r4, [r0]
  49              		.loc 1 81 0
  50 000c E571     		strb	r5, [r4, #7]
  51              	.LVL2:
  52              		.loc 1 83 0
  53 000e 0468     		ldr	r4, [r0]
  54              		.loc 1 84 0
  55 0010 A171     		strb	r1, [r4, #6]
  56              	.LVL3:
  57              		.loc 1 88 0
ARM GAS  /tmp/ccjC49s9.s 			page 2


  58 0012 0168     		ldr	r1, [r0]
  59              	.LVL4:
  60              		.loc 1 89 0
  61 0014 1478     		ldrb	r4, [r2]
  62              	.LVL5:
  63 0016 0C72     		strb	r4, [r1, #8]
  64              	.LVL6:
  65              		.loc 1 88 0
  66 0018 0168     		ldr	r1, [r0]
  67              	.LVL7:
  68              		.loc 1 89 0
  69 001a 5478     		ldrb	r4, [r2, #1]
  70 001c 4C72     		strb	r4, [r1, #9]
  71              	.LVL8:
  72              		.loc 1 88 0
  73 001e 0168     		ldr	r1, [r0]
  74              	.LVL9:
  75              		.loc 1 89 0
  76 0020 9478     		ldrb	r4, [r2, #2]
  77 0022 8C72     		strb	r4, [r1, #10]
  78              	.LVL10:
  79 0024 D178     		ldrb	r1, [r2, #3]
  80              	.LVL11:
  81              		.loc 1 88 0
  82 0026 0268     		ldr	r2, [r0]
  83              	.LVL12:
  84              		.loc 1 89 0
  85 0028 D172     		strb	r1, [r2, #11]
  86              	.LVL13:
  87              		.loc 1 92 0
  88 002a 9847     		blx	r3
  89              	.LVL14:
  90              		.loc 1 103 0
  91 002c 70BD     		pop	{r4, r5, r6, pc}
  92              		.cfi_endproc
  93              	.LFE10:
  94              		.size	FlashProgramOnce, .-FlashProgramOnce
  95 002e C046     		.text
  96              	.Letext0:
  97              		.file 2 "/usr/include/stdint.h"
  98              		.file 3 "../ext/C90TFS/include/SSD_Types.h"
 826              		.section	.note.GNU-stack,"",%progbits
ARM GAS  /tmp/ccjC49s9.s 			page 18

