ARM GAS  /tmp/ccZjCMC4.s 			page 1


   1              		.cpu cortex-m0
   2              		.fpu softvfp
   3              		.eabi_attribute 20, 1
   4              		.eabi_attribute 21, 1
   5              		.eabi_attribute 23, 3
   6              		.eabi_attribute 24, 1
   7              		.eabi_attribute 25, 1
   8              		.eabi_attribute 26, 2
   9              		.eabi_attribute 30, 2
  10              		.eabi_attribute 34, 0
  11              		.eabi_attribute 18, 4
  12              		.code	16
  13              		.file	"FlashVerifySection.c"
  14              		.text
  15              	.Ltext0:
  16              		.cfi_sections	.debug_frame
  17              		.section	.text.FlashVerifySection,"ax",%progbits
  18              		.align	2
  19              		.p2align 4,,-1
  20              		.global	FlashVerifySection
  21              		.code	16
  22              		.thumb_func
  23              		.type	FlashVerifySection, %function
  24              	FlashVerifySection:
  25              	.LFB10:
  26              		.file 1 "../ext/C90TFS/source/FlashVerifySection.c"
  27              		.loc 1 70 0
  28              		.cfi_startproc
  29              	.LVL0:
  30 0000 F8B5     		push	{r3, r4, r5, r6, r7, lr}
  31              		.cfi_def_cfa_offset 24
  32              		.cfi_offset 3, -24
  33              		.cfi_offset 4, -20
  34              		.cfi_offset 5, -16
  35              		.cfi_offset 6, -12
  36              		.cfi_offset 7, -8
  37              		.cfi_offset 14, -4
  38              		.loc 1 86 0
  39 0002 4468     		ldr	r4, [r0, #4]
  40              	.LVL1:
  41 0004 2025     		mov	r5, #32
  42              		.loc 1 87 0
  43 0006 A142     		cmp	r1, r4
  44 0008 20D3     		bcc	.L2
  45              		.loc 1 87 0 is_stmt 0 discriminator 1
  46 000a 8668     		ldr	r6, [r0, #8]
  47 000c A619     		add	r6, r4, r6
  48 000e B142     		cmp	r1, r6
  49 0010 1CD2     		bcs	.L2
  50              		.loc 1 100 0 is_stmt 1
  51 0012 3127     		mov	r7, #49
  52              		.loc 1 104 0
  53 0014 0126     		mov	r6, #1
  54              		.loc 1 100 0
  55 0016 0568     		ldr	r5, [r0]
  56              		.loc 1 89 0
  57 0018 091B     		sub	r1, r1, r4
ARM GAS  /tmp/ccZjCMC4.s 			page 2


  58              	.LVL2:
  59              		.loc 1 100 0
  60 001a 2F70     		strb	r7, [r5]
  61              	.LVL3:
  62              		.loc 1 103 0
  63 001c 0568     		ldr	r5, [r0]
  64              		.loc 1 106 0
  65 001e 0C0C     		lsr	r4, r1, #16
  66              		.loc 1 104 0
  67 0020 EE71     		strb	r6, [r5, #7]
  68              	.LVL4:
  69              		.loc 1 105 0
  70 0022 0568     		ldr	r5, [r0]
  71              		.loc 1 106 0
  72 0024 E4B2     		uxtb	r4, r4
  73 0026 AC71     		strb	r4, [r5, #6]
  74              	.LVL5:
  75              		.loc 1 107 0
  76 0028 0568     		ldr	r5, [r0]
  77              		.loc 1 108 0
  78 002a 0C0A     		lsr	r4, r1, #8
  79 002c E4B2     		uxtb	r4, r4
  80 002e 6C71     		strb	r4, [r5, #5]
  81              	.LVL6:
  82              		.loc 1 109 0
  83 0030 0468     		ldr	r4, [r0]
  84              		.loc 1 110 0
  85 0032 C9B2     		uxtb	r1, r1
  86              	.LVL7:
  87 0034 2171     		strb	r1, [r4, #4]
  88              	.LVL8:
  89              		.loc 1 111 0
  90 0036 0168     		ldr	r1, [r0]
  91              		.loc 1 112 0
  92 0038 140A     		lsr	r4, r2, #8
  93 003a CC72     		strb	r4, [r1, #11]
  94              	.LVL9:
  95              		.loc 1 113 0
  96 003c 0168     		ldr	r1, [r0]
  97              		.loc 1 114 0
  98 003e D2B2     		uxtb	r2, r2
  99              	.LVL10:
 100 0040 8A72     		strb	r2, [r1, #10]
 101              	.LVL11:
 102              		.loc 1 115 0
 103 0042 0268     		ldr	r2, [r0]
 104              		.loc 1 116 0
 105 0044 5372     		strb	r3, [r2, #9]
 106              	.LVL12:
 107              		.loc 1 119 0
 108 0046 069B     		ldr	r3, [sp, #24]
 109              	.LVL13:
 110 0048 9847     		blx	r3
 111              	.LVL14:
 112 004a 051C     		mov	r5, r0
 113              	.LVL15:
 114              	.L2:
ARM GAS  /tmp/ccZjCMC4.s 			page 3


 115              		.loc 1 130 0
 116 004c 281C     		mov	r0, r5
 117              		@ sp needed
 118              	.LVL16:
 119 004e F8BD     		pop	{r3, r4, r5, r6, r7, pc}
 120              		.cfi_endproc
 121              	.LFE10:
 122              		.size	FlashVerifySection, .-FlashVerifySection
 123              		.text
 124              	.Letext0:
 125              		.file 2 "/usr/include/stdint.h"
 126              		.file 3 "../ext/C90TFS/include/SSD_Types.h"
 867              		.section	.note.GNU-stack,"",%progbits
ARM GAS  /tmp/ccZjCMC4.s 			page 19

