ARM GAS  /tmp/ccYdko2T.s 			page 1


   1              		.cpu cortex-m0
   2              		.fpu softvfp
   3              		.eabi_attribute 20, 1
   4              		.eabi_attribute 21, 1
   5              		.eabi_attribute 23, 3
   6              		.eabi_attribute 24, 1
   7              		.eabi_attribute 25, 1
   8              		.eabi_attribute 26, 2
   9              		.eabi_attribute 30, 2
  10              		.eabi_attribute 34, 0
  11              		.eabi_attribute 18, 4
  12              		.code	16
  13              		.file	"FlashVerifyAllBlock.c"
  14              		.text
  15              	.Ltext0:
  16              		.cfi_sections	.debug_frame
  17              		.section	.text.FlashVerifyAllBlock,"ax",%progbits
  18              		.align	2
  19              		.p2align 4,,-1
  20              		.global	FlashVerifyAllBlock
  21              		.code	16
  22              		.thumb_func
  23              		.type	FlashVerifyAllBlock, %function
  24              	FlashVerifyAllBlock:
  25              	.LFB10:
  26              		.file 1 "../ext/C90TFS/source/FlashVerifyAllBlock.c"
  27              		.loc 1 70 0
  28              		.cfi_startproc
  29              	.LVL0:
  30 0000 38B5     		push	{r3, r4, r5, lr}
  31              		.cfi_def_cfa_offset 16
  32              		.cfi_offset 3, -16
  33              		.cfi_offset 4, -12
  34              		.cfi_offset 5, -8
  35              		.cfi_offset 14, -4
  36              		.loc 1 75 0
  37 0002 3125     		mov	r5, #49
  38              		.loc 1 79 0
  39 0004 4024     		mov	r4, #64
  40              		.loc 1 75 0
  41 0006 0368     		ldr	r3, [r0]
  42              		.loc 1 95 0
  43              		@ sp needed
  44              		.loc 1 75 0
  45 0008 1D70     		strb	r5, [r3]
  46              	.LVL1:
  47              		.loc 1 78 0
  48 000a 0368     		ldr	r3, [r0]
  49              		.loc 1 79 0
  50 000c DC71     		strb	r4, [r3, #7]
  51              	.LVL2:
  52              		.loc 1 81 0
  53 000e 0368     		ldr	r3, [r0]
  54              		.loc 1 82 0
  55 0010 9971     		strb	r1, [r3, #6]
  56              	.LVL3:
  57              		.loc 1 84 0
ARM GAS  /tmp/ccYdko2T.s 			page 2


  58 0012 9047     		blx	r2
  59              	.LVL4:
  60              		.loc 1 95 0
  61 0014 38BD     		pop	{r3, r4, r5, pc}
  62              		.cfi_endproc
  63              	.LFE10:
  64              		.size	FlashVerifyAllBlock, .-FlashVerifyAllBlock
  65 0016 C046C046 		.text
  65      C046C046 
  65      C046
  66              	.Letext0:
  67              		.file 2 "/usr/include/stdint.h"
  68              		.file 3 "../ext/C90TFS/include/SSD_Types.h"
 690              		.section	.note.GNU-stack,"",%progbits
ARM GAS  /tmp/ccYdko2T.s 			page 16

