ARM GAS  /tmp/ccjnb8m5.s 			page 1


   1              		.cpu cortex-m0
   2              		.fpu softvfp
   3              		.eabi_attribute 20, 1
   4              		.eabi_attribute 21, 1
   5              		.eabi_attribute 23, 3
   6              		.eabi_attribute 24, 1
   7              		.eabi_attribute 25, 1
   8              		.eabi_attribute 26, 2
   9              		.eabi_attribute 30, 2
  10              		.eabi_attribute 34, 0
  11              		.eabi_attribute 18, 4
  12              		.code	16
  13              		.file	"hal_buffers.c"
  14              		.text
  15              	.Ltext0:
  16              		.cfi_sections	.debug_frame
  17              		.section	.text.ibqObjectInit,"ax",%progbits
  18              		.align	2
  19              		.p2align 4,,15
  20              		.global	ibqObjectInit
  21              		.code	16
  22              		.thumb_func
  23              		.type	ibqObjectInit, %function
  24              	ibqObjectInit:
  25              	.LFB93:
  26              		.file 1 "../os/hal/src/hal_buffers.c"
  27              		.loc 1 77 0
  28              		.cfi_startproc
  29              	.LVL0:
  30 0000 30B5     		push	{r4, r5, lr}
  31              		.cfi_def_cfa_offset 12
  32              		.cfi_offset 4, -12
  33              		.cfi_offset 5, -8
  34              		.cfi_offset 14, -4
  35              		.loc 1 85 0
  36 0002 1D1C     		mov	r5, r3
  37              	.LBB175:
  38              	.LBB176:
  39              		.file 2 "../os/hal/osal/nil/osal.h"
  40              		.loc 2 765 0
  41 0004 0024     		mov	r4, #0
  42              	.LBE176:
  43              	.LBE175:
  44              		.loc 1 85 0
  45 0006 0432     		add	r2, r2, #4
  46              	.LVL1:
  47 0008 5543     		mul	r5, r2
  48              		.loc 1 87 0
  49 000a 8361     		str	r3, [r0, #24]
  50              		.loc 1 91 0
  51 000c 039B     		ldr	r3, [sp, #12]
  52              	.LVL2:
  53              		.loc 1 85 0
  54 000e 4D19     		add	r5, r1, r5
  55              		.loc 1 91 0
  56 0010 8362     		str	r3, [r0, #40]
  57              		.loc 1 92 0
ARM GAS  /tmp/ccjnb8m5.s 			page 2


  58 0012 049B     		ldr	r3, [sp, #16]
  59              	.LBB178:
  60              	.LBB177:
  61              		.loc 2 765 0
  62 0014 0460     		str	r4, [r0]
  63              	.LBE177:
  64              	.LBE178:
  65              		.loc 1 85 0
  66 0016 0561     		str	r5, [r0, #16]
  67              		.loc 1 82 0
  68 0018 4460     		str	r4, [r0, #4]
  69              		.loc 1 83 0
  70 001a C160     		str	r1, [r0, #12]
  71              		.loc 1 84 0
  72 001c 8160     		str	r1, [r0, #8]
  73              		.loc 1 86 0
  74 001e 4261     		str	r2, [r0, #20]
  75              		.loc 1 88 0
  76 0020 C161     		str	r1, [r0, #28]
  77              		.loc 1 89 0
  78 0022 0462     		str	r4, [r0, #32]
  79              		.loc 1 90 0
  80 0024 4462     		str	r4, [r0, #36]
  81              		.loc 1 92 0
  82 0026 C362     		str	r3, [r0, #44]
  83              		.loc 1 93 0
  84              		@ sp needed
  85 0028 30BD     		pop	{r4, r5, pc}
  86              		.cfi_endproc
  87              	.LFE93:
  88              		.size	ibqObjectInit, .-ibqObjectInit
  89 002a C046C046 		.section	.text.ibqResetI,"ax",%progbits
  89      C046
  90              		.align	2
  91              		.p2align 4,,15
  92              		.global	ibqResetI
  93              		.code	16
  94              		.thumb_func
  95              		.type	ibqResetI, %function
  96              	ibqResetI:
  97              	.LFB94:
  98              		.loc 1 106 0
  99              		.cfi_startproc
 100              	.LVL3:
 101 0000 08B5     		push	{r3, lr}
 102              		.cfi_def_cfa_offset 8
 103              		.cfi_offset 3, -8
 104              		.cfi_offset 14, -4
 105              		.loc 1 115 0
 106 0002 0221     		mov	r1, #2
 107              		.loc 1 110 0
 108 0004 0023     		mov	r3, #0
 109              		.loc 1 111 0
 110 0006 C269     		ldr	r2, [r0, #28]
 111              		.loc 1 110 0
 112 0008 4360     		str	r3, [r0, #4]
 113              		.loc 1 111 0
ARM GAS  /tmp/ccjnb8m5.s 			page 3


 114 000a C260     		str	r2, [r0, #12]
 115              		.loc 1 112 0
 116 000c 8260     		str	r2, [r0, #8]
 117              		.loc 1 113 0
 118 000e 0362     		str	r3, [r0, #32]
 119              		.loc 1 114 0
 120 0010 4362     		str	r3, [r0, #36]
 121              		.loc 1 115 0
 122 0012 4942     		neg	r1, r1
 123 0014 FFF7FEFF 		bl	osalThreadDequeueAllI
 124              	.LVL4:
 125              		.loc 1 116 0
 126              		@ sp needed
 127 0018 08BD     		pop	{r3, pc}
 128              		.cfi_endproc
 129              	.LFE94:
 130              		.size	ibqResetI, .-ibqResetI
 131 001a C046C046 		.section	.text.ibqGetEmptyBufferI,"ax",%progbits
 131      C046
 132              		.align	2
 133              		.p2align 4,,15
 134              		.global	ibqGetEmptyBufferI
 135              		.code	16
 136              		.thumb_func
 137              		.type	ibqGetEmptyBufferI, %function
 138              	ibqGetEmptyBufferI:
 139              	.LFB95:
 140              		.loc 1 128 0
 141              		.cfi_startproc
 142              	.LVL5:
 143              		.loc 1 132 0
 144 0000 8368     		ldr	r3, [r0, #8]
 145 0002 C268     		ldr	r2, [r0, #12]
 146 0004 9342     		cmp	r3, r2
 147 0006 01D0     		beq	.L11
 148              	.LVL6:
 149              	.L4:
 150              		.loc 1 136 0
 151 0008 181D     		add	r0, r3, #4
 152              	.L9:
 153              		.loc 1 137 0
 154              		@ sp needed
 155 000a 7047     		bx	lr
 156              	.LVL7:
 157              	.L11:
 158              		.loc 1 132 0 discriminator 1
 159 000c 4268     		ldr	r2, [r0, #4]
 160              		.loc 1 133 0 discriminator 1
 161 000e 0020     		mov	r0, #0
 162              	.LVL8:
 163              		.loc 1 132 0 discriminator 1
 164 0010 002A     		cmp	r2, #0
 165 0012 FAD1     		bne	.L9
 166 0014 F8E7     		b	.L4
 167              		.cfi_endproc
 168              	.LFE95:
 169              		.size	ibqGetEmptyBufferI, .-ibqGetEmptyBufferI
ARM GAS  /tmp/ccjnb8m5.s 			page 4


 170 0016 C046C046 		.section	.text.ibqPostFullBufferI,"ax",%progbits
 170      C046C046 
 170      C046
 171              		.align	2
 172              		.p2align 4,,15
 173              		.global	ibqPostFullBufferI
 174              		.code	16
 175              		.thumb_func
 176              		.type	ibqPostFullBufferI, %function
 177              	ibqPostFullBufferI:
 178              	.LFB96:
 179              		.loc 1 147 0
 180              		.cfi_startproc
 181              	.LVL9:
 182 0000 08B5     		push	{r3, lr}
 183              		.cfi_def_cfa_offset 8
 184              		.cfi_offset 3, -8
 185              		.cfi_offset 14, -4
 186              		.loc 1 155 0
 187 0002 8368     		ldr	r3, [r0, #8]
 188 0004 1960     		str	r1, [r3]
 189              		.loc 1 158 0
 190 0006 4268     		ldr	r2, [r0, #4]
 191 0008 0132     		add	r2, r2, #1
 192 000a 4260     		str	r2, [r0, #4]
 193              		.loc 1 159 0
 194 000c 4269     		ldr	r2, [r0, #20]
 195 000e 9446     		mov	ip, r2
 196              		.loc 1 160 0
 197 0010 0269     		ldr	r2, [r0, #16]
 198              		.loc 1 159 0
 199 0012 6344     		add	r3, r3, ip
 200 0014 8360     		str	r3, [r0, #8]
 201              		.loc 1 160 0
 202 0016 9342     		cmp	r3, r2
 203 0018 01D3     		bcc	.L13
 204              		.loc 1 161 0
 205 001a C369     		ldr	r3, [r0, #28]
 206 001c 8360     		str	r3, [r0, #8]
 207              	.L13:
 208              		.loc 1 165 0
 209 001e 0021     		mov	r1, #0
 210              	.LVL10:
 211 0020 FFF7FEFF 		bl	osalThreadDequeueNextI
 212              	.LVL11:
 213              		.loc 1 166 0
 214              		@ sp needed
 215 0024 08BD     		pop	{r3, pc}
 216              		.cfi_endproc
 217              	.LFE96:
 218              		.size	ibqPostFullBufferI, .-ibqPostFullBufferI
 219 0026 C046C046 		.section	.text.ibqGetFullBufferTimeout,"ax",%progbits
 219      C046C046 
 219      C046
 220              		.align	2
 221              		.p2align 4,,15
 222              		.global	ibqGetFullBufferTimeout
ARM GAS  /tmp/ccjnb8m5.s 			page 5


 223              		.code	16
 224              		.thumb_func
 225              		.type	ibqGetFullBufferTimeout, %function
 226              	ibqGetFullBufferTimeout:
 227              	.LFB97:
 228              		.loc 1 189 0
 229              		.cfi_startproc
 230              	.LVL12:
 231 0000 38B5     		push	{r3, r4, r5, lr}
 232              		.cfi_def_cfa_offset 16
 233              		.cfi_offset 3, -16
 234              		.cfi_offset 4, -12
 235              		.cfi_offset 5, -8
 236              		.cfi_offset 14, -4
 237              		.loc 1 189 0
 238 0002 041C     		mov	r4, r0
 239 0004 0D1C     		mov	r5, r1
 240              	.LBB197:
 241              	.LBB198:
 242              	.LBB199:
 243              	.LBB200:
 244              		.file 3 "../os/ext/CMSIS/include/core_cmFunc.h"
 245              		.loc 3 344 0
 246              	#APP
 247              	@ 344 "../os/ext/CMSIS/include/core_cmFunc.h" 1
 248 0006 72B6     		cpsid i
 249              	@ 0 "" 2
 250              	.LVL13:
 251              		.code	16
 252 0008 05E0     		b	.L15
 253              	.LVL14:
 254              	.L17:
 255              	.LBE200:
 256              	.LBE199:
 257              	.LBE198:
 258              	.LBE197:
 259              	.LBB201:
 260              	.LBB202:
 261              	.LBB203:
 262              	.LBB204:
 263              	.LBB205:
 264              		.loc 2 794 0
 265 000a 201C     		mov	r0, r4
 266 000c 291C     		mov	r1, r5
 267 000e FFF7FEFF 		bl	chSemWaitTimeoutS
 268              	.LVL15:
 269              	.LBE205:
 270              	.LBE204:
 271              		.loc 1 226 0
 272 0012 0028     		cmp	r0, #0
 273 0014 09DB     		blt	.L16
 274              	.LVL16:
 275              	.L15:
 276              	.LBE203:
 277              		.loc 1 224 0
 278 0016 6368     		ldr	r3, [r4, #4]
 279 0018 002B     		cmp	r3, #0
ARM GAS  /tmp/ccjnb8m5.s 			page 6


 280 001a F6D0     		beq	.L17
 281              	.LVL17:
 282              	.LBB206:
 283              	.LBB207:
 284              		.loc 1 235 0
 285 001c 0020     		mov	r0, #0
 286              		.loc 1 234 0
 287 001e E368     		ldr	r3, [r4, #12]
 288 0020 1A1D     		add	r2, r3, #4
 289              		.loc 1 235 0
 290 0022 1B68     		ldr	r3, [r3]
 291              		.loc 1 234 0
 292 0024 2262     		str	r2, [r4, #32]
 293              		.loc 1 235 0
 294 0026 D318     		add	r3, r2, r3
 295 0028 6362     		str	r3, [r4, #36]
 296              	.LVL18:
 297              	.L16:
 298              	.LBE207:
 299              	.LBE206:
 300              	.LBE202:
 301              	.LBE201:
 302              	.LBB208:
 303              	.LBB209:
 304              	.LBB210:
 305              	.LBB211:
 306              		.loc 3 333 0
 307              	#APP
 308              	@ 333 "../os/ext/CMSIS/include/core_cmFunc.h" 1
 309 002a 62B6     		cpsie i
 310              	@ 0 "" 2
 311              		.code	16
 312              	.LBE211:
 313              	.LBE210:
 314              	.LBE209:
 315              	.LBE208:
 316              		.loc 1 197 0
 317              		@ sp needed
 318              	.LVL19:
 319              	.LVL20:
 320 002c 38BD     		pop	{r3, r4, r5, pc}
 321              		.cfi_endproc
 322              	.LFE97:
 323              		.size	ibqGetFullBufferTimeout, .-ibqGetFullBufferTimeout
 324 002e C046     		.section	.text.ibqGetFullBufferTimeoutS,"ax",%progbits
 325              		.align	2
 326              		.p2align 4,,15
 327              		.global	ibqGetFullBufferTimeoutS
 328              		.code	16
 329              		.thumb_func
 330              		.type	ibqGetFullBufferTimeoutS, %function
 331              	ibqGetFullBufferTimeoutS:
 332              	.LFB98:
 333              		.loc 1 220 0
 334              		.cfi_startproc
 335              	.LVL21:
 336 0000 38B5     		push	{r3, r4, r5, lr}
ARM GAS  /tmp/ccjnb8m5.s 			page 7


 337              		.cfi_def_cfa_offset 16
 338              		.cfi_offset 3, -16
 339              		.cfi_offset 4, -12
 340              		.cfi_offset 5, -8
 341              		.cfi_offset 14, -4
 342              		.loc 1 220 0
 343 0002 041C     		mov	r4, r0
 344 0004 0D1C     		mov	r5, r1
 345              		.loc 1 224 0
 346 0006 05E0     		b	.L20
 347              	.LVL22:
 348              	.L22:
 349              	.LBB223:
 350              	.LBB224:
 351              	.LBB225:
 352              		.loc 2 794 0
 353 0008 201C     		mov	r0, r4
 354 000a 291C     		mov	r1, r5
 355 000c FFF7FEFF 		bl	chSemWaitTimeoutS
 356              	.LVL23:
 357              	.LBE225:
 358              	.LBE224:
 359              		.loc 1 226 0
 360 0010 0028     		cmp	r0, #0
 361 0012 09DB     		blt	.L21
 362              	.LVL24:
 363              	.L20:
 364              	.LBE223:
 365              		.loc 1 224 0
 366 0014 6368     		ldr	r3, [r4, #4]
 367 0016 002B     		cmp	r3, #0
 368 0018 F6D0     		beq	.L22
 369              	.LVL25:
 370              	.LBB226:
 371              	.LBB227:
 372              		.loc 1 235 0
 373 001a 0020     		mov	r0, #0
 374              		.loc 1 234 0
 375 001c E368     		ldr	r3, [r4, #12]
 376 001e 1A1D     		add	r2, r3, #4
 377              		.loc 1 235 0
 378 0020 1B68     		ldr	r3, [r3]
 379              		.loc 1 234 0
 380 0022 2262     		str	r2, [r4, #32]
 381              		.loc 1 235 0
 382 0024 D318     		add	r3, r2, r3
 383 0026 6362     		str	r3, [r4, #36]
 384              	.LVL26:
 385              	.L21:
 386              	.LBE227:
 387              	.LBE226:
 388              		.loc 1 238 0
 389              		@ sp needed
 390              	.LVL27:
 391              	.LVL28:
 392 0028 38BD     		pop	{r3, r4, r5, pc}
 393              		.cfi_endproc
ARM GAS  /tmp/ccjnb8m5.s 			page 8


 394              	.LFE98:
 395              		.size	ibqGetFullBufferTimeoutS, .-ibqGetFullBufferTimeoutS
 396 002a C046C046 		.section	.text.ibqReleaseEmptyBuffer,"ax",%progbits
 396      C046
 397              		.align	2
 398              		.p2align 4,,15
 399              		.global	ibqReleaseEmptyBuffer
 400              		.code	16
 401              		.thumb_func
 402              		.type	ibqReleaseEmptyBuffer, %function
 403              	ibqReleaseEmptyBuffer:
 404              	.LFB99:
 405              		.loc 1 248 0
 406              		.cfi_startproc
 407              	.LVL29:
 408 0000 08B5     		push	{r3, lr}
 409              		.cfi_def_cfa_offset 8
 410              		.cfi_offset 3, -8
 411              		.cfi_offset 14, -4
 412              	.LBB238:
 413              	.LBB239:
 414              	.LBB240:
 415              	.LBB241:
 416              		.loc 3 344 0
 417              	#APP
 418              	@ 344 "../os/ext/CMSIS/include/core_cmFunc.h" 1
 419 0002 72B6     		cpsid i
 420              	@ 0 "" 2
 421              	.LVL30:
 422              		.code	16
 423              	.LBE241:
 424              	.LBE240:
 425              	.LBE239:
 426              	.LBE238:
 427              	.LBB242:
 428              	.LBB243:
 429              		.loc 1 270 0
 430 0004 4269     		ldr	r2, [r0, #20]
 431              		.loc 1 269 0
 432 0006 4368     		ldr	r3, [r0, #4]
 433              		.loc 1 270 0
 434 0008 9446     		mov	ip, r2
 435              		.loc 1 269 0
 436 000a 013B     		sub	r3, r3, #1
 437 000c 4360     		str	r3, [r0, #4]
 438              		.loc 1 270 0
 439 000e C368     		ldr	r3, [r0, #12]
 440              		.loc 1 271 0
 441 0010 0269     		ldr	r2, [r0, #16]
 442              		.loc 1 270 0
 443 0012 6344     		add	r3, r3, ip
 444 0014 C360     		str	r3, [r0, #12]
 445              		.loc 1 271 0
 446 0016 9342     		cmp	r3, r2
 447 0018 01D3     		bcc	.L25
 448              		.loc 1 272 0
 449 001a C369     		ldr	r3, [r0, #28]
ARM GAS  /tmp/ccjnb8m5.s 			page 9


 450 001c C360     		str	r3, [r0, #12]
 451              	.L25:
 452              		.loc 1 276 0
 453 001e 0023     		mov	r3, #0
 454 0020 0362     		str	r3, [r0, #32]
 455              		.loc 1 279 0
 456 0022 836A     		ldr	r3, [r0, #40]
 457 0024 002B     		cmp	r3, #0
 458 0026 00D0     		beq	.L26
 459              		.loc 1 280 0
 460 0028 9847     		blx	r3
 461              	.LVL31:
 462              	.L26:
 463              	.LBE243:
 464              	.LBE242:
 465              	.LBB244:
 466              	.LBB245:
 467              	.LBB246:
 468              	.LBB247:
 469              		.loc 3 333 0
 470              	#APP
 471              	@ 333 "../os/ext/CMSIS/include/core_cmFunc.h" 1
 472 002a 62B6     		cpsie i
 473              	@ 0 "" 2
 474              		.code	16
 475              	.LBE247:
 476              	.LBE246:
 477              	.LBE245:
 478              	.LBE244:
 479              		.loc 1 253 0
 480              		@ sp needed
 481 002c 08BD     		pop	{r3, pc}
 482              		.cfi_endproc
 483              	.LFE99:
 484              		.size	ibqReleaseEmptyBuffer, .-ibqReleaseEmptyBuffer
 485 002e C046     		.section	.text.ibqReleaseEmptyBufferS,"ax",%progbits
 486              		.align	2
 487              		.p2align 4,,15
 488              		.global	ibqReleaseEmptyBufferS
 489              		.code	16
 490              		.thumb_func
 491              		.type	ibqReleaseEmptyBufferS, %function
 492              	ibqReleaseEmptyBufferS:
 493              	.LFB100:
 494              		.loc 1 263 0
 495              		.cfi_startproc
 496              	.LVL32:
 497              		.loc 1 270 0
 498 0000 4269     		ldr	r2, [r0, #20]
 499              		.loc 1 263 0
 500 0002 08B5     		push	{r3, lr}
 501              		.cfi_def_cfa_offset 8
 502              		.cfi_offset 3, -8
 503              		.cfi_offset 14, -4
 504              		.loc 1 270 0
 505 0004 9446     		mov	ip, r2
 506              		.loc 1 269 0
ARM GAS  /tmp/ccjnb8m5.s 			page 10


 507 0006 4368     		ldr	r3, [r0, #4]
 508              		.loc 1 271 0
 509 0008 0269     		ldr	r2, [r0, #16]
 510              		.loc 1 269 0
 511 000a 013B     		sub	r3, r3, #1
 512 000c 4360     		str	r3, [r0, #4]
 513              		.loc 1 270 0
 514 000e C368     		ldr	r3, [r0, #12]
 515 0010 6344     		add	r3, r3, ip
 516 0012 C360     		str	r3, [r0, #12]
 517              		.loc 1 271 0
 518 0014 9342     		cmp	r3, r2
 519 0016 01D3     		bcc	.L31
 520              		.loc 1 272 0
 521 0018 C369     		ldr	r3, [r0, #28]
 522 001a C360     		str	r3, [r0, #12]
 523              	.L31:
 524              		.loc 1 276 0
 525 001c 0023     		mov	r3, #0
 526 001e 0362     		str	r3, [r0, #32]
 527              		.loc 1 279 0
 528 0020 836A     		ldr	r3, [r0, #40]
 529 0022 002B     		cmp	r3, #0
 530 0024 00D0     		beq	.L30
 531              		.loc 1 280 0
 532 0026 9847     		blx	r3
 533              	.LVL33:
 534              	.L30:
 535              		.loc 1 282 0
 536              		@ sp needed
 537 0028 08BD     		pop	{r3, pc}
 538              		.cfi_endproc
 539              	.LFE100:
 540              		.size	ibqReleaseEmptyBufferS, .-ibqReleaseEmptyBufferS
 541 002a C046C046 		.section	.text.ibqGetTimeout,"ax",%progbits
 541      C046
 542              		.align	2
 543              		.p2align 4,,15
 544              		.global	ibqGetTimeout
 545              		.code	16
 546              		.thumb_func
 547              		.type	ibqGetTimeout, %function
 548              	ibqGetTimeout:
 549              	.LFB101:
 550              		.loc 1 302 0
 551              		.cfi_startproc
 552              	.LVL34:
 553 0000 38B5     		push	{r3, r4, r5, lr}
 554              		.cfi_def_cfa_offset 16
 555              		.cfi_offset 3, -16
 556              		.cfi_offset 4, -12
 557              		.cfi_offset 5, -8
 558              		.cfi_offset 14, -4
 559              		.loc 1 302 0
 560 0002 041C     		mov	r4, r0
 561 0004 0D1C     		mov	r5, r1
 562              	.LBB272:
ARM GAS  /tmp/ccjnb8m5.s 			page 11


 563              	.LBB273:
 564              	.LBB274:
 565              	.LBB275:
 566              		.loc 3 344 0
 567              	#APP
 568              	@ 344 "../os/ext/CMSIS/include/core_cmFunc.h" 1
 569 0006 72B6     		cpsid i
 570              	@ 0 "" 2
 571              		.code	16
 572              	.LBE275:
 573              	.LBE274:
 574              	.LBE273:
 575              	.LBE272:
 576              		.loc 1 308 0
 577 0008 036A     		ldr	r3, [r0, #32]
 578 000a 002B     		cmp	r3, #0
 579 000c 0ED0     		beq	.L37
 580 000e 426A     		ldr	r2, [r0, #36]
 581              	.LVL35:
 582              	.L38:
 583              		.loc 1 317 0
 584 0010 1D78     		ldrb	r5, [r3]
 585              	.LVL36:
 586              		.loc 1 318 0
 587 0012 0133     		add	r3, r3, #1
 588 0014 2362     		str	r3, [r4, #32]
 589              		.loc 1 322 0
 590 0016 9342     		cmp	r3, r2
 591 0018 12D2     		bcs	.L51
 592              	.L42:
 593              	.LBB276:
 594              	.LBB277:
 595              	.LBB278:
 596              	.LBB279:
 597              		.loc 3 333 0
 598              	#APP
 599              	@ 333 "../os/ext/CMSIS/include/core_cmFunc.h" 1
 600 001a 62B6     		cpsie i
 601              	@ 0 "" 2
 602              		.code	16
 603              	.LBE279:
 604              	.LBE278:
 605              	.LBE277:
 606              	.LBE276:
 607              		.loc 1 327 0
 608 001c 281C     		mov	r0, r5
 609              	.LVL37:
 610              	.L39:
 611              		.loc 1 328 0
 612              		@ sp needed
 613              	.LVL38:
 614 001e 38BD     		pop	{r3, r4, r5, pc}
 615              	.LVL39:
 616              	.L40:
 617              	.LBB280:
 618              	.LBB281:
 619              	.LBB282:
ARM GAS  /tmp/ccjnb8m5.s 			page 12


 620              	.LBB283:
 621              	.LBB284:
 622              		.loc 2 794 0
 623 0020 201C     		mov	r0, r4
 624 0022 291C     		mov	r1, r5
 625 0024 FFF7FEFF 		bl	chSemWaitTimeoutS
 626              	.LVL40:
 627              	.LBE284:
 628              	.LBE283:
 629              		.loc 1 226 0
 630 0028 0028     		cmp	r0, #0
 631 002a 1FDB     		blt	.L52
 632              	.LVL41:
 633              	.L37:
 634              	.LBE282:
 635              		.loc 1 224 0
 636 002c 6368     		ldr	r3, [r4, #4]
 637 002e 002B     		cmp	r3, #0
 638 0030 F6D0     		beq	.L40
 639              	.LVL42:
 640              	.LBB285:
 641              	.LBB286:
 642              		.loc 1 234 0
 643 0032 E268     		ldr	r2, [r4, #12]
 644 0034 131D     		add	r3, r2, #4
 645              		.loc 1 235 0
 646 0036 1268     		ldr	r2, [r2]
 647              		.loc 1 234 0
 648 0038 2362     		str	r3, [r4, #32]
 649              		.loc 1 235 0
 650 003a 9A18     		add	r2, r3, r2
 651 003c 6262     		str	r2, [r4, #36]
 652 003e E7E7     		b	.L38
 653              	.LVL43:
 654              	.L51:
 655              	.LBE286:
 656              	.LBE285:
 657              	.LBE281:
 658              	.LBE280:
 659              	.LBB287:
 660              	.LBB288:
 661              		.loc 1 270 0
 662 0040 6269     		ldr	r2, [r4, #20]
 663              		.loc 1 269 0
 664 0042 6368     		ldr	r3, [r4, #4]
 665              		.loc 1 270 0
 666 0044 9446     		mov	ip, r2
 667              		.loc 1 269 0
 668 0046 013B     		sub	r3, r3, #1
 669 0048 6360     		str	r3, [r4, #4]
 670              		.loc 1 270 0
 671 004a E368     		ldr	r3, [r4, #12]
 672              		.loc 1 271 0
 673 004c 2269     		ldr	r2, [r4, #16]
 674              		.loc 1 270 0
 675 004e 6344     		add	r3, r3, ip
 676 0050 E360     		str	r3, [r4, #12]
ARM GAS  /tmp/ccjnb8m5.s 			page 13


 677              		.loc 1 271 0
 678 0052 9342     		cmp	r3, r2
 679 0054 07D2     		bcs	.L53
 680              	.L43:
 681              		.loc 1 276 0
 682 0056 0023     		mov	r3, #0
 683 0058 2362     		str	r3, [r4, #32]
 684              		.loc 1 279 0
 685 005a A36A     		ldr	r3, [r4, #40]
 686 005c 002B     		cmp	r3, #0
 687 005e DCD0     		beq	.L42
 688              		.loc 1 280 0
 689 0060 201C     		mov	r0, r4
 690 0062 9847     		blx	r3
 691              	.LVL44:
 692 0064 D9E7     		b	.L42
 693              	.L53:
 694              		.loc 1 272 0
 695 0066 E369     		ldr	r3, [r4, #28]
 696 0068 E360     		str	r3, [r4, #12]
 697 006a F4E7     		b	.L43
 698              	.LVL45:
 699              	.L52:
 700              	.LBE288:
 701              	.LBE287:
 702              	.LBB289:
 703              	.LBB290:
 704              	.LBB291:
 705              	.LBB292:
 706              		.loc 3 333 0
 707              	#APP
 708              	@ 333 "../os/ext/CMSIS/include/core_cmFunc.h" 1
 709 006c 62B6     		cpsie i
 710              	@ 0 "" 2
 711              		.code	16
 712              	.LBE292:
 713              	.LBE291:
 714              	.LBE290:
 715              	.LBE289:
 716              		.loc 1 312 0
 717 006e D6E7     		b	.L39
 718              		.cfi_endproc
 719              	.LFE101:
 720              		.size	ibqGetTimeout, .-ibqGetTimeout
 721              		.section	.text.ibqReadTimeout,"ax",%progbits
 722              		.align	2
 723              		.p2align 4,,15
 724              		.global	ibqReadTimeout
 725              		.code	16
 726              		.thumb_func
 727              		.type	ibqReadTimeout, %function
 728              	ibqReadTimeout:
 729              	.LFB102:
 730              		.loc 1 352 0
 731              		.cfi_startproc
 732              	.LVL46:
 733 0000 F0B5     		push	{r4, r5, r6, r7, lr}
ARM GAS  /tmp/ccjnb8m5.s 			page 14


 734              		.cfi_def_cfa_offset 20
 735              		.cfi_offset 4, -20
 736              		.cfi_offset 5, -16
 737              		.cfi_offset 6, -12
 738              		.cfi_offset 7, -8
 739              		.cfi_offset 14, -4
 740 0002 5F46     		mov	r7, fp
 741 0004 4D46     		mov	r5, r9
 742 0006 4446     		mov	r4, r8
 743 0008 5646     		mov	r6, r10
 744 000a F0B4     		push	{r4, r5, r6, r7}
 745              		.cfi_def_cfa_offset 36
 746              		.cfi_offset 8, -36
 747              		.cfi_offset 9, -32
 748              		.cfi_offset 10, -28
 749              		.cfi_offset 11, -24
 750 000c 9046     		mov	r8, r2
 751 000e 83B0     		sub	sp, sp, #12
 752              		.cfi_def_cfa_offset 48
 753              		.loc 1 352 0
 754 0010 041C     		mov	r4, r0
 755 0012 0F1C     		mov	r7, r1
 756 0014 9946     		mov	r9, r3
 757              	.LBB342:
 758              	.LBB343:
 759              	.LBB344:
 760              	.LBB345:
 761              		.loc 3 344 0
 762              	#APP
 763              	@ 344 "../os/ext/CMSIS/include/core_cmFunc.h" 1
 764 0016 72B6     		cpsid i
 765              	@ 0 "" 2
 766              		.code	16
 767              	.LBE345:
 768              	.LBE344:
 769              	.LBE343:
 770              	.LBE342:
 771              	.LBB346:
 772              	.LBB347:
 773              		.loc 2 627 0
 774 0018 3A4B     		ldr	r3, .L84
 775              	.LVL47:
 776              	.LBE347:
 777              	.LBE346:
 778              		.loc 1 353 0
 779 001a 0026     		mov	r6, #0
 780              	.LBB349:
 781              	.LBB348:
 782              		.loc 2 627 0
 783 001c 9B46     		mov	fp, r3
 784 001e 9B68     		ldr	r3, [r3, #8]
 785              	.LBE348:
 786              	.LBE349:
 787              		.loc 1 359 0
 788 0020 4B44     		add	r3, r3, r9
 789 0022 0193     		str	r3, [sp, #4]
 790              	.LVL48:
ARM GAS  /tmp/ccjnb8m5.s 			page 15


 791              	.LBB350:
 792              	.LBB351:
 793              		.loc 1 370 0
 794 0024 4B46     		mov	r3, r9
 795              	.LVL49:
 796 0026 013B     		sub	r3, r3, #1
 797 0028 0093     		str	r3, [sp]
 798              	.LBE351:
 799              	.LBB371:
 800              	.LBB372:
 801              		.loc 1 276 0
 802 002a 0023     		mov	r3, #0
 803 002c 9A46     		mov	r10, r3
 804 002e 0EE0     		b	.L71
 805              	.LVL50:
 806              	.L83:
 807              	.LBE372:
 808              	.LBE371:
 809              		.loc 1 403 0
 810 0030 4022     		mov	r2, #64
 811 0032 FFF7FEFF 		bl	memcpy
 812              	.LVL51:
 813              		.loc 1 405 0
 814 0036 236A     		ldr	r3, [r4, #32]
 815              		.loc 1 416 0
 816 0038 626A     		ldr	r2, [r4, #36]
 817              		.loc 1 405 0
 818 003a 4033     		add	r3, r3, #64
 819              		.loc 1 404 0
 820 003c 4037     		add	r7, r7, #64
 821              	.LVL52:
 822              		.loc 1 405 0
 823 003e 2362     		str	r3, [r4, #32]
 824              		.loc 1 406 0
 825 0040 4036     		add	r6, r6, #64
 826              	.LVL53:
 827              		.loc 1 416 0
 828 0042 9A42     		cmp	r2, r3
 829 0044 1BD9     		bls	.L81
 830              	.L68:
 831              	.LBB374:
 832              	.LBB375:
 833              	.LBB376:
 834              	.LBB377:
 835              		.loc 3 333 0
 836              	#APP
 837              	@ 333 "../os/ext/CMSIS/include/core_cmFunc.h" 1
 838 0046 62B6     		cpsie i
 839              	@ 0 "" 2
 840              		.code	16
 841              	.LBE377:
 842              	.LBE376:
 843              	.LBE375:
 844              	.LBE374:
 845              		.loc 1 422 0
 846 0048 4645     		cmp	r6, r8
 847 004a 52D2     		bcs	.L74
ARM GAS  /tmp/ccjnb8m5.s 			page 16


 848              	.LBB378:
 849              	.LBB379:
 850              	.LBB380:
 851              	.LBB381:
 852              		.loc 3 344 0
 853              	#APP
 854              	@ 344 "../os/ext/CMSIS/include/core_cmFunc.h" 1
 855 004c 72B6     		cpsid i
 856              	@ 0 "" 2
 857              	.LVL54:
 858              		.code	16
 859              	.L71:
 860              	.LBE381:
 861              	.LBE380:
 862              	.LBE379:
 863              	.LBE378:
 864              		.loc 1 365 0
 865 004e 216A     		ldr	r1, [r4, #32]
 866 0050 0029     		cmp	r1, #0
 867 0052 29D0     		beq	.L82
 868 0054 656A     		ldr	r5, [r4, #36]
 869              	.L72:
 870              	.LVL55:
 871              		.loc 1 395 0
 872 0056 4346     		mov	r3, r8
 873 0058 6D1A     		sub	r5, r5, r1
 874              	.LVL56:
 875 005a 9B1B     		sub	r3, r3, r6
 876 005c 9D42     		cmp	r5, r3
 877 005e 00D9     		bls	.L64
 878 0060 1D1C     		mov	r5, r3
 879              	.LVL57:
 880              	.L64:
 881              		.loc 1 403 0
 882 0062 381C     		mov	r0, r7
 883              		.loc 1 401 0
 884 0064 402D     		cmp	r5, #64
 885 0066 E3D8     		bhi	.L83
 886              	.LVL58:
 887              		.loc 1 409 0
 888 0068 2A1C     		mov	r2, r5
 889 006a FFF7FEFF 		bl	memcpy
 890              	.LVL59:
 891              		.loc 1 411 0
 892 006e 236A     		ldr	r3, [r4, #32]
 893              		.loc 1 416 0
 894 0070 626A     		ldr	r2, [r4, #36]
 895              		.loc 1 411 0
 896 0072 5B19     		add	r3, r3, r5
 897              		.loc 1 410 0
 898 0074 7F19     		add	r7, r7, r5
 899              	.LVL60:
 900              		.loc 1 411 0
 901 0076 2362     		str	r3, [r4, #32]
 902              		.loc 1 412 0
 903 0078 7619     		add	r6, r6, r5
 904              	.LVL61:
ARM GAS  /tmp/ccjnb8m5.s 			page 17


 905              		.loc 1 416 0
 906 007a 9A42     		cmp	r2, r3
 907 007c E3D8     		bhi	.L68
 908              	.L81:
 909              	.LVL62:
 910              	.LBB382:
 911              	.LBB373:
 912              		.loc 1 270 0
 913 007e 6269     		ldr	r2, [r4, #20]
 914              		.loc 1 269 0
 915 0080 6368     		ldr	r3, [r4, #4]
 916              		.loc 1 270 0
 917 0082 9446     		mov	ip, r2
 918              		.loc 1 269 0
 919 0084 013B     		sub	r3, r3, #1
 920 0086 6360     		str	r3, [r4, #4]
 921              		.loc 1 270 0
 922 0088 E368     		ldr	r3, [r4, #12]
 923              		.loc 1 271 0
 924 008a 2269     		ldr	r2, [r4, #16]
 925              		.loc 1 270 0
 926 008c 6344     		add	r3, r3, ip
 927 008e E360     		str	r3, [r4, #12]
 928              		.loc 1 271 0
 929 0090 9342     		cmp	r3, r2
 930 0092 01D3     		bcc	.L69
 931              		.loc 1 272 0
 932 0094 E369     		ldr	r3, [r4, #28]
 933 0096 E360     		str	r3, [r4, #12]
 934              	.L69:
 935              		.loc 1 276 0
 936 0098 5346     		mov	r3, r10
 937 009a 2362     		str	r3, [r4, #32]
 938              		.loc 1 279 0
 939 009c A36A     		ldr	r3, [r4, #40]
 940 009e 002B     		cmp	r3, #0
 941 00a0 D1D0     		beq	.L68
 942              		.loc 1 280 0
 943 00a2 201C     		mov	r0, r4
 944 00a4 9847     		blx	r3
 945              	.LVL63:
 946 00a6 CEE7     		b	.L68
 947              	.LVL64:
 948              	.L82:
 949              	.LBE373:
 950              	.LBE382:
 951              	.LBB383:
 952              		.loc 1 370 0
 953 00a8 009B     		ldr	r3, [sp]
 954 00aa 0333     		add	r3, r3, #3
 955 00ac 1CD8     		bhi	.L76
 956              	.LBB352:
 957              	.LBB353:
 958              	.LBB354:
 959              		.loc 2 627 0
 960 00ae 5B46     		mov	r3, fp
 961 00b0 9D68     		ldr	r5, [r3, #8]
ARM GAS  /tmp/ccjnb8m5.s 			page 18


 962              	.LBE354:
 963              	.LBE353:
 964              		.loc 1 374 0
 965 00b2 019B     		ldr	r3, [sp, #4]
 966 00b4 5D1B     		sub	r5, r3, r5
 967              	.LVL65:
 968              		.loc 1 379 0
 969 00b6 A945     		cmp	r9, r5
 970 00b8 06D2     		bcs	.L77
 971 00ba 19E0     		b	.L58
 972              	.L63:
 973              	.LVL66:
 974              	.LBB355:
 975              	.LBB356:
 976              	.LBB357:
 977              	.LBB358:
 978              	.LBB359:
 979              		.loc 2 794 0
 980 00bc 201C     		mov	r0, r4
 981 00be 291C     		mov	r1, r5
 982 00c0 FFF7FEFF 		bl	chSemWaitTimeoutS
 983              	.LVL67:
 984              	.LBE359:
 985              	.LBE358:
 986              		.loc 1 226 0
 987 00c4 0028     		cmp	r0, #0
 988 00c6 13DB     		blt	.L58
 989              	.LVL68:
 990              	.L77:
 991              	.LBE357:
 992              		.loc 1 224 0
 993 00c8 6368     		ldr	r3, [r4, #4]
 994 00ca 002B     		cmp	r3, #0
 995 00cc F6D0     		beq	.L63
 996              	.LVL69:
 997              	.L80:
 998              	.LBB360:
 999              	.LBB361:
 1000              		.loc 1 234 0
 1001 00ce E368     		ldr	r3, [r4, #12]
 1002              		.loc 1 235 0
 1003 00d0 1D68     		ldr	r5, [r3]
 1004              		.loc 1 234 0
 1005 00d2 191D     		add	r1, r3, #4
 1006              		.loc 1 235 0
 1007 00d4 4D19     		add	r5, r1, r5
 1008              		.loc 1 234 0
 1009 00d6 2162     		str	r1, [r4, #32]
 1010              		.loc 1 235 0
 1011 00d8 6562     		str	r5, [r4, #36]
 1012 00da BCE7     		b	.L72
 1013              	.LVL70:
 1014              	.L59:
 1015              	.LBE361:
 1016              	.LBE360:
 1017              	.LBE356:
 1018              	.LBE355:
ARM GAS  /tmp/ccjnb8m5.s 			page 19


 1019              	.LBE352:
 1020              	.LBB362:
 1021              	.LBB363:
 1022              	.LBB364:
 1023              	.LBB365:
 1024              	.LBB366:
 1025              		.loc 2 794 0
 1026 00dc 201C     		mov	r0, r4
 1027 00de 4946     		mov	r1, r9
 1028 00e0 FFF7FEFF 		bl	chSemWaitTimeoutS
 1029              	.LVL71:
 1030              	.LBE366:
 1031              	.LBE365:
 1032              		.loc 1 226 0
 1033 00e4 0028     		cmp	r0, #0
 1034 00e6 03DB     		blt	.L58
 1035              	.LVL72:
 1036              	.L76:
 1037              	.LBE364:
 1038              		.loc 1 224 0
 1039 00e8 6368     		ldr	r3, [r4, #4]
 1040 00ea 002B     		cmp	r3, #0
 1041 00ec F6D0     		beq	.L59
 1042 00ee EEE7     		b	.L80
 1043              	.L58:
 1044              	.LBE363:
 1045              	.LBE362:
 1046              	.LBB367:
 1047              	.LBB368:
 1048              	.LBB369:
 1049              	.LBB370:
 1050              		.loc 3 333 0
 1051              	#APP
 1052              	@ 333 "../os/ext/CMSIS/include/core_cmFunc.h" 1
 1053 00f0 62B6     		cpsie i
 1054              	@ 0 "" 2
 1055              		.code	16
 1056              	.L74:
 1057              	.LBE370:
 1058              	.LBE369:
 1059              	.LBE368:
 1060              	.LBE367:
 1061              	.LBE383:
 1062              	.LBE350:
 1063              		.loc 1 427 0
 1064 00f2 301C     		mov	r0, r6
 1065 00f4 03B0     		add	sp, sp, #12
 1066              		@ sp needed
 1067              	.LVL73:
 1068              	.LVL74:
 1069              	.LVL75:
 1070              	.LVL76:
 1071              	.LVL77:
 1072 00f6 3CBC     		pop	{r2, r3, r4, r5}
 1073 00f8 9046     		mov	r8, r2
 1074 00fa 9946     		mov	r9, r3
 1075 00fc A246     		mov	r10, r4
ARM GAS  /tmp/ccjnb8m5.s 			page 20


 1076 00fe AB46     		mov	fp, r5
 1077 0100 F0BD     		pop	{r4, r5, r6, r7, pc}
 1078              	.L85:
 1079 0102 C046     		.align	2
 1080              	.L84:
 1081 0104 00000000 		.word	nil
 1082              		.cfi_endproc
 1083              	.LFE102:
 1084              		.size	ibqReadTimeout, .-ibqReadTimeout
 1085 0108 C046C046 		.section	.text.obqObjectInit,"ax",%progbits
 1085      C046C046 
 1086              		.align	2
 1087              		.p2align 4,,15
 1088              		.global	obqObjectInit
 1089              		.code	16
 1090              		.thumb_func
 1091              		.type	obqObjectInit, %function
 1092              	obqObjectInit:
 1093              	.LFB103:
 1094              		.loc 1 443 0
 1095              		.cfi_startproc
 1096              	.LVL78:
 1097              		.loc 1 451 0
 1098 0000 0432     		add	r2, r2, #4
 1099              	.LVL79:
 1100              		.loc 1 443 0
 1101 0002 30B5     		push	{r4, r5, lr}
 1102              		.cfi_def_cfa_offset 12
 1103              		.cfi_offset 4, -12
 1104              		.cfi_offset 5, -8
 1105              		.cfi_offset 14, -4
 1106              		.loc 1 451 0
 1107 0004 151C     		mov	r5, r2
 1108              	.LBB384:
 1109              	.LBB385:
 1110              		.loc 2 765 0
 1111 0006 0024     		mov	r4, #0
 1112              	.LBE385:
 1113              	.LBE384:
 1114              		.loc 1 451 0
 1115 0008 5D43     		mul	r5, r3
 1116              	.LBB387:
 1117              	.LBB386:
 1118              		.loc 2 765 0
 1119 000a 0460     		str	r4, [r0]
 1120              	.LBE386:
 1121              	.LBE387:
 1122              		.loc 1 453 0
 1123 000c 8361     		str	r3, [r0, #24]
 1124              		.loc 1 448 0
 1125 000e 4360     		str	r3, [r0, #4]
 1126              		.loc 1 457 0
 1127 0010 039B     		ldr	r3, [sp, #12]
 1128              	.LVL80:
 1129              		.loc 1 451 0
 1130 0012 4D19     		add	r5, r1, r5
 1131              		.loc 1 457 0
ARM GAS  /tmp/ccjnb8m5.s 			page 21


 1132 0014 8362     		str	r3, [r0, #40]
 1133              		.loc 1 458 0
 1134 0016 049B     		ldr	r3, [sp, #16]
 1135              		.loc 1 451 0
 1136 0018 0561     		str	r5, [r0, #16]
 1137              		.loc 1 449 0
 1138 001a C160     		str	r1, [r0, #12]
 1139              		.loc 1 450 0
 1140 001c 8160     		str	r1, [r0, #8]
 1141              		.loc 1 452 0
 1142 001e 4261     		str	r2, [r0, #20]
 1143              		.loc 1 454 0
 1144 0020 C161     		str	r1, [r0, #28]
 1145              		.loc 1 455 0
 1146 0022 0462     		str	r4, [r0, #32]
 1147              		.loc 1 456 0
 1148 0024 4462     		str	r4, [r0, #36]
 1149              		.loc 1 458 0
 1150 0026 C362     		str	r3, [r0, #44]
 1151              		.loc 1 459 0
 1152              		@ sp needed
 1153 0028 30BD     		pop	{r4, r5, pc}
 1154              		.cfi_endproc
 1155              	.LFE103:
 1156              		.size	obqObjectInit, .-obqObjectInit
 1157 002a C046C046 		.section	.text.obqResetI,"ax",%progbits
 1157      C046
 1158              		.align	2
 1159              		.p2align 4,,15
 1160              		.global	obqResetI
 1161              		.code	16
 1162              		.thumb_func
 1163              		.type	obqResetI, %function
 1164              	obqResetI:
 1165              	.LFB104:
 1166              		.loc 1 472 0
 1167              		.cfi_startproc
 1168              	.LVL81:
 1169 0000 08B5     		push	{r3, lr}
 1170              		.cfi_def_cfa_offset 8
 1171              		.cfi_offset 3, -8
 1172              		.cfi_offset 14, -4
 1173              		.loc 1 476 0
 1174 0002 8369     		ldr	r3, [r0, #24]
 1175              		.loc 1 481 0
 1176 0004 0221     		mov	r1, #2
 1177              		.loc 1 476 0
 1178 0006 4360     		str	r3, [r0, #4]
 1179              		.loc 1 477 0
 1180 0008 C369     		ldr	r3, [r0, #28]
 1181              		.loc 1 481 0
 1182 000a 4942     		neg	r1, r1
 1183              		.loc 1 477 0
 1184 000c C360     		str	r3, [r0, #12]
 1185              		.loc 1 478 0
 1186 000e 8360     		str	r3, [r0, #8]
 1187              		.loc 1 479 0
ARM GAS  /tmp/ccjnb8m5.s 			page 22


 1188 0010 0023     		mov	r3, #0
 1189 0012 0362     		str	r3, [r0, #32]
 1190              		.loc 1 480 0
 1191 0014 4362     		str	r3, [r0, #36]
 1192              		.loc 1 481 0
 1193 0016 FFF7FEFF 		bl	osalThreadDequeueAllI
 1194              	.LVL82:
 1195              		.loc 1 482 0
 1196              		@ sp needed
 1197 001a 08BD     		pop	{r3, pc}
 1198              		.cfi_endproc
 1199              	.LFE104:
 1200              		.size	obqResetI, .-obqResetI
 1201 001c C046C046 		.section	.text.obqGetFullBufferI,"ax",%progbits
 1202              		.align	2
 1203              		.p2align 4,,15
 1204              		.global	obqGetFullBufferI
 1205              		.code	16
 1206              		.thumb_func
 1207              		.type	obqGetFullBufferI, %function
 1208              	obqGetFullBufferI:
 1209              	.LFB105:
 1210              		.loc 1 496 0
 1211              		.cfi_startproc
 1212              	.LVL83:
 1213              		.loc 1 500 0
 1214 0000 C368     		ldr	r3, [r0, #12]
 1215 0002 8268     		ldr	r2, [r0, #8]
 1216 0004 9A42     		cmp	r2, r3
 1217 0006 03D0     		beq	.L95
 1218              	.LVL84:
 1219              	.L89:
 1220              		.loc 1 505 0
 1221 0008 181C     		mov	r0, r3
 1222 000a 08C8     		ldmia	r0!, {r3}
 1223 000c 0B60     		str	r3, [r1]
 1224              	.L94:
 1225              		.loc 1 508 0
 1226              		@ sp needed
 1227 000e 7047     		bx	lr
 1228              	.LVL85:
 1229              	.L95:
 1230              		.loc 1 500 0 discriminator 1
 1231 0010 4268     		ldr	r2, [r0, #4]
 1232              		.loc 1 501 0 discriminator 1
 1233 0012 0020     		mov	r0, #0
 1234              	.LVL86:
 1235              		.loc 1 500 0 discriminator 1
 1236 0014 002A     		cmp	r2, #0
 1237 0016 FAD1     		bne	.L94
 1238 0018 F6E7     		b	.L89
 1239              		.cfi_endproc
 1240              	.LFE105:
 1241              		.size	obqGetFullBufferI, .-obqGetFullBufferI
 1242 001a C046C046 		.section	.text.obqReleaseEmptyBufferI,"ax",%progbits
 1242      C046
 1243              		.align	2
ARM GAS  /tmp/ccjnb8m5.s 			page 23


 1244              		.p2align 4,,15
 1245              		.global	obqReleaseEmptyBufferI
 1246              		.code	16
 1247              		.thumb_func
 1248              		.type	obqReleaseEmptyBufferI, %function
 1249              	obqReleaseEmptyBufferI:
 1250              	.LFB106:
 1251              		.loc 1 517 0
 1252              		.cfi_startproc
 1253              	.LVL87:
 1254              		.loc 1 524 0
 1255 0000 4269     		ldr	r2, [r0, #20]
 1256              		.loc 1 517 0
 1257 0002 08B5     		push	{r3, lr}
 1258              		.cfi_def_cfa_offset 8
 1259              		.cfi_offset 3, -8
 1260              		.cfi_offset 14, -4
 1261              		.loc 1 524 0
 1262 0004 9446     		mov	ip, r2
 1263              		.loc 1 523 0
 1264 0006 4368     		ldr	r3, [r0, #4]
 1265              		.loc 1 525 0
 1266 0008 0269     		ldr	r2, [r0, #16]
 1267              		.loc 1 523 0
 1268 000a 0133     		add	r3, r3, #1
 1269 000c 4360     		str	r3, [r0, #4]
 1270              		.loc 1 524 0
 1271 000e C368     		ldr	r3, [r0, #12]
 1272 0010 6344     		add	r3, r3, ip
 1273 0012 C360     		str	r3, [r0, #12]
 1274              		.loc 1 525 0
 1275 0014 9342     		cmp	r3, r2
 1276 0016 01D3     		bcc	.L97
 1277              		.loc 1 526 0
 1278 0018 C369     		ldr	r3, [r0, #28]
 1279 001a C360     		str	r3, [r0, #12]
 1280              	.L97:
 1281              		.loc 1 530 0
 1282 001c 0021     		mov	r1, #0
 1283 001e FFF7FEFF 		bl	osalThreadDequeueNextI
 1284              	.LVL88:
 1285              		.loc 1 531 0
 1286              		@ sp needed
 1287 0022 08BD     		pop	{r3, pc}
 1288              		.cfi_endproc
 1289              	.LFE106:
 1290              		.size	obqReleaseEmptyBufferI, .-obqReleaseEmptyBufferI
 1291 0024 C046C046 		.section	.text.obqGetEmptyBufferTimeout,"ax",%progbits
 1291      C046C046 
 1291      C046C046 
 1292              		.align	2
 1293              		.p2align 4,,15
 1294              		.global	obqGetEmptyBufferTimeout
 1295              		.code	16
 1296              		.thumb_func
 1297              		.type	obqGetEmptyBufferTimeout, %function
 1298              	obqGetEmptyBufferTimeout:
ARM GAS  /tmp/ccjnb8m5.s 			page 24


 1299              	.LFB107:
 1300              		.loc 1 554 0
 1301              		.cfi_startproc
 1302              	.LVL89:
 1303 0000 38B5     		push	{r3, r4, r5, lr}
 1304              		.cfi_def_cfa_offset 16
 1305              		.cfi_offset 3, -16
 1306              		.cfi_offset 4, -12
 1307              		.cfi_offset 5, -8
 1308              		.cfi_offset 14, -4
 1309              		.loc 1 554 0
 1310 0002 041C     		mov	r4, r0
 1311 0004 0D1C     		mov	r5, r1
 1312              	.LBB406:
 1313              	.LBB407:
 1314              	.LBB408:
 1315              	.LBB409:
 1316              		.loc 3 344 0
 1317              	#APP
 1318              	@ 344 "../os/ext/CMSIS/include/core_cmFunc.h" 1
 1319 0006 72B6     		cpsid i
 1320              	@ 0 "" 2
 1321              	.LVL90:
 1322              		.code	16
 1323 0008 05E0     		b	.L99
 1324              	.LVL91:
 1325              	.L101:
 1326              	.LBE409:
 1327              	.LBE408:
 1328              	.LBE407:
 1329              	.LBE406:
 1330              	.LBB410:
 1331              	.LBB411:
 1332              	.LBB412:
 1333              	.LBB413:
 1334              	.LBB414:
 1335              		.loc 2 794 0
 1336 000a 201C     		mov	r0, r4
 1337 000c 291C     		mov	r1, r5
 1338 000e FFF7FEFF 		bl	chSemWaitTimeoutS
 1339              	.LVL92:
 1340              	.LBE414:
 1341              	.LBE413:
 1342              		.loc 1 591 0
 1343 0012 0028     		cmp	r0, #0
 1344 0014 0ADB     		blt	.L100
 1345              	.LVL93:
 1346              	.L99:
 1347              	.LBE412:
 1348              		.loc 1 589 0
 1349 0016 6368     		ldr	r3, [r4, #4]
 1350 0018 002B     		cmp	r3, #0
 1351 001a F6D0     		beq	.L101
 1352              	.LVL94:
 1353              	.LBB415:
 1354              	.LBB416:
 1355              		.loc 1 599 0
ARM GAS  /tmp/ccjnb8m5.s 			page 25


 1356 001c A368     		ldr	r3, [r4, #8]
 1357              		.loc 1 600 0
 1358 001e 0020     		mov	r0, #0
 1359              		.loc 1 599 0
 1360 0020 1A1D     		add	r2, r3, #4
 1361 0022 2262     		str	r2, [r4, #32]
 1362              		.loc 1 600 0
 1363 0024 6269     		ldr	r2, [r4, #20]
 1364 0026 9446     		mov	ip, r2
 1365 0028 6344     		add	r3, r3, ip
 1366 002a 6362     		str	r3, [r4, #36]
 1367              	.LVL95:
 1368              	.L100:
 1369              	.LBE416:
 1370              	.LBE415:
 1371              	.LBE411:
 1372              	.LBE410:
 1373              	.LBB417:
 1374              	.LBB418:
 1375              	.LBB419:
 1376              	.LBB420:
 1377              		.loc 3 333 0
 1378              	#APP
 1379              	@ 333 "../os/ext/CMSIS/include/core_cmFunc.h" 1
 1380 002c 62B6     		cpsie i
 1381              	@ 0 "" 2
 1382              		.code	16
 1383              	.LBE420:
 1384              	.LBE419:
 1385              	.LBE418:
 1386              	.LBE417:
 1387              		.loc 1 562 0
 1388              		@ sp needed
 1389              	.LVL96:
 1390              	.LVL97:
 1391 002e 38BD     		pop	{r3, r4, r5, pc}
 1392              		.cfi_endproc
 1393              	.LFE107:
 1394              		.size	obqGetEmptyBufferTimeout, .-obqGetEmptyBufferTimeout
 1395              		.section	.text.obqGetEmptyBufferTimeoutS,"ax",%progbits
 1396              		.align	2
 1397              		.p2align 4,,15
 1398              		.global	obqGetEmptyBufferTimeoutS
 1399              		.code	16
 1400              		.thumb_func
 1401              		.type	obqGetEmptyBufferTimeoutS, %function
 1402              	obqGetEmptyBufferTimeoutS:
 1403              	.LFB108:
 1404              		.loc 1 585 0
 1405              		.cfi_startproc
 1406              	.LVL98:
 1407 0000 38B5     		push	{r3, r4, r5, lr}
 1408              		.cfi_def_cfa_offset 16
 1409              		.cfi_offset 3, -16
 1410              		.cfi_offset 4, -12
 1411              		.cfi_offset 5, -8
 1412              		.cfi_offset 14, -4
ARM GAS  /tmp/ccjnb8m5.s 			page 26


 1413              		.loc 1 585 0
 1414 0002 041C     		mov	r4, r0
 1415 0004 0D1C     		mov	r5, r1
 1416              		.loc 1 589 0
 1417 0006 05E0     		b	.L104
 1418              	.LVL99:
 1419              	.L106:
 1420              	.LBB432:
 1421              	.LBB433:
 1422              	.LBB434:
 1423              		.loc 2 794 0
 1424 0008 201C     		mov	r0, r4
 1425 000a 291C     		mov	r1, r5
 1426 000c FFF7FEFF 		bl	chSemWaitTimeoutS
 1427              	.LVL100:
 1428              	.LBE434:
 1429              	.LBE433:
 1430              		.loc 1 591 0
 1431 0010 0028     		cmp	r0, #0
 1432 0012 0ADB     		blt	.L105
 1433              	.LVL101:
 1434              	.L104:
 1435              	.LBE432:
 1436              		.loc 1 589 0
 1437 0014 6368     		ldr	r3, [r4, #4]
 1438 0016 002B     		cmp	r3, #0
 1439 0018 F6D0     		beq	.L106
 1440              	.LVL102:
 1441              	.LBB435:
 1442              	.LBB436:
 1443              		.loc 1 599 0
 1444 001a A368     		ldr	r3, [r4, #8]
 1445              		.loc 1 600 0
 1446 001c 0020     		mov	r0, #0
 1447              		.loc 1 599 0
 1448 001e 1A1D     		add	r2, r3, #4
 1449 0020 2262     		str	r2, [r4, #32]
 1450              		.loc 1 600 0
 1451 0022 6269     		ldr	r2, [r4, #20]
 1452 0024 9446     		mov	ip, r2
 1453 0026 6344     		add	r3, r3, ip
 1454 0028 6362     		str	r3, [r4, #36]
 1455              	.LVL103:
 1456              	.L105:
 1457              	.LBE436:
 1458              	.LBE435:
 1459              		.loc 1 603 0
 1460              		@ sp needed
 1461              	.LVL104:
 1462              	.LVL105:
 1463 002a 38BD     		pop	{r3, r4, r5, pc}
 1464              		.cfi_endproc
 1465              	.LFE108:
 1466              		.size	obqGetEmptyBufferTimeoutS, .-obqGetEmptyBufferTimeoutS
 1467 002c C046C046 		.section	.text.obqPostFullBuffer,"ax",%progbits
 1468              		.align	2
 1469              		.p2align 4,,15
ARM GAS  /tmp/ccjnb8m5.s 			page 27


 1470              		.global	obqPostFullBuffer
 1471              		.code	16
 1472              		.thumb_func
 1473              		.type	obqPostFullBuffer, %function
 1474              	obqPostFullBuffer:
 1475              	.LFB109:
 1476              		.loc 1 614 0
 1477              		.cfi_startproc
 1478              	.LVL106:
 1479 0000 08B5     		push	{r3, lr}
 1480              		.cfi_def_cfa_offset 8
 1481              		.cfi_offset 3, -8
 1482              		.cfi_offset 14, -4
 1483              	.LBB447:
 1484              	.LBB448:
 1485              	.LBB449:
 1486              	.LBB450:
 1487              		.loc 3 344 0
 1488              	#APP
 1489              	@ 344 "../os/ext/CMSIS/include/core_cmFunc.h" 1
 1490 0002 72B6     		cpsid i
 1491              	@ 0 "" 2
 1492              	.LVL107:
 1493              		.code	16
 1494              	.LBE450:
 1495              	.LBE449:
 1496              	.LBE448:
 1497              	.LBE447:
 1498              	.LBB451:
 1499              	.LBB452:
 1500              		.loc 1 637 0
 1501 0004 8368     		ldr	r3, [r0, #8]
 1502 0006 1960     		str	r1, [r3]
 1503              		.loc 1 640 0
 1504 0008 4268     		ldr	r2, [r0, #4]
 1505 000a 013A     		sub	r2, r2, #1
 1506 000c 4260     		str	r2, [r0, #4]
 1507              		.loc 1 641 0
 1508 000e 4269     		ldr	r2, [r0, #20]
 1509 0010 9446     		mov	ip, r2
 1510              		.loc 1 642 0
 1511 0012 0269     		ldr	r2, [r0, #16]
 1512              		.loc 1 641 0
 1513 0014 6344     		add	r3, r3, ip
 1514 0016 8360     		str	r3, [r0, #8]
 1515              		.loc 1 642 0
 1516 0018 9342     		cmp	r3, r2
 1517 001a 01D3     		bcc	.L109
 1518              		.loc 1 643 0
 1519 001c C369     		ldr	r3, [r0, #28]
 1520 001e 8360     		str	r3, [r0, #8]
 1521              	.L109:
 1522              		.loc 1 647 0
 1523 0020 0023     		mov	r3, #0
 1524 0022 0362     		str	r3, [r0, #32]
 1525              		.loc 1 650 0
 1526 0024 836A     		ldr	r3, [r0, #40]
ARM GAS  /tmp/ccjnb8m5.s 			page 28


 1527 0026 002B     		cmp	r3, #0
 1528 0028 00D0     		beq	.L110
 1529              		.loc 1 651 0
 1530 002a 9847     		blx	r3
 1531              	.LVL108:
 1532              	.L110:
 1533              	.LBE452:
 1534              	.LBE451:
 1535              	.LBB453:
 1536              	.LBB454:
 1537              	.LBB455:
 1538              	.LBB456:
 1539              		.loc 3 333 0
 1540              	#APP
 1541              	@ 333 "../os/ext/CMSIS/include/core_cmFunc.h" 1
 1542 002c 62B6     		cpsie i
 1543              	@ 0 "" 2
 1544              		.code	16
 1545              	.LBE456:
 1546              	.LBE455:
 1547              	.LBE454:
 1548              	.LBE453:
 1549              		.loc 1 619 0
 1550              		@ sp needed
 1551 002e 08BD     		pop	{r3, pc}
 1552              		.cfi_endproc
 1553              	.LFE109:
 1554              		.size	obqPostFullBuffer, .-obqPostFullBuffer
 1555              		.section	.text.obqPostFullBufferS,"ax",%progbits
 1556              		.align	2
 1557              		.p2align 4,,15
 1558              		.global	obqPostFullBufferS
 1559              		.code	16
 1560              		.thumb_func
 1561              		.type	obqPostFullBufferS, %function
 1562              	obqPostFullBufferS:
 1563              	.LFB110:
 1564              		.loc 1 630 0
 1565              		.cfi_startproc
 1566              	.LVL109:
 1567 0000 08B5     		push	{r3, lr}
 1568              		.cfi_def_cfa_offset 8
 1569              		.cfi_offset 3, -8
 1570              		.cfi_offset 14, -4
 1571              		.loc 1 637 0
 1572 0002 8368     		ldr	r3, [r0, #8]
 1573 0004 1960     		str	r1, [r3]
 1574              		.loc 1 640 0
 1575 0006 4268     		ldr	r2, [r0, #4]
 1576 0008 013A     		sub	r2, r2, #1
 1577 000a 4260     		str	r2, [r0, #4]
 1578              		.loc 1 641 0
 1579 000c 4269     		ldr	r2, [r0, #20]
 1580 000e 9446     		mov	ip, r2
 1581              		.loc 1 642 0
 1582 0010 0269     		ldr	r2, [r0, #16]
 1583              		.loc 1 641 0
ARM GAS  /tmp/ccjnb8m5.s 			page 29


 1584 0012 6344     		add	r3, r3, ip
 1585 0014 8360     		str	r3, [r0, #8]
 1586              		.loc 1 642 0
 1587 0016 9342     		cmp	r3, r2
 1588 0018 01D3     		bcc	.L115
 1589              		.loc 1 643 0
 1590 001a C369     		ldr	r3, [r0, #28]
 1591 001c 8360     		str	r3, [r0, #8]
 1592              	.L115:
 1593              		.loc 1 647 0
 1594 001e 0023     		mov	r3, #0
 1595 0020 0362     		str	r3, [r0, #32]
 1596              		.loc 1 650 0
 1597 0022 836A     		ldr	r3, [r0, #40]
 1598 0024 002B     		cmp	r3, #0
 1599 0026 00D0     		beq	.L114
 1600              		.loc 1 651 0
 1601 0028 9847     		blx	r3
 1602              	.LVL110:
 1603              	.L114:
 1604              		.loc 1 653 0
 1605              		@ sp needed
 1606 002a 08BD     		pop	{r3, pc}
 1607              		.cfi_endproc
 1608              	.LFE110:
 1609              		.size	obqPostFullBufferS, .-obqPostFullBufferS
 1610 002c C046C046 		.section	.text.obqPutTimeout,"ax",%progbits
 1611              		.align	2
 1612              		.p2align 4,,15
 1613              		.global	obqPutTimeout
 1614              		.code	16
 1615              		.thumb_func
 1616              		.type	obqPutTimeout, %function
 1617              	obqPutTimeout:
 1618              	.LFB111:
 1619              		.loc 1 675 0
 1620              		.cfi_startproc
 1621              	.LVL111:
 1622 0000 70B5     		push	{r4, r5, r6, lr}
 1623              		.cfi_def_cfa_offset 16
 1624              		.cfi_offset 4, -16
 1625              		.cfi_offset 5, -12
 1626              		.cfi_offset 6, -8
 1627              		.cfi_offset 14, -4
 1628              		.loc 1 675 0
 1629 0002 041C     		mov	r4, r0
 1630 0004 0D1C     		mov	r5, r1
 1631 0006 161C     		mov	r6, r2
 1632              	.LBB481:
 1633              	.LBB482:
 1634              	.LBB483:
 1635              	.LBB484:
 1636              		.loc 3 344 0
 1637              	#APP
 1638              	@ 344 "../os/ext/CMSIS/include/core_cmFunc.h" 1
 1639 0008 72B6     		cpsid i
 1640              	@ 0 "" 2
ARM GAS  /tmp/ccjnb8m5.s 			page 30


 1641              		.code	16
 1642              	.LBE484:
 1643              	.LBE483:
 1644              	.LBE482:
 1645              	.LBE481:
 1646              		.loc 1 681 0
 1647 000a 036A     		ldr	r3, [r0, #32]
 1648 000c 002B     		cmp	r3, #0
 1649 000e 0FD0     		beq	.L121
 1650              	.LVL112:
 1651              	.L122:
 1652              		.loc 1 690 0
 1653 0010 1D70     		strb	r5, [r3]
 1654              		.loc 1 691 0
 1655 0012 236A     		ldr	r3, [r4, #32]
 1656              		.loc 1 695 0
 1657 0014 626A     		ldr	r2, [r4, #36]
 1658              		.loc 1 691 0
 1659 0016 0133     		add	r3, r3, #1
 1660 0018 2362     		str	r3, [r4, #32]
 1661              		.loc 1 695 0
 1662 001a 9342     		cmp	r3, r2
 1663 001c 13D2     		bcs	.L135
 1664              	.L126:
 1665              	.LBB485:
 1666              	.LBB486:
 1667              	.LBB487:
 1668              	.LBB488:
 1669              		.loc 3 333 0
 1670              	#APP
 1671              	@ 333 "../os/ext/CMSIS/include/core_cmFunc.h" 1
 1672 001e 62B6     		cpsie i
 1673              	@ 0 "" 2
 1674              		.code	16
 1675              	.LBE488:
 1676              	.LBE487:
 1677              	.LBE486:
 1678              	.LBE485:
 1679              		.loc 1 700 0
 1680 0020 0020     		mov	r0, #0
 1681              	.L123:
 1682              		.loc 1 701 0
 1683              		@ sp needed
 1684              	.LVL113:
 1685              	.LVL114:
 1686 0022 70BD     		pop	{r4, r5, r6, pc}
 1687              	.LVL115:
 1688              	.L124:
 1689              	.LBB489:
 1690              	.LBB490:
 1691              	.LBB491:
 1692              	.LBB492:
 1693              	.LBB493:
 1694              		.loc 2 794 0
 1695 0024 201C     		mov	r0, r4
 1696 0026 311C     		mov	r1, r6
 1697 0028 FFF7FEFF 		bl	chSemWaitTimeoutS
ARM GAS  /tmp/ccjnb8m5.s 			page 31


 1698              	.LVL116:
 1699              	.LBE493:
 1700              	.LBE492:
 1701              		.loc 1 591 0
 1702 002c 0028     		cmp	r0, #0
 1703 002e 23DB     		blt	.L136
 1704              	.LVL117:
 1705              	.L121:
 1706              	.LBE491:
 1707              		.loc 1 589 0
 1708 0030 6368     		ldr	r3, [r4, #4]
 1709 0032 002B     		cmp	r3, #0
 1710 0034 F6D0     		beq	.L124
 1711              	.LVL118:
 1712              	.LBB494:
 1713              	.LBB495:
 1714              		.loc 1 600 0
 1715 0036 6169     		ldr	r1, [r4, #20]
 1716              		.loc 1 599 0
 1717 0038 A268     		ldr	r2, [r4, #8]
 1718              		.loc 1 600 0
 1719 003a 8C46     		mov	ip, r1
 1720              		.loc 1 599 0
 1721 003c 131D     		add	r3, r2, #4
 1722              		.loc 1 600 0
 1723 003e 6244     		add	r2, r2, ip
 1724              		.loc 1 599 0
 1725 0040 2362     		str	r3, [r4, #32]
 1726              		.loc 1 600 0
 1727 0042 6262     		str	r2, [r4, #36]
 1728 0044 E4E7     		b	.L122
 1729              	.LVL119:
 1730              	.L135:
 1731              	.LBE495:
 1732              	.LBE494:
 1733              	.LBE490:
 1734              	.LBE489:
 1735              		.loc 1 696 0
 1736 0046 6269     		ldr	r2, [r4, #20]
 1737              	.LBB496:
 1738              	.LBB497:
 1739              		.loc 1 637 0
 1740 0048 A368     		ldr	r3, [r4, #8]
 1741              	.LBE497:
 1742              	.LBE496:
 1743              		.loc 1 696 0
 1744 004a 043A     		sub	r2, r2, #4
 1745              	.LVL120:
 1746              	.LBB499:
 1747              	.LBB498:
 1748              		.loc 1 637 0
 1749 004c 1A60     		str	r2, [r3]
 1750              		.loc 1 640 0
 1751 004e 6268     		ldr	r2, [r4, #4]
 1752              	.LVL121:
 1753 0050 013A     		sub	r2, r2, #1
 1754 0052 6260     		str	r2, [r4, #4]
ARM GAS  /tmp/ccjnb8m5.s 			page 32


 1755              	.LVL122:
 1756              		.loc 1 641 0
 1757 0054 6269     		ldr	r2, [r4, #20]
 1758 0056 9446     		mov	ip, r2
 1759              		.loc 1 642 0
 1760 0058 2269     		ldr	r2, [r4, #16]
 1761              		.loc 1 641 0
 1762 005a 6344     		add	r3, r3, ip
 1763 005c A360     		str	r3, [r4, #8]
 1764              		.loc 1 642 0
 1765 005e 9342     		cmp	r3, r2
 1766 0060 07D2     		bcs	.L137
 1767              	.L127:
 1768              		.loc 1 647 0
 1769 0062 0023     		mov	r3, #0
 1770 0064 2362     		str	r3, [r4, #32]
 1771              		.loc 1 650 0
 1772 0066 A36A     		ldr	r3, [r4, #40]
 1773 0068 002B     		cmp	r3, #0
 1774 006a D8D0     		beq	.L126
 1775              		.loc 1 651 0
 1776 006c 201C     		mov	r0, r4
 1777 006e 9847     		blx	r3
 1778              	.LVL123:
 1779 0070 D5E7     		b	.L126
 1780              	.L137:
 1781              		.loc 1 643 0
 1782 0072 E369     		ldr	r3, [r4, #28]
 1783 0074 A360     		str	r3, [r4, #8]
 1784 0076 F4E7     		b	.L127
 1785              	.LVL124:
 1786              	.L136:
 1787              	.LBE498:
 1788              	.LBE499:
 1789              	.LBB500:
 1790              	.LBB501:
 1791              	.LBB502:
 1792              	.LBB503:
 1793              		.loc 3 333 0
 1794              	#APP
 1795              	@ 333 "../os/ext/CMSIS/include/core_cmFunc.h" 1
 1796 0078 62B6     		cpsie i
 1797              	@ 0 "" 2
 1798              		.code	16
 1799              	.LBE503:
 1800              	.LBE502:
 1801              	.LBE501:
 1802              	.LBE500:
 1803              		.loc 1 685 0
 1804 007a D2E7     		b	.L123
 1805              		.cfi_endproc
 1806              	.LFE111:
 1807              		.size	obqPutTimeout, .-obqPutTimeout
 1808 007c C046C046 		.section	.text.obqWriteTimeout,"ax",%progbits
 1809              		.align	2
 1810              		.p2align 4,,15
 1811              		.global	obqWriteTimeout
ARM GAS  /tmp/ccjnb8m5.s 			page 33


 1812              		.code	16
 1813              		.thumb_func
 1814              		.type	obqWriteTimeout, %function
 1815              	obqWriteTimeout:
 1816              	.LFB112:
 1817              		.loc 1 725 0
 1818              		.cfi_startproc
 1819              	.LVL125:
 1820 0000 F0B5     		push	{r4, r5, r6, r7, lr}
 1821              		.cfi_def_cfa_offset 20
 1822              		.cfi_offset 4, -20
 1823              		.cfi_offset 5, -16
 1824              		.cfi_offset 6, -12
 1825              		.cfi_offset 7, -8
 1826              		.cfi_offset 14, -4
 1827 0002 5F46     		mov	r7, fp
 1828 0004 4D46     		mov	r5, r9
 1829 0006 4446     		mov	r4, r8
 1830 0008 5646     		mov	r6, r10
 1831 000a F0B4     		push	{r4, r5, r6, r7}
 1832              		.cfi_def_cfa_offset 36
 1833              		.cfi_offset 8, -36
 1834              		.cfi_offset 9, -32
 1835              		.cfi_offset 10, -28
 1836              		.cfi_offset 11, -24
 1837 000c 9046     		mov	r8, r2
 1838 000e 83B0     		sub	sp, sp, #12
 1839              		.cfi_def_cfa_offset 48
 1840              		.loc 1 725 0
 1841 0010 041C     		mov	r4, r0
 1842 0012 0F1C     		mov	r7, r1
 1843 0014 9946     		mov	r9, r3
 1844              	.LBB553:
 1845              	.LBB554:
 1846              	.LBB555:
 1847              	.LBB556:
 1848              		.loc 3 344 0
 1849              	#APP
 1850              	@ 344 "../os/ext/CMSIS/include/core_cmFunc.h" 1
 1851 0016 72B6     		cpsid i
 1852              	@ 0 "" 2
 1853              		.code	16
 1854              	.LBE556:
 1855              	.LBE555:
 1856              	.LBE554:
 1857              	.LBE553:
 1858              	.LBB557:
 1859              	.LBB558:
 1860              		.loc 2 627 0
 1861 0018 3C4B     		ldr	r3, .L168
 1862              	.LVL126:
 1863              	.LBE558:
 1864              	.LBE557:
 1865              		.loc 1 726 0
 1866 001a 0026     		mov	r6, #0
 1867              	.LBB560:
 1868              	.LBB559:
ARM GAS  /tmp/ccjnb8m5.s 			page 34


 1869              		.loc 2 627 0
 1870 001c 9B46     		mov	fp, r3
 1871 001e 9B68     		ldr	r3, [r3, #8]
 1872              	.LBE559:
 1873              	.LBE560:
 1874              		.loc 1 732 0
 1875 0020 4B44     		add	r3, r3, r9
 1876 0022 0193     		str	r3, [sp, #4]
 1877              	.LVL127:
 1878              	.LBB561:
 1879              	.LBB562:
 1880              		.loc 1 743 0
 1881 0024 4B46     		mov	r3, r9
 1882              	.LVL128:
 1883 0026 013B     		sub	r3, r3, #1
 1884 0028 0093     		str	r3, [sp]
 1885              	.LBE562:
 1886              	.LBB582:
 1887              	.LBB583:
 1888              		.loc 1 647 0
 1889 002a 0023     		mov	r3, #0
 1890 002c 9A46     		mov	r10, r3
 1891 002e 0EE0     		b	.L155
 1892              	.LVL129:
 1893              	.L167:
 1894              	.LBE583:
 1895              	.LBE582:
 1896              		.loc 1 776 0
 1897 0030 4022     		mov	r2, #64
 1898 0032 FFF7FEFF 		bl	memcpy
 1899              	.LVL130:
 1900              		.loc 1 778 0
 1901 0036 236A     		ldr	r3, [r4, #32]
 1902              		.loc 1 789 0
 1903 0038 626A     		ldr	r2, [r4, #36]
 1904              		.loc 1 778 0
 1905 003a 4033     		add	r3, r3, #64
 1906              		.loc 1 777 0
 1907 003c 4037     		add	r7, r7, #64
 1908              	.LVL131:
 1909              		.loc 1 778 0
 1910 003e 2362     		str	r3, [r4, #32]
 1911              		.loc 1 779 0
 1912 0040 4036     		add	r6, r6, #64
 1913              	.LVL132:
 1914              		.loc 1 789 0
 1915 0042 9A42     		cmp	r2, r3
 1916 0044 1BD9     		bls	.L165
 1917              	.L152:
 1918              	.LBB586:
 1919              	.LBB587:
 1920              	.LBB588:
 1921              	.LBB589:
 1922              		.loc 3 333 0
 1923              	#APP
 1924              	@ 333 "../os/ext/CMSIS/include/core_cmFunc.h" 1
 1925 0046 62B6     		cpsie i
ARM GAS  /tmp/ccjnb8m5.s 			page 35


 1926              	@ 0 "" 2
 1927              		.code	16
 1928              	.LBE589:
 1929              	.LBE588:
 1930              	.LBE587:
 1931              	.LBE586:
 1932              		.loc 1 795 0
 1933 0048 4645     		cmp	r6, r8
 1934 004a 56D2     		bcs	.L158
 1935              	.LBB590:
 1936              	.LBB591:
 1937              	.LBB592:
 1938              	.LBB593:
 1939              		.loc 3 344 0
 1940              	#APP
 1941              	@ 344 "../os/ext/CMSIS/include/core_cmFunc.h" 1
 1942 004c 72B6     		cpsid i
 1943              	@ 0 "" 2
 1944              	.LVL133:
 1945              		.code	16
 1946              	.L155:
 1947              	.LBE593:
 1948              	.LBE592:
 1949              	.LBE591:
 1950              	.LBE590:
 1951              		.loc 1 738 0
 1952 004e 206A     		ldr	r0, [r4, #32]
 1953 0050 0028     		cmp	r0, #0
 1954 0052 2CD0     		beq	.L166
 1955 0054 656A     		ldr	r5, [r4, #36]
 1956              	.L156:
 1957              	.LVL134:
 1958              		.loc 1 768 0
 1959 0056 4346     		mov	r3, r8
 1960 0058 2D1A     		sub	r5, r5, r0
 1961              	.LVL135:
 1962 005a 9B1B     		sub	r3, r3, r6
 1963 005c 9D42     		cmp	r5, r3
 1964 005e 00D9     		bls	.L148
 1965 0060 1D1C     		mov	r5, r3
 1966              	.LVL136:
 1967              	.L148:
 1968              		.loc 1 776 0
 1969 0062 391C     		mov	r1, r7
 1970              		.loc 1 774 0
 1971 0064 402D     		cmp	r5, #64
 1972 0066 E3D8     		bhi	.L167
 1973              	.LVL137:
 1974              		.loc 1 782 0
 1975 0068 2A1C     		mov	r2, r5
 1976 006a FFF7FEFF 		bl	memcpy
 1977              	.LVL138:
 1978              		.loc 1 784 0
 1979 006e 236A     		ldr	r3, [r4, #32]
 1980              		.loc 1 789 0
 1981 0070 626A     		ldr	r2, [r4, #36]
 1982              		.loc 1 784 0
ARM GAS  /tmp/ccjnb8m5.s 			page 36


 1983 0072 5B19     		add	r3, r3, r5
 1984              		.loc 1 783 0
 1985 0074 7F19     		add	r7, r7, r5
 1986              	.LVL139:
 1987              		.loc 1 784 0
 1988 0076 2362     		str	r3, [r4, #32]
 1989              		.loc 1 785 0
 1990 0078 7619     		add	r6, r6, r5
 1991              	.LVL140:
 1992              		.loc 1 789 0
 1993 007a 9A42     		cmp	r2, r3
 1994 007c E3D8     		bhi	.L152
 1995              	.L165:
 1996              	.LVL141:
 1997              		.loc 1 790 0
 1998 007e 6269     		ldr	r2, [r4, #20]
 1999              	.LBB594:
 2000              	.LBB584:
 2001              		.loc 1 637 0
 2002 0080 A368     		ldr	r3, [r4, #8]
 2003              	.LBE584:
 2004              	.LBE594:
 2005              		.loc 1 790 0
 2006 0082 043A     		sub	r2, r2, #4
 2007              	.LVL142:
 2008              	.LBB595:
 2009              	.LBB585:
 2010              		.loc 1 637 0
 2011 0084 1A60     		str	r2, [r3]
 2012              		.loc 1 640 0
 2013 0086 6268     		ldr	r2, [r4, #4]
 2014              	.LVL143:
 2015 0088 013A     		sub	r2, r2, #1
 2016 008a 6260     		str	r2, [r4, #4]
 2017              	.LVL144:
 2018              		.loc 1 641 0
 2019 008c 6269     		ldr	r2, [r4, #20]
 2020 008e 9446     		mov	ip, r2
 2021              		.loc 1 642 0
 2022 0090 2269     		ldr	r2, [r4, #16]
 2023              		.loc 1 641 0
 2024 0092 6344     		add	r3, r3, ip
 2025 0094 A360     		str	r3, [r4, #8]
 2026              		.loc 1 642 0
 2027 0096 9342     		cmp	r3, r2
 2028 0098 01D3     		bcc	.L153
 2029              		.loc 1 643 0
 2030 009a E369     		ldr	r3, [r4, #28]
 2031 009c A360     		str	r3, [r4, #8]
 2032              	.L153:
 2033              		.loc 1 647 0
 2034 009e 5346     		mov	r3, r10
 2035 00a0 2362     		str	r3, [r4, #32]
 2036              		.loc 1 650 0
 2037 00a2 A36A     		ldr	r3, [r4, #40]
 2038 00a4 002B     		cmp	r3, #0
 2039 00a6 CED0     		beq	.L152
ARM GAS  /tmp/ccjnb8m5.s 			page 37


 2040              		.loc 1 651 0
 2041 00a8 201C     		mov	r0, r4
 2042 00aa 9847     		blx	r3
 2043              	.LVL145:
 2044 00ac CBE7     		b	.L152
 2045              	.LVL146:
 2046              	.L166:
 2047              	.LBE585:
 2048              	.LBE595:
 2049              	.LBB596:
 2050              		.loc 1 743 0
 2051 00ae 009B     		ldr	r3, [sp]
 2052 00b0 0333     		add	r3, r3, #3
 2053 00b2 1DD8     		bhi	.L160
 2054              	.LBB563:
 2055              	.LBB564:
 2056              	.LBB565:
 2057              		.loc 2 627 0
 2058 00b4 5B46     		mov	r3, fp
 2059 00b6 9D68     		ldr	r5, [r3, #8]
 2060              	.LBE565:
 2061              	.LBE564:
 2062              		.loc 1 747 0
 2063 00b8 019B     		ldr	r3, [sp, #4]
 2064 00ba 5D1B     		sub	r5, r3, r5
 2065              	.LVL147:
 2066              		.loc 1 752 0
 2067 00bc A945     		cmp	r9, r5
 2068 00be 06D2     		bcs	.L161
 2069 00c0 1AE0     		b	.L142
 2070              	.L147:
 2071              	.LVL148:
 2072              	.LBB566:
 2073              	.LBB567:
 2074              	.LBB568:
 2075              	.LBB569:
 2076              	.LBB570:
 2077              		.loc 2 794 0
 2078 00c2 201C     		mov	r0, r4
 2079 00c4 291C     		mov	r1, r5
 2080 00c6 FFF7FEFF 		bl	chSemWaitTimeoutS
 2081              	.LVL149:
 2082              	.LBE570:
 2083              	.LBE569:
 2084              		.loc 1 591 0
 2085 00ca 0028     		cmp	r0, #0
 2086 00cc 14DB     		blt	.L142
 2087              	.LVL150:
 2088              	.L161:
 2089              	.LBE568:
 2090              		.loc 1 589 0
 2091 00ce 6368     		ldr	r3, [r4, #4]
 2092 00d0 002B     		cmp	r3, #0
 2093 00d2 F6D0     		beq	.L147
 2094              	.LVL151:
 2095              	.L164:
 2096              	.LBB571:
ARM GAS  /tmp/ccjnb8m5.s 			page 38


 2097              	.LBB572:
 2098              		.loc 1 600 0
 2099 00d4 6369     		ldr	r3, [r4, #20]
 2100              		.loc 1 599 0
 2101 00d6 A568     		ldr	r5, [r4, #8]
 2102              		.loc 1 600 0
 2103 00d8 9C46     		mov	ip, r3
 2104              		.loc 1 599 0
 2105 00da 281D     		add	r0, r5, #4
 2106              		.loc 1 600 0
 2107 00dc 6544     		add	r5, r5, ip
 2108              		.loc 1 599 0
 2109 00de 2062     		str	r0, [r4, #32]
 2110              		.loc 1 600 0
 2111 00e0 6562     		str	r5, [r4, #36]
 2112 00e2 B8E7     		b	.L156
 2113              	.LVL152:
 2114              	.L143:
 2115              	.LBE572:
 2116              	.LBE571:
 2117              	.LBE567:
 2118              	.LBE566:
 2119              	.LBE563:
 2120              	.LBB573:
 2121              	.LBB574:
 2122              	.LBB575:
 2123              	.LBB576:
 2124              	.LBB577:
 2125              		.loc 2 794 0
 2126 00e4 201C     		mov	r0, r4
 2127 00e6 4946     		mov	r1, r9
 2128 00e8 FFF7FEFF 		bl	chSemWaitTimeoutS
 2129              	.LVL153:
 2130              	.LBE577:
 2131              	.LBE576:
 2132              		.loc 1 591 0
 2133 00ec 0028     		cmp	r0, #0
 2134 00ee 03DB     		blt	.L142
 2135              	.LVL154:
 2136              	.L160:
 2137              	.LBE575:
 2138              		.loc 1 589 0
 2139 00f0 6368     		ldr	r3, [r4, #4]
 2140 00f2 002B     		cmp	r3, #0
 2141 00f4 F6D0     		beq	.L143
 2142 00f6 EDE7     		b	.L164
 2143              	.L142:
 2144              	.LBE574:
 2145              	.LBE573:
 2146              	.LBB578:
 2147              	.LBB579:
 2148              	.LBB580:
 2149              	.LBB581:
 2150              		.loc 3 333 0
 2151              	#APP
 2152              	@ 333 "../os/ext/CMSIS/include/core_cmFunc.h" 1
 2153 00f8 62B6     		cpsie i
ARM GAS  /tmp/ccjnb8m5.s 			page 39


 2154              	@ 0 "" 2
 2155              		.code	16
 2156              	.L158:
 2157              	.LBE581:
 2158              	.LBE580:
 2159              	.LBE579:
 2160              	.LBE578:
 2161              	.LBE596:
 2162              	.LBE561:
 2163              		.loc 1 800 0
 2164 00fa 301C     		mov	r0, r6
 2165 00fc 03B0     		add	sp, sp, #12
 2166              		@ sp needed
 2167              	.LVL155:
 2168              	.LVL156:
 2169              	.LVL157:
 2170              	.LVL158:
 2171              	.LVL159:
 2172 00fe 3CBC     		pop	{r2, r3, r4, r5}
 2173 0100 9046     		mov	r8, r2
 2174 0102 9946     		mov	r9, r3
 2175 0104 A246     		mov	r10, r4
 2176 0106 AB46     		mov	fp, r5
 2177 0108 F0BD     		pop	{r4, r5, r6, r7, pc}
 2178              	.L169:
 2179 010a C046     		.align	2
 2180              	.L168:
 2181 010c 00000000 		.word	nil
 2182              		.cfi_endproc
 2183              	.LFE112:
 2184              		.size	obqWriteTimeout, .-obqWriteTimeout
 2185              		.section	.text.obqTryFlushI,"ax",%progbits
 2186              		.align	2
 2187              		.p2align 4,,15
 2188              		.global	obqTryFlushI
 2189              		.code	16
 2190              		.thumb_func
 2191              		.type	obqTryFlushI, %function
 2192              	obqTryFlushI:
 2193              	.LFB113:
 2194              		.loc 1 815 0
 2195              		.cfi_startproc
 2196              	.LVL160:
 2197              		.loc 1 815 0
 2198 0000 031C     		mov	r3, r0
 2199              		.loc 1 821 0
 2200 0002 8168     		ldr	r1, [r0, #8]
 2201 0004 DA68     		ldr	r2, [r3, #12]
 2202              		.loc 1 842 0
 2203 0006 0020     		mov	r0, #0
 2204              	.LVL161:
 2205              		.loc 1 821 0
 2206 0008 9142     		cmp	r1, r2
 2207 000a 00D0     		beq	.L179
 2208              	.L177:
 2209              		.loc 1 843 0
 2210              		@ sp needed
ARM GAS  /tmp/ccjnb8m5.s 			page 40


 2211 000c 7047     		bx	lr
 2212              	.L179:
 2213              		.loc 1 821 0 discriminator 1
 2214 000e 5A68     		ldr	r2, [r3, #4]
 2215 0010 002A     		cmp	r2, #0
 2216 0012 FBD0     		beq	.L177
 2217              		.loc 1 821 0 is_stmt 0
 2218 0014 1A6A     		ldr	r2, [r3, #32]
 2219 0016 002A     		cmp	r2, #0
 2220 0018 F8D0     		beq	.L177
 2221 001a 043A     		sub	r2, r2, #4
 2222              	.LBB597:
 2223              		.loc 1 822 0 is_stmt 1
 2224 001c 521A     		sub	r2, r2, r1
 2225              	.LVL162:
 2226              		.loc 1 824 0
 2227 001e F5D0     		beq	.L177
 2228              		.loc 1 827 0
 2229 0020 0A60     		str	r2, [r1]
 2230              		.loc 1 830 0
 2231 0022 5A68     		ldr	r2, [r3, #4]
 2232              	.LVL163:
 2233 0024 013A     		sub	r2, r2, #1
 2234 0026 5A60     		str	r2, [r3, #4]
 2235              	.LVL164:
 2236              		.loc 1 831 0
 2237 0028 5A69     		ldr	r2, [r3, #20]
 2238 002a 9446     		mov	ip, r2
 2239              		.loc 1 832 0
 2240 002c 1A69     		ldr	r2, [r3, #16]
 2241              		.loc 1 831 0
 2242 002e 6144     		add	r1, r1, ip
 2243              	.LVL165:
 2244 0030 9960     		str	r1, [r3, #8]
 2245              	.LVL166:
 2246              		.loc 1 832 0
 2247 0032 9142     		cmp	r1, r2
 2248 0034 01D3     		bcc	.L173
 2249              		.loc 1 833 0
 2250 0036 DA69     		ldr	r2, [r3, #28]
 2251 0038 9A60     		str	r2, [r3, #8]
 2252              	.L173:
 2253              		.loc 1 837 0
 2254 003a 0022     		mov	r2, #0
 2255              		.loc 1 839 0
 2256 003c 0120     		mov	r0, #1
 2257              		.loc 1 837 0
 2258 003e 1A62     		str	r2, [r3, #32]
 2259              		.loc 1 839 0
 2260 0040 E4E7     		b	.L177
 2261              	.LBE597:
 2262              		.cfi_endproc
 2263              	.LFE113:
 2264              		.size	obqTryFlushI, .-obqTryFlushI
 2265 0042 C046C046 		.section	.text.obqFlush,"ax",%progbits
 2265      C046C046 
 2265      C046C046 
ARM GAS  /tmp/ccjnb8m5.s 			page 41


 2265      C046
 2266              		.align	2
 2267              		.p2align 4,,15
 2268              		.global	obqFlush
 2269              		.code	16
 2270              		.thumb_func
 2271              		.type	obqFlush, %function
 2272              	obqFlush:
 2273              	.LFB114:
 2274              		.loc 1 852 0
 2275              		.cfi_startproc
 2276              	.LVL167:
 2277 0000 08B5     		push	{r3, lr}
 2278              		.cfi_def_cfa_offset 8
 2279              		.cfi_offset 3, -8
 2280              		.cfi_offset 14, -4
 2281              	.LBB609:
 2282              	.LBB610:
 2283              	.LBB611:
 2284              	.LBB612:
 2285              		.loc 3 344 0
 2286              	#APP
 2287              	@ 344 "../os/ext/CMSIS/include/core_cmFunc.h" 1
 2288 0002 72B6     		cpsid i
 2289              	@ 0 "" 2
 2290              		.code	16
 2291              	.LBE612:
 2292              	.LBE611:
 2293              	.LBE610:
 2294              	.LBE609:
 2295              		.loc 1 857 0
 2296 0004 036A     		ldr	r3, [r0, #32]
 2297 0006 002B     		cmp	r3, #0
 2298 0008 03D0     		beq	.L182
 2299              	.LBB613:
 2300              		.loc 1 858 0
 2301 000a 8268     		ldr	r2, [r0, #8]
 2302 000c 043B     		sub	r3, r3, #4
 2303 000e 9B1A     		sub	r3, r3, r2
 2304              	.LVL168:
 2305              		.loc 1 860 0
 2306 0010 01D1     		bne	.L191
 2307              	.LVL169:
 2308              	.L182:
 2309              	.LBE613:
 2310              	.LBB616:
 2311              	.LBB617:
 2312              	.LBB618:
 2313              	.LBB619:
 2314              		.loc 3 333 0
 2315              	#APP
 2316              	@ 333 "../os/ext/CMSIS/include/core_cmFunc.h" 1
 2317 0012 62B6     		cpsie i
 2318              	@ 0 "" 2
 2319              		.code	16
 2320              	.LBE619:
 2321              	.LBE618:
ARM GAS  /tmp/ccjnb8m5.s 			page 42


 2322              	.LBE617:
 2323              	.LBE616:
 2324              		.loc 1 866 0
 2325              		@ sp needed
 2326 0014 08BD     		pop	{r3, pc}
 2327              	.LVL170:
 2328              	.L191:
 2329              	.LBB620:
 2330              	.LBB614:
 2331              	.LBB615:
 2332              		.loc 1 637 0
 2333 0016 1360     		str	r3, [r2]
 2334              		.loc 1 640 0
 2335 0018 4368     		ldr	r3, [r0, #4]
 2336              	.LVL171:
 2337 001a 013B     		sub	r3, r3, #1
 2338 001c 4360     		str	r3, [r0, #4]
 2339              	.LVL172:
 2340              		.loc 1 641 0
 2341 001e 4369     		ldr	r3, [r0, #20]
 2342 0020 9C46     		mov	ip, r3
 2343              		.loc 1 642 0
 2344 0022 0369     		ldr	r3, [r0, #16]
 2345              		.loc 1 641 0
 2346 0024 6244     		add	r2, r2, ip
 2347              	.LVL173:
 2348 0026 8260     		str	r2, [r0, #8]
 2349              	.LVL174:
 2350              		.loc 1 642 0
 2351 0028 9A42     		cmp	r2, r3
 2352 002a 06D2     		bcs	.L192
 2353              	.L184:
 2354              		.loc 1 647 0
 2355 002c 0023     		mov	r3, #0
 2356 002e 0362     		str	r3, [r0, #32]
 2357              		.loc 1 650 0
 2358 0030 836A     		ldr	r3, [r0, #40]
 2359 0032 002B     		cmp	r3, #0
 2360 0034 EDD0     		beq	.L182
 2361              		.loc 1 651 0
 2362 0036 9847     		blx	r3
 2363              	.LVL175:
 2364 0038 EBE7     		b	.L182
 2365              	.LVL176:
 2366              	.L192:
 2367              		.loc 1 643 0
 2368 003a C369     		ldr	r3, [r0, #28]
 2369 003c 8360     		str	r3, [r0, #8]
 2370 003e F5E7     		b	.L184
 2371              	.LBE615:
 2372              	.LBE614:
 2373              	.LBE620:
 2374              		.cfi_endproc
 2375              	.LFE114:
 2376              		.size	obqFlush, .-obqFlush
 2377              		.text
 2378              	.Letext0:
ARM GAS  /tmp/ccjnb8m5.s 			page 43


 2379              		.file 4 "/usr/lib/gcc/arm-linux-gnueabihf/4.9/include/stddef.h"
 2380              		.file 5 "/usr/include/stdint.h"
 2381              		.file 6 "../os/nil/include/nil.h"
 2382              		.file 7 "../os/nil/ports/ARMCMx/compilers/GCC/niltypes.h"
 2383              		.file 8 "../os/nil/ports/ARMCMx/nilcore.h"
 2384              		.file 9 "../os/nil/ports/ARMCMx/nilcore_v6m.h"
 2385              		.file 10 "../os/hal/include/hal_buffers.h"
 8212              		.section	.note.GNU-stack,"",%progbits
ARM GAS  /tmp/ccjnb8m5.s 			page 151

