ARM GAS  /tmp/cczMqacF.s 			page 1


   1              		.cpu cortex-m0
   2              		.fpu softvfp
   3              		.eabi_attribute 20, 1
   4              		.eabi_attribute 21, 1
   5              		.eabi_attribute 23, 3
   6              		.eabi_attribute 24, 1
   7              		.eabi_attribute 25, 1
   8              		.eabi_attribute 26, 2
   9              		.eabi_attribute 30, 2
  10              		.eabi_attribute 34, 0
  11              		.eabi_attribute 18, 4
  12              		.code	16
  13              		.file	"main.c"
  14              		.text
  15              	.Ltext0:
  16              		.cfi_sections	.debug_frame
  17              		.section	.text.putc_x,"ax",%progbits
  18              		.align	2
  19              		.p2align 4,,15
  20              		.code	16
  21              		.thumb_func
  22              		.type	putc_x, %function
  23              	putc_x:
  24              	.LFB107:
  25              		.file 1 "main.c"
  26              		.loc 1 187 0
  27              		.cfi_startproc
  28              	.LVL0:
  29 0000 10B5     		push	{r4, lr}
  30              		.cfi_def_cfa_offset 8
  31              		.cfi_offset 4, -8
  32              		.cfi_offset 14, -4
  33 0002 82B0     		sub	sp, sp, #8
  34              		.cfi_def_cfa_offset 16
  35              		.loc 1 187 0
  36 0004 6B46     		mov	r3, sp
  37              		.loc 1 190 0
  38 0006 0548     		ldr	r0, .L2
  39              	.LVL1:
  40              		.loc 1 187 0
  41 0008 D971     		strb	r1, [r3, #7]
  42              		.loc 1 190 0
  43 000a 0268     		ldr	r2, [r0]
  44              		.loc 1 187 0
  45 000c 0733     		add	r3, r3, #7
  46              		.loc 1 190 0
  47 000e 1468     		ldr	r4, [r2]
  48 0010 191C     		mov	r1, r3
  49              	.LVL2:
  50 0012 0122     		mov	r2, #1
  51 0014 A047     		blx	r4
  52              	.LVL3:
  53              		.loc 1 191 0
  54 0016 02B0     		add	sp, sp, #8
  55              	.LVL4:
  56              		@ sp needed
  57 0018 10BD     		pop	{r4, pc}
ARM GAS  /tmp/cczMqacF.s 			page 2


  58              	.L3:
  59 001a C046     		.align	2
  60              	.L2:
  61 001c 00000000 		.word	SD1
  62              		.cfi_endproc
  63              	.LFE107:
  64              		.size	putc_x, .-putc_x
  65              		.section	.text.demod_loop,"ax",%progbits
  66              		.align	2
  67              		.p2align 4,,15
  68              		.global	demod_loop
  69              		.code	16
  70              		.thumb_func
  71              		.type	demod_loop, %function
  72              	demod_loop:
  73              	.LFB105:
  74              		.loc 1 69 0
  75              		.cfi_startproc
  76 0000 F8B5     		push	{r3, r4, r5, r6, r7, lr}
  77              		.cfi_def_cfa_offset 24
  78              		.cfi_offset 3, -24
  79              		.cfi_offset 4, -20
  80              		.cfi_offset 5, -16
  81              		.cfi_offset 6, -12
  82              		.cfi_offset 7, -8
  83              		.cfi_offset 14, -4
  84              		.loc 1 73 0
  85 0002 0422     		mov	r2, #4
  86              		.loc 1 69 0
  87 0004 5646     		mov	r6, r10
  88 0006 4D46     		mov	r5, r9
  89 0008 4446     		mov	r4, r8
  90 000a 5F46     		mov	r7, fp
  91              		.loc 1 73 0
  92 000c 334B     		ldr	r3, .L28
  93              		.loc 1 69 0
  94 000e F0B4     		push	{r4, r5, r6, r7}
  95              		.cfi_def_cfa_offset 40
  96              		.cfi_offset 8, -40
  97              		.cfi_offset 9, -36
  98              		.cfi_offset 10, -32
  99              		.cfi_offset 11, -28
 100              		.loc 1 74 0
 101 0010 0B20     		mov	r0, #11
 102              		.loc 1 73 0
 103 0012 1A60     		str	r2, [r3]
 104              		.loc 1 74 0
 105 0014 FFF7FEFF 		bl	nvicDisableVector
 106              	.LVL5:
 107 0018 314B     		ldr	r3, .L28+4
 108 001a 8025     		mov	r5, #128
 109 001c 9A46     		mov	r10, r3
 110 001e 314B     		ldr	r3, .L28+8
 111              		.loc 1 93 0
 112 0020 0F24     		mov	r4, #15
 113 0022 9846     		mov	r8, r3
 114 0024 304B     		ldr	r3, .L28+12
ARM GAS  /tmp/cczMqacF.s 			page 3


 115 0026 AD00     		lsl	r5, r5, #2
 116 0028 9946     		mov	r9, r3
 117 002a 304E     		ldr	r6, .L28+16
 118 002c 4544     		add	r5, r5, r8
 119              	.L18:
 120              		.loc 1 78 0
 121 002e 0023     		mov	r3, #0
 122 0030 2F4A     		ldr	r2, .L28+20
 123 0032 1380     		strh	r3, [r2]
 124 0034 2F4B     		ldr	r3, .L28+24
 125 0036 1B78     		ldrb	r3, [r3]
 126 0038 002B     		cmp	r3, #0
 127 003a 25D1     		bne	.L9
 128              	.L11:
 129              		.loc 1 80 0
 130 003c 2E4B     		ldr	r3, .L28+28
 131 003e 1B78     		ldrb	r3, [r3]
 132 0040 002B     		cmp	r3, #0
 133 0042 FBD0     		beq	.L11
 134              	.LVL6:
 135              		.loc 1 82 0 discriminator 1
 136 0044 5346     		mov	r3, r10
 137 0046 1968     		ldr	r1, [r3]
 138 0048 0029     		cmp	r1, #0
 139 004a 0DD0     		beq	.L6
 140 004c 2B4B     		ldr	r3, .L28+32
 141 004e 4900     		lsl	r1, r1, #1
 142 0050 1868     		ldr	r0, [r3]
 143              		.loc 1 82 0 is_stmt 0
 144 0052 0023     		mov	r3, #0
 145              	.LVL7:
 146              	.L7:
 147              		.loc 1 83 0 is_stmt 1 discriminator 3
 148 0054 2A4F     		ldr	r7, .L28+36
 149 0056 C218     		add	r2, r0, r3
 150 0058 BC46     		mov	ip, r7
 151 005a 4746     		mov	r7, r8
 152 005c 1288     		ldrh	r2, [r2]
 153 005e 6244     		add	r2, r2, ip
 154 0060 FA52     		strh	r2, [r7, r3]
 155 0062 0233     		add	r3, r3, #2
 156              		.loc 1 82 0 discriminator 3
 157 0064 8B42     		cmp	r3, r1
 158 0066 F5D1     		bne	.L7
 159              	.L6:
 160              	.LVL8:
 161 0068 4746     		mov	r7, r8
 162              	.LVL9:
 163              	.L8:
 164              	.LBB14:
 165              	.LBB15:
 166              		.loc 1 63 0
 167 006a 381C     		mov	r0, r7
 168 006c 0821     		mov	r1, #8
 169 006e 321C     		mov	r2, r6
 170 0070 1037     		add	r7, r7, #16
 171 0072 FFF7FEFF 		bl	FSKdemod
ARM GAS  /tmp/cczMqacF.s 			page 4


 172              	.LVL10:
 173              		.loc 1 62 0
 174 0076 AF42     		cmp	r7, r5
 175 0078 F7D1     		bne	.L8
 176              		.loc 1 65 0
 177 007a 0023     		mov	r3, #0
 178 007c 1E4A     		ldr	r2, .L28+28
 179 007e 1370     		strb	r3, [r2]
 180 0080 1C4B     		ldr	r3, .L28+24
 181 0082 1B78     		ldrb	r3, [r3]
 182 0084 002B     		cmp	r3, #0
 183 0086 D9D0     		beq	.L11
 184              	.L9:
 185              	.LBE15:
 186              	.LBE14:
 187              		.loc 1 91 0
 188 0088 4B46     		mov	r3, r9
 189 008a 1B78     		ldrb	r3, [r3]
 190 008c 7F2B     		cmp	r3, #127
 191 008e 1BD8     		bhi	.L13
 192              		.loc 1 96 0
 193 0090 5621     		mov	r1, #86
 194 0092 4942     		neg	r1, r1
 195 0094 8C46     		mov	ip, r1
 196              		.loc 1 92 0
 197 0096 0420     		mov	r0, #4
 198              		.loc 1 94 0
 199 0098 5521     		mov	r1, #85
 200 009a 4A46     		mov	r2, r9
 201              		.loc 1 91 0
 202 009c 0023     		mov	r3, #0
 203              		.loc 1 94 0
 204 009e 8B46     		mov	fp, r1
 205              		.loc 1 92 0
 206 00a0 FF30     		add	r0, r0, #255
 207 00a2 05E0     		b	.L16
 208              	.LVL11:
 209              	.L14:
 210              		.loc 1 95 0
 211 00a4 0F29     		cmp	r1, #15
 212 00a6 13D0     		beq	.L27
 213              	.L15:
 214              		.loc 1 92 0 discriminator 2
 215 00a8 0133     		add	r3, r3, #1
 216              	.LVL12:
 217 00aa 0132     		add	r2, r2, #1
 218 00ac 8342     		cmp	r3, r0
 219 00ae 0BD0     		beq	.L13
 220              	.LVL13:
 221              	.L16:
 222              		.loc 1 93 0
 223 00b0 211C     		mov	r1, r4
 224 00b2 1940     		and	r1, r3
 225 00b4 0729     		cmp	r1, #7
 226 00b6 F5D1     		bne	.L14
 227              		.loc 1 94 0
 228 00b8 5F46     		mov	r7, fp
ARM GAS  /tmp/cczMqacF.s 			page 5


 229 00ba 1178     		ldrb	r1, [r2]
 230              		.loc 1 92 0
 231 00bc 0133     		add	r3, r3, #1
 232              	.LVL14:
 233              		.loc 1 94 0
 234 00be 7940     		eor	r1, r7
 235 00c0 1170     		strb	r1, [r2]
 236 00c2 0132     		add	r2, r2, #1
 237              		.loc 1 92 0
 238 00c4 8342     		cmp	r3, r0
 239 00c6 F3D1     		bne	.L16
 240              	.LVL15:
 241              	.L13:
 242              		.loc 1 136 0
 243 00c8 4846     		mov	r0, r9
 244 00ca FFF7FEFF 		bl	updaterPacketProcess
 245              	.LVL16:
 246              		.loc 1 138 0
 247 00ce AEE7     		b	.L18
 248              	.LVL17:
 249              	.L27:
 250              		.loc 1 96 0
 251 00d0 6746     		mov	r7, ip
 252 00d2 1178     		ldrb	r1, [r2]
 253 00d4 7940     		eor	r1, r7
 254 00d6 1170     		strb	r1, [r2]
 255 00d8 E6E7     		b	.L15
 256              	.L29:
 257 00da C046     		.align	2
 258              	.L28:
 259 00dc 10E000E0 		.word	-536813552
 260 00e0 00000000 		.word	.LANCHOR0
 261 00e4 00000000 		.word	dm_buf
 262 00e8 00000000 		.word	pktBuf
 263 00ec 00000000 		.word	putBitMac
 264 00f0 00000000 		.word	pktPtr
 265 00f4 00000000 		.word	pktReady
 266 00f8 00000000 		.word	.LANCHOR2
 267 00fc 00000000 		.word	.LANCHOR1
 268 0100 00F8FFFF 		.word	-2048
 269              		.cfi_endproc
 270              	.LFE105:
 271              		.size	demod_loop, .-demod_loop
 272 0104 C046C046 		.section	.text.Thread1,"ax",%progbits
 272      C046C046 
 272      C046C046 
 273              		.align	2
 274              		.p2align 4,,15
 275              		.code	16
 276              		.thumb_func
 277              		.type	Thread1, %function
 278              	Thread1:
 279              	.LFB108:
 280              		.loc 1 198 0
 281              		.cfi_startproc
 282              	.LVL18:
 283              		.loc 1 201 0
ARM GAS  /tmp/cczMqacF.s 			page 6


 284 0000 4022     		mov	r2, #64
 285              		.loc 1 198 0
 286 0002 F8B5     		push	{r3, r4, r5, r6, r7, lr}
 287              		.cfi_def_cfa_offset 24
 288              		.cfi_offset 3, -24
 289              		.cfi_offset 4, -20
 290              		.cfi_offset 5, -16
 291              		.cfi_offset 6, -12
 292              		.cfi_offset 7, -8
 293              		.cfi_offset 14, -4
 294              		.loc 1 201 0
 295 0004 374B     		ldr	r3, .L34
 296              		.loc 1 206 0
 297 0006 384C     		ldr	r4, .L34+4
 298              		.loc 1 201 0
 299 0008 5968     		ldr	r1, [r3, #4]
 300              		.loc 1 206 0
 301 000a 201C     		mov	r0, r4
 302              	.LVL19:
 303              		.loc 1 201 0
 304 000c 0A43     		orr	r2, r1
 305 000e 5A60     		str	r2, [r3, #4]
 306              		.loc 1 202 0
 307 0010 8022     		mov	r2, #128
 308 0012 9968     		ldr	r1, [r3, #8]
 309 0014 0A43     		orr	r2, r1
 310              		.loc 1 203 0
 311 0016 8021     		mov	r1, #128
 312              		.loc 1 202 0
 313 0018 9A60     		str	r2, [r3, #8]
 314              		.loc 1 203 0
 315 001a 5A68     		ldr	r2, [r3, #4]
 316 001c C900     		lsl	r1, r1, #3
 317 001e 0A43     		orr	r2, r1
 318 0020 5A60     		str	r2, [r3, #4]
 319              		.loc 1 206 0
 320 0022 3249     		ldr	r1, .L34+8
 321 0024 FFF7FEFF 		bl	sdStart
 322              	.LVL20:
 323              		.loc 1 209 0
 324 0028 0020     		mov	r0, #0
 325 002a 3149     		ldr	r1, .L34+12
 326 002c FFF7FEFF 		bl	init_printf
 327              	.LVL21:
 328              		.loc 1 210 0
 329 0030 304B     		ldr	r3, .L34+16
 330              		.loc 1 214 0
 331 0032 3148     		ldr	r0, .L34+20
 332              		.loc 1 210 0
 333 0034 1C60     		str	r4, [r3]
 334              		.loc 1 214 0
 335 0036 314B     		ldr	r3, .L34+24
 336 0038 1968     		ldr	r1, [r3]
 337 003a FFF7FEFF 		bl	tfp_printf
 338              	.LVL22:
 339              	.LBB46:
 340              	.LBB47:
ARM GAS  /tmp/cczMqacF.s 			page 7


 341              		.loc 1 179 0
 342 003e 3049     		ldr	r1, .L34+28
 343 0040 0722     		mov	r2, #7
 344 0042 0B1C     		mov	r3, r1
 345              		.loc 1 178 0
 346 0044 2F49     		ldr	r1, .L34+32
 347              		.loc 1 179 0
 348 0046 9343     		bic	r3, r2
 349              		.loc 1 178 0
 350 0048 0731     		add	r1, r1, #7
 351 004a 9143     		bic	r1, r2
 352              		.loc 1 183 0
 353 004c 591A     		sub	r1, r3, r1
 354              	.LBE47:
 355              	.LBE46:
 356              		.loc 1 215 0
 357 004e 2E48     		ldr	r0, .L34+36
 358 0050 FFF7FEFF 		bl	tfp_printf
 359              	.LVL23:
 360              		.loc 1 216 0
 361 0054 6420     		mov	r0, #100
 362 0056 FFF7FEFF 		bl	chThdSleep
 363              	.LVL24:
 364              		.loc 1 219 0
 365 005a 2C48     		ldr	r0, .L34+40
 366 005c 2C49     		ldr	r1, .L34+44
 367 005e FFF7FEFF 		bl	adcStart
 368              	.LVL25:
 369              		.loc 1 220 0
 370 0062 FFF7FEFF 		bl	analogStart
 371              	.LVL26:
 372              		.loc 1 222 0
 373 0066 FFF7FEFF 		bl	demodInit
 374              	.LVL27:
 375              		.loc 1 224 0
 376 006a FFF7FEFF 		bl	flashStart
 377              	.LVL28:
 378              	.LBB48:
 379              	.LBB49:
 380              		.file 2 "../os/ext/CMSIS/include/core_cm0plus.h"
 381              		.loc 2 757 0
 382 006e C322     		mov	r2, #195
 383              	.LBE49:
 384              	.LBE48:
 385              	.LBB51:
 386              	.LBB52:
 387 0070 FF20     		mov	r0, #255
 388              	.LBE52:
 389              	.LBE51:
 390              	.LBB54:
 391              	.LBB50:
 392 0072 2849     		ldr	r1, .L34+48
 393 0074 9200     		lsl	r2, r2, #2
 394 0076 8B58     		ldr	r3, [r1, r2]
 395 0078 1B02     		lsl	r3, r3, #8
 396 007a 1B0A     		lsr	r3, r3, #8
 397 007c 8B50     		str	r3, [r1, r2]
ARM GAS  /tmp/cczMqacF.s 			page 8


 398              	.LVL29:
 399              	.LBE50:
 400              	.LBE54:
 401              	.LBB55:
 402              	.LBB53:
 403 007e 8B58     		ldr	r3, [r1, r2]
 404 0080 8343     		bic	r3, r0
 405 0082 C020     		mov	r0, #192
 406 0084 0343     		orr	r3, r0
 407 0086 8B50     		str	r3, [r1, r2]
 408              	.LBE53:
 409              	.LBE55:
 410              		.loc 1 261 0
 411 0088 8021     		mov	r1, #128
 412 008a 2348     		ldr	r0, .L34+52
 413 008c 4902     		lsl	r1, r1, #9
 414              	.L31:
 415              		.loc 1 261 0 is_stmt 0 discriminator 1
 416 008e 0368     		ldr	r3, [r0]
 417 0090 214A     		ldr	r2, .L34+52
 418 0092 0B42     		tst	r3, r1
 419 0094 FBD0     		beq	.L31
 420              		.loc 1 263 0 is_stmt 1
 421 0096 0121     		mov	r1, #1
 422              	.LBB56:
 423              	.LBB57:
 424              		.loc 2 697 0
 425 0098 8026     		mov	r6, #128
 426              	.LBE57:
 427              	.LBE56:
 428              	.LBB62:
 429              	.LBB63:
 430 009a 8025     		mov	r5, #128
 431              	.LBE63:
 432              	.LBE62:
 433              	.LBB66:
 434              	.LBB58:
 435 009c 8020     		mov	r0, #128
 436              	.LBE58:
 437              	.LBE66:
 438              	.LBB67:
 439              	.LBB68:
 440              	.LBB69:
 441              		.loc 2 753 0
 442 009e C027     		mov	r7, #192
 443              	.LBE69:
 444              	.LBE68:
 445              	.LBE67:
 446              		.loc 1 263 0
 447 00a0 1368     		ldr	r3, [r2]
 448              	.LBB74:
 449              	.LBB59:
 450              		.loc 2 697 0
 451 00a2 1C4C     		ldr	r4, .L34+48
 452              	.LBE59:
 453              	.LBE74:
 454              		.loc 1 263 0
ARM GAS  /tmp/cczMqacF.s 			page 9


 455 00a4 8B43     		bic	r3, r1
 456              	.LBB75:
 457              	.LBB60:
 458              		.loc 2 697 0
 459 00a6 F605     		lsl	r6, r6, #23
 460              	.LBE60:
 461              	.LBE75:
 462              	.LBB76:
 463              	.LBB72:
 464              	.LBB70:
 465              		.loc 2 753 0
 466 00a8 1C49     		ldr	r1, .L34+56
 467              	.LBE70:
 468              	.LBE72:
 469              	.LBE76:
 470              	.LBB77:
 471              	.LBB64:
 472              		.loc 2 697 0
 473 00aa 2D06     		lsl	r5, r5, #24
 474              	.LBE64:
 475              	.LBE77:
 476              		.loc 1 263 0
 477 00ac 1360     		str	r3, [r2]
 478              	.LVL30:
 479              	.LBB78:
 480              	.LBB61:
 481              		.loc 2 697 0
 482 00ae 2650     		str	r6, [r4, r0]
 483              	.LVL31:
 484              	.LBE61:
 485              	.LBE78:
 486              	.LBB79:
 487              	.LBB65:
 488 00b0 2550     		str	r5, [r4, r0]
 489              	.LVL32:
 490              	.LBE65:
 491              	.LBE79:
 492              	.LBB80:
 493              	.LBB73:
 494              	.LBB71:
 495              		.loc 2 753 0
 496 00b2 CA69     		ldr	r2, [r1, #28]
 497 00b4 3F06     		lsl	r7, r7, #24
 498 00b6 1202     		lsl	r2, r2, #8
 499 00b8 120A     		lsr	r2, r2, #8
 500 00ba 3A43     		orr	r2, r7
 501 00bc CA61     		str	r2, [r1, #28]
 502              	.LVL33:
 503              	.LBE71:
 504              	.LBE73:
 505              	.LBE80:
 506              	.LBB81:
 507              	.LBB82:
 508              	.LBB83:
 509 00be 0A6A     		ldr	r2, [r1, #32]
 510 00c0 174B     		ldr	r3, .L34+60
 511 00c2 1A40     		and	r2, r3
ARM GAS  /tmp/cczMqacF.s 			page 10


 512 00c4 C023     		mov	r3, #192
 513 00c6 1B04     		lsl	r3, r3, #16
 514 00c8 1A43     		orr	r2, r3
 515 00ca 0A62     		str	r2, [r1, #32]
 516              	.LVL34:
 517              	.LBE83:
 518              	.LBE82:
 519              	.LBE81:
 520              	.LBB84:
 521              	.LBB85:
 522              	.LBB86:
 523 00cc 0B6A     		ldr	r3, [r1, #32]
 524 00ce 1B02     		lsl	r3, r3, #8
 525 00d0 1B0A     		lsr	r3, r3, #8
 526 00d2 3B43     		orr	r3, r7
 527 00d4 0B62     		str	r3, [r1, #32]
 528              	.LVL35:
 529              	.LBE86:
 530              	.LBE85:
 531              	.LBE84:
 532              	.LBB87:
 533              	.LBB88:
 534              		.loc 2 697 0
 535 00d6 2650     		str	r6, [r4, r0]
 536              	.LVL36:
 537              	.LBE88:
 538              	.LBE87:
 539              	.LBB89:
 540              	.LBB90:
 541 00d8 2550     		str	r5, [r4, r0]
 542              	.LBE90:
 543              	.LBE89:
 544              		.loc 1 274 0
 545 00da FFF7FEFF 		bl	analogUpdateMic
 546              	.LVL37:
 547              		.loc 1 275 0
 548 00de FFF7FEFF 		bl	demod_loop
 549              	.LVL38:
 550              	.L35:
 551 00e2 C046     		.align	2
 552              	.L34:
 553 00e4 40F00F40 		.word	1074786368
 554 00e8 00000000 		.word	SD1
 555 00ec 00000000 		.word	.LANCHOR3
 556 00f0 00000000 		.word	putc_x
 557 00f4 00000000 		.word	.LANCHOR4
 558 00f8 00000000 		.word	.LC17
 559 00fc 00000000 		.word	gitversion
 560 0100 00000000 		.word	__heap_end__
 561 0104 00000000 		.word	__heap_base__
 562 0108 34000000 		.word	.LC20
 563 010c 00000000 		.word	ADCD1
 564 0110 00000000 		.word	.LANCHOR5
 565 0114 00E100E0 		.word	-536813312
 566 0118 10E000E0 		.word	-536813552
 567 011c 00ED00E0 		.word	-536810240
 568 0120 FFFF00FF 		.word	-16711681
ARM GAS  /tmp/cczMqacF.s 			page 11


 569              		.cfi_endproc
 570              	.LFE108:
 571              		.size	Thread1, .-Thread1
 572 0124 C046C046 		.section	.text.startup.main,"ax",%progbits
 572      C046C046 
 572      C046C046 
 573              		.align	2
 574              		.p2align 4,,15
 575              		.global	main
 576              		.code	16
 577              		.thumb_func
 578              		.type	main, %function
 579              	main:
 580              	.LFB109:
 581              		.loc 1 292 0
 582              		.cfi_startproc
 583 0000 08B5     		push	{r3, lr}
 584              		.cfi_def_cfa_offset 8
 585              		.cfi_offset 3, -8
 586              		.cfi_offset 14, -4
 587              		.loc 1 300 0
 588 0002 FFF7FEFF 		bl	halInit
 589              	.LVL39:
 590              		.loc 1 301 0
 591 0006 FFF7FEFF 		bl	chSysInit
 592              	.LVL40:
 593              	.L37:
 594              		.loc 1 304 0 discriminator 1
 595 000a FEE7     		b	.L37
 596              		.cfi_endproc
 597              	.LFE109:
 598              		.size	main, .-main
 599              		.global	nil_thd_configs
 600              		.global	buf_n
 601              		.global	bufloc
 602              		.global	dataReadyFlag
 603              		.global	screenpos
 604              		.global	stream
 605 000c C046C046 		.section	.bss.stream,"aw",%nobits
 606              		.align	2
 607              	.LANCHOR4 = . + 0
 608              		.type	stream, %object
 609              		.size	stream, 4
 610              	stream:
 611 0000 00000000 		.space	4
 612              		.section	.bss.waThread1,"aw",%nobits
 613              		.align	3
 614              		.type	waThread1, %object
 615              		.size	waThread1, 616
 616              	waThread1:
 617 0000 00000000 		.space	616
 617      00000000 
 617      00000000 
 617      00000000 
 617      00000000 
 618              		.section	.rodata.adccfg1,"a",%progbits
 619              		.align	2
ARM GAS  /tmp/cczMqacF.s 			page 12


 620              	.LANCHOR5 = . + 0
 621              		.type	adccfg1, %object
 622              		.size	adccfg1, 1
 623              	adccfg1:
 624 0000 01       		.byte	1
 625 0001 000000   		.section	.rodata.nil_thd_configs,"a",%progbits
 626              		.align	2
 627              		.type	nil_thd_configs, %object
 628              		.size	nil_thd_configs, 40
 629              	nil_thd_configs:
 630 0000 00000000 		.word	waThread1
 631 0004 68020000 		.word	waThread1+616
 632 0008 54000000 		.word	.LC27
 633 000c 00000000 		.word	Thread1
 634 0010 00000000 		.word	0
 635 0014 00000000 		.word	__main_thread_stack_base__
 636 0018 00000000 		.word	__main_thread_stack_end__
 637 001c 5C000000 		.word	.LC28
 638 0020 00000000 		.word	0
 639 0024 00000000 		.word	0
 640              		.section	.bss.bufloc,"aw",%nobits
 641              		.align	2
 642              	.LANCHOR1 = . + 0
 643              		.type	bufloc, %object
 644              		.size	bufloc, 4
 645              	bufloc:
 646 0000 00000000 		.space	4
 647              		.section	.rodata.str1.4,"aMS",%progbits,1
 648              		.align	2
 649              	.LC17:
 650 0000 0D0A0D0A 		.ascii	"\015\012\015\012Orchard audio bootloader.  Based on"
 650      4F726368 
 650      61726420 
 650      61756469 
 650      6F20626F 
 651 0027 20627569 		.ascii	" build %s\015\012\000"
 651      6C642025 
 651      730D0A00 
 652 0033 00       		.space	1
 653              	.LC20:
 654 0034 636F7265 		.ascii	"core free memory : %d bytes\015\012\000"
 654      20667265 
 654      65206D65 
 654      6D6F7279 
 654      203A2025 
 655 0052 0000     		.space	2
 656              	.LC27:
 657 0054 64656D6F 		.ascii	"demod\000"
 657      6400
 658 005a 0000     		.space	2
 659              	.LC28:
 660 005c 69646C65 		.ascii	"idle\000"
 660      00
 661 0061 000000   		.section	.bss.buf_n,"aw",%nobits
 662              		.align	2
 663              	.LANCHOR0 = . + 0
 664              		.type	buf_n, %object
ARM GAS  /tmp/cczMqacF.s 			page 13


 665              		.size	buf_n, 4
 666              	buf_n:
 667 0000 00000000 		.space	4
 668              		.section	.rodata.serialConfig,"a",%progbits
 669              		.align	2
 670              	.LANCHOR3 = . + 0
 671              		.type	serialConfig, %object
 672              		.size	serialConfig, 4
 673              	serialConfig:
 674 0000 00C20100 		.word	115200
 675              		.section	.bss.screenpos,"aw",%nobits
 676              		.type	screenpos, %object
 677              		.size	screenpos, 1
 678              	screenpos:
 679 0000 00       		.space	1
 680              		.section	.bss.dataReadyFlag,"aw",%nobits
 681              	.LANCHOR2 = . + 0
 682              		.type	dataReadyFlag, %object
 683              		.size	dataReadyFlag, 1
 684              	dataReadyFlag:
 685 0000 00       		.space	1
 686              		.text
 687              	.Letext0:
 688              		.file 3 "/usr/lib/gcc/arm-linux-gnueabihf/4.9/include/stddef.h"
 689              		.file 4 "/usr/include/stdint.h"
 690              		.file 5 "../os/nil/include/nil.h"
 691              		.file 6 "../os/nil/ports/ARMCMx/compilers/GCC/niltypes.h"
 692              		.file 7 "../os/ext/CMSIS/KINETIS/kl02x.h"
 693              		.file 8 "../os/nil/ports/ARMCMx/nilcore.h"
 694              		.file 9 "../os/nil/ports/ARMCMx/nilcore_v6m.h"
 695              		.file 10 "../os/hal/osal/nil/osal.h"
 696              		.file 11 "../os/hal/include/hal_streams.h"
 697              		.file 12 "../os/hal/include/hal_queues.h"
 698              		.file 13 "../os/hal/include/adc.h"
 699              		.file 14 "../os/hal/ports/KINETIS/LLD/adc_lld.h"
 700              		.file 15 "../os/hal/include/serial.h"
 701              		.file 16 "../os/hal/ports/KINETIS/KL02x/serial_lld.h"
 702              		.file 17 "demod.h"
 703              		.file 18 "orchard.h"
 704              		.file 19 "mac.h"
 705              		.file 20 "../os/hal/ports/common/ARMCMx/nvic.h"
 706              		.file 21 "printf.h"
 707              		.file 22 "analog.h"
 708              		.file 23 "flash.h"
 709              		.file 24 "../os/hal/include/hal.h"
 710              		.file 25 "updater.h"
 4965              		.section	.note.GNU-stack,"",%progbits
ARM GAS  /tmp/cczMqacF.s 			page 98

