ARM GAS  /tmp/cczMqacF.s 			page 1


   1              		.cpu cortex-m0
   2              		.fpu softvfp
   3              		.eabi_attribute 20, 1
   4              		.eabi_attribute 21, 1
   5              		.eabi_attribute 23, 3
   6              		.eabi_attribute 24, 1
   7              		.eabi_attribute 25, 1
   8              		.eabi_attribute 26, 2
   9              		.eabi_attribute 30, 2
  10              		.eabi_attribute 34, 0
  11              		.eabi_attribute 18, 4
  12              		.code	16
  13              		.file	"main.c"
  14              		.text
  15              	.Ltext0:
  16              		.cfi_sections	.debug_frame
  17              		.section	.text.putc_x,"ax",%progbits
  18              		.align	2
  19              		.p2align 4,,15
  20              		.code	16
  21              		.thumb_func
  22              		.type	putc_x, %function
  23              	putc_x:
  24              	.LFB107:
  25              		.file 1 "main.c"
  26              		.loc 1 187 0
  27              		.cfi_startproc
  28              	.LVL0:
  29 0000 10B5     		push	{r4, lr}
  30              		.cfi_def_cfa_offset 8
  31              		.cfi_offset 4, -8
  32              		.cfi_offset 14, -4
  33 0002 82B0     		sub	sp, sp, #8
  34              		.cfi_def_cfa_offset 16
  35              		.loc 1 187 0
  36 0004 6B46     		mov	r3, sp
  37              		.loc 1 190 0
  38 0006 0548     		ldr	r0, .L2
  39              	.LVL1:
  40              		.loc 1 187 0
  41 0008 D971     		strb	r1, [r3, #7]
  42              		.loc 1 190 0
  43 000a 0268     		ldr	r2, [r0]
  44              		.loc 1 187 0
  45 000c 0733     		add	r3, r3, #7
  46              		.loc 1 190 0
  47 000e 1468     		ldr	r4, [r2]
  48 0010 191C     		mov	r1, r3
  49              	.LVL2:
  50 0012 0122     		mov	r2, #1
  51 0014 A047     		blx	r4
  52              	.LVL3:
  53              		.loc 1 191 0
  54 0016 02B0     		add	sp, sp, #8
  55              	.LVL4:
  56              		@ sp needed
  57 0018 10BD     		pop	{r4, pc}
ARM GAS  /tmp/cczMqacF.s 			page 2


  58              	.L3:
  59 001a C046     		.align	2
  60              	.L2:
  61 001c 00000000 		.word	SD1
  62              		.cfi_endproc
  63              	.LFE107:
  64              		.size	putc_x, .-putc_x
  65              		.section	.text.demod_loop,"ax",%progbits
  66              		.align	2
  67              		.p2align 4,,15
  68              		.global	demod_loop
  69              		.code	16
  70              		.thumb_func
  71              		.type	demod_loop, %function
  72              	demod_loop:
  73              	.LFB105:
  74              		.loc 1 69 0
  75              		.cfi_startproc
  76 0000 F8B5     		push	{r3, r4, r5, r6, r7, lr}
  77              		.cfi_def_cfa_offset 24
  78              		.cfi_offset 3, -24
  79              		.cfi_offset 4, -20
  80              		.cfi_offset 5, -16
  81              		.cfi_offset 6, -12
  82              		.cfi_offset 7, -8
  83              		.cfi_offset 14, -4
  84              		.loc 1 73 0
  85 0002 0422     		mov	r2, #4
  86              		.loc 1 69 0
  87 0004 5646     		mov	r6, r10
  88 0006 4D46     		mov	r5, r9
  89 0008 4446     		mov	r4, r8
  90 000a 5F46     		mov	r7, fp
  91              		.loc 1 73 0
  92 000c 334B     		ldr	r3, .L28
  93              		.loc 1 69 0
  94 000e F0B4     		push	{r4, r5, r6, r7}
  95              		.cfi_def_cfa_offset 40
  96              		.cfi_offset 8, -40
  97              		.cfi_offset 9, -36
  98              		.cfi_offset 10, -32
  99              		.cfi_offset 11, -28
 100              		.loc 1 74 0
 101 0010 0B20     		mov	r0, #11
 102              		.loc 1 73 0
 103 0012 1A60     		str	r2, [r3]
 104              		.loc 1 74 0
 105 0014 FFF7FEFF 		bl	nvicDisableVector
 106              	.LVL5:
 107 0018 314B     		ldr	r3, .L28+4
 108 001a 8025     		mov	r5, #128
 109 001c 9A46     		mov	r10, r3
 110 001e 314B     		ldr	r3, .L28+8
 111              		.loc 1 93 0
 112 0020 0F24     		mov	r4, #15
 113 0022 9846     		mov	r8, r3
 114 0024 304B     		ldr	r3, .L28+12
ARM GAS  /tmp/cczMqacF.s 			page 3


 115 0026 AD00     		lsl	r5, r5, #2
 116 0028 9946     		mov	r9, r3
 117 002a 304E     		ldr	r6, .L28+16
 118 002c 4544     		add	r5, r5, r8
 119              	.L18:
 120              		.loc 1 78 0
 121 002e 0023     		mov	r3, #0
 122 0030 2F4A     		ldr	r2, .L28+20
 123 0032 1380     		strh	r3, [r2]
 124 0034 2F4B     		ldr	r3, .L28+24
 125 0036 1B78     		ldrb	r3, [r3]
 126 0038 002B     		cmp	r3, #0
 127 003a 25D1     		bne	.L9
 128              	.L11:
 129              		.loc 1 80 0
 130 003c 2E4B     		ldr	r3, .L28+28
 131 003e 1B78     		ldrb	r3, [r3]
 132 0040 002B     		cmp	r3, #0
 133 0042 FBD0     		beq	.L11
 134              	.LVL6:
 135              		.loc 1 82 0 discriminator 1
 136 0044 5346     		mov	r3, r10
 137 0046 1968     		ldr	r1, [r3]
 138 0048 0029     		cmp	r1, #0
 139 004a 0DD0     		beq	.L6
 140 004c 2B4B     		ldr	r3, .L28+32
 141 004e 4900     		lsl	r1, r1, #1
 142 0050 1868     		ldr	r0, [r3]
 143              		.loc 1 82 0 is_stmt 0
 144 0052 0023     		mov	r3, #0
 145              	.LVL7:
 146              	.L7:
 147              		.loc 1 83 0 is_stmt 1 discriminator 3
 148 0054 2A4F     		ldr	r7, .L28+36
 149 0056 C218     		add	r2, r0, r3
 150 0058 BC46     		mov	ip, r7
 151 005a 4746     		mov	r7, r8
 152 005c 1288     		ldrh	r2, [r2]
 153 005e 6244     		add	r2, r2, ip
 154 0060 FA52     		strh	r2, [r7, r3]
 155 0062 0233     		add	r3, r3, #2
 156              		.loc 1 82 0 discriminator 3
 157 0064 8B42     		cmp	r3, r1
 158 0066 F5D1     		bne	.L7
 159              	.L6:
 160              	.LVL8:
 161 0068 4746     		mov	r7, r8
 162              	.LVL9:
 163              	.L8:
 164              	.LBB14:
 165              	.LBB15:
 166              		.loc 1 63 0
 167 006a 381C     		mov	r0, r7
 168 006c 0821     		mov	r1, #8
 169 006e 321C     		mov	r2, r6
 170 0070 1037     		add	r7, r7, #16
 171 0072 FFF7FEFF 		bl	FSKdemod
ARM GAS  /tmp/cczMqacF.s 			page 4


 172              	.LVL10:
 173              		.loc 1 62 0
 174 0076 AF42     		cmp	r7, r5
 175 0078 F7D1     		bne	.L8
 176              		.loc 1 65 0
 177 007a 0023     		mov	r3, #0
 178 007c 1E4A     		ldr	r2, .L28+28
 179 007e 1370     		strb	r3, [r2]
 180 0080 1C4B     		ldr	r3, .L28+24
 181 0082 1B78     		ldrb	r3, [r3]
 182 0084 002B     		cmp	r3, #0
 183 0086 D9D0     		beq	.L11
 184              	.L9:
 185              	.LBE15:
 186              	.LBE14:
 187              		.loc 1 91 0
 188 0088 4B46     		mov	r3, r9
 189 008a 1B78     		ldrb	r3, [r3]
 190 008c 7F2B     		cmp	r3, #127
 191 008e 1BD8     		bhi	.L13
 192              		.loc 1 96 0
 193 0090 5621     		mov	r1, #86
 194 0092 4942     		neg	r1, r1
 195 0094 8C46     		mov	ip, r1
 196              		.loc 1 92 0
 197 0096 0420     		mov	r0, #4
 198              		.loc 1 94 0
 199 0098 5521     		mov	r1, #85
 200 009a 4A46     		mov	r2, r9
 201              		.loc 1 91 0
 202 009c 0023     		mov	r3, #0
 203              		.loc 1 94 0
 204 009e 8B46     		mov	fp, r1
 205              		.loc 1 92 0
 206 00a0 FF30     		add	r0, r0, #255
 207 00a2 05E0     		b	.L16
 208              	.LVL11:
 209              	.L14:
 210              		.loc 1 95 0
 211 00a4 0F29     		cmp	r1, #15
 212 00a6 13D0     		beq	.L27
 213              	.L15:
 214              		.loc 1 92 0 discriminator 2
 215 00a8 0133     		add	r3, r3, #1
 216              	.LVL12:
 217 00aa 0132     		add	r2, r2, #1
 218 00ac 8342     		cmp	r3, r0
 219 00ae 0BD0     		beq	.L13
 220              	.LVL13:
 221              	.L16:
 222              		.loc 1 93 0
 223 00b0 211C     		mov	r1, r4
 224 00b2 1940     		and	r1, r3
 225 00b4 0729     		cmp	r1, #7
 226 00b6 F5D1     		bne	.L14
 227              		.loc 1 94 0
 228 00b8 5F46     		mov	r7, fp
ARM GAS  /tmp/cczMqacF.s 			page 5


 229 00ba 1178     		ldrb	r1, [r2]
 230              		.loc 1 92 0
 231 00bc 0133     		add	r3, r3, #1
 232              	.LVL14:
 233              		.loc 1 94 0
 234 00be 7940     		eor	r1, r7
 235 00c0 1170     		strb	r1, [r2]
 236 00c2 0132     		add	r2, r2, #1
 237              		.loc 1 92 0
 238 00c4 8342     		cmp	r3, r0
 239 00c6 F3D1     		bne	.L16
 240              	.LVL15:
 241              	.L13:
 242              		.loc 1 136 0
 243 00c8 4846     		mov	r0, r9
 244 00ca FFF7FEFF 		bl	updaterPacketProcess
 245              	.LVL16:
 246              		.loc 1 138 0
 247 00ce AEE7     		b	.L18
 248              	.LVL17:
 249              	.L27:
 250              		.loc 1 96 0
 251 00d0 6746     		mov	r7, ip
 252 00d2 1178     		ldrb	r1, [r2]
 253 00d4 7940     		eor	r1, r7
 254 00d6 1170     		strb	r1, [r2]
 255 00d8 E6E7     		b	.L15
 256              	.L29:
 257 00da C046     		.align	2
 258              	.L28:
 259 00dc 10E000E0 		.word	-536813552
 260 00e0 00000000 		.word	.LANCHOR0
 261 00e4 00000000 		.word	dm_buf
 262 00e8 00000000 		.word	pktBuf
 263 00ec 00000000 		.word	putBitMac
 264 00f0 00000000 		.word	pktPtr
 265 00f4 00000000 		.word	pktReady
 266 00f8 00000000 		.word	.LANCHOR2
 267 00fc 00000000 		.word	.LANCHOR1
 268 0100 00F8FFFF 		.word	-2048
 269              		.cfi_endproc
 270              	.LFE105:
 271              		.size	demod_loop, .-demod_loop
 272 0104 C046C046 		.section	.text.Thread1,"ax",%progbits
 272      C046C046 
 272      C046C046 
 273              		.align	2
 274              		.p2align 4,,15
 275              		.code	16
 276              		.thumb_func
 277              		.type	Thread1, %function
 278              	Thread1:
 279              	.LFB108:
 280              		.loc 1 198 0
 281              		.cfi_startproc
 282              	.LVL18:
 283              		.loc 1 201 0
ARM GAS  /tmp/cczMqacF.s 			page 6


 284 0000 4022     		mov	r2, #64
 285              		.loc 1 198 0
 286 0002 F8B5     		push	{r3, r4, r5, r6, r7, lr}
 287              		.cfi_def_cfa_offset 24
 288              		.cfi_offset 3, -24
 289              		.cfi_offset 4, -20
 290              		.cfi_offset 5, -16
 291              		.cfi_offset 6, -12
 292              		.cfi_offset 7, -8
 293              		.cfi_offset 14, -4
 294              		.loc 1 201 0
 295 0004 374B     		ldr	r3, .L34
 296              		.loc 1 206 0
 297 0006 384C     		ldr	r4, .L34+4
 298              		.loc 1 201 0
 299 0008 5968     		ldr	r1, [r3, #4]
 300              		.loc 1 206 0
 301 000a 201C     		mov	r0, r4
 302              	.LVL19:
 303              		.loc 1 201 0
 304 000c 0A43     		orr	r2, r1
 305 000e 5A60     		str	r2, [r3, #4]
 306              		.loc 1 202 0
 307 0010 8022     		mov	r2, #128
 308 0012 9968     		ldr	r1, [r3, #8]
 309 0014 0A43     		orr	r2, r1
 310              		.loc 1 203 0
 311 0016 8021     		mov	r1, #128
 312              		.loc 1 202 0
 313 0018 9A60     		str	r2, [r3, #8]
 314              		.loc 1 203 0
 315 001a 5A68     		ldr	r2, [r3, #4]
 316 001c C900     		lsl	r1, r1, #3
 317 001e 0A43     		orr	r2, r1
 318 0020 5A60     		str	r2, [r3, #4]
 319              		.loc 1 206 0
 320 0022 3249     		ldr	r1, .L34+8
 321 0024 FFF7FEFF 		bl	sdStart
 322              	.LVL20:
 323              		.loc 1 209 0
 324 0028 0020     		mov	r0, #0
 325 002a 3149     		ldr	r1, .L34+12
 326 002c FFF7FEFF 		bl	init_printf
 327              	.LVL21:
 328              		.loc 1 210 0
 329 0030 304B     		ldr	r3, .L34+16
 330              		.loc 1 214 0
 331 0032 3148     		ldr	r0, .L34+20
 332              		.loc 1 210 0
 333 0034 1C60     		str	r4, [r3]
 334              		.loc 1 214 0
 335 0036 314B     		ldr	r3, .L34+24
 336 0038 1968     		ldr	r1, [r3]
 337 003a FFF7FEFF 		bl	tfp_printf
 338              	.LVL22:
 339              	.LBB46:
 340              	.LBB47:
ARM GAS  /tmp/cczMqacF.s 			page 7


 341              		.loc 1 179 0
 342 003e 3049     		ldr	r1, .L34+28
 343 0040 0722     		mov	r2, #7
 344 0042 0B1C     		mov	r3, r1
 345              		.loc 1 178 0
 346 0044 2F49     		ldr	r1, .L34+32
 347              		.loc 1 179 0
 348 0046 9343     		bic	r3, r2
 349              		.loc 1 178 0
 350 0048 0731     		add	r1, r1, #7
 351 004a 9143     		bic	r1, r2
 352              		.loc 1 183 0
 353 004c 591A     		sub	r1, r3, r1
 354              	.LBE47:
 355              	.LBE46:
 356              		.loc 1 215 0
 357 004e 2E48     		ldr	r0, .L34+36
 358 0050 FFF7FEFF 		bl	tfp_printf
 359              	.LVL23:
 360              		.loc 1 216 0
 361 0054 6420     		mov	r0, #100
 362 0056 FFF7FEFF 		bl	chThdSleep
 363              	.LVL24:
 364              		.loc 1 219 0
 365 005a 2C48     		ldr	r0, .L34+40
 366 005c 2C49     		ldr	r1, .L34+44
 367 005e FFF7FEFF 		bl	adcStart
 368              	.LVL25:
 369              		.loc 1 220 0
 370 0062 FFF7FEFF 		bl	analogStart
 371              	.LVL26:
 372              		.loc 1 222 0
 373 0066 FFF7FEFF 		bl	demodInit
 374              	.LVL27:
 375              		.loc 1 224 0
 376 006a FFF7FEFF 		bl	flashStart
 377              	.LVL28:
 378              	.LBB48:
 379              	.LBB49:
 380              		.file 2 "../os/ext/CMSIS/include/core_cm0plus.h"
 381              		.loc 2 757 0
 382 006e C322     		mov	r2, #195
 383              	.LBE49:
 384              	.LBE48:
 385              	.LBB51:
 386              	.LBB52:
 387 0070 FF20     		mov	r0, #255
 388              	.LBE52:
 389              	.LBE51:
 390              	.LBB54:
 391              	.LBB50:
 392 0072 2849     		ldr	r1, .L34+48
 393 0074 9200     		lsl	r2, r2, #2
 394 0076 8B58     		ldr	r3, [r1, r2]
 395 0078 1B02     		lsl	r3, r3, #8
 396 007a 1B0A     		lsr	r3, r3, #8
 397 007c 8B50     		str	r3, [r1, r2]
ARM GAS  /tmp/cczMqacF.s 			page 8


 398              	.LVL29:
 399              	.LBE50:
 400              	.LBE54:
 401              	.LBB55:
 402              	.LBB53:
 403 007e 8B58     		ldr	r3, [r1, r2]
 404 0080 8343     		bic	r3, r0
 405 0082 C020     		mov	r0, #192
 406 0084 0343     		orr	r3, r0
 407 0086 8B50     		str	r3, [r1, r2]
 408              	.LBE53:
 409              	.LBE55:
 410              		.loc 1 261 0
 411 0088 8021     		mov	r1, #128
 412 008a 2348     		ldr	r0, .L34+52
 413 008c 4902     		lsl	r1, r1, #9
 414              	.L31:
 415              		.loc 1 261 0 is_stmt 0 discriminator 1
 416 008e 0368     		ldr	r3, [r0]
 417 0090 214A     		ldr	r2, .L34+52
 418 0092 0B42     		tst	r3, r1
 419 0094 FBD0     		beq	.L31
 420              		.loc 1 263 0 is_stmt 1
 421 0096 0121     		mov	r1, #1
 422              	.LBB56:
 423              	.LBB57:
 424              		.loc 2 697 0
 425 0098 8026     		mov	r6, #128
 426              	.LBE57:
 427              	.LBE56:
 428              	.LBB62:
 429              	.LBB63:
 430 009a 8025     		mov	r5, #128
 431              	.LBE63:
 432              	.LBE62:
 433              	.LBB66:
 434              	.LBB58:
 435 009c 8020     		mov	r0, #128
 436              	.LBE58:
 437              	.LBE66:
 438              	.LBB67:
 439              	.LBB68:
 440              	.LBB69:
 441              		.loc 2 753 0
 442 009e C027     		mov	r7, #192
 443              	.LBE69:
 444              	.LBE68:
 445              	.LBE67:
 446              		.loc 1 263 0
 447 00a0 1368     		ldr	r3, [r2]
 448              	.LBB74:
 449              	.LBB59:
 450              		.loc 2 697 0
 451 00a2 1C4C     		ldr	r4, .L34+48
 452              	.LBE59:
 453              	.LBE74:
 454              		.loc 1 263 0
ARM GAS  /tmp/cczMqacF.s 			page 9


 455 00a4 8B43     		bic	r3, r1
 456              	.LBB75:
 457              	.LBB60:
 458              		.loc 2 697 0
 459 00a6 F605     		lsl	r6, r6, #23
 460              	.LBE60:
 461              	.LBE75:
 462              	.LBB76:
 463              	.LBB72:
 464              	.LBB70:
 465              		.loc 2 753 0
 466 00a8 1C49     		ldr	r1, .L34+56
 467              	.LBE70:
 468              	.LBE72:
 469              	.LBE76:
 470              	.LBB77:
 471              	.LBB64:
 472              		.loc 2 697 0
 473 00aa 2D06     		lsl	r5, r5, #24
 474              	.LBE64:
 475              	.LBE77:
 476              		.loc 1 263 0
 477 00ac 1360     		str	r3, [r2]
 478              	.LVL30:
 479              	.LBB78:
 480              	.LBB61:
 481              		.loc 2 697 0
 482 00ae 2650     		str	r6, [r4, r0]
 483              	.LVL31:
 484              	.LBE61:
 485              	.LBE78:
 486              	.LBB79:
 487              	.LBB65:
 488 00b0 2550     		str	r5, [r4, r0]
 489              	.LVL32:
 490              	.LBE65:
 491              	.LBE79:
 492              	.LBB80:
 493              	.LBB73:
 494              	.LBB71:
 495              		.loc 2 753 0
 496 00b2 CA69     		ldr	r2, [r1, #28]
 497 00b4 3F06     		lsl	r7, r7, #24
 498 00b6 1202     		lsl	r2, r2, #8
 499 00b8 120A     		lsr	r2, r2, #8
 500 00ba 3A43     		orr	r2, r7
 501 00bc CA61     		str	r2, [r1, #28]
 502              	.LVL33:
 503              	.LBE71:
 504              	.LBE73:
 505              	.LBE80:
 506              	.LBB81:
 507              	.LBB82:
 508              	.LBB83:
 509 00be 0A6A     		ldr	r2, [r1, #32]
 510 00c0 174B     		ldr	r3, .L34+60
 511 00c2 1A40     		and	r2, r3
ARM GAS  /tmp/cczMqacF.s 			page 10


 512 00c4 C023     		mov	r3, #192
 513 00c6 1B04     		lsl	r3, r3, #16
 514 00c8 1A43     		orr	r2, r3
 515 00ca 0A62     		str	r2, [r1, #32]
 516              	.LVL34:
 517              	.LBE83:
 518              	.LBE82:
 519              	.LBE81:
 520              	.LBB84:
 521              	.LBB85:
 522              	.LBB86:
 523 00cc 0B6A     		ldr	r3, [r1, #32]
 524 00ce 1B02     		lsl	r3, r3, #8
 525 00d0 1B0A     		lsr	r3, r3, #8
 526 00d2 3B43     		orr	r3, r7
 527 00d4 0B62     		str	r3, [r1, #32]
 528              	.LVL35:
 529              	.LBE86:
 530              	.LBE85:
 531              	.LBE84:
 532              	.LBB87:
 533              	.LBB88:
 534              		.loc 2 697 0
 535 00d6 2650     		str	r6, [r4, r0]
 536              	.LVL36:
 537              	.LBE88:
 538              	.LBE87:
 539              	.LBB89:
 540              	.LBB90:
 541 00d8 2550     		str	r5, [r4, r0]
 542              	.LBE90:
 543              	.LBE89:
 544              		.loc 1 274 0
 545 00da FFF7FEFF 		bl	analogUpdateMic
 546              	.LVL37:
 547              		.loc 1 275 0
 548 00de FFF7FEFF 		bl	demod_loop
 549              	.LVL38:
 550              	.L35:
 551 00e2 C046     		.align	2
 552              	.L34:
 553 00e4 40F00F40 		.word	1074786368
 554 00e8 00000000 		.word	SD1
 555 00ec 00000000 		.word	.LANCHOR3
 556 00f0 00000000 		.word	putc_x
 557 00f4 00000000 		.word	.LANCHOR4
 558 00f8 00000000 		.word	.LC17
 559 00fc 00000000 		.word	gitversion
 560 0100 00000000 		.word	__heap_end__
 561 0104 00000000 		.word	__heap_base__
 562 0108 34000000 		.word	.LC20
 563 010c 00000000 		.word	ADCD1
 564 0110 00000000 		.word	.LANCHOR5
 565 0114 00E100E0 		.word	-536813312
 566 0118 10E000E0 		.word	-536813552
 567 011c 00ED00E0 		.word	-536810240
 568 0120 FFFF00FF 		.word	-16711681
ARM GAS  /tmp/cczMqacF.s 			page 11


 569              		.cfi_endproc
 570              	.LFE108:
 571              		.size	Thread1, .-Thread1
 572 0124 C046C046 		.section	.text.startup.main,"ax",%progbits
 572      C046C046 
 572      C046C046 
 573              		.align	2
 574              		.p2align 4,,15
 575              		.global	main
 576              		.code	16
 577              		.thumb_func
 578              		.type	main, %function
 579              	main:
 580              	.LFB109:
 581              		.loc 1 292 0
 582              		.cfi_startproc
 583 0000 08B5     		push	{r3, lr}
 584              		.cfi_def_cfa_offset 8
 585              		.cfi_offset 3, -8
 586              		.cfi_offset 14, -4
 587              		.loc 1 300 0
 588 0002 FFF7FEFF 		bl	halInit
 589              	.LVL39:
 590              		.loc 1 301 0
 591 0006 FFF7FEFF 		bl	chSysInit
 592              	.LVL40:
 593              	.L37:
 594              		.loc 1 304 0 discriminator 1
 595 000a FEE7     		b	.L37
 596              		.cfi_endproc
 597              	.LFE109:
 598              		.size	main, .-main
 599              		.global	nil_thd_configs
 600              		.global	buf_n
 601              		.global	bufloc
 602              		.global	dataReadyFlag
 603              		.global	screenpos
 604              		.global	stream
 605 000c C046C046 		.section	.bss.stream,"aw",%nobits
 606              		.align	2
 607              	.LANCHOR4 = . + 0
 608              		.type	stream, %object
 609              		.size	stream, 4
 610              	stream:
 611 0000 00000000 		.space	4
 612              		.section	.bss.waThread1,"aw",%nobits
 613              		.align	3
 614              		.type	waThread1, %object
 615              		.size	waThread1, 616
 616              	waThread1:
 617 0000 00000000 		.space	616
 617      00000000 
 617      00000000 
 617      00000000 
 617      00000000 
 618              		.section	.rodata.adccfg1,"a",%progbits
 619              		.align	2
ARM GAS  /tmp/cczMqacF.s 			page 12


 620              	.LANCHOR5 = . + 0
 621              		.type	adccfg1, %object
 622              		.size	adccfg1, 1
 623              	adccfg1:
 624 0000 01       		.byte	1
 625 0001 000000   		.section	.rodata.nil_thd_configs,"a",%progbits
 626              		.align	2
 627              		.type	nil_thd_configs, %object
 628              		.size	nil_thd_configs, 40
 629              	nil_thd_configs:
 630 0000 00000000 		.word	waThread1
 631 0004 68020000 		.word	waThread1+616
 632 0008 54000000 		.word	.LC27
 633 000c 00000000 		.word	Thread1
 634 0010 00000000 		.word	0
 635 0014 00000000 		.word	__main_thread_stack_base__
 636 0018 00000000 		.word	__main_thread_stack_end__
 637 001c 5C000000 		.word	.LC28
 638 0020 00000000 		.word	0
 639 0024 00000000 		.word	0
 640              		.section	.bss.bufloc,"aw",%nobits
 641              		.align	2
 642              	.LANCHOR1 = . + 0
 643              		.type	bufloc, %object
 644              		.size	bufloc, 4
 645              	bufloc:
 646 0000 00000000 		.space	4
 647              		.section	.rodata.str1.4,"aMS",%progbits,1
 648              		.align	2
 649              	.LC17:
 650 0000 0D0A0D0A 		.ascii	"\015\012\015\012Orchard audio bootloader.  Based on"
 650      4F726368 
 650      61726420 
 650      61756469 
 650      6F20626F 
 651 0027 20627569 		.ascii	" build %s\015\012\000"
 651      6C642025 
 651      730D0A00 
 652 0033 00       		.space	1
 653              	.LC20:
 654 0034 636F7265 		.ascii	"core free memory : %d bytes\015\012\000"
 654      20667265 
 654      65206D65 
 654      6D6F7279 
 654      203A2025 
 655 0052 0000     		.space	2
 656              	.LC27:
 657 0054 64656D6F 		.ascii	"demod\000"
 657      6400
 658 005a 0000     		.space	2
 659              	.LC28:
 660 005c 69646C65 		.ascii	"idle\000"
 660      00
 661 0061 000000   		.section	.bss.buf_n,"aw",%nobits
 662              		.align	2
 663              	.LANCHOR0 = . + 0
 664              		.type	buf_n, %object
ARM GAS  /tmp/cczMqacF.s 			page 13


 665              		.size	buf_n, 4
 666              	buf_n:
 667 0000 00000000 		.space	4
 668              		.section	.rodata.serialConfig,"a",%progbits
 669              		.align	2
 670              	.LANCHOR3 = . + 0
 671              		.type	serialConfig, %object
 672              		.size	serialConfig, 4
 673              	serialConfig:
 674 0000 00C20100 		.word	115200
 675              		.section	.bss.screenpos,"aw",%nobits
 676              		.type	screenpos, %object
 677              		.size	screenpos, 1
 678              	screenpos:
 679 0000 00       		.space	1
 680              		.section	.bss.dataReadyFlag,"aw",%nobits
 681              	.LANCHOR2 = . + 0
 682              		.type	dataReadyFlag, %object
 683              		.size	dataReadyFlag, 1
 684              	dataReadyFlag:
 685 0000 00       		.space	1
 686              		.text
 687              	.Letext0:
 688              		.file 3 "/usr/lib/gcc/arm-linux-gnueabihf/4.9/include/stddef.h"
 689              		.file 4 "/usr/include/stdint.h"
 690              		.file 5 "../os/nil/include/nil.h"
 691              		.file 6 "../os/nil/ports/ARMCMx/compilers/GCC/niltypes.h"
 692              		.file 7 "../os/ext/CMSIS/KINETIS/kl02x.h"
 693              		.file 8 "../os/nil/ports/ARMCMx/nilcore.h"
 694              		.file 9 "../os/nil/ports/ARMCMx/nilcore_v6m.h"
 695              		.file 10 "../os/hal/osal/nil/osal.h"
 696              		.file 11 "../os/hal/include/hal_streams.h"
 697              		.file 12 "../os/hal/include/hal_queues.h"
 698              		.file 13 "../os/hal/include/adc.h"
 699              		.file 14 "../os/hal/ports/KINETIS/LLD/adc_lld.h"
 700              		.file 15 "../os/hal/include/serial.h"
 701              		.file 16 "../os/hal/ports/KINETIS/KL02x/serial_lld.h"
 702              		.file 17 "demod.h"
 703              		.file 18 "orchard.h"
 704              		.file 19 "mac.h"
 705              		.file 20 "../os/hal/ports/common/ARMCMx/nvic.h"
 706              		.file 21 "printf.h"
 707              		.file 22 "analog.h"
 708              		.file 23 "flash.h"
 709              		.file 24 "../os/hal/include/hal.h"
 710              		.file 25 "updater.h"
 711              		.section	.debug_info,"",%progbits
 712              	.Ldebug_info0:
 713 0000 6F150000 		.4byte	0x156f
 714 0004 0400     		.2byte	0x4
 715 0006 00000000 		.4byte	.Ldebug_abbrev0
 716 000a 04       		.byte	0x4
 717 000b 01       		.uleb128 0x1
 718 000c 42010000 		.4byte	.LASF257
 719 0010 01       		.byte	0x1
 720 0011 07060000 		.4byte	.LASF258
 721 0015 A6090000 		.4byte	.LASF259
ARM GAS  /tmp/cczMqacF.s 			page 14


 722 0019 A0000000 		.4byte	.Ldebug_ranges0+0xa0
 723 001d 00000000 		.4byte	0
 724 0021 00000000 		.4byte	.Ldebug_line0
 725 0025 02       		.uleb128 0x2
 726 0026 04       		.byte	0x4
 727 0027 05       		.byte	0x5
 728 0028 696E7400 		.ascii	"int\000"
 729 002c 03       		.uleb128 0x3
 730 002d 1B000000 		.4byte	.LASF1
 731 0031 03       		.byte	0x3
 732 0032 D4       		.byte	0xd4
 733 0033 37000000 		.4byte	0x37
 734 0037 04       		.uleb128 0x4
 735 0038 04       		.byte	0x4
 736 0039 07       		.byte	0x7
 737 003a B9060000 		.4byte	.LASF0
 738 003e 03       		.uleb128 0x3
 739 003f 09000000 		.4byte	.LASF2
 740 0043 04       		.byte	0x4
 741 0044 24       		.byte	0x24
 742 0045 49000000 		.4byte	0x49
 743 0049 04       		.uleb128 0x4
 744 004a 01       		.byte	0x1
 745 004b 06       		.byte	0x6
 746 004c C2020000 		.4byte	.LASF3
 747 0050 03       		.uleb128 0x3
 748 0051 97090000 		.4byte	.LASF4
 749 0055 04       		.byte	0x4
 750 0056 25       		.byte	0x25
 751 0057 5B000000 		.4byte	0x5b
 752 005b 04       		.uleb128 0x4
 753 005c 02       		.byte	0x2
 754 005d 05       		.byte	0x5
 755 005e 54090000 		.4byte	.LASF5
 756 0062 03       		.uleb128 0x3
 757 0063 6B000000 		.4byte	.LASF6
 758 0067 04       		.byte	0x4
 759 0068 26       		.byte	0x26
 760 0069 25000000 		.4byte	0x25
 761 006d 04       		.uleb128 0x4
 762 006e 08       		.byte	0x8
 763 006f 05       		.byte	0x5
 764 0070 B4050000 		.4byte	.LASF7
 765 0074 03       		.uleb128 0x3
 766 0075 D5020000 		.4byte	.LASF8
 767 0079 04       		.byte	0x4
 768 007a 30       		.byte	0x30
 769 007b 7F000000 		.4byte	0x7f
 770 007f 04       		.uleb128 0x4
 771 0080 01       		.byte	0x1
 772 0081 08       		.byte	0x8
 773 0082 19030000 		.4byte	.LASF9
 774 0086 03       		.uleb128 0x3
 775 0087 DD070000 		.4byte	.LASF10
 776 008b 04       		.byte	0x4
 777 008c 31       		.byte	0x31
 778 008d 91000000 		.4byte	0x91
ARM GAS  /tmp/cczMqacF.s 			page 15


 779 0091 04       		.uleb128 0x4
 780 0092 02       		.byte	0x2
 781 0093 07       		.byte	0x7
 782 0094 690A0000 		.4byte	.LASF11
 783 0098 03       		.uleb128 0x3
 784 0099 370A0000 		.4byte	.LASF12
 785 009d 04       		.byte	0x4
 786 009e 33       		.byte	0x33
 787 009f 37000000 		.4byte	0x37
 788 00a3 03       		.uleb128 0x3
 789 00a4 6B090000 		.4byte	.LASF13
 790 00a8 04       		.byte	0x4
 791 00a9 3A       		.byte	0x3a
 792 00aa AE000000 		.4byte	0xae
 793 00ae 04       		.uleb128 0x4
 794 00af 08       		.byte	0x8
 795 00b0 07       		.byte	0x7
 796 00b1 C6070000 		.4byte	.LASF14
 797 00b5 03       		.uleb128 0x3
 798 00b6 57070000 		.4byte	.LASF15
 799 00ba 05       		.byte	0x5
 800 00bb 25       		.byte	0x25
 801 00bc C0000000 		.4byte	0xc0
 802 00c0 05       		.uleb128 0x5
 803 00c1 52020000 		.4byte	.LASF116
 804 00c5 18       		.byte	0x18
 805 00c6 05       		.byte	0x5
 806 00c7 6201     		.2byte	0x162
 807 00c9 1B010000 		.4byte	0x11b
 808 00cd 06       		.uleb128 0x6
 809 00ce 11050000 		.4byte	.LASF16
 810 00d2 05       		.byte	0x5
 811 00d3 6301     		.2byte	0x163
 812 00d5 60080000 		.4byte	0x860
 813 00d9 00       		.byte	0
 814 00da 06       		.uleb128 0x6
 815 00db C5000000 		.4byte	.LASF17
 816 00df 05       		.byte	0x5
 817 00e0 6401     		.2byte	0x164
 818 00e2 1B010000 		.4byte	0x11b
 819 00e6 04       		.byte	0x4
 820 00e7 07       		.uleb128 0x7
 821 00e8 753100   		.ascii	"u1\000"
 822 00eb 05       		.byte	0x5
 823 00ec 6F01     		.2byte	0x16f
 824 00ee 10080000 		.4byte	0x810
 825 00f2 08       		.byte	0x8
 826 00f3 06       		.uleb128 0x6
 827 00f4 88060000 		.4byte	.LASF18
 828 00f8 05       		.byte	0x5
 829 00f9 7001     		.2byte	0x170
 830 00fb 66080000 		.4byte	0x866
 831 00ff 0C       		.byte	0xc
 832 0100 06       		.uleb128 0x6
 833 0101 B4030000 		.4byte	.LASF19
 834 0105 05       		.byte	0x5
 835 0106 7301     		.2byte	0x173
ARM GAS  /tmp/cczMqacF.s 			page 16


 836 0108 31010000 		.4byte	0x131
 837 010c 10       		.byte	0x10
 838 010d 06       		.uleb128 0x6
 839 010e 78050000 		.4byte	.LASF20
 840 0112 05       		.byte	0x5
 841 0113 7601     		.2byte	0x176
 842 0115 E6070000 		.4byte	0x7e6
 843 0119 14       		.byte	0x14
 844 011a 00       		.byte	0
 845 011b 03       		.uleb128 0x3
 846 011c 5D020000 		.4byte	.LASF21
 847 0120 06       		.byte	0x6
 848 0121 37       		.byte	0x37
 849 0122 74000000 		.4byte	0x74
 850 0126 03       		.uleb128 0x3
 851 0127 ED070000 		.4byte	.LASF22
 852 012b 06       		.byte	0x6
 853 012c 38       		.byte	0x38
 854 012d 62000000 		.4byte	0x62
 855 0131 03       		.uleb128 0x3
 856 0132 F9020000 		.4byte	.LASF23
 857 0136 06       		.byte	0x6
 858 0137 39       		.byte	0x39
 859 0138 98000000 		.4byte	0x98
 860 013c 03       		.uleb128 0x3
 861 013d 67040000 		.4byte	.LASF24
 862 0141 06       		.byte	0x6
 863 0142 3A       		.byte	0x3a
 864 0143 62000000 		.4byte	0x62
 865 0147 03       		.uleb128 0x3
 866 0148 2B000000 		.4byte	.LASF25
 867 014c 06       		.byte	0x6
 868 014d 41       		.byte	0x41
 869 014e 98000000 		.4byte	0x98
 870 0152 08       		.uleb128 0x8
 871 0153 7B020000 		.4byte	.LASF214
 872 0157 04       		.byte	0x4
 873 0158 07       		.byte	0x7
 874 0159 1F       		.byte	0x1f
 875 015a 43020000 		.4byte	0x243
 876 015e 09       		.uleb128 0x9
 877 015f 10080000 		.4byte	.LASF26
 878 0163 71       		.sleb128 -15
 879 0164 09       		.uleb128 0x9
 880 0165 C2040000 		.4byte	.LASF27
 881 0169 72       		.sleb128 -14
 882 016a 09       		.uleb128 0x9
 883 016b E80A0000 		.4byte	.LASF28
 884 016f 73       		.sleb128 -13
 885 0170 09       		.uleb128 0x9
 886 0171 0E060000 		.4byte	.LASF29
 887 0175 7B       		.sleb128 -5
 888 0176 09       		.uleb128 0x9
 889 0177 9A0A0000 		.4byte	.LASF30
 890 017b 7E       		.sleb128 -2
 891 017c 09       		.uleb128 0x9
 892 017d A3020000 		.4byte	.LASF31
ARM GAS  /tmp/cczMqacF.s 			page 17


 893 0181 7F       		.sleb128 -1
 894 0182 09       		.uleb128 0x9
 895 0183 A60A0000 		.4byte	.LASF32
 896 0187 00       		.sleb128 0
 897 0188 09       		.uleb128 0x9
 898 0189 CB060000 		.4byte	.LASF33
 899 018d 01       		.sleb128 1
 900 018e 09       		.uleb128 0x9
 901 018f 90020000 		.4byte	.LASF34
 902 0193 02       		.sleb128 2
 903 0194 09       		.uleb128 0x9
 904 0195 F3000000 		.4byte	.LASF35
 905 0199 03       		.sleb128 3
 906 019a 09       		.uleb128 0x9
 907 019b F70A0000 		.4byte	.LASF36
 908 019f 04       		.sleb128 4
 909 01a0 09       		.uleb128 0x9
 910 01a1 C9050000 		.4byte	.LASF37
 911 01a5 05       		.sleb128 5
 912 01a6 09       		.uleb128 0x9
 913 01a7 A7040000 		.4byte	.LASF38
 914 01ab 06       		.sleb128 6
 915 01ac 09       		.uleb128 0x9
 916 01ad 48020000 		.4byte	.LASF39
 917 01b1 07       		.sleb128 7
 918 01b2 09       		.uleb128 0x9
 919 01b3 450B0000 		.4byte	.LASF40
 920 01b7 08       		.sleb128 8
 921 01b8 09       		.uleb128 0x9
 922 01b9 40070000 		.4byte	.LASF41
 923 01bd 09       		.sleb128 9
 924 01be 09       		.uleb128 0x9
 925 01bf 230A0000 		.4byte	.LASF42
 926 01c3 0A       		.sleb128 10
 927 01c4 09       		.uleb128 0x9
 928 01c5 D8050000 		.4byte	.LASF43
 929 01c9 0B       		.sleb128 11
 930 01ca 09       		.uleb128 0x9
 931 01cb 6F080000 		.4byte	.LASF44
 932 01cf 0C       		.sleb128 12
 933 01d0 09       		.uleb128 0x9
 934 01d1 9C040000 		.4byte	.LASF45
 935 01d5 0D       		.sleb128 13
 936 01d6 09       		.uleb128 0x9
 937 01d7 CB030000 		.4byte	.LASF46
 938 01db 0E       		.sleb128 14
 939 01dc 09       		.uleb128 0x9
 940 01dd 3B040000 		.4byte	.LASF47
 941 01e1 0F       		.sleb128 15
 942 01e2 09       		.uleb128 0x9
 943 01e3 2A090000 		.4byte	.LASF48
 944 01e7 10       		.sleb128 16
 945 01e8 09       		.uleb128 0x9
 946 01e9 EC030000 		.4byte	.LASF49
 947 01ed 11       		.sleb128 17
 948 01ee 09       		.uleb128 0x9
 949 01ef 7C0A0000 		.4byte	.LASF50
ARM GAS  /tmp/cczMqacF.s 			page 18


 950 01f3 12       		.sleb128 18
 951 01f4 09       		.uleb128 0x9
 952 01f5 9A060000 		.4byte	.LASF51
 953 01f9 13       		.sleb128 19
 954 01fa 09       		.uleb128 0x9
 955 01fb 5F0A0000 		.4byte	.LASF52
 956 01ff 14       		.sleb128 20
 957 0200 09       		.uleb128 0x9
 958 0201 66060000 		.4byte	.LASF53
 959 0205 15       		.sleb128 21
 960 0206 09       		.uleb128 0x9
 961 0207 72030000 		.4byte	.LASF54
 962 020b 16       		.sleb128 22
 963 020c 09       		.uleb128 0x9
 964 020d 00070000 		.4byte	.LASF55
 965 0211 17       		.sleb128 23
 966 0212 09       		.uleb128 0x9
 967 0213 B0020000 		.4byte	.LASF56
 968 0217 18       		.sleb128 24
 969 0218 09       		.uleb128 0x9
 970 0219 87080000 		.4byte	.LASF57
 971 021d 19       		.sleb128 25
 972 021e 09       		.uleb128 0x9
 973 021f 4D000000 		.4byte	.LASF58
 974 0223 1A       		.sleb128 26
 975 0224 09       		.uleb128 0x9
 976 0225 FE040000 		.4byte	.LASF59
 977 0229 1B       		.sleb128 27
 978 022a 09       		.uleb128 0x9
 979 022b 28050000 		.4byte	.LASF60
 980 022f 1C       		.sleb128 28
 981 0230 09       		.uleb128 0x9
 982 0231 DD020000 		.4byte	.LASF61
 983 0235 1D       		.sleb128 29
 984 0236 09       		.uleb128 0x9
 985 0237 0E090000 		.4byte	.LASF62
 986 023b 1E       		.sleb128 30
 987 023c 09       		.uleb128 0x9
 988 023d 25080000 		.4byte	.LASF63
 989 0241 1F       		.sleb128 31
 990 0242 00       		.byte	0
 991 0243 03       		.uleb128 0x3
 992 0244 07050000 		.4byte	.LASF64
 993 0248 07       		.byte	0x7
 994 0249 4A       		.byte	0x4a
 995 024a 52010000 		.4byte	0x152
 996 024e 0A       		.uleb128 0xa
 997 024f 2003     		.2byte	0x320
 998 0251 02       		.byte	0x2
 999 0252 5C01     		.2byte	0x15c
 1000 0254 E0020000 		.4byte	0x2e0
 1001 0258 06       		.uleb128 0x6
 1002 0259 E30A0000 		.4byte	.LASF65
 1003 025d 02       		.byte	0x2
 1004 025e 5E01     		.2byte	0x15e
 1005 0260 F7020000 		.4byte	0x2f7
 1006 0264 00       		.byte	0
ARM GAS  /tmp/cczMqacF.s 			page 19


 1007 0265 06       		.uleb128 0x6
 1008 0266 05030000 		.4byte	.LASF66
 1009 026a 02       		.byte	0x2
 1010 026b 5F01     		.2byte	0x15f
 1011 026d FC020000 		.4byte	0x2fc
 1012 0271 04       		.byte	0x4
 1013 0272 06       		.uleb128 0x6
 1014 0273 5C080000 		.4byte	.LASF67
 1015 0277 02       		.byte	0x2
 1016 0278 6001     		.2byte	0x160
 1017 027a 0C030000 		.4byte	0x30c
 1018 027e 80       		.byte	0x80
 1019 027f 06       		.uleb128 0x6
 1020 0280 00000000 		.4byte	.LASF68
 1021 0284 02       		.byte	0x2
 1022 0285 6101     		.2byte	0x161
 1023 0287 FC020000 		.4byte	0x2fc
 1024 028b 84       		.byte	0x84
 1025 028c 0B       		.uleb128 0xb
 1026 028d 1D040000 		.4byte	.LASF69
 1027 0291 02       		.byte	0x2
 1028 0292 6201     		.2byte	0x162
 1029 0294 11030000 		.4byte	0x311
 1030 0298 0001     		.2byte	0x100
 1031 029a 0B       		.uleb128 0xb
 1032 029b 82030000 		.4byte	.LASF70
 1033 029f 02       		.byte	0x2
 1034 02a0 6301     		.2byte	0x163
 1035 02a2 FC020000 		.4byte	0x2fc
 1036 02a6 0401     		.2byte	0x104
 1037 02a8 0B       		.uleb128 0xb
 1038 02a9 E5000000 		.4byte	.LASF71
 1039 02ad 02       		.byte	0x2
 1040 02ae 6401     		.2byte	0x164
 1041 02b0 16030000 		.4byte	0x316
 1042 02b4 8001     		.2byte	0x180
 1043 02b6 0B       		.uleb128 0xb
 1044 02b7 27030000 		.4byte	.LASF72
 1045 02bb 02       		.byte	0x2
 1046 02bc 6501     		.2byte	0x165
 1047 02be FC020000 		.4byte	0x2fc
 1048 02c2 8401     		.2byte	0x184
 1049 02c4 0B       		.uleb128 0xb
 1050 02c5 31030000 		.4byte	.LASF73
 1051 02c9 02       		.byte	0x2
 1052 02ca 6601     		.2byte	0x166
 1053 02cc 1B030000 		.4byte	0x31b
 1054 02d0 0002     		.2byte	0x200
 1055 02d2 0C       		.uleb128 0xc
 1056 02d3 495000   		.ascii	"IP\000"
 1057 02d6 02       		.byte	0x2
 1058 02d7 6701     		.2byte	0x167
 1059 02d9 3B030000 		.4byte	0x33b
 1060 02dd 0003     		.2byte	0x300
 1061 02df 00       		.byte	0
 1062 02e0 0D       		.uleb128 0xd
 1063 02e1 98000000 		.4byte	0x98
ARM GAS  /tmp/cczMqacF.s 			page 20


 1064 02e5 F0020000 		.4byte	0x2f0
 1065 02e9 0E       		.uleb128 0xe
 1066 02ea F0020000 		.4byte	0x2f0
 1067 02ee 00       		.byte	0
 1068 02ef 00       		.byte	0
 1069 02f0 04       		.uleb128 0x4
 1070 02f1 04       		.byte	0x4
 1071 02f2 07       		.byte	0x7
 1072 02f3 22000000 		.4byte	.LASF74
 1073 02f7 0F       		.uleb128 0xf
 1074 02f8 E0020000 		.4byte	0x2e0
 1075 02fc 0D       		.uleb128 0xd
 1076 02fd 98000000 		.4byte	0x98
 1077 0301 0C030000 		.4byte	0x30c
 1078 0305 0E       		.uleb128 0xe
 1079 0306 F0020000 		.4byte	0x2f0
 1080 030a 1E       		.byte	0x1e
 1081 030b 00       		.byte	0
 1082 030c 0F       		.uleb128 0xf
 1083 030d E0020000 		.4byte	0x2e0
 1084 0311 0F       		.uleb128 0xf
 1085 0312 E0020000 		.4byte	0x2e0
 1086 0316 0F       		.uleb128 0xf
 1087 0317 E0020000 		.4byte	0x2e0
 1088 031b 0D       		.uleb128 0xd
 1089 031c 98000000 		.4byte	0x98
 1090 0320 2B030000 		.4byte	0x32b
 1091 0324 0E       		.uleb128 0xe
 1092 0325 F0020000 		.4byte	0x2f0
 1093 0329 3F       		.byte	0x3f
 1094 032a 00       		.byte	0
 1095 032b 0D       		.uleb128 0xd
 1096 032c 98000000 		.4byte	0x98
 1097 0330 3B030000 		.4byte	0x33b
 1098 0334 0E       		.uleb128 0xe
 1099 0335 F0020000 		.4byte	0x2f0
 1100 0339 07       		.byte	0x7
 1101 033a 00       		.byte	0
 1102 033b 0F       		.uleb128 0xf
 1103 033c 2B030000 		.4byte	0x32b
 1104 0340 10       		.uleb128 0x10
 1105 0341 B3070000 		.4byte	.LASF75
 1106 0345 02       		.byte	0x2
 1107 0346 6801     		.2byte	0x168
 1108 0348 4E020000 		.4byte	0x24e
 1109 034c 11       		.uleb128 0x11
 1110 034d 28       		.byte	0x28
 1111 034e 02       		.byte	0x2
 1112 034f 7501     		.2byte	0x175
 1113 0351 CB030000 		.4byte	0x3cb
 1114 0355 06       		.uleb128 0x6
 1115 0356 9D030000 		.4byte	.LASF76
 1116 035a 02       		.byte	0x2
 1117 035b 7701     		.2byte	0x177
 1118 035d CB030000 		.4byte	0x3cb
 1119 0361 00       		.byte	0
 1120 0362 06       		.uleb128 0x6
ARM GAS  /tmp/cczMqacF.s 			page 21


 1121 0363 BD020000 		.4byte	.LASF77
 1122 0367 02       		.byte	0x2
 1123 0368 7801     		.2byte	0x178
 1124 036a D0030000 		.4byte	0x3d0
 1125 036e 04       		.byte	0x4
 1126 036f 06       		.uleb128 0x6
 1127 0370 A4000000 		.4byte	.LASF78
 1128 0374 02       		.byte	0x2
 1129 0375 7A01     		.2byte	0x17a
 1130 0377 D0030000 		.4byte	0x3d0
 1131 037b 08       		.byte	0x8
 1132 037c 06       		.uleb128 0x6
 1133 037d 22010000 		.4byte	.LASF79
 1134 0381 02       		.byte	0x2
 1135 0382 7E01     		.2byte	0x17e
 1136 0384 D0030000 		.4byte	0x3d0
 1137 0388 0C       		.byte	0xc
 1138 0389 07       		.uleb128 0x7
 1139 038a 53435200 		.ascii	"SCR\000"
 1140 038e 02       		.byte	0x2
 1141 038f 7F01     		.2byte	0x17f
 1142 0391 D0030000 		.4byte	0x3d0
 1143 0395 10       		.byte	0x10
 1144 0396 07       		.uleb128 0x7
 1145 0397 43435200 		.ascii	"CCR\000"
 1146 039b 02       		.byte	0x2
 1147 039c 8001     		.2byte	0x180
 1148 039e D0030000 		.4byte	0x3d0
 1149 03a2 14       		.byte	0x14
 1150 03a3 06       		.uleb128 0x6
 1151 03a4 0F030000 		.4byte	.LASF80
 1152 03a8 02       		.byte	0x2
 1153 03a9 8101     		.2byte	0x181
 1154 03ab 98000000 		.4byte	0x98
 1155 03af 18       		.byte	0x18
 1156 03b0 07       		.uleb128 0x7
 1157 03b1 53485000 		.ascii	"SHP\000"
 1158 03b5 02       		.byte	0x2
 1159 03b6 8201     		.2byte	0x182
 1160 03b8 E5030000 		.4byte	0x3e5
 1161 03bc 1C       		.byte	0x1c
 1162 03bd 06       		.uleb128 0x6
 1163 03be 61040000 		.4byte	.LASF81
 1164 03c2 02       		.byte	0x2
 1165 03c3 8301     		.2byte	0x183
 1166 03c5 D0030000 		.4byte	0x3d0
 1167 03c9 24       		.byte	0x24
 1168 03ca 00       		.byte	0
 1169 03cb 12       		.uleb128 0x12
 1170 03cc D0030000 		.4byte	0x3d0
 1171 03d0 0F       		.uleb128 0xf
 1172 03d1 98000000 		.4byte	0x98
 1173 03d5 0D       		.uleb128 0xd
 1174 03d6 98000000 		.4byte	0x98
 1175 03da E5030000 		.4byte	0x3e5
 1176 03de 0E       		.uleb128 0xe
 1177 03df F0020000 		.4byte	0x2f0
ARM GAS  /tmp/cczMqacF.s 			page 22


 1178 03e3 01       		.byte	0x1
 1179 03e4 00       		.byte	0
 1180 03e5 0F       		.uleb128 0xf
 1181 03e6 D5030000 		.4byte	0x3d5
 1182 03ea 10       		.uleb128 0x10
 1183 03eb A3030000 		.4byte	.LASF82
 1184 03ef 02       		.byte	0x2
 1185 03f0 8401     		.2byte	0x184
 1186 03f2 4C030000 		.4byte	0x34c
 1187 03f6 11       		.uleb128 0x11
 1188 03f7 10       		.byte	0x10
 1189 03f8 02       		.byte	0x2
 1190 03f9 E801     		.2byte	0x1e8
 1191 03fb 34040000 		.4byte	0x434
 1192 03ff 06       		.uleb128 0x6
 1193 0400 C6060000 		.4byte	.LASF83
 1194 0404 02       		.byte	0x2
 1195 0405 EA01     		.2byte	0x1ea
 1196 0407 D0030000 		.4byte	0x3d0
 1197 040b 00       		.byte	0
 1198 040c 06       		.uleb128 0x6
 1199 040d 70060000 		.4byte	.LASF84
 1200 0411 02       		.byte	0x2
 1201 0412 EB01     		.2byte	0x1eb
 1202 0414 D0030000 		.4byte	0x3d0
 1203 0418 04       		.byte	0x4
 1204 0419 07       		.uleb128 0x7
 1205 041a 56414C00 		.ascii	"VAL\000"
 1206 041e 02       		.byte	0x2
 1207 041f EC01     		.2byte	0x1ec
 1208 0421 D0030000 		.4byte	0x3d0
 1209 0425 08       		.byte	0x8
 1210 0426 06       		.uleb128 0x6
 1211 0427 91080000 		.4byte	.LASF85
 1212 042b 02       		.byte	0x2
 1213 042c ED01     		.2byte	0x1ed
 1214 042e CB030000 		.4byte	0x3cb
 1215 0432 0C       		.byte	0xc
 1216 0433 00       		.byte	0
 1217 0434 10       		.uleb128 0x10
 1218 0435 4A070000 		.4byte	.LASF86
 1219 0439 02       		.byte	0x2
 1220 043a EE01     		.2byte	0x1ee
 1221 043c F6030000 		.4byte	0x3f6
 1222 0440 0F       		.uleb128 0xf
 1223 0441 74000000 		.4byte	0x74
 1224 0445 13       		.uleb128 0x13
 1225 0446 70       		.byte	0x70
 1226 0447 07       		.byte	0x7
 1227 0448 CA       		.byte	0xca
 1228 0449 9A050000 		.4byte	0x59a
 1229 044d 14       		.uleb128 0x14
 1230 044e 0A010000 		.4byte	.LASF87
 1231 0452 07       		.byte	0x7
 1232 0453 CC       		.byte	0xcc
 1233 0454 D0030000 		.4byte	0x3d0
 1234 0458 00       		.byte	0
ARM GAS  /tmp/cczMqacF.s 			page 23


 1235 0459 14       		.uleb128 0x14
 1236 045a 0F010000 		.4byte	.LASF88
 1237 045e 07       		.byte	0x7
 1238 045f CD       		.byte	0xcd
 1239 0460 D0030000 		.4byte	0x3d0
 1240 0464 04       		.byte	0x4
 1241 0465 14       		.uleb128 0x14
 1242 0466 92040000 		.4byte	.LASF89
 1243 046a 07       		.byte	0x7
 1244 046b CE       		.byte	0xce
 1245 046c D0030000 		.4byte	0x3d0
 1246 0470 08       		.byte	0x8
 1247 0471 14       		.uleb128 0x14
 1248 0472 97040000 		.4byte	.LASF90
 1249 0476 07       		.byte	0x7
 1250 0477 CF       		.byte	0xcf
 1251 0478 D0030000 		.4byte	0x3d0
 1252 047c 0C       		.byte	0xc
 1253 047d 15       		.uleb128 0x15
 1254 047e 524100   		.ascii	"RA\000"
 1255 0481 07       		.byte	0x7
 1256 0482 D0       		.byte	0xd0
 1257 0483 CB030000 		.4byte	0x3cb
 1258 0487 10       		.byte	0x10
 1259 0488 15       		.uleb128 0x15
 1260 0489 524200   		.ascii	"RB\000"
 1261 048c 07       		.byte	0x7
 1262 048d D1       		.byte	0xd1
 1263 048e CB030000 		.4byte	0x3cb
 1264 0492 14       		.byte	0x14
 1265 0493 15       		.uleb128 0x15
 1266 0494 43563100 		.ascii	"CV1\000"
 1267 0498 07       		.byte	0x7
 1268 0499 D2       		.byte	0xd2
 1269 049a D0030000 		.4byte	0x3d0
 1270 049e 18       		.byte	0x18
 1271 049f 15       		.uleb128 0x15
 1272 04a0 43563200 		.ascii	"CV2\000"
 1273 04a4 07       		.byte	0x7
 1274 04a5 D3       		.byte	0xd3
 1275 04a6 D0030000 		.4byte	0x3d0
 1276 04aa 1C       		.byte	0x1c
 1277 04ab 15       		.uleb128 0x15
 1278 04ac 53433200 		.ascii	"SC2\000"
 1279 04b0 07       		.byte	0x7
 1280 04b1 D4       		.byte	0xd4
 1281 04b2 D0030000 		.4byte	0x3d0
 1282 04b6 20       		.byte	0x20
 1283 04b7 15       		.uleb128 0x15
 1284 04b8 53433300 		.ascii	"SC3\000"
 1285 04bc 07       		.byte	0x7
 1286 04bd D5       		.byte	0xd5
 1287 04be D0030000 		.4byte	0x3d0
 1288 04c2 24       		.byte	0x24
 1289 04c3 15       		.uleb128 0x15
 1290 04c4 4F465300 		.ascii	"OFS\000"
 1291 04c8 07       		.byte	0x7
ARM GAS  /tmp/cczMqacF.s 			page 24


 1292 04c9 D6       		.byte	0xd6
 1293 04ca D0030000 		.4byte	0x3d0
 1294 04ce 28       		.byte	0x28
 1295 04cf 15       		.uleb128 0x15
 1296 04d0 504700   		.ascii	"PG\000"
 1297 04d3 07       		.byte	0x7
 1298 04d4 D7       		.byte	0xd7
 1299 04d5 D0030000 		.4byte	0x3d0
 1300 04d9 2C       		.byte	0x2c
 1301 04da 15       		.uleb128 0x15
 1302 04db 4D4700   		.ascii	"MG\000"
 1303 04de 07       		.byte	0x7
 1304 04df D8       		.byte	0xd8
 1305 04e0 D0030000 		.4byte	0x3d0
 1306 04e4 30       		.byte	0x30
 1307 04e5 14       		.uleb128 0x14
 1308 04e6 120A0000 		.4byte	.LASF91
 1309 04ea 07       		.byte	0x7
 1310 04eb D9       		.byte	0xd9
 1311 04ec D0030000 		.4byte	0x3d0
 1312 04f0 34       		.byte	0x34
 1313 04f1 14       		.uleb128 0x14
 1314 04f2 170A0000 		.4byte	.LASF92
 1315 04f6 07       		.byte	0x7
 1316 04f7 DA       		.byte	0xda
 1317 04f8 D0030000 		.4byte	0x3d0
 1318 04fc 38       		.byte	0x38
 1319 04fd 14       		.uleb128 0x14
 1320 04fe 0D0A0000 		.4byte	.LASF93
 1321 0502 07       		.byte	0x7
 1322 0503 DB       		.byte	0xdb
 1323 0504 D0030000 		.4byte	0x3d0
 1324 0508 3C       		.byte	0x3c
 1325 0509 14       		.uleb128 0x14
 1326 050a 080A0000 		.4byte	.LASF94
 1327 050e 07       		.byte	0x7
 1328 050f DC       		.byte	0xdc
 1329 0510 D0030000 		.4byte	0x3d0
 1330 0514 40       		.byte	0x40
 1331 0515 14       		.uleb128 0x14
 1332 0516 030A0000 		.4byte	.LASF95
 1333 051a 07       		.byte	0x7
 1334 051b DD       		.byte	0xdd
 1335 051c D0030000 		.4byte	0x3d0
 1336 0520 44       		.byte	0x44
 1337 0521 14       		.uleb128 0x14
 1338 0522 FE090000 		.4byte	.LASF96
 1339 0526 07       		.byte	0x7
 1340 0527 DE       		.byte	0xde
 1341 0528 D0030000 		.4byte	0x3d0
 1342 052c 48       		.byte	0x48
 1343 052d 14       		.uleb128 0x14
 1344 052e F9090000 		.4byte	.LASF97
 1345 0532 07       		.byte	0x7
 1346 0533 DF       		.byte	0xdf
 1347 0534 D0030000 		.4byte	0x3d0
 1348 0538 4C       		.byte	0x4c
ARM GAS  /tmp/cczMqacF.s 			page 25


 1349 0539 14       		.uleb128 0x14
 1350 053a 05030000 		.4byte	.LASF66
 1351 053e 07       		.byte	0x7
 1352 053f E0       		.byte	0xe0
 1353 0540 E0020000 		.4byte	0x2e0
 1354 0544 50       		.byte	0x50
 1355 0545 14       		.uleb128 0x14
 1356 0546 EA080000 		.4byte	.LASF98
 1357 054a 07       		.byte	0x7
 1358 054b E1       		.byte	0xe1
 1359 054c D0030000 		.4byte	0x3d0
 1360 0550 54       		.byte	0x54
 1361 0551 14       		.uleb128 0x14
 1362 0552 F8080000 		.4byte	.LASF99
 1363 0556 07       		.byte	0x7
 1364 0557 E2       		.byte	0xe2
 1365 0558 D0030000 		.4byte	0x3d0
 1366 055c 58       		.byte	0x58
 1367 055d 14       		.uleb128 0x14
 1368 055e C5080000 		.4byte	.LASF100
 1369 0562 07       		.byte	0x7
 1370 0563 E3       		.byte	0xe3
 1371 0564 D0030000 		.4byte	0x3d0
 1372 0568 5C       		.byte	0x5c
 1373 0569 14       		.uleb128 0x14
 1374 056a C0080000 		.4byte	.LASF101
 1375 056e 07       		.byte	0x7
 1376 056f E4       		.byte	0xe4
 1377 0570 D0030000 		.4byte	0x3d0
 1378 0574 60       		.byte	0x60
 1379 0575 14       		.uleb128 0x14
 1380 0576 BB080000 		.4byte	.LASF102
 1381 057a 07       		.byte	0x7
 1382 057b E5       		.byte	0xe5
 1383 057c D0030000 		.4byte	0x3d0
 1384 0580 64       		.byte	0x64
 1385 0581 14       		.uleb128 0x14
 1386 0582 B6080000 		.4byte	.LASF103
 1387 0586 07       		.byte	0x7
 1388 0587 E6       		.byte	0xe6
 1389 0588 D0030000 		.4byte	0x3d0
 1390 058c 68       		.byte	0x68
 1391 058d 14       		.uleb128 0x14
 1392 058e B1080000 		.4byte	.LASF104
 1393 0592 07       		.byte	0x7
 1394 0593 E7       		.byte	0xe7
 1395 0594 D0030000 		.4byte	0x3d0
 1396 0598 6C       		.byte	0x6c
 1397 0599 00       		.byte	0
 1398 059a 03       		.uleb128 0x3
 1399 059b 78040000 		.4byte	.LASF105
 1400 059f 07       		.byte	0x7
 1401 05a0 E8       		.byte	0xe8
 1402 05a1 45040000 		.4byte	0x445
 1403 05a5 13       		.uleb128 0x13
 1404 05a6 18       		.byte	0x18
 1405 05a7 07       		.byte	0x7
ARM GAS  /tmp/cczMqacF.s 			page 26


 1406 05a8 F9       		.byte	0xf9
 1407 05a9 F7050000 		.4byte	0x5f7
 1408 05ad 14       		.uleb128 0x14
 1409 05ae 4F090000 		.4byte	.LASF106
 1410 05b2 07       		.byte	0x7
 1411 05b3 FB       		.byte	0xfb
 1412 05b4 D0030000 		.4byte	0x3d0
 1413 05b8 00       		.byte	0
 1414 05b9 14       		.uleb128 0x14
 1415 05ba 8D090000 		.4byte	.LASF107
 1416 05be 07       		.byte	0x7
 1417 05bf FC       		.byte	0xfc
 1418 05c0 D0030000 		.4byte	0x3d0
 1419 05c4 04       		.byte	0x4
 1420 05c5 14       		.uleb128 0x14
 1421 05c6 26070000 		.4byte	.LASF108
 1422 05ca 07       		.byte	0x7
 1423 05cb FD       		.byte	0xfd
 1424 05cc D0030000 		.4byte	0x3d0
 1425 05d0 08       		.byte	0x8
 1426 05d1 14       		.uleb128 0x14
 1427 05d2 5C000000 		.4byte	.LASF109
 1428 05d6 07       		.byte	0x7
 1429 05d7 FE       		.byte	0xfe
 1430 05d8 D0030000 		.4byte	0x3d0
 1431 05dc 0C       		.byte	0xc
 1432 05dd 14       		.uleb128 0x14
 1433 05de 2B070000 		.4byte	.LASF110
 1434 05e2 07       		.byte	0x7
 1435 05e3 FF       		.byte	0xff
 1436 05e4 D0030000 		.4byte	0x3d0
 1437 05e8 10       		.byte	0x10
 1438 05e9 06       		.uleb128 0x6
 1439 05ea 16050000 		.4byte	.LASF111
 1440 05ee 07       		.byte	0x7
 1441 05ef 0001     		.2byte	0x100
 1442 05f1 D0030000 		.4byte	0x3d0
 1443 05f5 14       		.byte	0x14
 1444 05f6 00       		.byte	0
 1445 05f7 10       		.uleb128 0x10
 1446 05f8 EC090000 		.4byte	.LASF112
 1447 05fc 07       		.byte	0x7
 1448 05fd 0101     		.2byte	0x101
 1449 05ff A5050000 		.4byte	0x5a5
 1450 0603 11       		.uleb128 0x11
 1451 0604 0C       		.byte	0xc
 1452 0605 07       		.byte	0x7
 1453 0606 2C01     		.2byte	0x12c
 1454 0608 A0060000 		.4byte	0x6a0
 1455 060c 07       		.uleb128 0x7
 1456 060d 42444800 		.ascii	"BDH\000"
 1457 0611 07       		.byte	0x7
 1458 0612 2E01     		.2byte	0x12e
 1459 0614 40040000 		.4byte	0x440
 1460 0618 00       		.byte	0
 1461 0619 07       		.uleb128 0x7
 1462 061a 42444C00 		.ascii	"BDL\000"
ARM GAS  /tmp/cczMqacF.s 			page 27


 1463 061e 07       		.byte	0x7
 1464 061f 2F01     		.2byte	0x12f
 1465 0621 40040000 		.4byte	0x440
 1466 0625 01       		.byte	0x1
 1467 0626 07       		.uleb128 0x7
 1468 0627 433100   		.ascii	"C1\000"
 1469 062a 07       		.byte	0x7
 1470 062b 3001     		.2byte	0x130
 1471 062d 40040000 		.4byte	0x440
 1472 0631 02       		.byte	0x2
 1473 0632 07       		.uleb128 0x7
 1474 0633 433200   		.ascii	"C2\000"
 1475 0636 07       		.byte	0x7
 1476 0637 3101     		.2byte	0x131
 1477 0639 40040000 		.4byte	0x440
 1478 063d 03       		.byte	0x3
 1479 063e 07       		.uleb128 0x7
 1480 063f 533100   		.ascii	"S1\000"
 1481 0642 07       		.byte	0x7
 1482 0643 3201     		.2byte	0x132
 1483 0645 40040000 		.4byte	0x440
 1484 0649 04       		.byte	0x4
 1485 064a 07       		.uleb128 0x7
 1486 064b 533200   		.ascii	"S2\000"
 1487 064e 07       		.byte	0x7
 1488 064f 3301     		.2byte	0x133
 1489 0651 40040000 		.4byte	0x440
 1490 0655 05       		.byte	0x5
 1491 0656 07       		.uleb128 0x7
 1492 0657 433300   		.ascii	"C3\000"
 1493 065a 07       		.byte	0x7
 1494 065b 3401     		.2byte	0x134
 1495 065d 40040000 		.4byte	0x440
 1496 0661 06       		.byte	0x6
 1497 0662 07       		.uleb128 0x7
 1498 0663 4400     		.ascii	"D\000"
 1499 0665 07       		.byte	0x7
 1500 0666 3501     		.2byte	0x135
 1501 0668 40040000 		.4byte	0x440
 1502 066c 07       		.byte	0x7
 1503 066d 07       		.uleb128 0x7
 1504 066e 4D413100 		.ascii	"MA1\000"
 1505 0672 07       		.byte	0x7
 1506 0673 3601     		.2byte	0x136
 1507 0675 40040000 		.4byte	0x440
 1508 0679 08       		.byte	0x8
 1509 067a 07       		.uleb128 0x7
 1510 067b 4D413200 		.ascii	"MA2\000"
 1511 067f 07       		.byte	0x7
 1512 0680 3701     		.2byte	0x137
 1513 0682 40040000 		.4byte	0x440
 1514 0686 09       		.byte	0x9
 1515 0687 07       		.uleb128 0x7
 1516 0688 433400   		.ascii	"C4\000"
 1517 068b 07       		.byte	0x7
 1518 068c 3801     		.2byte	0x138
 1519 068e 40040000 		.4byte	0x440
ARM GAS  /tmp/cczMqacF.s 			page 28


 1520 0692 0A       		.byte	0xa
 1521 0693 07       		.uleb128 0x7
 1522 0694 433500   		.ascii	"C5\000"
 1523 0697 07       		.byte	0x7
 1524 0698 3901     		.2byte	0x139
 1525 069a 40040000 		.4byte	0x440
 1526 069e 0B       		.byte	0xb
 1527 069f 00       		.byte	0
 1528 06a0 10       		.uleb128 0x10
 1529 06a1 45040000 		.4byte	.LASF113
 1530 06a5 07       		.byte	0x7
 1531 06a6 3A01     		.2byte	0x13a
 1532 06a8 03060000 		.4byte	0x603
 1533 06ac 03       		.uleb128 0x3
 1534 06ad 87020000 		.4byte	.LASF114
 1535 06b1 08       		.byte	0x8
 1536 06b2 65       		.byte	0x65
 1537 06b3 B7060000 		.4byte	0x6b7
 1538 06b7 16       		.uleb128 0x16
 1539 06b8 04       		.byte	0x4
 1540 06b9 03       		.uleb128 0x3
 1541 06ba DB030000 		.4byte	.LASF115
 1542 06be 08       		.byte	0x8
 1543 06bf 6D       		.byte	0x6d
 1544 06c0 A3000000 		.4byte	0xa3
 1545 06c4 17       		.uleb128 0x17
 1546 06c5 93070000 		.4byte	.LASF117
 1547 06c9 24       		.byte	0x24
 1548 06ca 09       		.byte	0x9
 1549 06cb A4       		.byte	0xa4
 1550 06cc 36070000 		.4byte	0x736
 1551 06d0 15       		.uleb128 0x15
 1552 06d1 723800   		.ascii	"r8\000"
 1553 06d4 09       		.byte	0x9
 1554 06d5 A5       		.byte	0xa5
 1555 06d6 AC060000 		.4byte	0x6ac
 1556 06da 00       		.byte	0
 1557 06db 15       		.uleb128 0x15
 1558 06dc 723900   		.ascii	"r9\000"
 1559 06df 09       		.byte	0x9
 1560 06e0 A6       		.byte	0xa6
 1561 06e1 AC060000 		.4byte	0x6ac
 1562 06e5 04       		.byte	0x4
 1563 06e6 15       		.uleb128 0x15
 1564 06e7 72313000 		.ascii	"r10\000"
 1565 06eb 09       		.byte	0x9
 1566 06ec A7       		.byte	0xa7
 1567 06ed AC060000 		.4byte	0x6ac
 1568 06f1 08       		.byte	0x8
 1569 06f2 15       		.uleb128 0x15
 1570 06f3 72313100 		.ascii	"r11\000"
 1571 06f7 09       		.byte	0x9
 1572 06f8 A8       		.byte	0xa8
 1573 06f9 AC060000 		.4byte	0x6ac
 1574 06fd 0C       		.byte	0xc
 1575 06fe 15       		.uleb128 0x15
 1576 06ff 723400   		.ascii	"r4\000"
ARM GAS  /tmp/cczMqacF.s 			page 29


 1577 0702 09       		.byte	0x9
 1578 0703 A9       		.byte	0xa9
 1579 0704 AC060000 		.4byte	0x6ac
 1580 0708 10       		.byte	0x10
 1581 0709 15       		.uleb128 0x15
 1582 070a 723500   		.ascii	"r5\000"
 1583 070d 09       		.byte	0x9
 1584 070e AA       		.byte	0xaa
 1585 070f AC060000 		.4byte	0x6ac
 1586 0713 14       		.byte	0x14
 1587 0714 15       		.uleb128 0x15
 1588 0715 723600   		.ascii	"r6\000"
 1589 0718 09       		.byte	0x9
 1590 0719 AB       		.byte	0xab
 1591 071a AC060000 		.4byte	0x6ac
 1592 071e 18       		.byte	0x18
 1593 071f 15       		.uleb128 0x15
 1594 0720 723700   		.ascii	"r7\000"
 1595 0723 09       		.byte	0x9
 1596 0724 AC       		.byte	0xac
 1597 0725 AC060000 		.4byte	0x6ac
 1598 0729 1C       		.byte	0x1c
 1599 072a 15       		.uleb128 0x15
 1600 072b 6C7200   		.ascii	"lr\000"
 1601 072e 09       		.byte	0x9
 1602 072f AD       		.byte	0xad
 1603 0730 AC060000 		.4byte	0x6ac
 1604 0734 20       		.byte	0x20
 1605 0735 00       		.byte	0
 1606 0736 10       		.uleb128 0x10
 1607 0737 21090000 		.4byte	.LASF118
 1608 073b 05       		.byte	0x5
 1609 073c 3701     		.2byte	0x137
 1610 073e C4060000 		.4byte	0x6c4
 1611 0742 10       		.uleb128 0x10
 1612 0743 0B0B0000 		.4byte	.LASF119
 1613 0747 05       		.byte	0x5
 1614 0748 3C01     		.2byte	0x13c
 1615 074a 4E070000 		.4byte	0x74e
 1616 074e 05       		.uleb128 0x5
 1617 074f 84040000 		.4byte	.LASF120
 1618 0753 04       		.byte	0x4
 1619 0754 05       		.byte	0x5
 1620 0755 4101     		.2byte	0x141
 1621 0757 69070000 		.4byte	0x769
 1622 075b 07       		.uleb128 0x7
 1623 075c 636E7400 		.ascii	"cnt\000"
 1624 0760 05       		.byte	0x5
 1625 0761 4201     		.2byte	0x142
 1626 0763 69070000 		.4byte	0x769
 1627 0767 00       		.byte	0
 1628 0768 00       		.byte	0
 1629 0769 0F       		.uleb128 0xf
 1630 076a 3C010000 		.4byte	0x13c
 1631 076e 10       		.uleb128 0x10
 1632 076f 75060000 		.4byte	.LASF121
 1633 0773 05       		.byte	0x5
ARM GAS  /tmp/cczMqacF.s 			page 30


 1634 0774 4801     		.2byte	0x148
 1635 0776 7A070000 		.4byte	0x77a
 1636 077a 18       		.uleb128 0x18
 1637 077b 04       		.byte	0x4
 1638 077c 80070000 		.4byte	0x780
 1639 0780 19       		.uleb128 0x19
 1640 0781 8B070000 		.4byte	0x78b
 1641 0785 1A       		.uleb128 0x1a
 1642 0786 B7060000 		.4byte	0x6b7
 1643 078a 00       		.byte	0
 1644 078b 10       		.uleb128 0x10
 1645 078c E8040000 		.4byte	.LASF122
 1646 0790 05       		.byte	0x5
 1647 0791 4D01     		.2byte	0x14d
 1648 0793 97070000 		.4byte	0x797
 1649 0797 05       		.uleb128 0x5
 1650 0798 2F080000 		.4byte	.LASF123
 1651 079c 14       		.byte	0x14
 1652 079d 05       		.byte	0x5
 1653 079e 5201     		.2byte	0x152
 1654 07a0 E6070000 		.4byte	0x7e6
 1655 07a4 06       		.uleb128 0x6
 1656 07a5 29040000 		.4byte	.LASF124
 1657 07a9 05       		.byte	0x5
 1658 07aa 5301     		.2byte	0x153
 1659 07ac E6070000 		.4byte	0x7e6
 1660 07b0 00       		.byte	0
 1661 07b1 06       		.uleb128 0x6
 1662 07b2 D3050000 		.4byte	.LASF125
 1663 07b6 05       		.byte	0x5
 1664 07b7 5401     		.2byte	0x154
 1665 07b9 E6070000 		.4byte	0x7e6
 1666 07bd 04       		.byte	0x4
 1667 07be 06       		.uleb128 0x6
 1668 07bf D9090000 		.4byte	.LASF126
 1669 07c3 05       		.byte	0x5
 1670 07c4 5501     		.2byte	0x155
 1671 07c6 EC070000 		.4byte	0x7ec
 1672 07ca 08       		.byte	0x8
 1673 07cb 06       		.uleb128 0x6
 1674 07cc 5B040000 		.4byte	.LASF127
 1675 07d0 05       		.byte	0x5
 1676 07d1 5601     		.2byte	0x156
 1677 07d3 6E070000 		.4byte	0x76e
 1678 07d7 0C       		.byte	0xc
 1679 07d8 07       		.uleb128 0x7
 1680 07d9 61726700 		.ascii	"arg\000"
 1681 07dd 05       		.byte	0x5
 1682 07de 5701     		.2byte	0x157
 1683 07e0 B7060000 		.4byte	0x6b7
 1684 07e4 10       		.byte	0x10
 1685 07e5 00       		.byte	0
 1686 07e6 18       		.uleb128 0x18
 1687 07e7 04       		.byte	0x4
 1688 07e8 B9060000 		.4byte	0x6b9
 1689 07ec 18       		.uleb128 0x18
 1690 07ed 04       		.byte	0x4
ARM GAS  /tmp/cczMqacF.s 			page 31


 1691 07ee F2070000 		.4byte	0x7f2
 1692 07f2 12       		.uleb128 0x12
 1693 07f3 F7070000 		.4byte	0x7f7
 1694 07f7 04       		.uleb128 0x4
 1695 07f8 01       		.byte	0x1
 1696 07f9 08       		.byte	0x8
 1697 07fa 98030000 		.4byte	.LASF128
 1698 07fe 10       		.uleb128 0x10
 1699 07ff 72070000 		.4byte	.LASF129
 1700 0803 05       		.byte	0x5
 1701 0804 5D01     		.2byte	0x15d
 1702 0806 0A080000 		.4byte	0x80a
 1703 080a 18       		.uleb128 0x18
 1704 080b 04       		.byte	0x4
 1705 080c B5000000 		.4byte	0xb5
 1706 0810 1B       		.uleb128 0x1b
 1707 0811 04       		.byte	0x4
 1708 0812 05       		.byte	0x5
 1709 0813 6701     		.2byte	0x167
 1710 0815 54080000 		.4byte	0x854
 1711 0819 1C       		.uleb128 0x1c
 1712 081a 6D736700 		.ascii	"msg\000"
 1713 081e 05       		.byte	0x5
 1714 081f 6801     		.2byte	0x168
 1715 0821 26010000 		.4byte	0x126
 1716 0825 1C       		.uleb128 0x1c
 1717 0826 7000     		.ascii	"p\000"
 1718 0828 05       		.byte	0x5
 1719 0829 6901     		.2byte	0x169
 1720 082b B7060000 		.4byte	0x6b7
 1721 082f 1C       		.uleb128 0x1c
 1722 0830 74727000 		.ascii	"trp\000"
 1723 0834 05       		.byte	0x5
 1724 0835 6A01     		.2byte	0x16a
 1725 0837 54080000 		.4byte	0x854
 1726 083b 1D       		.uleb128 0x1d
 1727 083c 6B050000 		.4byte	.LASF130
 1728 0840 05       		.byte	0x5
 1729 0841 6B01     		.2byte	0x16b
 1730 0843 5A080000 		.4byte	0x85a
 1731 0847 1D       		.uleb128 0x1d
 1732 0848 CE020000 		.4byte	.LASF131
 1733 084c 05       		.byte	0x5
 1734 084d 6D01     		.2byte	0x16d
 1735 084f 31010000 		.4byte	0x131
 1736 0853 00       		.byte	0
 1737 0854 18       		.uleb128 0x18
 1738 0855 04       		.byte	0x4
 1739 0856 FE070000 		.4byte	0x7fe
 1740 085a 18       		.uleb128 0x18
 1741 085b 04       		.byte	0x4
 1742 085c 42070000 		.4byte	0x742
 1743 0860 18       		.uleb128 0x18
 1744 0861 04       		.byte	0x4
 1745 0862 36070000 		.4byte	0x736
 1746 0866 0F       		.uleb128 0xf
 1747 0867 47010000 		.4byte	0x147
ARM GAS  /tmp/cczMqacF.s 			page 32


 1748 086b 10       		.uleb128 0x10
 1749 086c 1B050000 		.4byte	.LASF132
 1750 0870 05       		.byte	0x5
 1751 0871 7F01     		.2byte	0x17f
 1752 0873 77080000 		.4byte	0x877
 1753 0877 05       		.uleb128 0x5
 1754 0878 E8060000 		.4byte	.LASF133
 1755 087c 40       		.byte	0x40
 1756 087d 05       		.byte	0x5
 1757 087e 8601     		.2byte	0x186
 1758 0880 C6080000 		.4byte	0x8c6
 1759 0884 06       		.uleb128 0x6
 1760 0885 18070000 		.4byte	.LASF134
 1761 0889 05       		.byte	0x5
 1762 088a 8A01     		.2byte	0x18a
 1763 088c 0A080000 		.4byte	0x80a
 1764 0890 00       		.byte	0
 1765 0891 06       		.uleb128 0x6
 1766 0892 060B0000 		.4byte	.LASF135
 1767 0896 05       		.byte	0x5
 1768 0897 9001     		.2byte	0x190
 1769 0899 0A080000 		.4byte	0x80a
 1770 089d 04       		.byte	0x4
 1771 089e 06       		.uleb128 0x6
 1772 089f 14010000 		.4byte	.LASF136
 1773 08a3 05       		.byte	0x5
 1774 08a4 9501     		.2byte	0x195
 1775 08a6 66080000 		.4byte	0x866
 1776 08aa 08       		.byte	0x8
 1777 08ab 06       		.uleb128 0x6
 1778 08ac AC030000 		.4byte	.LASF137
 1779 08b0 05       		.byte	0x5
 1780 08b1 A401     		.2byte	0x1a4
 1781 08b3 C6080000 		.4byte	0x8c6
 1782 08b7 0C       		.byte	0xc
 1783 08b8 06       		.uleb128 0x6
 1784 08b9 41090000 		.4byte	.LASF138
 1785 08bd 05       		.byte	0x5
 1786 08be AD01     		.2byte	0x1ad
 1787 08c0 D6080000 		.4byte	0x8d6
 1788 08c4 3C       		.byte	0x3c
 1789 08c5 00       		.byte	0
 1790 08c6 0D       		.uleb128 0xd
 1791 08c7 B5000000 		.4byte	0xb5
 1792 08cb D6080000 		.4byte	0x8d6
 1793 08cf 0E       		.uleb128 0xe
 1794 08d0 F0020000 		.4byte	0x2f0
 1795 08d4 01       		.byte	0x1
 1796 08d5 00       		.byte	0
 1797 08d6 0F       		.uleb128 0xf
 1798 08d7 EC070000 		.4byte	0x7ec
 1799 08db 03       		.uleb128 0x3
 1800 08dc 34060000 		.4byte	.LASF139
 1801 08e0 0A       		.byte	0xa
 1802 08e1 B5       		.byte	0xb5
 1803 08e2 E6080000 		.4byte	0x8e6
 1804 08e6 17       		.uleb128 0x17
ARM GAS  /tmp/cczMqacF.s 			page 33


 1805 08e7 5E090000 		.4byte	.LASF140
 1806 08eb 0C       		.byte	0xc
 1807 08ec 0A       		.byte	0xa
 1808 08ed CB       		.byte	0xcb
 1809 08ee 16090000 		.4byte	0x916
 1810 08f2 14       		.uleb128 0x14
 1811 08f3 C5030000 		.4byte	.LASF141
 1812 08f7 0A       		.byte	0xa
 1813 08f8 CC       		.byte	0xcc
 1814 08f9 43090000 		.4byte	0x943
 1815 08fd 00       		.byte	0
 1816 08fe 15       		.uleb128 0x15
 1817 08ff 636200   		.ascii	"cb\000"
 1818 0902 0A       		.byte	0xa
 1819 0903 CD       		.byte	0xcd
 1820 0904 16090000 		.4byte	0x916
 1821 0908 04       		.byte	0x4
 1822 0909 14       		.uleb128 0x14
 1823 090a F8040000 		.4byte	.LASF142
 1824 090e 0A       		.byte	0xa
 1825 090f CE       		.byte	0xce
 1826 0910 B7060000 		.4byte	0x6b7
 1827 0914 08       		.byte	0x8
 1828 0915 00       		.byte	0
 1829 0916 03       		.uleb128 0x3
 1830 0917 30070000 		.4byte	.LASF143
 1831 091b 0A       		.byte	0xa
 1832 091c BC       		.byte	0xbc
 1833 091d 21090000 		.4byte	0x921
 1834 0921 18       		.uleb128 0x18
 1835 0922 04       		.byte	0x4
 1836 0923 27090000 		.4byte	0x927
 1837 0927 19       		.uleb128 0x19
 1838 0928 32090000 		.4byte	0x932
 1839 092c 1A       		.uleb128 0x1a
 1840 092d 32090000 		.4byte	0x932
 1841 0931 00       		.byte	0
 1842 0932 18       		.uleb128 0x18
 1843 0933 04       		.byte	0x4
 1844 0934 DB080000 		.4byte	0x8db
 1845 0938 03       		.uleb128 0x3
 1846 0939 03080000 		.4byte	.LASF144
 1847 093d 0A       		.byte	0xa
 1848 093e C1       		.byte	0xc1
 1849 093f 98000000 		.4byte	0x98
 1850 0943 0F       		.uleb128 0xf
 1851 0944 38090000 		.4byte	0x938
 1852 0948 13       		.uleb128 0x13
 1853 0949 04       		.byte	0x4
 1854 094a 0A       		.byte	0xa
 1855 094b DF       		.byte	0xdf
 1856 094c 5D090000 		.4byte	0x95d
 1857 0950 15       		.uleb128 0x15
 1858 0951 73656D00 		.ascii	"sem\000"
 1859 0955 0A       		.byte	0xa
 1860 0956 E0       		.byte	0xe0
 1861 0957 42070000 		.4byte	0x742
ARM GAS  /tmp/cczMqacF.s 			page 34


 1862 095b 00       		.byte	0
 1863 095c 00       		.byte	0
 1864 095d 03       		.uleb128 0x3
 1865 095e 6B020000 		.4byte	.LASF145
 1866 0962 0A       		.byte	0xa
 1867 0963 E1       		.byte	0xe1
 1868 0964 48090000 		.4byte	0x948
 1869 0968 17       		.uleb128 0x17
 1870 0969 CA080000 		.4byte	.LASF146
 1871 096d 10       		.byte	0x10
 1872 096e 0B       		.byte	0xb
 1873 096f 4A       		.byte	0x4a
 1874 0970 A5090000 		.4byte	0x9a5
 1875 0974 14       		.uleb128 0x14
 1876 0975 9E000000 		.4byte	.LASF147
 1877 0979 0B       		.byte	0xb
 1878 097a 4B       		.byte	0x4b
 1879 097b C9090000 		.4byte	0x9c9
 1880 097f 00       		.byte	0
 1881 0980 14       		.uleb128 0x14
 1882 0981 AA060000 		.4byte	.LASF148
 1883 0985 0B       		.byte	0xb
 1884 0986 4B       		.byte	0x4b
 1885 0987 EE090000 		.4byte	0x9ee
 1886 098b 04       		.byte	0x4
 1887 098c 15       		.uleb128 0x15
 1888 098d 70757400 		.ascii	"put\000"
 1889 0991 0B       		.byte	0xb
 1890 0992 4B       		.byte	0x4b
 1891 0993 080A0000 		.4byte	0xa08
 1892 0997 08       		.byte	0x8
 1893 0998 15       		.uleb128 0x15
 1894 0999 67657400 		.ascii	"get\000"
 1895 099d 0B       		.byte	0xb
 1896 099e 4B       		.byte	0x4b
 1897 099f 1D0A0000 		.4byte	0xa1d
 1898 09a3 0C       		.byte	0xc
 1899 09a4 00       		.byte	0
 1900 09a5 1E       		.uleb128 0x1e
 1901 09a6 2C000000 		.4byte	0x2c
 1902 09aa BE090000 		.4byte	0x9be
 1903 09ae 1A       		.uleb128 0x1a
 1904 09af B7060000 		.4byte	0x6b7
 1905 09b3 1A       		.uleb128 0x1a
 1906 09b4 BE090000 		.4byte	0x9be
 1907 09b8 1A       		.uleb128 0x1a
 1908 09b9 2C000000 		.4byte	0x2c
 1909 09bd 00       		.byte	0
 1910 09be 18       		.uleb128 0x18
 1911 09bf 04       		.byte	0x4
 1912 09c0 C4090000 		.4byte	0x9c4
 1913 09c4 12       		.uleb128 0x12
 1914 09c5 74000000 		.4byte	0x74
 1915 09c9 18       		.uleb128 0x18
 1916 09ca 04       		.byte	0x4
 1917 09cb A5090000 		.4byte	0x9a5
 1918 09cf 1E       		.uleb128 0x1e
ARM GAS  /tmp/cczMqacF.s 			page 35


 1919 09d0 2C000000 		.4byte	0x2c
 1920 09d4 E8090000 		.4byte	0x9e8
 1921 09d8 1A       		.uleb128 0x1a
 1922 09d9 B7060000 		.4byte	0x6b7
 1923 09dd 1A       		.uleb128 0x1a
 1924 09de E8090000 		.4byte	0x9e8
 1925 09e2 1A       		.uleb128 0x1a
 1926 09e3 2C000000 		.4byte	0x2c
 1927 09e7 00       		.byte	0
 1928 09e8 18       		.uleb128 0x18
 1929 09e9 04       		.byte	0x4
 1930 09ea 74000000 		.4byte	0x74
 1931 09ee 18       		.uleb128 0x18
 1932 09ef 04       		.byte	0x4
 1933 09f0 CF090000 		.4byte	0x9cf
 1934 09f4 1E       		.uleb128 0x1e
 1935 09f5 26010000 		.4byte	0x126
 1936 09f9 080A0000 		.4byte	0xa08
 1937 09fd 1A       		.uleb128 0x1a
 1938 09fe B7060000 		.4byte	0x6b7
 1939 0a02 1A       		.uleb128 0x1a
 1940 0a03 74000000 		.4byte	0x74
 1941 0a07 00       		.byte	0
 1942 0a08 18       		.uleb128 0x18
 1943 0a09 04       		.byte	0x4
 1944 0a0a F4090000 		.4byte	0x9f4
 1945 0a0e 1E       		.uleb128 0x1e
 1946 0a0f 26010000 		.4byte	0x126
 1947 0a13 1D0A0000 		.4byte	0xa1d
 1948 0a17 1A       		.uleb128 0x1a
 1949 0a18 B7060000 		.4byte	0x6b7
 1950 0a1c 00       		.byte	0
 1951 0a1d 18       		.uleb128 0x18
 1952 0a1e 04       		.byte	0x4
 1953 0a1f 0E0A0000 		.4byte	0xa0e
 1954 0a23 13       		.uleb128 0x13
 1955 0a24 04       		.byte	0x4
 1956 0a25 0B       		.byte	0xb
 1957 0a26 53       		.byte	0x53
 1958 0a27 380A0000 		.4byte	0xa38
 1959 0a2b 15       		.uleb128 0x15
 1960 0a2c 766D7400 		.ascii	"vmt\000"
 1961 0a30 0B       		.byte	0xb
 1962 0a31 55       		.byte	0x55
 1963 0a32 380A0000 		.4byte	0xa38
 1964 0a36 00       		.byte	0
 1965 0a37 00       		.byte	0
 1966 0a38 18       		.uleb128 0x18
 1967 0a39 04       		.byte	0x4
 1968 0a3a 3E0A0000 		.4byte	0xa3e
 1969 0a3e 12       		.uleb128 0x12
 1970 0a3f 68090000 		.4byte	0x968
 1971 0a43 03       		.uleb128 0x3
 1972 0a44 A9000000 		.4byte	.LASF149
 1973 0a48 0B       		.byte	0xb
 1974 0a49 57       		.byte	0x57
 1975 0a4a 230A0000 		.4byte	0xa23
ARM GAS  /tmp/cczMqacF.s 			page 36


 1976 0a4e 1E       		.uleb128 0x1e
 1977 0a4f 26010000 		.4byte	0x126
 1978 0a53 670A0000 		.4byte	0xa67
 1979 0a57 1A       		.uleb128 0x1a
 1980 0a58 B7060000 		.4byte	0x6b7
 1981 0a5c 1A       		.uleb128 0x1a
 1982 0a5d 74000000 		.4byte	0x74
 1983 0a61 1A       		.uleb128 0x1a
 1984 0a62 47010000 		.4byte	0x147
 1985 0a66 00       		.byte	0
 1986 0a67 18       		.uleb128 0x18
 1987 0a68 04       		.byte	0x4
 1988 0a69 4E0A0000 		.4byte	0xa4e
 1989 0a6d 1E       		.uleb128 0x1e
 1990 0a6e 26010000 		.4byte	0x126
 1991 0a72 810A0000 		.4byte	0xa81
 1992 0a76 1A       		.uleb128 0x1a
 1993 0a77 B7060000 		.4byte	0x6b7
 1994 0a7b 1A       		.uleb128 0x1a
 1995 0a7c 47010000 		.4byte	0x147
 1996 0a80 00       		.byte	0
 1997 0a81 18       		.uleb128 0x18
 1998 0a82 04       		.byte	0x4
 1999 0a83 6D0A0000 		.4byte	0xa6d
 2000 0a87 1E       		.uleb128 0x1e
 2001 0a88 2C000000 		.4byte	0x2c
 2002 0a8c A50A0000 		.4byte	0xaa5
 2003 0a90 1A       		.uleb128 0x1a
 2004 0a91 B7060000 		.4byte	0x6b7
 2005 0a95 1A       		.uleb128 0x1a
 2006 0a96 BE090000 		.4byte	0x9be
 2007 0a9a 1A       		.uleb128 0x1a
 2008 0a9b 2C000000 		.4byte	0x2c
 2009 0a9f 1A       		.uleb128 0x1a
 2010 0aa0 47010000 		.4byte	0x147
 2011 0aa4 00       		.byte	0
 2012 0aa5 18       		.uleb128 0x18
 2013 0aa6 04       		.byte	0x4
 2014 0aa7 870A0000 		.4byte	0xa87
 2015 0aab 1E       		.uleb128 0x1e
 2016 0aac 2C000000 		.4byte	0x2c
 2017 0ab0 C90A0000 		.4byte	0xac9
 2018 0ab4 1A       		.uleb128 0x1a
 2019 0ab5 B7060000 		.4byte	0x6b7
 2020 0ab9 1A       		.uleb128 0x1a
 2021 0aba E8090000 		.4byte	0x9e8
 2022 0abe 1A       		.uleb128 0x1a
 2023 0abf 2C000000 		.4byte	0x2c
 2024 0ac3 1A       		.uleb128 0x1a
 2025 0ac4 47010000 		.4byte	0x147
 2026 0ac8 00       		.byte	0
 2027 0ac9 18       		.uleb128 0x18
 2028 0aca 04       		.byte	0x4
 2029 0acb AB0A0000 		.4byte	0xaab
 2030 0acf 04       		.uleb128 0x4
 2031 0ad0 01       		.byte	0x1
 2032 0ad1 02       		.byte	0x2
ARM GAS  /tmp/cczMqacF.s 			page 37


 2033 0ad2 6C030000 		.4byte	.LASF150
 2034 0ad6 0F       		.uleb128 0xf
 2035 0ad7 2C000000 		.4byte	0x2c
 2036 0adb 03       		.uleb128 0x3
 2037 0adc CE090000 		.4byte	.LASF151
 2038 0ae0 0C       		.byte	0xc
 2039 0ae1 2F       		.byte	0x2f
 2040 0ae2 E60A0000 		.4byte	0xae6
 2041 0ae6 17       		.uleb128 0x17
 2042 0ae7 9A020000 		.4byte	.LASF152
 2043 0aeb 20       		.byte	0x20
 2044 0aec 0C       		.byte	0xc
 2045 0aed 40       		.byte	0x40
 2046 0aee 530B0000 		.4byte	0xb53
 2047 0af2 14       		.uleb128 0x14
 2048 0af3 A7080000 		.4byte	.LASF153
 2049 0af7 0C       		.byte	0xc
 2050 0af8 41       		.byte	0x41
 2051 0af9 5D090000 		.4byte	0x95d
 2052 0afd 00       		.byte	0
 2053 0afe 14       		.uleb128 0x14
 2054 0aff B8040000 		.4byte	.LASF154
 2055 0b03 0C       		.byte	0xc
 2056 0b04 42       		.byte	0x42
 2057 0b05 D60A0000 		.4byte	0xad6
 2058 0b09 04       		.byte	0x4
 2059 0b0a 14       		.uleb128 0x14
 2060 0b0b BD070000 		.4byte	.LASF155
 2061 0b0f 0C       		.byte	0xc
 2062 0b10 43       		.byte	0x43
 2063 0b11 E8090000 		.4byte	0x9e8
 2064 0b15 08       		.byte	0x8
 2065 0b16 14       		.uleb128 0x14
 2066 0b17 04010000 		.4byte	.LASF156
 2067 0b1b 0C       		.byte	0xc
 2068 0b1c 44       		.byte	0x44
 2069 0b1d E8090000 		.4byte	0x9e8
 2070 0b21 0C       		.byte	0xc
 2071 0b22 14       		.uleb128 0x14
 2072 0b23 34050000 		.4byte	.LASF157
 2073 0b27 0C       		.byte	0xc
 2074 0b28 46       		.byte	0x46
 2075 0b29 E8090000 		.4byte	0x9e8
 2076 0b2d 10       		.byte	0x10
 2077 0b2e 14       		.uleb128 0x14
 2078 0b2f 3A010000 		.4byte	.LASF158
 2079 0b33 0C       		.byte	0xc
 2080 0b34 47       		.byte	0x47
 2081 0b35 E8090000 		.4byte	0x9e8
 2082 0b39 14       		.byte	0x14
 2083 0b3a 14       		.uleb128 0x14
 2084 0b3b 28010000 		.4byte	.LASF159
 2085 0b3f 0C       		.byte	0xc
 2086 0b40 48       		.byte	0x48
 2087 0b41 530B0000 		.4byte	0xb53
 2088 0b45 18       		.byte	0x18
 2089 0b46 14       		.uleb128 0x14
ARM GAS  /tmp/cczMqacF.s 			page 38


 2090 0b47 3B030000 		.4byte	.LASF160
 2091 0b4b 0C       		.byte	0xc
 2092 0b4c 49       		.byte	0x49
 2093 0b4d B7060000 		.4byte	0x6b7
 2094 0b51 1C       		.byte	0x1c
 2095 0b52 00       		.byte	0
 2096 0b53 03       		.uleb128 0x3
 2097 0b54 90060000 		.4byte	.LASF161
 2098 0b58 0C       		.byte	0xc
 2099 0b59 36       		.byte	0x36
 2100 0b5a 5E0B0000 		.4byte	0xb5e
 2101 0b5e 18       		.uleb128 0x18
 2102 0b5f 04       		.byte	0x4
 2103 0b60 640B0000 		.4byte	0xb64
 2104 0b64 19       		.uleb128 0x19
 2105 0b65 6F0B0000 		.4byte	0xb6f
 2106 0b69 1A       		.uleb128 0x1a
 2107 0b6a 6F0B0000 		.4byte	0xb6f
 2108 0b6e 00       		.byte	0
 2109 0b6f 18       		.uleb128 0x18
 2110 0b70 04       		.byte	0x4
 2111 0b71 DB0A0000 		.4byte	0xadb
 2112 0b75 03       		.uleb128 0x3
 2113 0b76 510A0000 		.4byte	.LASF162
 2114 0b7a 0C       		.byte	0xc
 2115 0b7b 7F       		.byte	0x7f
 2116 0b7c DB0A0000 		.4byte	0xadb
 2117 0b80 03       		.uleb128 0x3
 2118 0b81 B00A0000 		.4byte	.LASF163
 2119 0b85 0C       		.byte	0xc
 2120 0b86 CF       		.byte	0xcf
 2121 0b87 DB0A0000 		.4byte	0xadb
 2122 0b8b 1F       		.uleb128 0x1f
 2123 0b8c 04       		.byte	0x4
 2124 0b8d 0D       		.byte	0xd
 2125 0b8e 46       		.byte	0x46
 2126 0b8f B80B0000 		.4byte	0xbb8
 2127 0b93 09       		.uleb128 0x9
 2128 0b94 4D030000 		.4byte	.LASF164
 2129 0b98 00       		.sleb128 0
 2130 0b99 09       		.uleb128 0x9
 2131 0b9a EF080000 		.4byte	.LASF165
 2132 0b9e 01       		.sleb128 1
 2133 0b9f 09       		.uleb128 0x9
 2134 0ba0 62030000 		.4byte	.LASF166
 2135 0ba4 02       		.sleb128 2
 2136 0ba5 09       		.uleb128 0x9
 2137 0ba6 9F070000 		.4byte	.LASF167
 2138 0baa 03       		.sleb128 3
 2139 0bab 09       		.uleb128 0x9
 2140 0bac 92050000 		.4byte	.LASF168
 2141 0bb0 04       		.sleb128 4
 2142 0bb1 09       		.uleb128 0x9
 2143 0bb2 BB030000 		.4byte	.LASF169
 2144 0bb6 05       		.sleb128 5
 2145 0bb7 00       		.byte	0
 2146 0bb8 03       		.uleb128 0x3
ARM GAS  /tmp/cczMqacF.s 			page 39


 2147 0bb9 80000000 		.4byte	.LASF170
 2148 0bbd 0D       		.byte	0xd
 2149 0bbe 4D       		.byte	0x4d
 2150 0bbf 8B0B0000 		.4byte	0xb8b
 2151 0bc3 03       		.uleb128 0x3
 2152 0bc4 8C030000 		.4byte	.LASF171
 2153 0bc8 0E       		.byte	0xe
 2154 0bc9 B8       		.byte	0xb8
 2155 0bca 86000000 		.4byte	0x86
 2156 0bce 03       		.uleb128 0x3
 2157 0bcf D5060000 		.4byte	.LASF172
 2158 0bd3 0E       		.byte	0xe
 2159 0bd4 BD       		.byte	0xbd
 2160 0bd5 86000000 		.4byte	0x86
 2161 0bd9 1F       		.uleb128 0x1f
 2162 0bda 04       		.byte	0x4
 2163 0bdb 0E       		.byte	0xe
 2164 0bdc C4       		.byte	0xc4
 2165 0bdd EE0B0000 		.4byte	0xbee
 2166 0be1 09       		.uleb128 0x9
 2167 0be2 8B000000 		.4byte	.LASF173
 2168 0be6 00       		.sleb128 0
 2169 0be7 09       		.uleb128 0x9
 2170 0be8 4B080000 		.4byte	.LASF174
 2171 0bec 01       		.sleb128 1
 2172 0bed 00       		.byte	0
 2173 0bee 03       		.uleb128 0x3
 2174 0bef 42030000 		.4byte	.LASF175
 2175 0bf3 0E       		.byte	0xe
 2176 0bf4 C7       		.byte	0xc7
 2177 0bf5 D90B0000 		.4byte	0xbd9
 2178 0bf9 03       		.uleb128 0x3
 2179 0bfa 1B080000 		.4byte	.LASF176
 2180 0bfe 0E       		.byte	0xe
 2181 0bff CC       		.byte	0xcc
 2182 0c00 040C0000 		.4byte	0xc04
 2183 0c04 05       		.uleb128 0x5
 2184 0c05 1B080000 		.4byte	.LASF176
 2185 0c09 24       		.byte	0x24
 2186 0c0a 0E       		.byte	0xe
 2187 0c0b 1401     		.2byte	0x114
 2188 0c0d 870C0000 		.4byte	0xc87
 2189 0c11 06       		.uleb128 0x6
 2190 0c12 C5000000 		.4byte	.LASF17
 2191 0c16 0E       		.byte	0xe
 2192 0c17 1801     		.2byte	0x118
 2193 0c19 B80B0000 		.4byte	0xbb8
 2194 0c1d 00       		.byte	0
 2195 0c1e 06       		.uleb128 0x6
 2196 0c1f BE000000 		.4byte	.LASF177
 2197 0c23 0E       		.byte	0xe
 2198 0c24 1C01     		.2byte	0x11c
 2199 0c26 680D0000 		.4byte	0xd68
 2200 0c2a 04       		.byte	0x4
 2201 0c2b 06       		.uleb128 0x6
 2202 0c2c 39090000 		.4byte	.LASF178
 2203 0c30 0E       		.byte	0xe
ARM GAS  /tmp/cczMqacF.s 			page 40


 2204 0c31 2001     		.2byte	0x120
 2205 0c33 B30C0000 		.4byte	0xcb3
 2206 0c37 08       		.byte	0x8
 2207 0c38 06       		.uleb128 0x6
 2208 0c39 E6030000 		.4byte	.LASF179
 2209 0c3d 0E       		.byte	0xe
 2210 0c3e 2401     		.2byte	0x124
 2211 0c40 2C000000 		.4byte	0x2c
 2212 0c44 0C       		.byte	0xc
 2213 0c45 06       		.uleb128 0x6
 2214 0c46 34090000 		.4byte	.LASF180
 2215 0c4a 0E       		.byte	0xe
 2216 0c4b 2801     		.2byte	0x128
 2217 0c4d 730D0000 		.4byte	0xd73
 2218 0c51 10       		.byte	0x10
 2219 0c52 07       		.uleb128 0x7
 2220 0c53 61646300 		.ascii	"adc\000"
 2221 0c57 0E       		.byte	0xe
 2222 0c58 3C01     		.2byte	0x13c
 2223 0c5a 7E0D0000 		.4byte	0xd7e
 2224 0c5e 14       		.byte	0x14
 2225 0c5f 06       		.uleb128 0x6
 2226 0c60 E2050000 		.4byte	.LASF181
 2227 0c64 0E       		.byte	0xe
 2228 0c65 4001     		.2byte	0x140
 2229 0c67 2C000000 		.4byte	0x2c
 2230 0c6b 18       		.byte	0x18
 2231 0c6c 06       		.uleb128 0x6
 2232 0c6d F6030000 		.4byte	.LASF182
 2233 0c71 0E       		.byte	0xe
 2234 0c72 4401     		.2byte	0x144
 2235 0c74 2C000000 		.4byte	0x2c
 2236 0c78 1C       		.byte	0x1c
 2237 0c79 06       		.uleb128 0x6
 2238 0c7a 7D090000 		.4byte	.LASF183
 2239 0c7e 0E       		.byte	0xe
 2240 0c7f 4801     		.2byte	0x148
 2241 0c81 2C000000 		.4byte	0x2c
 2242 0c85 20       		.byte	0x20
 2243 0c86 00       		.byte	0
 2244 0c87 03       		.uleb128 0x3
 2245 0c88 3F000000 		.4byte	.LASF184
 2246 0c8c 0E       		.byte	0xe
 2247 0c8d D6       		.byte	0xd6
 2248 0c8e 920C0000 		.4byte	0xc92
 2249 0c92 18       		.uleb128 0x18
 2250 0c93 04       		.byte	0x4
 2251 0c94 980C0000 		.4byte	0xc98
 2252 0c98 19       		.uleb128 0x19
 2253 0c99 AD0C0000 		.4byte	0xcad
 2254 0c9d 1A       		.uleb128 0x1a
 2255 0c9e AD0C0000 		.4byte	0xcad
 2256 0ca2 1A       		.uleb128 0x1a
 2257 0ca3 B30C0000 		.4byte	0xcb3
 2258 0ca7 1A       		.uleb128 0x1a
 2259 0ca8 2C000000 		.4byte	0x2c
 2260 0cac 00       		.byte	0
ARM GAS  /tmp/cczMqacF.s 			page 41


 2261 0cad 18       		.uleb128 0x18
 2262 0cae 04       		.byte	0x4
 2263 0caf F90B0000 		.4byte	0xbf9
 2264 0cb3 18       		.uleb128 0x18
 2265 0cb4 04       		.byte	0x4
 2266 0cb5 C30B0000 		.4byte	0xbc3
 2267 0cb9 03       		.uleb128 0x3
 2268 0cba F4050000 		.4byte	.LASF185
 2269 0cbe 0E       		.byte	0xe
 2270 0cbf DF       		.byte	0xdf
 2271 0cc0 C40C0000 		.4byte	0xcc4
 2272 0cc4 18       		.uleb128 0x18
 2273 0cc5 04       		.byte	0x4
 2274 0cc6 CA0C0000 		.4byte	0xcca
 2275 0cca 19       		.uleb128 0x19
 2276 0ccb DA0C0000 		.4byte	0xcda
 2277 0ccf 1A       		.uleb128 0x1a
 2278 0cd0 AD0C0000 		.4byte	0xcad
 2279 0cd4 1A       		.uleb128 0x1a
 2280 0cd5 EE0B0000 		.4byte	0xbee
 2281 0cd9 00       		.byte	0
 2282 0cda 13       		.uleb128 0x13
 2283 0cdb 18       		.byte	0x18
 2284 0cdc 0E       		.byte	0xe
 2285 0cdd E6       		.byte	0xe6
 2286 0cde 390D0000 		.4byte	0xd39
 2287 0ce2 14       		.uleb128 0x14
 2288 0ce3 04040000 		.4byte	.LASF186
 2289 0ce7 0E       		.byte	0xe
 2290 0ce8 EA       		.byte	0xea
 2291 0ce9 CF0A0000 		.4byte	0xacf
 2292 0ced 00       		.byte	0
 2293 0cee 14       		.uleb128 0x14
 2294 0cef F3060000 		.4byte	.LASF187
 2295 0cf3 0E       		.byte	0xe
 2296 0cf4 EE       		.byte	0xee
 2297 0cf5 CE0B0000 		.4byte	0xbce
 2298 0cf9 02       		.byte	0x2
 2299 0cfa 14       		.uleb128 0x14
 2300 0cfb FD000000 		.4byte	.LASF188
 2301 0cff 0E       		.byte	0xe
 2302 0d00 F2       		.byte	0xf2
 2303 0d01 870C0000 		.4byte	0xc87
 2304 0d05 04       		.byte	0x4
 2305 0d06 14       		.uleb128 0x14
 2306 0d07 EA000000 		.4byte	.LASF189
 2307 0d0b 0E       		.byte	0xe
 2308 0d0c F6       		.byte	0xf6
 2309 0d0d B90C0000 		.4byte	0xcb9
 2310 0d11 08       		.byte	0x8
 2311 0d12 14       		.uleb128 0x14
 2312 0d13 3E080000 		.4byte	.LASF190
 2313 0d17 0E       		.byte	0xe
 2314 0d18 FB       		.byte	0xfb
 2315 0d19 98000000 		.4byte	0x98
 2316 0d1d 0C       		.byte	0xc
 2317 0d1e 06       		.uleb128 0x6
ARM GAS  /tmp/cczMqacF.s 			page 42


 2318 0d1f 57000000 		.4byte	.LASF191
 2319 0d23 0E       		.byte	0xe
 2320 0d24 0001     		.2byte	0x100
 2321 0d26 98000000 		.4byte	0x98
 2322 0d2a 10       		.byte	0x10
 2323 0d2b 07       		.uleb128 0x7
 2324 0d2c 73633300 		.ascii	"sc3\000"
 2325 0d30 0E       		.byte	0xe
 2326 0d31 0501     		.2byte	0x105
 2327 0d33 98000000 		.4byte	0x98
 2328 0d37 14       		.byte	0x14
 2329 0d38 00       		.byte	0
 2330 0d39 10       		.uleb128 0x10
 2331 0d3a 7F050000 		.4byte	.LASF192
 2332 0d3e 0E       		.byte	0xe
 2333 0d3f 0601     		.2byte	0x106
 2334 0d41 DA0C0000 		.4byte	0xcda
 2335 0d45 11       		.uleb128 0x11
 2336 0d46 01       		.byte	0x1
 2337 0d47 0E       		.byte	0xe
 2338 0d48 0C01     		.2byte	0x10c
 2339 0d4a 5C0D0000 		.4byte	0xd5c
 2340 0d4e 06       		.uleb128 0x6
 2341 0d4f 35000000 		.4byte	.LASF193
 2342 0d53 0E       		.byte	0xe
 2343 0d54 0E01     		.2byte	0x10e
 2344 0d56 CF0A0000 		.4byte	0xacf
 2345 0d5a 00       		.byte	0
 2346 0d5b 00       		.byte	0
 2347 0d5c 10       		.uleb128 0x10
 2348 0d5d 3B0B0000 		.4byte	.LASF194
 2349 0d61 0E       		.byte	0xe
 2350 0d62 0F01     		.2byte	0x10f
 2351 0d64 450D0000 		.4byte	0xd45
 2352 0d68 18       		.uleb128 0x18
 2353 0d69 04       		.byte	0x4
 2354 0d6a 6E0D0000 		.4byte	0xd6e
 2355 0d6e 12       		.uleb128 0x12
 2356 0d6f 5C0D0000 		.4byte	0xd5c
 2357 0d73 18       		.uleb128 0x18
 2358 0d74 04       		.byte	0x4
 2359 0d75 790D0000 		.4byte	0xd79
 2360 0d79 12       		.uleb128 0x12
 2361 0d7a 390D0000 		.4byte	0xd39
 2362 0d7e 18       		.uleb128 0x18
 2363 0d7f 04       		.byte	0x4
 2364 0d80 9A050000 		.4byte	0x59a
 2365 0d84 1F       		.uleb128 0x1f
 2366 0d85 04       		.byte	0x4
 2367 0d86 0F       		.byte	0xf
 2368 0d87 55       		.byte	0x55
 2369 0d88 9F0D0000 		.4byte	0xd9f
 2370 0d8c 09       		.uleb128 0x9
 2371 0d8d 58030000 		.4byte	.LASF195
 2372 0d91 00       		.sleb128 0
 2373 0d92 09       		.uleb128 0x9
 2374 0d93 CB0A0000 		.4byte	.LASF196
ARM GAS  /tmp/cczMqacF.s 			page 43


 2375 0d97 01       		.sleb128 1
 2376 0d98 09       		.uleb128 0x9
 2377 0d99 18090000 		.4byte	.LASF197
 2378 0d9d 02       		.sleb128 2
 2379 0d9e 00       		.byte	0
 2380 0d9f 03       		.uleb128 0x3
 2381 0da0 AF060000 		.4byte	.LASF198
 2382 0da4 0F       		.byte	0xf
 2383 0da5 59       		.byte	0x59
 2384 0da6 840D0000 		.4byte	0xd84
 2385 0daa 03       		.uleb128 0x3
 2386 0dab 7A080000 		.4byte	.LASF199
 2387 0daf 0F       		.byte	0xf
 2388 0db0 5E       		.byte	0x5e
 2389 0db1 B50D0000 		.4byte	0xdb5
 2390 0db5 17       		.uleb128 0x17
 2391 0db6 7A080000 		.4byte	.LASF199
 2392 0dba 78       		.byte	0x78
 2393 0dbb 0F       		.byte	0xf
 2394 0dbc 78       		.byte	0x78
 2395 0dbd 200E0000 		.4byte	0xe20
 2396 0dc1 15       		.uleb128 0x15
 2397 0dc2 766D7400 		.ascii	"vmt\000"
 2398 0dc6 0F       		.byte	0xf
 2399 0dc7 7A       		.byte	0x7a
 2400 0dc8 AD0E0000 		.4byte	0xead
 2401 0dcc 00       		.byte	0
 2402 0dcd 14       		.uleb128 0x14
 2403 0dce A4060000 		.4byte	.LASF200
 2404 0dd2 0F       		.byte	0xf
 2405 0dd3 7B       		.byte	0x7b
 2406 0dd4 DB080000 		.4byte	0x8db
 2407 0dd8 04       		.byte	0x4
 2408 0dd9 14       		.uleb128 0x14
 2409 0dda C5000000 		.4byte	.LASF17
 2410 0dde 0F       		.byte	0xf
 2411 0ddf 7B       		.byte	0x7b
 2412 0de0 9F0D0000 		.4byte	0xd9f
 2413 0de4 10       		.byte	0x10
 2414 0de5 14       		.uleb128 0x14
 2415 0de6 9F090000 		.4byte	.LASF201
 2416 0dea 0F       		.byte	0xf
 2417 0deb 7B       		.byte	0x7b
 2418 0dec 750B0000 		.4byte	0xb75
 2419 0df0 14       		.byte	0x14
 2420 0df1 14       		.uleb128 0x14
 2421 0df2 80020000 		.4byte	.LASF202
 2422 0df6 0F       		.byte	0xf
 2423 0df7 7B       		.byte	0x7b
 2424 0df8 800B0000 		.4byte	0xb80
 2425 0dfc 34       		.byte	0x34
 2426 0dfd 15       		.uleb128 0x15
 2427 0dfe 696200   		.ascii	"ib\000"
 2428 0e01 0F       		.byte	0xf
 2429 0e02 7B       		.byte	0x7b
 2430 0e03 B80E0000 		.4byte	0xeb8
 2431 0e07 54       		.byte	0x54
ARM GAS  /tmp/cczMqacF.s 			page 44


 2432 0e08 15       		.uleb128 0x15
 2433 0e09 6F6200   		.ascii	"ob\000"
 2434 0e0c 0F       		.byte	0xf
 2435 0e0d 7B       		.byte	0x7b
 2436 0e0e B80E0000 		.4byte	0xeb8
 2437 0e12 64       		.byte	0x64
 2438 0e13 14       		.uleb128 0x14
 2439 0e14 92090000 		.4byte	.LASF203
 2440 0e18 0F       		.byte	0xf
 2441 0e19 7B       		.byte	0x7b
 2442 0e1a C80E0000 		.4byte	0xec8
 2443 0e1e 74       		.byte	0x74
 2444 0e1f 00       		.byte	0
 2445 0e20 13       		.uleb128 0x13
 2446 0e21 04       		.byte	0x4
 2447 0e22 10       		.byte	0x10
 2448 0e23 66       		.byte	0x66
 2449 0e24 350E0000 		.4byte	0xe35
 2450 0e28 14       		.uleb128 0x14
 2451 0e29 0F070000 		.4byte	.LASF204
 2452 0e2d 10       		.byte	0x10
 2453 0e2e 6A       		.byte	0x6a
 2454 0e2f 98000000 		.4byte	0x98
 2455 0e33 00       		.byte	0
 2456 0e34 00       		.byte	0
 2457 0e35 03       		.uleb128 0x3
 2458 0e36 73000000 		.4byte	.LASF205
 2459 0e3a 10       		.byte	0x10
 2460 0e3b 6C       		.byte	0x6c
 2461 0e3c 200E0000 		.4byte	0xe20
 2462 0e40 17       		.uleb128 0x17
 2463 0e41 3C050000 		.4byte	.LASF206
 2464 0e45 20       		.byte	0x20
 2465 0e46 0F       		.byte	0xf
 2466 0e47 6D       		.byte	0x6d
 2467 0e48 AD0E0000 		.4byte	0xead
 2468 0e4c 14       		.uleb128 0x14
 2469 0e4d 9E000000 		.4byte	.LASF147
 2470 0e51 0F       		.byte	0xf
 2471 0e52 6E       		.byte	0x6e
 2472 0e53 C9090000 		.4byte	0x9c9
 2473 0e57 00       		.byte	0
 2474 0e58 14       		.uleb128 0x14
 2475 0e59 AA060000 		.4byte	.LASF148
 2476 0e5d 0F       		.byte	0xf
 2477 0e5e 6E       		.byte	0x6e
 2478 0e5f EE090000 		.4byte	0x9ee
 2479 0e63 04       		.byte	0x4
 2480 0e64 15       		.uleb128 0x15
 2481 0e65 70757400 		.ascii	"put\000"
 2482 0e69 0F       		.byte	0xf
 2483 0e6a 6E       		.byte	0x6e
 2484 0e6b 080A0000 		.4byte	0xa08
 2485 0e6f 08       		.byte	0x8
 2486 0e70 15       		.uleb128 0x15
 2487 0e71 67657400 		.ascii	"get\000"
 2488 0e75 0F       		.byte	0xf
ARM GAS  /tmp/cczMqacF.s 			page 45


 2489 0e76 6E       		.byte	0x6e
 2490 0e77 1D0A0000 		.4byte	0xa1d
 2491 0e7b 0C       		.byte	0xc
 2492 0e7c 14       		.uleb128 0x14
 2493 0e7d E0000000 		.4byte	.LASF207
 2494 0e81 0F       		.byte	0xf
 2495 0e82 6E       		.byte	0x6e
 2496 0e83 670A0000 		.4byte	0xa67
 2497 0e87 10       		.byte	0x10
 2498 0e88 14       		.uleb128 0x14
 2499 0e89 D6030000 		.4byte	.LASF208
 2500 0e8d 0F       		.byte	0xf
 2501 0e8e 6E       		.byte	0x6e
 2502 0e8f 810A0000 		.4byte	0xa81
 2503 0e93 14       		.byte	0x14
 2504 0e94 14       		.uleb128 0x14
 2505 0e95 F2020000 		.4byte	.LASF209
 2506 0e99 0F       		.byte	0xf
 2507 0e9a 6E       		.byte	0x6e
 2508 0e9b A50A0000 		.4byte	0xaa5
 2509 0e9f 18       		.byte	0x18
 2510 0ea0 14       		.uleb128 0x14
 2511 0ea1 1C010000 		.4byte	.LASF210
 2512 0ea5 0F       		.byte	0xf
 2513 0ea6 6E       		.byte	0x6e
 2514 0ea7 C90A0000 		.4byte	0xac9
 2515 0eab 1C       		.byte	0x1c
 2516 0eac 00       		.byte	0
 2517 0ead 18       		.uleb128 0x18
 2518 0eae 04       		.byte	0x4
 2519 0eaf B30E0000 		.4byte	0xeb3
 2520 0eb3 12       		.uleb128 0x12
 2521 0eb4 400E0000 		.4byte	0xe40
 2522 0eb8 0D       		.uleb128 0xd
 2523 0eb9 74000000 		.4byte	0x74
 2524 0ebd C80E0000 		.4byte	0xec8
 2525 0ec1 0E       		.uleb128 0xe
 2526 0ec2 F0020000 		.4byte	0x2f0
 2527 0ec6 0F       		.byte	0xf
 2528 0ec7 00       		.byte	0
 2529 0ec8 18       		.uleb128 0x18
 2530 0ec9 04       		.byte	0x4
 2531 0eca A0060000 		.4byte	0x6a0
 2532 0ece 03       		.uleb128 0x3
 2533 0ecf 9F050000 		.4byte	.LASF211
 2534 0ed3 11       		.byte	0x11
 2535 0ed4 1D       		.byte	0x1d
 2536 0ed5 D90E0000 		.4byte	0xed9
 2537 0ed9 18       		.uleb128 0x18
 2538 0eda 04       		.byte	0x4
 2539 0edb DF0E0000 		.4byte	0xedf
 2540 0edf 19       		.uleb128 0x19
 2541 0ee0 EA0E0000 		.4byte	0xeea
 2542 0ee4 1A       		.uleb128 0x1a
 2543 0ee5 25000000 		.4byte	0x25
 2544 0ee9 00       		.byte	0
 2545 0eea 04       		.uleb128 0x4
ARM GAS  /tmp/cczMqacF.s 			page 46


 2546 0eeb 04       		.byte	0x4
 2547 0eec 07       		.byte	0x7
 2548 0eed D6040000 		.4byte	.LASF212
 2549 0ef1 04       		.uleb128 0x4
 2550 0ef2 04       		.byte	0x4
 2551 0ef3 05       		.byte	0x5
 2552 0ef4 31010000 		.4byte	.LASF213
 2553 0ef8 18       		.uleb128 0x18
 2554 0ef9 04       		.byte	0x4
 2555 0efa F7070000 		.4byte	0x7f7
 2556 0efe 20       		.uleb128 0x20
 2557 0eff 400A0000 		.4byte	.LASF220
 2558 0f03 02       		.byte	0x2
 2559 0f04 EE02     		.2byte	0x2ee
 2560 0f06 03       		.byte	0x3
 2561 0f07 240F0000 		.4byte	0xf24
 2562 0f0b 21       		.uleb128 0x21
 2563 0f0c 7B020000 		.4byte	.LASF214
 2564 0f10 02       		.byte	0x2
 2565 0f11 EE02     		.2byte	0x2ee
 2566 0f13 43020000 		.4byte	0x243
 2567 0f17 21       		.uleb128 0x21
 2568 0f18 74090000 		.4byte	.LASF215
 2569 0f1c 02       		.byte	0x2
 2570 0f1d EE02     		.2byte	0x2ee
 2571 0f1f 98000000 		.4byte	0x98
 2572 0f23 00       		.byte	0
 2573 0f24 22       		.uleb128 0x22
 2574 0f25 FD080000 		.4byte	.LASF260
 2575 0f29 01       		.byte	0x1
 2576 0f2a AB       		.byte	0xab
 2577 0f2b 2C000000 		.4byte	0x2c
 2578 0f2f 01       		.byte	0x1
 2579 0f30 610F0000 		.4byte	0xf61
 2580 0f34 23       		.uleb128 0x23
 2581 0f35 B0040000 		.4byte	.LASF216
 2582 0f39 01       		.byte	0x1
 2583 0f3a AC       		.byte	0xac
 2584 0f3b E8090000 		.4byte	0x9e8
 2585 0f3f 23       		.uleb128 0x23
 2586 0f40 7B030000 		.4byte	.LASF217
 2587 0f44 01       		.byte	0x1
 2588 0f45 AD       		.byte	0xad
 2589 0f46 E8090000 		.4byte	0x9e8
 2590 0f4a 24       		.uleb128 0x24
 2591 0f4b 85070000 		.4byte	.LASF218
 2592 0f4f 01       		.byte	0x1
 2593 0f50 AE       		.byte	0xae
 2594 0f51 610F0000 		.4byte	0xf61
 2595 0f55 24       		.uleb128 0x24
 2596 0f56 54050000 		.4byte	.LASF219
 2597 0f5a 01       		.byte	0x1
 2598 0f5b AF       		.byte	0xaf
 2599 0f5c 610F0000 		.4byte	0xf61
 2600 0f60 00       		.byte	0
 2601 0f61 0D       		.uleb128 0xd
 2602 0f62 74000000 		.4byte	0x74
ARM GAS  /tmp/cczMqacF.s 			page 47


 2603 0f66 6C0F0000 		.4byte	0xf6c
 2604 0f6a 25       		.uleb128 0x25
 2605 0f6b 00       		.byte	0
 2606 0f6c 20       		.uleb128 0x20
 2607 0f6d F3070000 		.4byte	.LASF221
 2608 0f71 02       		.byte	0x2
 2609 0f72 B702     		.2byte	0x2b7
 2610 0f74 03       		.byte	0x3
 2611 0f75 860F0000 		.4byte	0xf86
 2612 0f79 21       		.uleb128 0x21
 2613 0f7a 7B020000 		.4byte	.LASF214
 2614 0f7e 02       		.byte	0x2
 2615 0f7f B702     		.2byte	0x2b7
 2616 0f81 43020000 		.4byte	0x243
 2617 0f85 00       		.byte	0
 2618 0f86 26       		.uleb128 0x26
 2619 0f87 54040000 		.4byte	.LASF225
 2620 0f8b 01       		.byte	0x1
 2621 0f8c BB       		.byte	0xbb
 2622 0f8d 00000000 		.4byte	.LFB107
 2623 0f91 20000000 		.4byte	.LFE107-.LFB107
 2624 0f95 01       		.uleb128 0x1
 2625 0f96 9C       		.byte	0x9c
 2626 0f97 CC0F0000 		.4byte	0xfcc
 2627 0f9b 27       		.uleb128 0x27
 2628 0f9c 43060000 		.4byte	.LASF222
 2629 0fa0 01       		.byte	0x1
 2630 0fa1 BB       		.byte	0xbb
 2631 0fa2 B7060000 		.4byte	0x6b7
 2632 0fa6 00000000 		.4byte	.LLST0
 2633 0faa 28       		.uleb128 0x28
 2634 0fab 6300     		.ascii	"c\000"
 2635 0fad 01       		.byte	0x1
 2636 0fae BB       		.byte	0xbb
 2637 0faf F7070000 		.4byte	0x7f7
 2638 0fb3 21000000 		.4byte	.LLST1
 2639 0fb7 29       		.uleb128 0x29
 2640 0fb8 16000000 		.4byte	.LVL3
 2641 0fbc 02       		.uleb128 0x2
 2642 0fbd 74       		.byte	0x74
 2643 0fbe 00       		.sleb128 0
 2644 0fbf 2A       		.uleb128 0x2a
 2645 0fc0 01       		.uleb128 0x1
 2646 0fc1 52       		.byte	0x52
 2647 0fc2 01       		.uleb128 0x1
 2648 0fc3 31       		.byte	0x31
 2649 0fc4 2A       		.uleb128 0x2a
 2650 0fc5 01       		.uleb128 0x1
 2651 0fc6 51       		.byte	0x51
 2652 0fc7 02       		.uleb128 0x2
 2653 0fc8 7D       		.byte	0x7d
 2654 0fc9 07       		.sleb128 7
 2655 0fca 00       		.byte	0
 2656 0fcb 00       		.byte	0
 2657 0fcc 2B       		.uleb128 0x2b
 2658 0fcd 1A060000 		.4byte	.LASF223
 2659 0fd1 01       		.byte	0x1
ARM GAS  /tmp/cczMqacF.s 			page 48


 2660 0fd2 33       		.byte	0x33
 2661 0fd3 01       		.byte	0x1
 2662 0fd4 E40F0000 		.4byte	0xfe4
 2663 0fd8 23       		.uleb128 0x23
 2664 0fd9 C2050000 		.4byte	.LASF224
 2665 0fdd 01       		.byte	0x1
 2666 0fde 34       		.byte	0x34
 2667 0fdf 25000000 		.4byte	0x25
 2668 0fe3 00       		.byte	0
 2669 0fe4 2C       		.uleb128 0x2c
 2670 0fe5 7D060000 		.4byte	.LASF261
 2671 0fe9 01       		.byte	0x1
 2672 0fea 45       		.byte	0x45
 2673 0feb 00000000 		.4byte	.LFB105
 2674 0fef 04010000 		.4byte	.LFE105-.LFB105
 2675 0ff3 01       		.uleb128 0x1
 2676 0ff4 9C       		.byte	0x9c
 2677 0ff5 6C100000 		.4byte	0x106c
 2678 0ff9 2D       		.uleb128 0x2d
 2679 0ffa 6900     		.ascii	"i\000"
 2680 0ffc 01       		.byte	0x1
 2681 0ffd 46       		.byte	0x46
 2682 0ffe 98000000 		.4byte	0x98
 2683 1002 58000000 		.4byte	.LLST2
 2684 1006 2E       		.uleb128 0x2e
 2685 1007 CC0F0000 		.4byte	0xfcc
 2686 100b 6A000000 		.4byte	.LBB14
 2687 100f 1E000000 		.4byte	.LBE14-.LBB14
 2688 1013 01       		.byte	0x1
 2689 1014 56       		.byte	0x56
 2690 1015 48100000 		.4byte	0x1048
 2691 1019 2F       		.uleb128 0x2f
 2692 101a 6A000000 		.4byte	.LBB15
 2693 101e 1E000000 		.4byte	.LBE15-.LBB15
 2694 1022 30       		.uleb128 0x30
 2695 1023 D80F0000 		.4byte	0xfd8
 2696 1027 82000000 		.4byte	.LLST3
 2697 102b 31       		.uleb128 0x31
 2698 102c 76000000 		.4byte	.LVL10
 2699 1030 76140000 		.4byte	0x1476
 2700 1034 2A       		.uleb128 0x2a
 2701 1035 01       		.uleb128 0x1
 2702 1036 52       		.byte	0x52
 2703 1037 02       		.uleb128 0x2
 2704 1038 76       		.byte	0x76
 2705 1039 00       		.sleb128 0
 2706 103a 2A       		.uleb128 0x2a
 2707 103b 01       		.uleb128 0x1
 2708 103c 51       		.byte	0x51
 2709 103d 01       		.uleb128 0x1
 2710 103e 38       		.byte	0x38
 2711 103f 2A       		.uleb128 0x2a
 2712 1040 01       		.uleb128 0x1
 2713 1041 50       		.byte	0x50
 2714 1042 02       		.uleb128 0x2
 2715 1043 77       		.byte	0x77
 2716 1044 70       		.sleb128 -16
ARM GAS  /tmp/cczMqacF.s 			page 49


 2717 1045 00       		.byte	0
 2718 1046 00       		.byte	0
 2719 1047 00       		.byte	0
 2720 1048 32       		.uleb128 0x32
 2721 1049 18000000 		.4byte	.LVL5
 2722 104d 97140000 		.4byte	0x1497
 2723 1051 5B100000 		.4byte	0x105b
 2724 1055 2A       		.uleb128 0x2a
 2725 1056 01       		.uleb128 0x1
 2726 1057 50       		.byte	0x50
 2727 1058 01       		.uleb128 0x1
 2728 1059 3B       		.byte	0x3b
 2729 105a 00       		.byte	0
 2730 105b 31       		.uleb128 0x31
 2731 105c CE000000 		.4byte	.LVL16
 2732 1060 A8140000 		.4byte	0x14a8
 2733 1064 2A       		.uleb128 0x2a
 2734 1065 01       		.uleb128 0x1
 2735 1066 50       		.byte	0x50
 2736 1067 02       		.uleb128 0x2
 2737 1068 79       		.byte	0x79
 2738 1069 00       		.sleb128 0
 2739 106a 00       		.byte	0
 2740 106b 00       		.byte	0
 2741 106c 26       		.uleb128 0x26
 2742 106d AC050000 		.4byte	.LASF226
 2743 1071 01       		.byte	0x1
 2744 1072 C6       		.byte	0xc6
 2745 1073 00000000 		.4byte	.LFB108
 2746 1077 24010000 		.4byte	.LFE108-.LFB108
 2747 107b 01       		.uleb128 0x1
 2748 107c 9C       		.byte	0x9c
 2749 107d D1120000 		.4byte	0x12d1
 2750 1081 28       		.uleb128 0x28
 2751 1082 61726700 		.ascii	"arg\000"
 2752 1086 01       		.byte	0x1
 2753 1087 C6       		.byte	0xc6
 2754 1088 B7060000 		.4byte	0x6b7
 2755 108c 96000000 		.4byte	.LLST4
 2756 1090 2E       		.uleb128 0x2e
 2757 1091 240F0000 		.4byte	0xf24
 2758 1095 3E000000 		.4byte	.LBB46
 2759 1099 10000000 		.4byte	.LBE46-.LBB46
 2760 109d 01       		.byte	0x1
 2761 109e D7       		.byte	0xd7
 2762 109f C2100000 		.4byte	0x10c2
 2763 10a3 2F       		.uleb128 0x2f
 2764 10a4 3E000000 		.4byte	.LBB47
 2765 10a8 10000000 		.4byte	.LBE47-.LBB47
 2766 10ac 33       		.uleb128 0x33
 2767 10ad 340F0000 		.4byte	0xf34
 2768 10b1 33       		.uleb128 0x33
 2769 10b2 3F0F0000 		.4byte	0xf3f
 2770 10b6 34       		.uleb128 0x34
 2771 10b7 4A0F0000 		.4byte	0xf4a
 2772 10bb 34       		.uleb128 0x34
 2773 10bc 550F0000 		.4byte	0xf55
ARM GAS  /tmp/cczMqacF.s 			page 50


 2774 10c0 00       		.byte	0
 2775 10c1 00       		.byte	0
 2776 10c2 35       		.uleb128 0x35
 2777 10c3 FE0E0000 		.4byte	0xefe
 2778 10c7 6E000000 		.4byte	.LBB48
 2779 10cb 00000000 		.4byte	.Ldebug_ranges0+0
 2780 10cf 01       		.byte	0x1
 2781 10d0 0201     		.2byte	0x102
 2782 10d2 E3100000 		.4byte	0x10e3
 2783 10d6 36       		.uleb128 0x36
 2784 10d7 170F0000 		.4byte	0xf17
 2785 10db 00       		.byte	0
 2786 10dc 36       		.uleb128 0x36
 2787 10dd 0B0F0000 		.4byte	0xf0b
 2788 10e1 0F       		.byte	0xf
 2789 10e2 00       		.byte	0
 2790 10e3 35       		.uleb128 0x35
 2791 10e4 FE0E0000 		.4byte	0xefe
 2792 10e8 70000000 		.4byte	.LBB51
 2793 10ec 18000000 		.4byte	.Ldebug_ranges0+0x18
 2794 10f0 01       		.byte	0x1
 2795 10f1 0301     		.2byte	0x103
 2796 10f3 04110000 		.4byte	0x1104
 2797 10f7 36       		.uleb128 0x36
 2798 10f8 170F0000 		.4byte	0xf17
 2799 10fc 03       		.byte	0x3
 2800 10fd 36       		.uleb128 0x36
 2801 10fe 0B0F0000 		.4byte	0xf0b
 2802 1102 0C       		.byte	0xc
 2803 1103 00       		.byte	0
 2804 1104 35       		.uleb128 0x35
 2805 1105 6C0F0000 		.4byte	0xf6c
 2806 1109 98000000 		.4byte	.LBB56
 2807 110d 30000000 		.4byte	.Ldebug_ranges0+0x30
 2808 1111 01       		.byte	0x1
 2809 1112 0901     		.2byte	0x109
 2810 1114 1F110000 		.4byte	0x111f
 2811 1118 37       		.uleb128 0x37
 2812 1119 790F0000 		.4byte	0xf79
 2813 111d 7E       		.sleb128 -2
 2814 111e 00       		.byte	0
 2815 111f 35       		.uleb128 0x35
 2816 1120 6C0F0000 		.4byte	0xf6c
 2817 1124 9A000000 		.4byte	.LBB62
 2818 1128 60000000 		.4byte	.Ldebug_ranges0+0x60
 2819 112c 01       		.byte	0x1
 2820 112d 0A01     		.2byte	0x10a
 2821 112f 3A110000 		.4byte	0x113a
 2822 1133 37       		.uleb128 0x37
 2823 1134 790F0000 		.4byte	0xf79
 2824 1138 7F       		.sleb128 -1
 2825 1139 00       		.byte	0
 2826 113a 35       		.uleb128 0x35
 2827 113b FE0E0000 		.4byte	0xefe
 2828 113f 9E000000 		.4byte	.LBB67
 2829 1143 80000000 		.4byte	.Ldebug_ranges0+0x80
 2830 1147 01       		.byte	0x1
ARM GAS  /tmp/cczMqacF.s 			page 51


 2831 1148 0C01     		.2byte	0x10c
 2832 114a 6D110000 		.4byte	0x116d
 2833 114e 36       		.uleb128 0x36
 2834 114f 170F0000 		.4byte	0xf17
 2835 1153 03       		.byte	0x3
 2836 1154 37       		.uleb128 0x37
 2837 1155 0B0F0000 		.4byte	0xf0b
 2838 1159 7B       		.sleb128 -5
 2839 115a 38       		.uleb128 0x38
 2840 115b 80000000 		.4byte	.Ldebug_ranges0+0x80
 2841 115f 36       		.uleb128 0x36
 2842 1160 170F0000 		.4byte	0xf17
 2843 1164 03       		.byte	0x3
 2844 1165 37       		.uleb128 0x37
 2845 1166 0B0F0000 		.4byte	0xf0b
 2846 116a 7B       		.sleb128 -5
 2847 116b 00       		.byte	0
 2848 116c 00       		.byte	0
 2849 116d 39       		.uleb128 0x39
 2850 116e FE0E0000 		.4byte	0xefe
 2851 1172 BE000000 		.4byte	.LBB81
 2852 1176 0E000000 		.4byte	.LBE81-.LBB81
 2853 117a 01       		.byte	0x1
 2854 117b 0D01     		.2byte	0x10d
 2855 117d A4110000 		.4byte	0x11a4
 2856 1181 36       		.uleb128 0x36
 2857 1182 170F0000 		.4byte	0xf17
 2858 1186 03       		.byte	0x3
 2859 1187 37       		.uleb128 0x37
 2860 1188 0B0F0000 		.4byte	0xf0b
 2861 118c 7E       		.sleb128 -2
 2862 118d 2F       		.uleb128 0x2f
 2863 118e BE000000 		.4byte	.LBB82
 2864 1192 0E000000 		.4byte	.LBE82-.LBB82
 2865 1196 36       		.uleb128 0x36
 2866 1197 170F0000 		.4byte	0xf17
 2867 119b 03       		.byte	0x3
 2868 119c 37       		.uleb128 0x37
 2869 119d 0B0F0000 		.4byte	0xf0b
 2870 11a1 7E       		.sleb128 -2
 2871 11a2 00       		.byte	0
 2872 11a3 00       		.byte	0
 2873 11a4 39       		.uleb128 0x39
 2874 11a5 FE0E0000 		.4byte	0xefe
 2875 11a9 CC000000 		.4byte	.LBB84
 2876 11ad 0A000000 		.4byte	.LBE84-.LBB84
 2877 11b1 01       		.byte	0x1
 2878 11b2 0E01     		.2byte	0x10e
 2879 11b4 DB110000 		.4byte	0x11db
 2880 11b8 36       		.uleb128 0x36
 2881 11b9 170F0000 		.4byte	0xf17
 2882 11bd 03       		.byte	0x3
 2883 11be 37       		.uleb128 0x37
 2884 11bf 0B0F0000 		.4byte	0xf0b
 2885 11c3 7F       		.sleb128 -1
 2886 11c4 2F       		.uleb128 0x2f
 2887 11c5 CC000000 		.4byte	.LBB85
ARM GAS  /tmp/cczMqacF.s 			page 52


 2888 11c9 0A000000 		.4byte	.LBE85-.LBB85
 2889 11cd 36       		.uleb128 0x36
 2890 11ce 170F0000 		.4byte	0xf17
 2891 11d2 03       		.byte	0x3
 2892 11d3 37       		.uleb128 0x37
 2893 11d4 0B0F0000 		.4byte	0xf0b
 2894 11d8 7F       		.sleb128 -1
 2895 11d9 00       		.byte	0
 2896 11da 00       		.byte	0
 2897 11db 39       		.uleb128 0x39
 2898 11dc 6C0F0000 		.4byte	0xf6c
 2899 11e0 D6000000 		.4byte	.LBB87
 2900 11e4 02000000 		.4byte	.LBE87-.LBB87
 2901 11e8 01       		.byte	0x1
 2902 11e9 0F01     		.2byte	0x10f
 2903 11eb F6110000 		.4byte	0x11f6
 2904 11ef 37       		.uleb128 0x37
 2905 11f0 790F0000 		.4byte	0xf79
 2906 11f4 7E       		.sleb128 -2
 2907 11f5 00       		.byte	0
 2908 11f6 39       		.uleb128 0x39
 2909 11f7 6C0F0000 		.4byte	0xf6c
 2910 11fb D8000000 		.4byte	.LBB89
 2911 11ff 02000000 		.4byte	.LBE89-.LBB89
 2912 1203 01       		.byte	0x1
 2913 1204 1001     		.2byte	0x110
 2914 1206 11120000 		.4byte	0x1211
 2915 120a 37       		.uleb128 0x37
 2916 120b 790F0000 		.4byte	0xf79
 2917 120f 7F       		.sleb128 -1
 2918 1210 00       		.byte	0
 2919 1211 32       		.uleb128 0x32
 2920 1212 28000000 		.4byte	.LVL20
 2921 1216 BD140000 		.4byte	0x14bd
 2922 121a 2E120000 		.4byte	0x122e
 2923 121e 2A       		.uleb128 0x2a
 2924 121f 01       		.uleb128 0x1
 2925 1220 51       		.byte	0x51
 2926 1221 05       		.uleb128 0x5
 2927 1222 03       		.byte	0x3
 2928 1223 00000000 		.4byte	.LANCHOR3
 2929 1227 2A       		.uleb128 0x2a
 2930 1228 01       		.uleb128 0x1
 2931 1229 50       		.byte	0x50
 2932 122a 02       		.uleb128 0x2
 2933 122b 74       		.byte	0x74
 2934 122c 00       		.sleb128 0
 2935 122d 00       		.byte	0
 2936 122e 32       		.uleb128 0x32
 2937 122f 30000000 		.4byte	.LVL21
 2938 1233 E0140000 		.4byte	0x14e0
 2939 1237 4A120000 		.4byte	0x124a
 2940 123b 2A       		.uleb128 0x2a
 2941 123c 01       		.uleb128 0x1
 2942 123d 51       		.byte	0x51
 2943 123e 05       		.uleb128 0x5
 2944 123f 03       		.byte	0x3
ARM GAS  /tmp/cczMqacF.s 			page 53


 2945 1240 00000000 		.4byte	putc_x
 2946 1244 2A       		.uleb128 0x2a
 2947 1245 01       		.uleb128 0x1
 2948 1246 50       		.byte	0x50
 2949 1247 01       		.uleb128 0x1
 2950 1248 30       		.byte	0x30
 2951 1249 00       		.byte	0
 2952 124a 32       		.uleb128 0x32
 2953 124b 3E000000 		.4byte	.LVL22
 2954 124f 0C150000 		.4byte	0x150c
 2955 1253 61120000 		.4byte	0x1261
 2956 1257 2A       		.uleb128 0x2a
 2957 1258 01       		.uleb128 0x1
 2958 1259 50       		.byte	0x50
 2959 125a 05       		.uleb128 0x5
 2960 125b 03       		.byte	0x3
 2961 125c 00000000 		.4byte	.LC17
 2962 1260 00       		.byte	0
 2963 1261 32       		.uleb128 0x32
 2964 1262 54000000 		.4byte	.LVL23
 2965 1266 0C150000 		.4byte	0x150c
 2966 126a 78120000 		.4byte	0x1278
 2967 126e 2A       		.uleb128 0x2a
 2968 126f 01       		.uleb128 0x1
 2969 1270 50       		.byte	0x50
 2970 1271 05       		.uleb128 0x5
 2971 1272 03       		.byte	0x3
 2972 1273 34000000 		.4byte	.LC20
 2973 1277 00       		.byte	0
 2974 1278 32       		.uleb128 0x32
 2975 1279 5A000000 		.4byte	.LVL24
 2976 127d 1E150000 		.4byte	0x151e
 2977 1281 8C120000 		.4byte	0x128c
 2978 1285 2A       		.uleb128 0x2a
 2979 1286 01       		.uleb128 0x1
 2980 1287 50       		.byte	0x50
 2981 1288 02       		.uleb128 0x2
 2982 1289 08       		.byte	0x8
 2983 128a 64       		.byte	0x64
 2984 128b 00       		.byte	0
 2985 128c 32       		.uleb128 0x32
 2986 128d 62000000 		.4byte	.LVL25
 2987 1291 30150000 		.4byte	0x1530
 2988 1295 A3120000 		.4byte	0x12a3
 2989 1299 2A       		.uleb128 0x2a
 2990 129a 01       		.uleb128 0x1
 2991 129b 51       		.byte	0x51
 2992 129c 05       		.uleb128 0x5
 2993 129d 03       		.byte	0x3
 2994 129e 00000000 		.4byte	.LANCHOR5
 2995 12a2 00       		.byte	0
 2996 12a3 3A       		.uleb128 0x3a
 2997 12a4 66000000 		.4byte	.LVL26
 2998 12a8 47150000 		.4byte	0x1547
 2999 12ac 3A       		.uleb128 0x3a
 3000 12ad 6A000000 		.4byte	.LVL27
 3001 12b1 4E150000 		.4byte	0x154e
ARM GAS  /tmp/cczMqacF.s 			page 54


 3002 12b5 3A       		.uleb128 0x3a
 3003 12b6 6E000000 		.4byte	.LVL28
 3004 12ba 55150000 		.4byte	0x1555
 3005 12be 3A       		.uleb128 0x3a
 3006 12bf DE000000 		.4byte	.LVL37
 3007 12c3 5C150000 		.4byte	0x155c
 3008 12c7 3A       		.uleb128 0x3a
 3009 12c8 E2000000 		.4byte	.LVL38
 3010 12cc E40F0000 		.4byte	0xfe4
 3011 12d0 00       		.byte	0
 3012 12d1 3B       		.uleb128 0x3b
 3013 12d2 66020000 		.4byte	.LASF262
 3014 12d6 01       		.byte	0x1
 3015 12d7 2301     		.2byte	0x123
 3016 12d9 25000000 		.4byte	0x25
 3017 12dd 00000000 		.4byte	.LFB109
 3018 12e1 0C000000 		.4byte	.LFE109-.LFB109
 3019 12e5 01       		.uleb128 0x1
 3020 12e6 9C       		.byte	0x9c
 3021 12e7 FE120000 		.4byte	0x12fe
 3022 12eb 3A       		.uleb128 0x3a
 3023 12ec 06000000 		.4byte	.LVL39
 3024 12f0 63150000 		.4byte	0x1563
 3025 12f4 3A       		.uleb128 0x3a
 3026 12f5 0A000000 		.4byte	.LVL40
 3027 12f9 6A150000 		.4byte	0x156a
 3028 12fd 00       		.byte	0
 3029 12fe 3C       		.uleb128 0x3c
 3030 12ff DF090000 		.4byte	.LASF227
 3031 1303 01       		.byte	0x1
 3032 1304 2A       		.byte	0x2a
 3033 1305 0F130000 		.4byte	0x130f
 3034 1309 05       		.uleb128 0x5
 3035 130a 03       		.byte	0x3
 3036 130b 00000000 		.4byte	serialConfig
 3037 130f 12       		.uleb128 0x12
 3038 1310 350E0000 		.4byte	0xe35
 3039 1314 3C       		.uleb128 0x3c
 3040 1315 E2080000 		.4byte	.LASF228
 3041 1319 01       		.byte	0x1
 3042 131a 2E       		.byte	0x2e
 3043 131b 6E0D0000 		.4byte	0xd6e
 3044 131f 05       		.uleb128 0x5
 3045 1320 03       		.byte	0x3
 3046 1321 00000000 		.4byte	adccfg1
 3047 1325 0D       		.uleb128 0xd
 3048 1326 B9060000 		.4byte	0x6b9
 3049 132a 35130000 		.4byte	0x1335
 3050 132e 0E       		.uleb128 0xe
 3051 132f F0020000 		.4byte	0x2f0
 3052 1333 4C       		.byte	0x4c
 3053 1334 00       		.byte	0
 3054 1335 3C       		.uleb128 0x3c
 3055 1336 310B0000 		.4byte	.LASF229
 3056 133a 01       		.byte	0x1
 3057 133b C5       		.byte	0xc5
 3058 133c 25130000 		.4byte	0x1325
ARM GAS  /tmp/cczMqacF.s 			page 55


 3059 1340 05       		.uleb128 0x5
 3060 1341 03       		.byte	0x3
 3061 1342 00000000 		.4byte	waThread1
 3062 1346 3D       		.uleb128 0x3d
 3063 1347 4B060000 		.4byte	.LASF230
 3064 134b 05       		.byte	0x5
 3065 134c 2701     		.2byte	0x127
 3066 134e B9060000 		.4byte	0x6b9
 3067 1352 3D       		.uleb128 0x3d
 3068 1353 170B0000 		.4byte	.LASF231
 3069 1357 05       		.byte	0x5
 3070 1358 2701     		.2byte	0x127
 3071 135a B9060000 		.4byte	0x6b9
 3072 135e 3E       		.uleb128 0x3e
 3073 135f 6E696C00 		.ascii	"nil\000"
 3074 1363 05       		.byte	0x5
 3075 1364 C203     		.2byte	0x3c2
 3076 1366 6B080000 		.4byte	0x86b
 3077 136a 0D       		.uleb128 0xd
 3078 136b 8B070000 		.4byte	0x78b
 3079 136f 7A130000 		.4byte	0x137a
 3080 1373 0E       		.uleb128 0xe
 3081 1374 F0020000 		.4byte	0x2f0
 3082 1378 01       		.byte	0x1
 3083 1379 00       		.byte	0
 3084 137a 3F       		.uleb128 0x3f
 3085 137b 0D040000 		.4byte	.LASF232
 3086 137f 01       		.byte	0x1
 3087 1380 1B01     		.2byte	0x11b
 3088 1382 8C130000 		.4byte	0x138c
 3089 1386 05       		.uleb128 0x5
 3090 1387 03       		.byte	0x3
 3091 1388 00000000 		.4byte	nil_thd_configs
 3092 138c 12       		.uleb128 0x12
 3093 138d 6A130000 		.4byte	0x136a
 3094 1391 3D       		.uleb128 0x3d
 3095 1392 20070000 		.4byte	.LASF233
 3096 1396 0E       		.byte	0xe
 3097 1397 5501     		.2byte	0x155
 3098 1399 F90B0000 		.4byte	0xbf9
 3099 139d 40       		.uleb128 0x40
 3100 139e 53443100 		.ascii	"SD1\000"
 3101 13a2 10       		.byte	0x10
 3102 13a3 8A       		.byte	0x8a
 3103 13a4 AA0D0000 		.4byte	0xdaa
 3104 13a8 24       		.uleb128 0x24
 3105 13a9 10000000 		.4byte	.LASF234
 3106 13ad 12       		.byte	0x12
 3107 13ae 04       		.byte	0x4
 3108 13af EC070000 		.4byte	0x7ec
 3109 13b3 41       		.uleb128 0x41
 3110 13b4 22040000 		.4byte	.LASF235
 3111 13b8 01       		.byte	0x1
 3112 13b9 20       		.byte	0x20
 3113 13ba B7060000 		.4byte	0x6b7
 3114 13be 05       		.uleb128 0x5
 3115 13bf 03       		.byte	0x3
ARM GAS  /tmp/cczMqacF.s 			page 56


 3116 13c0 00000000 		.4byte	stream
 3117 13c4 0D       		.uleb128 0xd
 3118 13c5 50000000 		.4byte	0x50
 3119 13c9 CF130000 		.4byte	0x13cf
 3120 13cd 25       		.uleb128 0x25
 3121 13ce 00       		.byte	0
 3122 13cf 24       		.uleb128 0x24
 3123 13d0 E6070000 		.4byte	.LASF236
 3124 13d4 11       		.byte	0x11
 3125 13d5 1A       		.byte	0x1a
 3126 13d6 C4130000 		.4byte	0x13c4
 3127 13da 24       		.uleb128 0x24
 3128 13db D30A0000 		.4byte	.LASF237
 3129 13df 13       		.byte	0x13
 3130 13e0 24       		.byte	0x24
 3131 13e1 E5130000 		.4byte	0x13e5
 3132 13e5 0F       		.uleb128 0xf
 3133 13e6 86000000 		.4byte	0x86
 3134 13ea 0D       		.uleb128 0xd
 3135 13eb 74000000 		.4byte	0x74
 3136 13ef FB130000 		.4byte	0x13fb
 3137 13f3 42       		.uleb128 0x42
 3138 13f4 F0020000 		.4byte	0x2f0
 3139 13f8 0601     		.2byte	0x106
 3140 13fa 00       		.byte	0
 3141 13fb 24       		.uleb128 0x24
 3142 13fc 41020000 		.4byte	.LASF238
 3143 1400 13       		.byte	0x13
 3144 1401 25       		.byte	0x25
 3145 1402 EA130000 		.4byte	0x13ea
 3146 1406 24       		.uleb128 0x24
 3147 1407 DA0A0000 		.4byte	.LASF239
 3148 140b 13       		.byte	0x13
 3149 140c 26       		.byte	0x26
 3150 140d 74000000 		.4byte	0x74
 3151 1411 41       		.uleb128 0x41
 3152 1412 61050000 		.4byte	.LASF240
 3153 1416 01       		.byte	0x1
 3154 1417 24       		.byte	0x24
 3155 1418 74000000 		.4byte	0x74
 3156 141c 05       		.uleb128 0x5
 3157 141d 03       		.byte	0x3
 3158 141e 00000000 		.4byte	screenpos
 3159 1422 41       		.uleb128 0x41
 3160 1423 61080000 		.4byte	.LASF241
 3161 1427 01       		.byte	0x1
 3162 1428 26       		.byte	0x26
 3163 1429 40040000 		.4byte	0x440
 3164 142d 05       		.uleb128 0x5
 3165 142e 03       		.byte	0x3
 3166 142f 00000000 		.4byte	dataReadyFlag
 3167 1433 41       		.uleb128 0x41
 3168 1434 1C0A0000 		.4byte	.LASF242
 3169 1438 01       		.byte	0x1
 3170 1439 27       		.byte	0x27
 3171 143a 44140000 		.4byte	0x1444
 3172 143e 05       		.uleb128 0x5
ARM GAS  /tmp/cczMqacF.s 			page 57


 3173 143f 03       		.byte	0x3
 3174 1440 00000000 		.4byte	bufloc
 3175 1444 18       		.uleb128 0x18
 3176 1445 04       		.byte	0x4
 3177 1446 4A140000 		.4byte	0x144a
 3178 144a 0F       		.uleb128 0xf
 3179 144b C30B0000 		.4byte	0xbc3
 3180 144f 41       		.uleb128 0x41
 3181 1450 EC020000 		.4byte	.LASF243
 3182 1454 01       		.byte	0x1
 3183 1455 28       		.byte	0x28
 3184 1456 2C000000 		.4byte	0x2c
 3185 145a 05       		.uleb128 0x5
 3186 145b 03       		.byte	0x3
 3187 145c 00000000 		.4byte	buf_n
 3188 1460 24       		.uleb128 0x24
 3189 1461 85070000 		.4byte	.LASF218
 3190 1465 01       		.byte	0x1
 3191 1466 AE       		.byte	0xae
 3192 1467 610F0000 		.4byte	0xf61
 3193 146b 24       		.uleb128 0x24
 3194 146c 54050000 		.4byte	.LASF219
 3195 1470 01       		.byte	0x1
 3196 1471 AF       		.byte	0xaf
 3197 1472 610F0000 		.4byte	0xf61
 3198 1476 43       		.uleb128 0x43
 3199 1477 AA070000 		.4byte	.LASF244
 3200 147b 11       		.byte	0x11
 3201 147c 47       		.byte	0x47
 3202 147d 91140000 		.4byte	0x1491
 3203 1481 1A       		.uleb128 0x1a
 3204 1482 91140000 		.4byte	0x1491
 3205 1486 1A       		.uleb128 0x1a
 3206 1487 98000000 		.4byte	0x98
 3207 148b 1A       		.uleb128 0x1a
 3208 148c CE0E0000 		.4byte	0xece
 3209 1490 00       		.byte	0
 3210 1491 18       		.uleb128 0x18
 3211 1492 04       		.byte	0x4
 3212 1493 50000000 		.4byte	0x50
 3213 1497 43       		.uleb128 0x43
 3214 1498 60070000 		.4byte	.LASF245
 3215 149c 14       		.byte	0x14
 3216 149d 4F       		.byte	0x4f
 3217 149e A8140000 		.4byte	0x14a8
 3218 14a2 1A       		.uleb128 0x1a
 3219 14a3 98000000 		.4byte	0x98
 3220 14a7 00       		.byte	0
 3221 14a8 44       		.uleb128 0x44
 3222 14a9 CB000000 		.4byte	.LASF263
 3223 14ad 19       		.byte	0x19
 3224 14ae 43       		.byte	0x43
 3225 14af 3E000000 		.4byte	0x3e
 3226 14b3 BD140000 		.4byte	0x14bd
 3227 14b7 1A       		.uleb128 0x1a
 3228 14b8 E8090000 		.4byte	0x9e8
 3229 14bc 00       		.byte	0
ARM GAS  /tmp/cczMqacF.s 			page 58


 3230 14bd 45       		.uleb128 0x45
 3231 14be 4C050000 		.4byte	.LASF246
 3232 14c2 0F       		.byte	0xf
 3233 14c3 1001     		.2byte	0x110
 3234 14c5 D4140000 		.4byte	0x14d4
 3235 14c9 1A       		.uleb128 0x1a
 3236 14ca D4140000 		.4byte	0x14d4
 3237 14ce 1A       		.uleb128 0x1a
 3238 14cf DA140000 		.4byte	0x14da
 3239 14d3 00       		.byte	0
 3240 14d4 18       		.uleb128 0x18
 3241 14d5 04       		.byte	0x4
 3242 14d6 AA0D0000 		.4byte	0xdaa
 3243 14da 18       		.uleb128 0x18
 3244 14db 04       		.byte	0x4
 3245 14dc 0F130000 		.4byte	0x130f
 3246 14e0 43       		.uleb128 0x43
 3247 14e1 2F040000 		.4byte	.LASF247
 3248 14e5 15       		.byte	0x15
 3249 14e6 60       		.byte	0x60
 3250 14e7 F6140000 		.4byte	0x14f6
 3251 14eb 1A       		.uleb128 0x1a
 3252 14ec B7060000 		.4byte	0x6b7
 3253 14f0 1A       		.uleb128 0x1a
 3254 14f1 F6140000 		.4byte	0x14f6
 3255 14f5 00       		.byte	0
 3256 14f6 18       		.uleb128 0x18
 3257 14f7 04       		.byte	0x4
 3258 14f8 FC140000 		.4byte	0x14fc
 3259 14fc 19       		.uleb128 0x19
 3260 14fd 0C150000 		.4byte	0x150c
 3261 1501 1A       		.uleb128 0x1a
 3262 1502 B7060000 		.4byte	0x6b7
 3263 1506 1A       		.uleb128 0x1a
 3264 1507 F7070000 		.4byte	0x7f7
 3265 150b 00       		.byte	0
 3266 150c 43       		.uleb128 0x43
 3267 150d 29060000 		.4byte	.LASF248
 3268 1511 15       		.byte	0x15
 3269 1512 62       		.byte	0x62
 3270 1513 1E150000 		.4byte	0x151e
 3271 1517 1A       		.uleb128 0x1a
 3272 1518 F80E0000 		.4byte	0xef8
 3273 151c 46       		.uleb128 0x46
 3274 151d 00       		.byte	0
 3275 151e 45       		.uleb128 0x45
 3276 151f 6D040000 		.4byte	.LASF249
 3277 1523 05       		.byte	0x5
 3278 1524 D703     		.2byte	0x3d7
 3279 1526 30150000 		.4byte	0x1530
 3280 152a 1A       		.uleb128 0x1a
 3281 152b 47010000 		.4byte	0x147
 3282 152f 00       		.byte	0
 3283 1530 45       		.uleb128 0x45
 3284 1531 910A0000 		.4byte	.LASF250
 3285 1535 0D       		.byte	0xd
 3286 1536 0301     		.2byte	0x103
ARM GAS  /tmp/cczMqacF.s 			page 59


 3287 1538 47150000 		.4byte	0x1547
 3288 153c 1A       		.uleb128 0x1a
 3289 153d AD0C0000 		.4byte	0xcad
 3290 1541 1A       		.uleb128 0x1a
 3291 1542 680D0000 		.4byte	0xd68
 3292 1546 00       		.byte	0
 3293 1547 47       		.uleb128 0x47
 3294 1548 BF0A0000 		.4byte	.LASF251
 3295 154c 16       		.byte	0x16
 3296 154d 08       		.byte	0x8
 3297 154e 47       		.uleb128 0x47
 3298 154f 61000000 		.4byte	.LASF252
 3299 1553 11       		.byte	0x11
 3300 1554 46       		.byte	0x46
 3301 1555 47       		.uleb128 0x47
 3302 1556 860A0000 		.4byte	.LASF253
 3303 155a 17       		.byte	0x17
 3304 155b 9A       		.byte	0x9a
 3305 155c 47       		.uleb128 0x47
 3306 155d 97080000 		.4byte	.LASF254
 3307 1561 16       		.byte	0x16
 3308 1562 06       		.byte	0x6
 3309 1563 47       		.uleb128 0x47
 3310 1564 70050000 		.4byte	.LASF255
 3311 1568 18       		.byte	0x18
 3312 1569 9B       		.byte	0x9b
 3313 156a 48       		.uleb128 0x48
 3314 156b 2D0A0000 		.4byte	.LASF256
 3315 156f 05       		.byte	0x5
 3316 1570 C903     		.2byte	0x3c9
 3317 1572 00       		.byte	0
 3318              		.section	.debug_abbrev,"",%progbits
 3319              	.Ldebug_abbrev0:
 3320 0000 01       		.uleb128 0x1
 3321 0001 11       		.uleb128 0x11
 3322 0002 01       		.byte	0x1
 3323 0003 25       		.uleb128 0x25
 3324 0004 0E       		.uleb128 0xe
 3325 0005 13       		.uleb128 0x13
 3326 0006 0B       		.uleb128 0xb
 3327 0007 03       		.uleb128 0x3
 3328 0008 0E       		.uleb128 0xe
 3329 0009 1B       		.uleb128 0x1b
 3330 000a 0E       		.uleb128 0xe
 3331 000b 55       		.uleb128 0x55
 3332 000c 17       		.uleb128 0x17
 3333 000d 11       		.uleb128 0x11
 3334 000e 01       		.uleb128 0x1
 3335 000f 10       		.uleb128 0x10
 3336 0010 17       		.uleb128 0x17
 3337 0011 00       		.byte	0
 3338 0012 00       		.byte	0
 3339 0013 02       		.uleb128 0x2
 3340 0014 24       		.uleb128 0x24
 3341 0015 00       		.byte	0
 3342 0016 0B       		.uleb128 0xb
 3343 0017 0B       		.uleb128 0xb
ARM GAS  /tmp/cczMqacF.s 			page 60


 3344 0018 3E       		.uleb128 0x3e
 3345 0019 0B       		.uleb128 0xb
 3346 001a 03       		.uleb128 0x3
 3347 001b 08       		.uleb128 0x8
 3348 001c 00       		.byte	0
 3349 001d 00       		.byte	0
 3350 001e 03       		.uleb128 0x3
 3351 001f 16       		.uleb128 0x16
 3352 0020 00       		.byte	0
 3353 0021 03       		.uleb128 0x3
 3354 0022 0E       		.uleb128 0xe
 3355 0023 3A       		.uleb128 0x3a
 3356 0024 0B       		.uleb128 0xb
 3357 0025 3B       		.uleb128 0x3b
 3358 0026 0B       		.uleb128 0xb
 3359 0027 49       		.uleb128 0x49
 3360 0028 13       		.uleb128 0x13
 3361 0029 00       		.byte	0
 3362 002a 00       		.byte	0
 3363 002b 04       		.uleb128 0x4
 3364 002c 24       		.uleb128 0x24
 3365 002d 00       		.byte	0
 3366 002e 0B       		.uleb128 0xb
 3367 002f 0B       		.uleb128 0xb
 3368 0030 3E       		.uleb128 0x3e
 3369 0031 0B       		.uleb128 0xb
 3370 0032 03       		.uleb128 0x3
 3371 0033 0E       		.uleb128 0xe
 3372 0034 00       		.byte	0
 3373 0035 00       		.byte	0
 3374 0036 05       		.uleb128 0x5
 3375 0037 13       		.uleb128 0x13
 3376 0038 01       		.byte	0x1
 3377 0039 03       		.uleb128 0x3
 3378 003a 0E       		.uleb128 0xe
 3379 003b 0B       		.uleb128 0xb
 3380 003c 0B       		.uleb128 0xb
 3381 003d 3A       		.uleb128 0x3a
 3382 003e 0B       		.uleb128 0xb
 3383 003f 3B       		.uleb128 0x3b
 3384 0040 05       		.uleb128 0x5
 3385 0041 01       		.uleb128 0x1
 3386 0042 13       		.uleb128 0x13
 3387 0043 00       		.byte	0
 3388 0044 00       		.byte	0
 3389 0045 06       		.uleb128 0x6
 3390 0046 0D       		.uleb128 0xd
 3391 0047 00       		.byte	0
 3392 0048 03       		.uleb128 0x3
 3393 0049 0E       		.uleb128 0xe
 3394 004a 3A       		.uleb128 0x3a
 3395 004b 0B       		.uleb128 0xb
 3396 004c 3B       		.uleb128 0x3b
 3397 004d 05       		.uleb128 0x5
 3398 004e 49       		.uleb128 0x49
 3399 004f 13       		.uleb128 0x13
 3400 0050 38       		.uleb128 0x38
ARM GAS  /tmp/cczMqacF.s 			page 61


 3401 0051 0B       		.uleb128 0xb
 3402 0052 00       		.byte	0
 3403 0053 00       		.byte	0
 3404 0054 07       		.uleb128 0x7
 3405 0055 0D       		.uleb128 0xd
 3406 0056 00       		.byte	0
 3407 0057 03       		.uleb128 0x3
 3408 0058 08       		.uleb128 0x8
 3409 0059 3A       		.uleb128 0x3a
 3410 005a 0B       		.uleb128 0xb
 3411 005b 3B       		.uleb128 0x3b
 3412 005c 05       		.uleb128 0x5
 3413 005d 49       		.uleb128 0x49
 3414 005e 13       		.uleb128 0x13
 3415 005f 38       		.uleb128 0x38
 3416 0060 0B       		.uleb128 0xb
 3417 0061 00       		.byte	0
 3418 0062 00       		.byte	0
 3419 0063 08       		.uleb128 0x8
 3420 0064 04       		.uleb128 0x4
 3421 0065 01       		.byte	0x1
 3422 0066 03       		.uleb128 0x3
 3423 0067 0E       		.uleb128 0xe
 3424 0068 0B       		.uleb128 0xb
 3425 0069 0B       		.uleb128 0xb
 3426 006a 3A       		.uleb128 0x3a
 3427 006b 0B       		.uleb128 0xb
 3428 006c 3B       		.uleb128 0x3b
 3429 006d 0B       		.uleb128 0xb
 3430 006e 01       		.uleb128 0x1
 3431 006f 13       		.uleb128 0x13
 3432 0070 00       		.byte	0
 3433 0071 00       		.byte	0
 3434 0072 09       		.uleb128 0x9
 3435 0073 28       		.uleb128 0x28
 3436 0074 00       		.byte	0
 3437 0075 03       		.uleb128 0x3
 3438 0076 0E       		.uleb128 0xe
 3439 0077 1C       		.uleb128 0x1c
 3440 0078 0D       		.uleb128 0xd
 3441 0079 00       		.byte	0
 3442 007a 00       		.byte	0
 3443 007b 0A       		.uleb128 0xa
 3444 007c 13       		.uleb128 0x13
 3445 007d 01       		.byte	0x1
 3446 007e 0B       		.uleb128 0xb
 3447 007f 05       		.uleb128 0x5
 3448 0080 3A       		.uleb128 0x3a
 3449 0081 0B       		.uleb128 0xb
 3450 0082 3B       		.uleb128 0x3b
 3451 0083 05       		.uleb128 0x5
 3452 0084 01       		.uleb128 0x1
 3453 0085 13       		.uleb128 0x13
 3454 0086 00       		.byte	0
 3455 0087 00       		.byte	0
 3456 0088 0B       		.uleb128 0xb
 3457 0089 0D       		.uleb128 0xd
ARM GAS  /tmp/cczMqacF.s 			page 62


 3458 008a 00       		.byte	0
 3459 008b 03       		.uleb128 0x3
 3460 008c 0E       		.uleb128 0xe
 3461 008d 3A       		.uleb128 0x3a
 3462 008e 0B       		.uleb128 0xb
 3463 008f 3B       		.uleb128 0x3b
 3464 0090 05       		.uleb128 0x5
 3465 0091 49       		.uleb128 0x49
 3466 0092 13       		.uleb128 0x13
 3467 0093 38       		.uleb128 0x38
 3468 0094 05       		.uleb128 0x5
 3469 0095 00       		.byte	0
 3470 0096 00       		.byte	0
 3471 0097 0C       		.uleb128 0xc
 3472 0098 0D       		.uleb128 0xd
 3473 0099 00       		.byte	0
 3474 009a 03       		.uleb128 0x3
 3475 009b 08       		.uleb128 0x8
 3476 009c 3A       		.uleb128 0x3a
 3477 009d 0B       		.uleb128 0xb
 3478 009e 3B       		.uleb128 0x3b
 3479 009f 05       		.uleb128 0x5
 3480 00a0 49       		.uleb128 0x49
 3481 00a1 13       		.uleb128 0x13
 3482 00a2 38       		.uleb128 0x38
 3483 00a3 05       		.uleb128 0x5
 3484 00a4 00       		.byte	0
 3485 00a5 00       		.byte	0
 3486 00a6 0D       		.uleb128 0xd
 3487 00a7 01       		.uleb128 0x1
 3488 00a8 01       		.byte	0x1
 3489 00a9 49       		.uleb128 0x49
 3490 00aa 13       		.uleb128 0x13
 3491 00ab 01       		.uleb128 0x1
 3492 00ac 13       		.uleb128 0x13
 3493 00ad 00       		.byte	0
 3494 00ae 00       		.byte	0
 3495 00af 0E       		.uleb128 0xe
 3496 00b0 21       		.uleb128 0x21
 3497 00b1 00       		.byte	0
 3498 00b2 49       		.uleb128 0x49
 3499 00b3 13       		.uleb128 0x13
 3500 00b4 2F       		.uleb128 0x2f
 3501 00b5 0B       		.uleb128 0xb
 3502 00b6 00       		.byte	0
 3503 00b7 00       		.byte	0
 3504 00b8 0F       		.uleb128 0xf
 3505 00b9 35       		.uleb128 0x35
 3506 00ba 00       		.byte	0
 3507 00bb 49       		.uleb128 0x49
 3508 00bc 13       		.uleb128 0x13
 3509 00bd 00       		.byte	0
 3510 00be 00       		.byte	0
 3511 00bf 10       		.uleb128 0x10
 3512 00c0 16       		.uleb128 0x16
 3513 00c1 00       		.byte	0
 3514 00c2 03       		.uleb128 0x3
ARM GAS  /tmp/cczMqacF.s 			page 63


 3515 00c3 0E       		.uleb128 0xe
 3516 00c4 3A       		.uleb128 0x3a
 3517 00c5 0B       		.uleb128 0xb
 3518 00c6 3B       		.uleb128 0x3b
 3519 00c7 05       		.uleb128 0x5
 3520 00c8 49       		.uleb128 0x49
 3521 00c9 13       		.uleb128 0x13
 3522 00ca 00       		.byte	0
 3523 00cb 00       		.byte	0
 3524 00cc 11       		.uleb128 0x11
 3525 00cd 13       		.uleb128 0x13
 3526 00ce 01       		.byte	0x1
 3527 00cf 0B       		.uleb128 0xb
 3528 00d0 0B       		.uleb128 0xb
 3529 00d1 3A       		.uleb128 0x3a
 3530 00d2 0B       		.uleb128 0xb
 3531 00d3 3B       		.uleb128 0x3b
 3532 00d4 05       		.uleb128 0x5
 3533 00d5 01       		.uleb128 0x1
 3534 00d6 13       		.uleb128 0x13
 3535 00d7 00       		.byte	0
 3536 00d8 00       		.byte	0
 3537 00d9 12       		.uleb128 0x12
 3538 00da 26       		.uleb128 0x26
 3539 00db 00       		.byte	0
 3540 00dc 49       		.uleb128 0x49
 3541 00dd 13       		.uleb128 0x13
 3542 00de 00       		.byte	0
 3543 00df 00       		.byte	0
 3544 00e0 13       		.uleb128 0x13
 3545 00e1 13       		.uleb128 0x13
 3546 00e2 01       		.byte	0x1
 3547 00e3 0B       		.uleb128 0xb
 3548 00e4 0B       		.uleb128 0xb
 3549 00e5 3A       		.uleb128 0x3a
 3550 00e6 0B       		.uleb128 0xb
 3551 00e7 3B       		.uleb128 0x3b
 3552 00e8 0B       		.uleb128 0xb
 3553 00e9 01       		.uleb128 0x1
 3554 00ea 13       		.uleb128 0x13
 3555 00eb 00       		.byte	0
 3556 00ec 00       		.byte	0
 3557 00ed 14       		.uleb128 0x14
 3558 00ee 0D       		.uleb128 0xd
 3559 00ef 00       		.byte	0
 3560 00f0 03       		.uleb128 0x3
 3561 00f1 0E       		.uleb128 0xe
 3562 00f2 3A       		.uleb128 0x3a
 3563 00f3 0B       		.uleb128 0xb
 3564 00f4 3B       		.uleb128 0x3b
 3565 00f5 0B       		.uleb128 0xb
 3566 00f6 49       		.uleb128 0x49
 3567 00f7 13       		.uleb128 0x13
 3568 00f8 38       		.uleb128 0x38
 3569 00f9 0B       		.uleb128 0xb
 3570 00fa 00       		.byte	0
 3571 00fb 00       		.byte	0
ARM GAS  /tmp/cczMqacF.s 			page 64


 3572 00fc 15       		.uleb128 0x15
 3573 00fd 0D       		.uleb128 0xd
 3574 00fe 00       		.byte	0
 3575 00ff 03       		.uleb128 0x3
 3576 0100 08       		.uleb128 0x8
 3577 0101 3A       		.uleb128 0x3a
 3578 0102 0B       		.uleb128 0xb
 3579 0103 3B       		.uleb128 0x3b
 3580 0104 0B       		.uleb128 0xb
 3581 0105 49       		.uleb128 0x49
 3582 0106 13       		.uleb128 0x13
 3583 0107 38       		.uleb128 0x38
 3584 0108 0B       		.uleb128 0xb
 3585 0109 00       		.byte	0
 3586 010a 00       		.byte	0
 3587 010b 16       		.uleb128 0x16
 3588 010c 0F       		.uleb128 0xf
 3589 010d 00       		.byte	0
 3590 010e 0B       		.uleb128 0xb
 3591 010f 0B       		.uleb128 0xb
 3592 0110 00       		.byte	0
 3593 0111 00       		.byte	0
 3594 0112 17       		.uleb128 0x17
 3595 0113 13       		.uleb128 0x13
 3596 0114 01       		.byte	0x1
 3597 0115 03       		.uleb128 0x3
 3598 0116 0E       		.uleb128 0xe
 3599 0117 0B       		.uleb128 0xb
 3600 0118 0B       		.uleb128 0xb
 3601 0119 3A       		.uleb128 0x3a
 3602 011a 0B       		.uleb128 0xb
 3603 011b 3B       		.uleb128 0x3b
 3604 011c 0B       		.uleb128 0xb
 3605 011d 01       		.uleb128 0x1
 3606 011e 13       		.uleb128 0x13
 3607 011f 00       		.byte	0
 3608 0120 00       		.byte	0
 3609 0121 18       		.uleb128 0x18
 3610 0122 0F       		.uleb128 0xf
 3611 0123 00       		.byte	0
 3612 0124 0B       		.uleb128 0xb
 3613 0125 0B       		.uleb128 0xb
 3614 0126 49       		.uleb128 0x49
 3615 0127 13       		.uleb128 0x13
 3616 0128 00       		.byte	0
 3617 0129 00       		.byte	0
 3618 012a 19       		.uleb128 0x19
 3619 012b 15       		.uleb128 0x15
 3620 012c 01       		.byte	0x1
 3621 012d 27       		.uleb128 0x27
 3622 012e 19       		.uleb128 0x19
 3623 012f 01       		.uleb128 0x1
 3624 0130 13       		.uleb128 0x13
 3625 0131 00       		.byte	0
 3626 0132 00       		.byte	0
 3627 0133 1A       		.uleb128 0x1a
 3628 0134 05       		.uleb128 0x5
ARM GAS  /tmp/cczMqacF.s 			page 65


 3629 0135 00       		.byte	0
 3630 0136 49       		.uleb128 0x49
 3631 0137 13       		.uleb128 0x13
 3632 0138 00       		.byte	0
 3633 0139 00       		.byte	0
 3634 013a 1B       		.uleb128 0x1b
 3635 013b 17       		.uleb128 0x17
 3636 013c 01       		.byte	0x1
 3637 013d 0B       		.uleb128 0xb
 3638 013e 0B       		.uleb128 0xb
 3639 013f 3A       		.uleb128 0x3a
 3640 0140 0B       		.uleb128 0xb
 3641 0141 3B       		.uleb128 0x3b
 3642 0142 05       		.uleb128 0x5
 3643 0143 01       		.uleb128 0x1
 3644 0144 13       		.uleb128 0x13
 3645 0145 00       		.byte	0
 3646 0146 00       		.byte	0
 3647 0147 1C       		.uleb128 0x1c
 3648 0148 0D       		.uleb128 0xd
 3649 0149 00       		.byte	0
 3650 014a 03       		.uleb128 0x3
 3651 014b 08       		.uleb128 0x8
 3652 014c 3A       		.uleb128 0x3a
 3653 014d 0B       		.uleb128 0xb
 3654 014e 3B       		.uleb128 0x3b
 3655 014f 05       		.uleb128 0x5
 3656 0150 49       		.uleb128 0x49
 3657 0151 13       		.uleb128 0x13
 3658 0152 00       		.byte	0
 3659 0153 00       		.byte	0
 3660 0154 1D       		.uleb128 0x1d
 3661 0155 0D       		.uleb128 0xd
 3662 0156 00       		.byte	0
 3663 0157 03       		.uleb128 0x3
 3664 0158 0E       		.uleb128 0xe
 3665 0159 3A       		.uleb128 0x3a
 3666 015a 0B       		.uleb128 0xb
 3667 015b 3B       		.uleb128 0x3b
 3668 015c 05       		.uleb128 0x5
 3669 015d 49       		.uleb128 0x49
 3670 015e 13       		.uleb128 0x13
 3671 015f 00       		.byte	0
 3672 0160 00       		.byte	0
 3673 0161 1E       		.uleb128 0x1e
 3674 0162 15       		.uleb128 0x15
 3675 0163 01       		.byte	0x1
 3676 0164 27       		.uleb128 0x27
 3677 0165 19       		.uleb128 0x19
 3678 0166 49       		.uleb128 0x49
 3679 0167 13       		.uleb128 0x13
 3680 0168 01       		.uleb128 0x1
 3681 0169 13       		.uleb128 0x13
 3682 016a 00       		.byte	0
 3683 016b 00       		.byte	0
 3684 016c 1F       		.uleb128 0x1f
 3685 016d 04       		.uleb128 0x4
ARM GAS  /tmp/cczMqacF.s 			page 66


 3686 016e 01       		.byte	0x1
 3687 016f 0B       		.uleb128 0xb
 3688 0170 0B       		.uleb128 0xb
 3689 0171 3A       		.uleb128 0x3a
 3690 0172 0B       		.uleb128 0xb
 3691 0173 3B       		.uleb128 0x3b
 3692 0174 0B       		.uleb128 0xb
 3693 0175 01       		.uleb128 0x1
 3694 0176 13       		.uleb128 0x13
 3695 0177 00       		.byte	0
 3696 0178 00       		.byte	0
 3697 0179 20       		.uleb128 0x20
 3698 017a 2E       		.uleb128 0x2e
 3699 017b 01       		.byte	0x1
 3700 017c 03       		.uleb128 0x3
 3701 017d 0E       		.uleb128 0xe
 3702 017e 3A       		.uleb128 0x3a
 3703 017f 0B       		.uleb128 0xb
 3704 0180 3B       		.uleb128 0x3b
 3705 0181 05       		.uleb128 0x5
 3706 0182 27       		.uleb128 0x27
 3707 0183 19       		.uleb128 0x19
 3708 0184 20       		.uleb128 0x20
 3709 0185 0B       		.uleb128 0xb
 3710 0186 01       		.uleb128 0x1
 3711 0187 13       		.uleb128 0x13
 3712 0188 00       		.byte	0
 3713 0189 00       		.byte	0
 3714 018a 21       		.uleb128 0x21
 3715 018b 05       		.uleb128 0x5
 3716 018c 00       		.byte	0
 3717 018d 03       		.uleb128 0x3
 3718 018e 0E       		.uleb128 0xe
 3719 018f 3A       		.uleb128 0x3a
 3720 0190 0B       		.uleb128 0xb
 3721 0191 3B       		.uleb128 0x3b
 3722 0192 05       		.uleb128 0x5
 3723 0193 49       		.uleb128 0x49
 3724 0194 13       		.uleb128 0x13
 3725 0195 00       		.byte	0
 3726 0196 00       		.byte	0
 3727 0197 22       		.uleb128 0x22
 3728 0198 2E       		.uleb128 0x2e
 3729 0199 01       		.byte	0x1
 3730 019a 03       		.uleb128 0x3
 3731 019b 0E       		.uleb128 0xe
 3732 019c 3A       		.uleb128 0x3a
 3733 019d 0B       		.uleb128 0xb
 3734 019e 3B       		.uleb128 0x3b
 3735 019f 0B       		.uleb128 0xb
 3736 01a0 27       		.uleb128 0x27
 3737 01a1 19       		.uleb128 0x19
 3738 01a2 49       		.uleb128 0x49
 3739 01a3 13       		.uleb128 0x13
 3740 01a4 20       		.uleb128 0x20
 3741 01a5 0B       		.uleb128 0xb
 3742 01a6 01       		.uleb128 0x1
ARM GAS  /tmp/cczMqacF.s 			page 67


 3743 01a7 13       		.uleb128 0x13
 3744 01a8 00       		.byte	0
 3745 01a9 00       		.byte	0
 3746 01aa 23       		.uleb128 0x23
 3747 01ab 34       		.uleb128 0x34
 3748 01ac 00       		.byte	0
 3749 01ad 03       		.uleb128 0x3
 3750 01ae 0E       		.uleb128 0xe
 3751 01af 3A       		.uleb128 0x3a
 3752 01b0 0B       		.uleb128 0xb
 3753 01b1 3B       		.uleb128 0x3b
 3754 01b2 0B       		.uleb128 0xb
 3755 01b3 49       		.uleb128 0x49
 3756 01b4 13       		.uleb128 0x13
 3757 01b5 00       		.byte	0
 3758 01b6 00       		.byte	0
 3759 01b7 24       		.uleb128 0x24
 3760 01b8 34       		.uleb128 0x34
 3761 01b9 00       		.byte	0
 3762 01ba 03       		.uleb128 0x3
 3763 01bb 0E       		.uleb128 0xe
 3764 01bc 3A       		.uleb128 0x3a
 3765 01bd 0B       		.uleb128 0xb
 3766 01be 3B       		.uleb128 0x3b
 3767 01bf 0B       		.uleb128 0xb
 3768 01c0 49       		.uleb128 0x49
 3769 01c1 13       		.uleb128 0x13
 3770 01c2 3F       		.uleb128 0x3f
 3771 01c3 19       		.uleb128 0x19
 3772 01c4 3C       		.uleb128 0x3c
 3773 01c5 19       		.uleb128 0x19
 3774 01c6 00       		.byte	0
 3775 01c7 00       		.byte	0
 3776 01c8 25       		.uleb128 0x25
 3777 01c9 21       		.uleb128 0x21
 3778 01ca 00       		.byte	0
 3779 01cb 00       		.byte	0
 3780 01cc 00       		.byte	0
 3781 01cd 26       		.uleb128 0x26
 3782 01ce 2E       		.uleb128 0x2e
 3783 01cf 01       		.byte	0x1
 3784 01d0 03       		.uleb128 0x3
 3785 01d1 0E       		.uleb128 0xe
 3786 01d2 3A       		.uleb128 0x3a
 3787 01d3 0B       		.uleb128 0xb
 3788 01d4 3B       		.uleb128 0x3b
 3789 01d5 0B       		.uleb128 0xb
 3790 01d6 27       		.uleb128 0x27
 3791 01d7 19       		.uleb128 0x19
 3792 01d8 11       		.uleb128 0x11
 3793 01d9 01       		.uleb128 0x1
 3794 01da 12       		.uleb128 0x12
 3795 01db 06       		.uleb128 0x6
 3796 01dc 40       		.uleb128 0x40
 3797 01dd 18       		.uleb128 0x18
 3798 01de 9742     		.uleb128 0x2117
 3799 01e0 19       		.uleb128 0x19
ARM GAS  /tmp/cczMqacF.s 			page 68


 3800 01e1 01       		.uleb128 0x1
 3801 01e2 13       		.uleb128 0x13
 3802 01e3 00       		.byte	0
 3803 01e4 00       		.byte	0
 3804 01e5 27       		.uleb128 0x27
 3805 01e6 05       		.uleb128 0x5
 3806 01e7 00       		.byte	0
 3807 01e8 03       		.uleb128 0x3
 3808 01e9 0E       		.uleb128 0xe
 3809 01ea 3A       		.uleb128 0x3a
 3810 01eb 0B       		.uleb128 0xb
 3811 01ec 3B       		.uleb128 0x3b
 3812 01ed 0B       		.uleb128 0xb
 3813 01ee 49       		.uleb128 0x49
 3814 01ef 13       		.uleb128 0x13
 3815 01f0 02       		.uleb128 0x2
 3816 01f1 17       		.uleb128 0x17
 3817 01f2 00       		.byte	0
 3818 01f3 00       		.byte	0
 3819 01f4 28       		.uleb128 0x28
 3820 01f5 05       		.uleb128 0x5
 3821 01f6 00       		.byte	0
 3822 01f7 03       		.uleb128 0x3
 3823 01f8 08       		.uleb128 0x8
 3824 01f9 3A       		.uleb128 0x3a
 3825 01fa 0B       		.uleb128 0xb
 3826 01fb 3B       		.uleb128 0x3b
 3827 01fc 0B       		.uleb128 0xb
 3828 01fd 49       		.uleb128 0x49
 3829 01fe 13       		.uleb128 0x13
 3830 01ff 02       		.uleb128 0x2
 3831 0200 17       		.uleb128 0x17
 3832 0201 00       		.byte	0
 3833 0202 00       		.byte	0
 3834 0203 29       		.uleb128 0x29
 3835 0204 898201   		.uleb128 0x4109
 3836 0207 01       		.byte	0x1
 3837 0208 11       		.uleb128 0x11
 3838 0209 01       		.uleb128 0x1
 3839 020a 9342     		.uleb128 0x2113
 3840 020c 18       		.uleb128 0x18
 3841 020d 00       		.byte	0
 3842 020e 00       		.byte	0
 3843 020f 2A       		.uleb128 0x2a
 3844 0210 8A8201   		.uleb128 0x410a
 3845 0213 00       		.byte	0
 3846 0214 02       		.uleb128 0x2
 3847 0215 18       		.uleb128 0x18
 3848 0216 9142     		.uleb128 0x2111
 3849 0218 18       		.uleb128 0x18
 3850 0219 00       		.byte	0
 3851 021a 00       		.byte	0
 3852 021b 2B       		.uleb128 0x2b
 3853 021c 2E       		.uleb128 0x2e
 3854 021d 01       		.byte	0x1
 3855 021e 03       		.uleb128 0x3
 3856 021f 0E       		.uleb128 0xe
ARM GAS  /tmp/cczMqacF.s 			page 69


 3857 0220 3A       		.uleb128 0x3a
 3858 0221 0B       		.uleb128 0xb
 3859 0222 3B       		.uleb128 0x3b
 3860 0223 0B       		.uleb128 0xb
 3861 0224 27       		.uleb128 0x27
 3862 0225 19       		.uleb128 0x19
 3863 0226 20       		.uleb128 0x20
 3864 0227 0B       		.uleb128 0xb
 3865 0228 01       		.uleb128 0x1
 3866 0229 13       		.uleb128 0x13
 3867 022a 00       		.byte	0
 3868 022b 00       		.byte	0
 3869 022c 2C       		.uleb128 0x2c
 3870 022d 2E       		.uleb128 0x2e
 3871 022e 01       		.byte	0x1
 3872 022f 3F       		.uleb128 0x3f
 3873 0230 19       		.uleb128 0x19
 3874 0231 03       		.uleb128 0x3
 3875 0232 0E       		.uleb128 0xe
 3876 0233 3A       		.uleb128 0x3a
 3877 0234 0B       		.uleb128 0xb
 3878 0235 3B       		.uleb128 0x3b
 3879 0236 0B       		.uleb128 0xb
 3880 0237 27       		.uleb128 0x27
 3881 0238 19       		.uleb128 0x19
 3882 0239 11       		.uleb128 0x11
 3883 023a 01       		.uleb128 0x1
 3884 023b 12       		.uleb128 0x12
 3885 023c 06       		.uleb128 0x6
 3886 023d 40       		.uleb128 0x40
 3887 023e 18       		.uleb128 0x18
 3888 023f 9742     		.uleb128 0x2117
 3889 0241 19       		.uleb128 0x19
 3890 0242 01       		.uleb128 0x1
 3891 0243 13       		.uleb128 0x13
 3892 0244 00       		.byte	0
 3893 0245 00       		.byte	0
 3894 0246 2D       		.uleb128 0x2d
 3895 0247 34       		.uleb128 0x34
 3896 0248 00       		.byte	0
 3897 0249 03       		.uleb128 0x3
 3898 024a 08       		.uleb128 0x8
 3899 024b 3A       		.uleb128 0x3a
 3900 024c 0B       		.uleb128 0xb
 3901 024d 3B       		.uleb128 0x3b
 3902 024e 0B       		.uleb128 0xb
 3903 024f 49       		.uleb128 0x49
 3904 0250 13       		.uleb128 0x13
 3905 0251 02       		.uleb128 0x2
 3906 0252 17       		.uleb128 0x17
 3907 0253 00       		.byte	0
 3908 0254 00       		.byte	0
 3909 0255 2E       		.uleb128 0x2e
 3910 0256 1D       		.uleb128 0x1d
 3911 0257 01       		.byte	0x1
 3912 0258 31       		.uleb128 0x31
 3913 0259 13       		.uleb128 0x13
ARM GAS  /tmp/cczMqacF.s 			page 70


 3914 025a 11       		.uleb128 0x11
 3915 025b 01       		.uleb128 0x1
 3916 025c 12       		.uleb128 0x12
 3917 025d 06       		.uleb128 0x6
 3918 025e 58       		.uleb128 0x58
 3919 025f 0B       		.uleb128 0xb
 3920 0260 59       		.uleb128 0x59
 3921 0261 0B       		.uleb128 0xb
 3922 0262 01       		.uleb128 0x1
 3923 0263 13       		.uleb128 0x13
 3924 0264 00       		.byte	0
 3925 0265 00       		.byte	0
 3926 0266 2F       		.uleb128 0x2f
 3927 0267 0B       		.uleb128 0xb
 3928 0268 01       		.byte	0x1
 3929 0269 11       		.uleb128 0x11
 3930 026a 01       		.uleb128 0x1
 3931 026b 12       		.uleb128 0x12
 3932 026c 06       		.uleb128 0x6
 3933 026d 00       		.byte	0
 3934 026e 00       		.byte	0
 3935 026f 30       		.uleb128 0x30
 3936 0270 34       		.uleb128 0x34
 3937 0271 00       		.byte	0
 3938 0272 31       		.uleb128 0x31
 3939 0273 13       		.uleb128 0x13
 3940 0274 02       		.uleb128 0x2
 3941 0275 17       		.uleb128 0x17
 3942 0276 00       		.byte	0
 3943 0277 00       		.byte	0
 3944 0278 31       		.uleb128 0x31
 3945 0279 898201   		.uleb128 0x4109
 3946 027c 01       		.byte	0x1
 3947 027d 11       		.uleb128 0x11
 3948 027e 01       		.uleb128 0x1
 3949 027f 31       		.uleb128 0x31
 3950 0280 13       		.uleb128 0x13
 3951 0281 00       		.byte	0
 3952 0282 00       		.byte	0
 3953 0283 32       		.uleb128 0x32
 3954 0284 898201   		.uleb128 0x4109
 3955 0287 01       		.byte	0x1
 3956 0288 11       		.uleb128 0x11
 3957 0289 01       		.uleb128 0x1
 3958 028a 31       		.uleb128 0x31
 3959 028b 13       		.uleb128 0x13
 3960 028c 01       		.uleb128 0x1
 3961 028d 13       		.uleb128 0x13
 3962 028e 00       		.byte	0
 3963 028f 00       		.byte	0
 3964 0290 33       		.uleb128 0x33
 3965 0291 34       		.uleb128 0x34
 3966 0292 00       		.byte	0
 3967 0293 31       		.uleb128 0x31
 3968 0294 13       		.uleb128 0x13
 3969 0295 00       		.byte	0
 3970 0296 00       		.byte	0
ARM GAS  /tmp/cczMqacF.s 			page 71


 3971 0297 34       		.uleb128 0x34
 3972 0298 34       		.uleb128 0x34
 3973 0299 00       		.byte	0
 3974 029a 31       		.uleb128 0x31
 3975 029b 13       		.uleb128 0x13
 3976 029c 3C       		.uleb128 0x3c
 3977 029d 19       		.uleb128 0x19
 3978 029e 00       		.byte	0
 3979 029f 00       		.byte	0
 3980 02a0 35       		.uleb128 0x35
 3981 02a1 1D       		.uleb128 0x1d
 3982 02a2 01       		.byte	0x1
 3983 02a3 31       		.uleb128 0x31
 3984 02a4 13       		.uleb128 0x13
 3985 02a5 52       		.uleb128 0x52
 3986 02a6 01       		.uleb128 0x1
 3987 02a7 55       		.uleb128 0x55
 3988 02a8 17       		.uleb128 0x17
 3989 02a9 58       		.uleb128 0x58
 3990 02aa 0B       		.uleb128 0xb
 3991 02ab 59       		.uleb128 0x59
 3992 02ac 05       		.uleb128 0x5
 3993 02ad 01       		.uleb128 0x1
 3994 02ae 13       		.uleb128 0x13
 3995 02af 00       		.byte	0
 3996 02b0 00       		.byte	0
 3997 02b1 36       		.uleb128 0x36
 3998 02b2 05       		.uleb128 0x5
 3999 02b3 00       		.byte	0
 4000 02b4 31       		.uleb128 0x31
 4001 02b5 13       		.uleb128 0x13
 4002 02b6 1C       		.uleb128 0x1c
 4003 02b7 0B       		.uleb128 0xb
 4004 02b8 00       		.byte	0
 4005 02b9 00       		.byte	0
 4006 02ba 37       		.uleb128 0x37
 4007 02bb 05       		.uleb128 0x5
 4008 02bc 00       		.byte	0
 4009 02bd 31       		.uleb128 0x31
 4010 02be 13       		.uleb128 0x13
 4011 02bf 1C       		.uleb128 0x1c
 4012 02c0 0D       		.uleb128 0xd
 4013 02c1 00       		.byte	0
 4014 02c2 00       		.byte	0
 4015 02c3 38       		.uleb128 0x38
 4016 02c4 0B       		.uleb128 0xb
 4017 02c5 01       		.byte	0x1
 4018 02c6 55       		.uleb128 0x55
 4019 02c7 17       		.uleb128 0x17
 4020 02c8 00       		.byte	0
 4021 02c9 00       		.byte	0
 4022 02ca 39       		.uleb128 0x39
 4023 02cb 1D       		.uleb128 0x1d
 4024 02cc 01       		.byte	0x1
 4025 02cd 31       		.uleb128 0x31
 4026 02ce 13       		.uleb128 0x13
 4027 02cf 11       		.uleb128 0x11
ARM GAS  /tmp/cczMqacF.s 			page 72


 4028 02d0 01       		.uleb128 0x1
 4029 02d1 12       		.uleb128 0x12
 4030 02d2 06       		.uleb128 0x6
 4031 02d3 58       		.uleb128 0x58
 4032 02d4 0B       		.uleb128 0xb
 4033 02d5 59       		.uleb128 0x59
 4034 02d6 05       		.uleb128 0x5
 4035 02d7 01       		.uleb128 0x1
 4036 02d8 13       		.uleb128 0x13
 4037 02d9 00       		.byte	0
 4038 02da 00       		.byte	0
 4039 02db 3A       		.uleb128 0x3a
 4040 02dc 898201   		.uleb128 0x4109
 4041 02df 00       		.byte	0
 4042 02e0 11       		.uleb128 0x11
 4043 02e1 01       		.uleb128 0x1
 4044 02e2 31       		.uleb128 0x31
 4045 02e3 13       		.uleb128 0x13
 4046 02e4 00       		.byte	0
 4047 02e5 00       		.byte	0
 4048 02e6 3B       		.uleb128 0x3b
 4049 02e7 2E       		.uleb128 0x2e
 4050 02e8 01       		.byte	0x1
 4051 02e9 3F       		.uleb128 0x3f
 4052 02ea 19       		.uleb128 0x19
 4053 02eb 03       		.uleb128 0x3
 4054 02ec 0E       		.uleb128 0xe
 4055 02ed 3A       		.uleb128 0x3a
 4056 02ee 0B       		.uleb128 0xb
 4057 02ef 3B       		.uleb128 0x3b
 4058 02f0 05       		.uleb128 0x5
 4059 02f1 27       		.uleb128 0x27
 4060 02f2 19       		.uleb128 0x19
 4061 02f3 49       		.uleb128 0x49
 4062 02f4 13       		.uleb128 0x13
 4063 02f5 11       		.uleb128 0x11
 4064 02f6 01       		.uleb128 0x1
 4065 02f7 12       		.uleb128 0x12
 4066 02f8 06       		.uleb128 0x6
 4067 02f9 40       		.uleb128 0x40
 4068 02fa 18       		.uleb128 0x18
 4069 02fb 9742     		.uleb128 0x2117
 4070 02fd 19       		.uleb128 0x19
 4071 02fe 01       		.uleb128 0x1
 4072 02ff 13       		.uleb128 0x13
 4073 0300 00       		.byte	0
 4074 0301 00       		.byte	0
 4075 0302 3C       		.uleb128 0x3c
 4076 0303 34       		.uleb128 0x34
 4077 0304 00       		.byte	0
 4078 0305 03       		.uleb128 0x3
 4079 0306 0E       		.uleb128 0xe
 4080 0307 3A       		.uleb128 0x3a
 4081 0308 0B       		.uleb128 0xb
 4082 0309 3B       		.uleb128 0x3b
 4083 030a 0B       		.uleb128 0xb
 4084 030b 49       		.uleb128 0x49
ARM GAS  /tmp/cczMqacF.s 			page 73


 4085 030c 13       		.uleb128 0x13
 4086 030d 02       		.uleb128 0x2
 4087 030e 18       		.uleb128 0x18
 4088 030f 00       		.byte	0
 4089 0310 00       		.byte	0
 4090 0311 3D       		.uleb128 0x3d
 4091 0312 34       		.uleb128 0x34
 4092 0313 00       		.byte	0
 4093 0314 03       		.uleb128 0x3
 4094 0315 0E       		.uleb128 0xe
 4095 0316 3A       		.uleb128 0x3a
 4096 0317 0B       		.uleb128 0xb
 4097 0318 3B       		.uleb128 0x3b
 4098 0319 05       		.uleb128 0x5
 4099 031a 49       		.uleb128 0x49
 4100 031b 13       		.uleb128 0x13
 4101 031c 3F       		.uleb128 0x3f
 4102 031d 19       		.uleb128 0x19
 4103 031e 3C       		.uleb128 0x3c
 4104 031f 19       		.uleb128 0x19
 4105 0320 00       		.byte	0
 4106 0321 00       		.byte	0
 4107 0322 3E       		.uleb128 0x3e
 4108 0323 34       		.uleb128 0x34
 4109 0324 00       		.byte	0
 4110 0325 03       		.uleb128 0x3
 4111 0326 08       		.uleb128 0x8
 4112 0327 3A       		.uleb128 0x3a
 4113 0328 0B       		.uleb128 0xb
 4114 0329 3B       		.uleb128 0x3b
 4115 032a 05       		.uleb128 0x5
 4116 032b 49       		.uleb128 0x49
 4117 032c 13       		.uleb128 0x13
 4118 032d 3F       		.uleb128 0x3f
 4119 032e 19       		.uleb128 0x19
 4120 032f 3C       		.uleb128 0x3c
 4121 0330 19       		.uleb128 0x19
 4122 0331 00       		.byte	0
 4123 0332 00       		.byte	0
 4124 0333 3F       		.uleb128 0x3f
 4125 0334 34       		.uleb128 0x34
 4126 0335 00       		.byte	0
 4127 0336 03       		.uleb128 0x3
 4128 0337 0E       		.uleb128 0xe
 4129 0338 3A       		.uleb128 0x3a
 4130 0339 0B       		.uleb128 0xb
 4131 033a 3B       		.uleb128 0x3b
 4132 033b 05       		.uleb128 0x5
 4133 033c 49       		.uleb128 0x49
 4134 033d 13       		.uleb128 0x13
 4135 033e 3F       		.uleb128 0x3f
 4136 033f 19       		.uleb128 0x19
 4137 0340 02       		.uleb128 0x2
 4138 0341 18       		.uleb128 0x18
 4139 0342 00       		.byte	0
 4140 0343 00       		.byte	0
 4141 0344 40       		.uleb128 0x40
ARM GAS  /tmp/cczMqacF.s 			page 74


 4142 0345 34       		.uleb128 0x34
 4143 0346 00       		.byte	0
 4144 0347 03       		.uleb128 0x3
 4145 0348 08       		.uleb128 0x8
 4146 0349 3A       		.uleb128 0x3a
 4147 034a 0B       		.uleb128 0xb
 4148 034b 3B       		.uleb128 0x3b
 4149 034c 0B       		.uleb128 0xb
 4150 034d 49       		.uleb128 0x49
 4151 034e 13       		.uleb128 0x13
 4152 034f 3F       		.uleb128 0x3f
 4153 0350 19       		.uleb128 0x19
 4154 0351 3C       		.uleb128 0x3c
 4155 0352 19       		.uleb128 0x19
 4156 0353 00       		.byte	0
 4157 0354 00       		.byte	0
 4158 0355 41       		.uleb128 0x41
 4159 0356 34       		.uleb128 0x34
 4160 0357 00       		.byte	0
 4161 0358 03       		.uleb128 0x3
 4162 0359 0E       		.uleb128 0xe
 4163 035a 3A       		.uleb128 0x3a
 4164 035b 0B       		.uleb128 0xb
 4165 035c 3B       		.uleb128 0x3b
 4166 035d 0B       		.uleb128 0xb
 4167 035e 49       		.uleb128 0x49
 4168 035f 13       		.uleb128 0x13
 4169 0360 3F       		.uleb128 0x3f
 4170 0361 19       		.uleb128 0x19
 4171 0362 02       		.uleb128 0x2
 4172 0363 18       		.uleb128 0x18
 4173 0364 00       		.byte	0
 4174 0365 00       		.byte	0
 4175 0366 42       		.uleb128 0x42
 4176 0367 21       		.uleb128 0x21
 4177 0368 00       		.byte	0
 4178 0369 49       		.uleb128 0x49
 4179 036a 13       		.uleb128 0x13
 4180 036b 2F       		.uleb128 0x2f
 4181 036c 05       		.uleb128 0x5
 4182 036d 00       		.byte	0
 4183 036e 00       		.byte	0
 4184 036f 43       		.uleb128 0x43
 4185 0370 2E       		.uleb128 0x2e
 4186 0371 01       		.byte	0x1
 4187 0372 3F       		.uleb128 0x3f
 4188 0373 19       		.uleb128 0x19
 4189 0374 03       		.uleb128 0x3
 4190 0375 0E       		.uleb128 0xe
 4191 0376 3A       		.uleb128 0x3a
 4192 0377 0B       		.uleb128 0xb
 4193 0378 3B       		.uleb128 0x3b
 4194 0379 0B       		.uleb128 0xb
 4195 037a 27       		.uleb128 0x27
 4196 037b 19       		.uleb128 0x19
 4197 037c 3C       		.uleb128 0x3c
 4198 037d 19       		.uleb128 0x19
ARM GAS  /tmp/cczMqacF.s 			page 75


 4199 037e 01       		.uleb128 0x1
 4200 037f 13       		.uleb128 0x13
 4201 0380 00       		.byte	0
 4202 0381 00       		.byte	0
 4203 0382 44       		.uleb128 0x44
 4204 0383 2E       		.uleb128 0x2e
 4205 0384 01       		.byte	0x1
 4206 0385 3F       		.uleb128 0x3f
 4207 0386 19       		.uleb128 0x19
 4208 0387 03       		.uleb128 0x3
 4209 0388 0E       		.uleb128 0xe
 4210 0389 3A       		.uleb128 0x3a
 4211 038a 0B       		.uleb128 0xb
 4212 038b 3B       		.uleb128 0x3b
 4213 038c 0B       		.uleb128 0xb
 4214 038d 27       		.uleb128 0x27
 4215 038e 19       		.uleb128 0x19
 4216 038f 49       		.uleb128 0x49
 4217 0390 13       		.uleb128 0x13
 4218 0391 3C       		.uleb128 0x3c
 4219 0392 19       		.uleb128 0x19
 4220 0393 01       		.uleb128 0x1
 4221 0394 13       		.uleb128 0x13
 4222 0395 00       		.byte	0
 4223 0396 00       		.byte	0
 4224 0397 45       		.uleb128 0x45
 4225 0398 2E       		.uleb128 0x2e
 4226 0399 01       		.byte	0x1
 4227 039a 3F       		.uleb128 0x3f
 4228 039b 19       		.uleb128 0x19
 4229 039c 03       		.uleb128 0x3
 4230 039d 0E       		.uleb128 0xe
 4231 039e 3A       		.uleb128 0x3a
 4232 039f 0B       		.uleb128 0xb
 4233 03a0 3B       		.uleb128 0x3b
 4234 03a1 05       		.uleb128 0x5
 4235 03a2 27       		.uleb128 0x27
 4236 03a3 19       		.uleb128 0x19
 4237 03a4 3C       		.uleb128 0x3c
 4238 03a5 19       		.uleb128 0x19
 4239 03a6 01       		.uleb128 0x1
 4240 03a7 13       		.uleb128 0x13
 4241 03a8 00       		.byte	0
 4242 03a9 00       		.byte	0
 4243 03aa 46       		.uleb128 0x46
 4244 03ab 18       		.uleb128 0x18
 4245 03ac 00       		.byte	0
 4246 03ad 00       		.byte	0
 4247 03ae 00       		.byte	0
 4248 03af 47       		.uleb128 0x47
 4249 03b0 2E       		.uleb128 0x2e
 4250 03b1 00       		.byte	0
 4251 03b2 3F       		.uleb128 0x3f
 4252 03b3 19       		.uleb128 0x19
 4253 03b4 03       		.uleb128 0x3
 4254 03b5 0E       		.uleb128 0xe
 4255 03b6 3A       		.uleb128 0x3a
ARM GAS  /tmp/cczMqacF.s 			page 76


 4256 03b7 0B       		.uleb128 0xb
 4257 03b8 3B       		.uleb128 0x3b
 4258 03b9 0B       		.uleb128 0xb
 4259 03ba 27       		.uleb128 0x27
 4260 03bb 19       		.uleb128 0x19
 4261 03bc 3C       		.uleb128 0x3c
 4262 03bd 19       		.uleb128 0x19
 4263 03be 00       		.byte	0
 4264 03bf 00       		.byte	0
 4265 03c0 48       		.uleb128 0x48
 4266 03c1 2E       		.uleb128 0x2e
 4267 03c2 00       		.byte	0
 4268 03c3 3F       		.uleb128 0x3f
 4269 03c4 19       		.uleb128 0x19
 4270 03c5 03       		.uleb128 0x3
 4271 03c6 0E       		.uleb128 0xe
 4272 03c7 3A       		.uleb128 0x3a
 4273 03c8 0B       		.uleb128 0xb
 4274 03c9 3B       		.uleb128 0x3b
 4275 03ca 05       		.uleb128 0x5
 4276 03cb 27       		.uleb128 0x27
 4277 03cc 19       		.uleb128 0x19
 4278 03cd 3C       		.uleb128 0x3c
 4279 03ce 19       		.uleb128 0x19
 4280 03cf 00       		.byte	0
 4281 03d0 00       		.byte	0
 4282 03d1 00       		.byte	0
 4283              		.section	.debug_loc,"",%progbits
 4284              	.Ldebug_loc0:
 4285              	.LLST0:
 4286 0000 00000000 		.4byte	.LVL0
 4287 0004 08000000 		.4byte	.LVL1
 4288 0008 0100     		.2byte	0x1
 4289 000a 50       		.byte	0x50
 4290 000b 08000000 		.4byte	.LVL1
 4291 000f 20000000 		.4byte	.LFE107
 4292 0013 0400     		.2byte	0x4
 4293 0015 F3       		.byte	0xf3
 4294 0016 01       		.uleb128 0x1
 4295 0017 50       		.byte	0x50
 4296 0018 9F       		.byte	0x9f
 4297 0019 00000000 		.4byte	0
 4298 001d 00000000 		.4byte	0
 4299              	.LLST1:
 4300 0021 00000000 		.4byte	.LVL0
 4301 0025 12000000 		.4byte	.LVL2
 4302 0029 0100     		.2byte	0x1
 4303 002b 51       		.byte	0x51
 4304 002c 12000000 		.4byte	.LVL2
 4305 0030 15000000 		.4byte	.LVL3-1
 4306 0034 0200     		.2byte	0x2
 4307 0036 71       		.byte	0x71
 4308 0037 00       		.sleb128 0
 4309 0038 15000000 		.4byte	.LVL3-1
 4310 003c 18000000 		.4byte	.LVL4
 4311 0040 0200     		.2byte	0x2
 4312 0042 7D       		.byte	0x7d
ARM GAS  /tmp/cczMqacF.s 			page 77


 4313 0043 07       		.sleb128 7
 4314 0044 18000000 		.4byte	.LVL4
 4315 0048 20000000 		.4byte	.LFE107
 4316 004c 0200     		.2byte	0x2
 4317 004e 91       		.byte	0x91
 4318 004f 77       		.sleb128 -9
 4319 0050 00000000 		.4byte	0
 4320 0054 00000000 		.4byte	0
 4321              	.LLST2:
 4322 0058 44000000 		.4byte	.LVL6
 4323 005c 54000000 		.4byte	.LVL7
 4324 0060 0200     		.2byte	0x2
 4325 0062 30       		.byte	0x30
 4326 0063 9F       		.byte	0x9f
 4327 0064 A4000000 		.4byte	.LVL11
 4328 0068 C8000000 		.4byte	.LVL15
 4329 006c 0100     		.2byte	0x1
 4330 006e 53       		.byte	0x53
 4331 006f D0000000 		.4byte	.LVL17
 4332 0073 04010000 		.4byte	.LFE105
 4333 0077 0100     		.2byte	0x1
 4334 0079 53       		.byte	0x53
 4335 007a 00000000 		.4byte	0
 4336 007e 00000000 		.4byte	0
 4337              	.LLST3:
 4338 0082 68000000 		.4byte	.LVL8
 4339 0086 6A000000 		.4byte	.LVL9
 4340 008a 0200     		.2byte	0x2
 4341 008c 30       		.byte	0x30
 4342 008d 9F       		.byte	0x9f
 4343 008e 00000000 		.4byte	0
 4344 0092 00000000 		.4byte	0
 4345              	.LLST4:
 4346 0096 00000000 		.4byte	.LVL18
 4347 009a 0C000000 		.4byte	.LVL19
 4348 009e 0100     		.2byte	0x1
 4349 00a0 50       		.byte	0x50
 4350 00a1 0C000000 		.4byte	.LVL19
 4351 00a5 24010000 		.4byte	.LFE108
 4352 00a9 0400     		.2byte	0x4
 4353 00ab F3       		.byte	0xf3
 4354 00ac 01       		.uleb128 0x1
 4355 00ad 50       		.byte	0x50
 4356 00ae 9F       		.byte	0x9f
 4357 00af 00000000 		.4byte	0
 4358 00b3 00000000 		.4byte	0
 4359              		.section	.debug_aranges,"",%progbits
 4360 0000 34000000 		.4byte	0x34
 4361 0004 0200     		.2byte	0x2
 4362 0006 00000000 		.4byte	.Ldebug_info0
 4363 000a 04       		.byte	0x4
 4364 000b 00       		.byte	0
 4365 000c 0000     		.2byte	0
 4366 000e 0000     		.2byte	0
 4367 0010 00000000 		.4byte	.LFB107
 4368 0014 20000000 		.4byte	.LFE107-.LFB107
 4369 0018 00000000 		.4byte	.LFB105
ARM GAS  /tmp/cczMqacF.s 			page 78


 4370 001c 04010000 		.4byte	.LFE105-.LFB105
 4371 0020 00000000 		.4byte	.LFB108
 4372 0024 24010000 		.4byte	.LFE108-.LFB108
 4373 0028 00000000 		.4byte	.LFB109
 4374 002c 0C000000 		.4byte	.LFE109-.LFB109
 4375 0030 00000000 		.4byte	0
 4376 0034 00000000 		.4byte	0
 4377              		.section	.debug_ranges,"",%progbits
 4378              	.Ldebug_ranges0:
 4379 0000 6E000000 		.4byte	.LBB48
 4380 0004 70000000 		.4byte	.LBE48
 4381 0008 72000000 		.4byte	.LBB54
 4382 000c 7E000000 		.4byte	.LBE54
 4383 0010 00000000 		.4byte	0
 4384 0014 00000000 		.4byte	0
 4385 0018 70000000 		.4byte	.LBB51
 4386 001c 72000000 		.4byte	.LBE51
 4387 0020 7E000000 		.4byte	.LBB55
 4388 0024 88000000 		.4byte	.LBE55
 4389 0028 00000000 		.4byte	0
 4390 002c 00000000 		.4byte	0
 4391 0030 98000000 		.4byte	.LBB56
 4392 0034 9A000000 		.4byte	.LBE56
 4393 0038 9C000000 		.4byte	.LBB66
 4394 003c 9E000000 		.4byte	.LBE66
 4395 0040 A2000000 		.4byte	.LBB74
 4396 0044 A4000000 		.4byte	.LBE74
 4397 0048 A6000000 		.4byte	.LBB75
 4398 004c A8000000 		.4byte	.LBE75
 4399 0050 AE000000 		.4byte	.LBB78
 4400 0054 B0000000 		.4byte	.LBE78
 4401 0058 00000000 		.4byte	0
 4402 005c 00000000 		.4byte	0
 4403 0060 9A000000 		.4byte	.LBB62
 4404 0064 9C000000 		.4byte	.LBE62
 4405 0068 AA000000 		.4byte	.LBB77
 4406 006c AC000000 		.4byte	.LBE77
 4407 0070 B0000000 		.4byte	.LBB79
 4408 0074 B2000000 		.4byte	.LBE79
 4409 0078 00000000 		.4byte	0
 4410 007c 00000000 		.4byte	0
 4411 0080 9E000000 		.4byte	.LBB67
 4412 0084 A0000000 		.4byte	.LBE67
 4413 0088 A8000000 		.4byte	.LBB76
 4414 008c AA000000 		.4byte	.LBE76
 4415 0090 B2000000 		.4byte	.LBB80
 4416 0094 BE000000 		.4byte	.LBE80
 4417 0098 00000000 		.4byte	0
 4418 009c 00000000 		.4byte	0
 4419 00a0 00000000 		.4byte	.LFB107
 4420 00a4 20000000 		.4byte	.LFE107
 4421 00a8 00000000 		.4byte	.LFB105
 4422 00ac 04010000 		.4byte	.LFE105
 4423 00b0 00000000 		.4byte	.LFB108
 4424 00b4 24010000 		.4byte	.LFE108
 4425 00b8 00000000 		.4byte	.LFB109
 4426 00bc 0C000000 		.4byte	.LFE109
ARM GAS  /tmp/cczMqacF.s 			page 79


 4427 00c0 00000000 		.4byte	0
 4428 00c4 00000000 		.4byte	0
 4429              		.section	.debug_line,"",%progbits
 4430              	.Ldebug_line0:
 4431 0000 86030000 		.section	.debug_str,"MS",%progbits,1
 4431      02007D02 
 4431      00000201 
 4431      FB0E0D00 
 4431      01010101 
 4432              	.LASF68:
 4433 0000 52534552 		.ascii	"RSERVED1\000"
 4433      56454431 
 4433      00
 4434              	.LASF2:
 4435 0009 696E7438 		.ascii	"int8_t\000"
 4435      5F7400
 4436              	.LASF234:
 4437 0010 67697476 		.ascii	"gitversion\000"
 4437      65727369 
 4437      6F6E00
 4438              	.LASF1:
 4439 001b 73697A65 		.ascii	"size_t\000"
 4439      5F7400
 4440              	.LASF74:
 4441 0022 73697A65 		.ascii	"sizetype\000"
 4441      74797065 
 4441      00
 4442              	.LASF25:
 4443 002b 73797374 		.ascii	"systime_t\000"
 4443      696D655F 
 4443      7400
 4444              	.LASF193:
 4445 0035 63616C69 		.ascii	"calibrate\000"
 4445      62726174 
 4445      6500
 4446              	.LASF184:
 4447 003f 61646363 		.ascii	"adccallback_t\000"
 4447      616C6C62 
 4447      61636B5F 
 4447      7400
 4448              	.LASF58:
 4449 004d 54534930 		.ascii	"TSI0_IRQn\000"
 4449      5F495251 
 4449      6E00
 4450              	.LASF191:
 4451 0057 63666731 		.ascii	"cfg1\000"
 4451      00
 4452              	.LASF109:
 4453 005c 50544F52 		.ascii	"PTOR\000"
 4453      00
 4454              	.LASF252:
 4455 0061 64656D6F 		.ascii	"demodInit\000"
 4455      64496E69 
 4455      7400
 4456              	.LASF6:
 4457 006b 696E7433 		.ascii	"int32_t\000"
 4457      325F7400 
ARM GAS  /tmp/cczMqacF.s 			page 80


 4458              	.LASF205:
 4459 0073 53657269 		.ascii	"SerialConfig\000"
 4459      616C436F 
 4459      6E666967 
 4459      00
 4460              	.LASF170:
 4461 0080 61646373 		.ascii	"adcstate_t\000"
 4461      74617465 
 4461      5F7400
 4462              	.LASF173:
 4463 008b 4144435F 		.ascii	"ADC_ERR_DMAFAILURE\000"
 4463      4552525F 
 4463      444D4146 
 4463      41494C55 
 4463      524500
 4464              	.LASF147:
 4465 009e 77726974 		.ascii	"write\000"
 4465      6500
 4466              	.LASF78:
 4467 00a4 56544F52 		.ascii	"VTOR\000"
 4467      00
 4468              	.LASF149:
 4469 00a9 42617365 		.ascii	"BaseSequentialStream\000"
 4469      53657175 
 4469      656E7469 
 4469      616C5374 
 4469      7265616D 
 4470              	.LASF177:
 4471 00be 636F6E66 		.ascii	"config\000"
 4471      696700
 4472              	.LASF17:
 4473 00c5 73746174 		.ascii	"state\000"
 4473      6500
 4474              	.LASF263:
 4475 00cb 75706461 		.ascii	"updaterPacketProcess\000"
 4475      74657250 
 4475      61636B65 
 4475      7450726F 
 4475      63657373 
 4476              	.LASF207:
 4477 00e0 70757474 		.ascii	"putt\000"
 4477      00
 4478              	.LASF71:
 4479 00e5 49435052 		.ascii	"ICPR\000"
 4479      00
 4480              	.LASF189:
 4481 00ea 6572726F 		.ascii	"error_cb\000"
 4481      725F6362 
 4481      00
 4482              	.LASF35:
 4483 00f3 444D4133 		.ascii	"DMA3_IRQn\000"
 4483      5F495251 
 4483      6E00
 4484              	.LASF188:
 4485 00fd 656E645F 		.ascii	"end_cb\000"
 4485      636200
 4486              	.LASF156:
ARM GAS  /tmp/cczMqacF.s 			page 81


 4487 0104 715F746F 		.ascii	"q_top\000"
 4487      7000
 4488              	.LASF87:
 4489 010a 53433141 		.ascii	"SC1A\000"
 4489      00
 4490              	.LASF88:
 4491 010f 53433142 		.ascii	"SC1B\000"
 4491      00
 4492              	.LASF136:
 4493 0114 73797374 		.ascii	"systime\000"
 4493      696D6500 
 4494              	.LASF210:
 4495 011c 72656164 		.ascii	"readt\000"
 4495      7400
 4496              	.LASF79:
 4497 0122 41495243 		.ascii	"AIRCR\000"
 4497      5200
 4498              	.LASF159:
 4499 0128 715F6E6F 		.ascii	"q_notify\000"
 4499      74696679 
 4499      00
 4500              	.LASF213:
 4501 0131 6C6F6E67 		.ascii	"long int\000"
 4501      20696E74 
 4501      00
 4502              	.LASF158:
 4503 013a 715F7264 		.ascii	"q_rdptr\000"
 4503      70747200 
 4504              	.LASF257:
 4505 0142 474E5520 		.ascii	"GNU C 4.9.2 -mcpu=cortex-m0 -mfloat-abi=soft -mfp16"
 4505      4320342E 
 4505      392E3220 
 4505      2D6D6370 
 4505      753D636F 
 4506 0175 2D666F72 		.ascii	"-format=none -mno-thumb-interwork -mthumb -mfloat-a"
 4506      6D61743D 
 4506      6E6F6E65 
 4506      202D6D6E 
 4506      6F2D7468 
 4507 01a8 62693D73 		.ascii	"bi=soft -mfpu=vfpv3-d16 -mtls-dialect=gnu -ggdb -O3"
 4507      6F667420 
 4507      2D6D6670 
 4507      753D7666 
 4507      7076332D 
 4508 01db 202D7374 		.ascii	" -std=gnu99 -fomit-frame-pointer -falign-functions="
 4508      643D676E 
 4508      75393920 
 4508      2D666F6D 
 4508      69742D66 
 4509 020e 3136202D 		.ascii	"16 -ffunction-sections -fdata-sections -fno-common\000"
 4509      6666756E 
 4509      6374696F 
 4509      6E2D7365 
 4509      6374696F 
 4510              	.LASF238:
 4511 0241 706B7442 		.ascii	"pktBuf\000"
 4511      756600
ARM GAS  /tmp/cczMqacF.s 			page 82


 4512              	.LASF39:
 4513 0248 4C4C5755 		.ascii	"LLWU_IRQn\000"
 4513      5F495251 
 4513      6E00
 4514              	.LASF116:
 4515 0252 6E696C5F 		.ascii	"nil_thread\000"
 4515      74687265 
 4515      616400
 4516              	.LASF21:
 4517 025d 74737461 		.ascii	"tstate_t\000"
 4517      74655F74 
 4517      00
 4518              	.LASF262:
 4519 0266 6D61696E 		.ascii	"main\000"
 4519      00
 4520              	.LASF145:
 4521 026b 74687265 		.ascii	"threads_queue_t\000"
 4521      6164735F 
 4521      71756575 
 4521      655F7400 
 4522              	.LASF214:
 4523 027b 4952516E 		.ascii	"IRQn\000"
 4523      00
 4524              	.LASF202:
 4525 0280 6F717565 		.ascii	"oqueue\000"
 4525      756500
 4526              	.LASF114:
 4527 0287 72656761 		.ascii	"regarm_t\000"
 4527      726D5F74 
 4527      00
 4528              	.LASF34:
 4529 0290 444D4132 		.ascii	"DMA2_IRQn\000"
 4529      5F495251 
 4529      6E00
 4530              	.LASF152:
 4531 029a 696F5F71 		.ascii	"io_queue\000"
 4531      75657565 
 4531      00
 4532              	.LASF31:
 4533 02a3 53797354 		.ascii	"SysTick_IRQn\000"
 4533      69636B5F 
 4533      4952516E 
 4533      00
 4534              	.LASF56:
 4535 02b0 5553425F 		.ascii	"USB_OTG_IRQn\000"
 4535      4F54475F 
 4535      4952516E 
 4535      00
 4536              	.LASF77:
 4537 02bd 49435352 		.ascii	"ICSR\000"
 4537      00
 4538              	.LASF3:
 4539 02c2 7369676E 		.ascii	"signed char\000"
 4539      65642063 
 4539      68617200 
 4540              	.LASF131:
 4541 02ce 65776D61 		.ascii	"ewmask\000"
ARM GAS  /tmp/cczMqacF.s 			page 83


 4541      736B00
 4542              	.LASF8:
 4543 02d5 75696E74 		.ascii	"uint8_t\000"
 4543      385F7400 
 4544              	.LASF61:
 4545 02dd 52657365 		.ascii	"Reserved2_IRQn\000"
 4545      72766564 
 4545      325F4952 
 4545      516E00
 4546              	.LASF243:
 4547 02ec 6275665F 		.ascii	"buf_n\000"
 4547      6E00
 4548              	.LASF209:
 4549 02f2 77726974 		.ascii	"writet\000"
 4549      657400
 4550              	.LASF23:
 4551 02f9 6576656E 		.ascii	"eventmask_t\000"
 4551      746D6173 
 4551      6B5F7400 
 4552              	.LASF66:
 4553 0305 52455345 		.ascii	"RESERVED0\000"
 4553      52564544 
 4553      3000
 4554              	.LASF80:
 4555 030f 52455345 		.ascii	"RESERVED1\000"
 4555      52564544 
 4555      3100
 4556              	.LASF9:
 4557 0319 756E7369 		.ascii	"unsigned char\000"
 4557      676E6564 
 4557      20636861 
 4557      7200
 4558              	.LASF72:
 4559 0327 52455345 		.ascii	"RESERVED3\000"
 4559      52564544 
 4559      3300
 4560              	.LASF73:
 4561 0331 52455345 		.ascii	"RESERVED4\000"
 4561      52564544 
 4561      3400
 4562              	.LASF160:
 4563 033b 715F6C69 		.ascii	"q_link\000"
 4563      6E6B00
 4564              	.LASF175:
 4565 0342 61646365 		.ascii	"adcerror_t\000"
 4565      72726F72 
 4565      5F7400
 4566              	.LASF164:
 4567 034d 4144435F 		.ascii	"ADC_UNINIT\000"
 4567      554E494E 
 4567      495400
 4568              	.LASF195:
 4569 0358 53445F55 		.ascii	"SD_UNINIT\000"
 4569      4E494E49 
 4569      5400
 4570              	.LASF166:
 4571 0362 4144435F 		.ascii	"ADC_READY\000"
ARM GAS  /tmp/cczMqacF.s 			page 84


 4571      52454144 
 4571      5900
 4572              	.LASF150:
 4573 036c 5F426F6F 		.ascii	"_Bool\000"
 4573      6C00
 4574              	.LASF54:
 4575 0372 5049545F 		.ascii	"PIT_IRQn\000"
 4575      4952516E 
 4575      00
 4576              	.LASF217:
 4577 037b 656E646D 		.ascii	"endmem\000"
 4577      656D00
 4578              	.LASF70:
 4579 0382 52455345 		.ascii	"RESERVED2\000"
 4579      52564544 
 4579      3200
 4580              	.LASF171:
 4581 038c 61646373 		.ascii	"adcsample_t\000"
 4581      616D706C 
 4581      655F7400 
 4582              	.LASF128:
 4583 0398 63686172 		.ascii	"char\000"
 4583      00
 4584              	.LASF76:
 4585 039d 43505549 		.ascii	"CPUID\000"
 4585      4400
 4586              	.LASF82:
 4587 03a3 5343425F 		.ascii	"SCB_Type\000"
 4587      54797065 
 4587      00
 4588              	.LASF137:
 4589 03ac 74687265 		.ascii	"threads\000"
 4589      61647300 
 4590              	.LASF19:
 4591 03b4 65706D61 		.ascii	"epmask\000"
 4591      736B00
 4592              	.LASF169:
 4593 03bb 4144435F 		.ascii	"ADC_ERROR\000"
 4593      4552524F 
 4593      5200
 4594              	.LASF141:
 4595 03c5 666C6167 		.ascii	"flags\000"
 4595      7300
 4596              	.LASF46:
 4597 03cb 55415254 		.ascii	"UART2_IRQn\000"
 4597      325F4952 
 4597      516E00
 4598              	.LASF208:
 4599 03d6 67657474 		.ascii	"gett\000"
 4599      00
 4600              	.LASF115:
 4601 03db 73746B61 		.ascii	"stkalign_t\000"
 4601      6C69676E 
 4601      5F7400
 4602              	.LASF179:
 4603 03e6 64657074 		.ascii	"depth\000"
 4603      6800
ARM GAS  /tmp/cczMqacF.s 			page 85


 4604              	.LASF49:
 4605 03ec 54504D30 		.ascii	"TPM0_IRQn\000"
 4605      5F495251 
 4605      6E00
 4606              	.LASF182:
 4607 03f6 63757272 		.ascii	"current_index\000"
 4607      656E745F 
 4607      696E6465 
 4607      7800
 4608              	.LASF186:
 4609 0404 63697263 		.ascii	"circular\000"
 4609      756C6172 
 4609      00
 4610              	.LASF232:
 4611 040d 6E696C5F 		.ascii	"nil_thd_configs\000"
 4611      7468645F 
 4611      636F6E66 
 4611      69677300 
 4612              	.LASF69:
 4613 041d 49535052 		.ascii	"ISPR\000"
 4613      00
 4614              	.LASF235:
 4615 0422 73747265 		.ascii	"stream\000"
 4615      616D00
 4616              	.LASF124:
 4617 0429 77626173 		.ascii	"wbase\000"
 4617      6500
 4618              	.LASF247:
 4619 042f 696E6974 		.ascii	"init_printf\000"
 4619      5F707269 
 4619      6E746600 
 4620              	.LASF47:
 4621 043b 41444330 		.ascii	"ADC0_IRQn\000"
 4621      5F495251 
 4621      6E00
 4622              	.LASF113:
 4623 0445 55415254 		.ascii	"UARTLP_TypeDef\000"
 4623      4C505F54 
 4623      79706544 
 4623      656600
 4624              	.LASF225:
 4625 0454 70757463 		.ascii	"putc_x\000"
 4625      5F7800
 4626              	.LASF127:
 4627 045b 66756E63 		.ascii	"funcp\000"
 4627      7000
 4628              	.LASF81:
 4629 0461 53484353 		.ascii	"SHCSR\000"
 4629      5200
 4630              	.LASF24:
 4631 0467 636E745F 		.ascii	"cnt_t\000"
 4631      7400
 4632              	.LASF249:
 4633 046d 63685468 		.ascii	"chThdSleep\000"
 4633      64536C65 
 4633      657000
 4634              	.LASF105:
ARM GAS  /tmp/cczMqacF.s 			page 86


 4635 0478 4144435F 		.ascii	"ADC_TypeDef\000"
 4635      54797065 
 4635      44656600 
 4636              	.LASF120:
 4637 0484 6E696C5F 		.ascii	"nil_semaphore\000"
 4637      73656D61 
 4637      70686F72 
 4637      6500
 4638              	.LASF89:
 4639 0492 43464731 		.ascii	"CFG1\000"
 4639      00
 4640              	.LASF90:
 4641 0497 43464732 		.ascii	"CFG2\000"
 4641      00
 4642              	.LASF45:
 4643 049c 55415254 		.ascii	"UART1_IRQn\000"
 4643      315F4952 
 4643      516E00
 4644              	.LASF38:
 4645 04a7 504D435F 		.ascii	"PMC_IRQn\000"
 4645      4952516E 
 4645      00
 4646              	.LASF216:
 4647 04b0 6E657874 		.ascii	"nextmem\000"
 4647      6D656D00 
 4648              	.LASF154:
 4649 04b8 715F636F 		.ascii	"q_counter\000"
 4649      756E7465 
 4649      7200
 4650              	.LASF27:
 4651 04c2 4E6F6E4D 		.ascii	"NonMaskableInt_IRQn\000"
 4651      61736B61 
 4651      626C6549 
 4651      6E745F49 
 4651      52516E00 
 4652              	.LASF212:
 4653 04d6 6C6F6E67 		.ascii	"long unsigned int\000"
 4653      20756E73 
 4653      69676E65 
 4653      6420696E 
 4653      7400
 4654              	.LASF122:
 4655 04e8 74687265 		.ascii	"thread_config_t\000"
 4655      61645F63 
 4655      6F6E6669 
 4655      675F7400 
 4656              	.LASF142:
 4657 04f8 70617261 		.ascii	"param\000"
 4657      6D00
 4658              	.LASF59:
 4659 04fe 4D43475F 		.ascii	"MCG_IRQn\000"
 4659      4952516E 
 4659      00
 4660              	.LASF64:
 4661 0507 4952516E 		.ascii	"IRQn_Type\000"
 4661      5F547970 
 4661      6500
ARM GAS  /tmp/cczMqacF.s 			page 87


 4662              	.LASF16:
 4663 0511 63747870 		.ascii	"ctxp\000"
 4663      00
 4664              	.LASF111:
 4665 0516 50444452 		.ascii	"PDDR\000"
 4665      00
 4666              	.LASF132:
 4667 051b 6E696C5F 		.ascii	"nil_system_t\000"
 4667      73797374 
 4667      656D5F74 
 4667      00
 4668              	.LASF60:
 4669 0528 4C50544D 		.ascii	"LPTMR0_IRQn\000"
 4669      52305F49 
 4669      52516E00 
 4670              	.LASF157:
 4671 0534 715F7772 		.ascii	"q_wrptr\000"
 4671      70747200 
 4672              	.LASF206:
 4673 053c 53657269 		.ascii	"SerialDriverVMT\000"
 4673      616C4472 
 4673      69766572 
 4673      564D5400 
 4674              	.LASF246:
 4675 054c 73645374 		.ascii	"sdStart\000"
 4675      61727400 
 4676              	.LASF219:
 4677 0554 5F5F6865 		.ascii	"__heap_end__\000"
 4677      61705F65 
 4677      6E645F5F 
 4677      00
 4678              	.LASF240:
 4679 0561 73637265 		.ascii	"screenpos\000"
 4679      656E706F 
 4679      7300
 4680              	.LASF130:
 4681 056b 73656D70 		.ascii	"semp\000"
 4681      00
 4682              	.LASF255:
 4683 0570 68616C49 		.ascii	"halInit\000"
 4683      6E697400 
 4684              	.LASF20:
 4685 0578 73746B6C 		.ascii	"stklim\000"
 4685      696D00
 4686              	.LASF192:
 4687 057f 41444343 		.ascii	"ADCConversionGroup\000"
 4687      6F6E7665 
 4687      7273696F 
 4687      6E47726F 
 4687      757000
 4688              	.LASF168:
 4689 0592 4144435F 		.ascii	"ADC_COMPLETE\000"
 4689      434F4D50 
 4689      4C455445 
 4689      00
 4690              	.LASF211:
 4691 059f 7075745F 		.ascii	"put_bit_func\000"
ARM GAS  /tmp/cczMqacF.s 			page 88


 4691      6269745F 
 4691      66756E63 
 4691      00
 4692              	.LASF226:
 4693 05ac 54687265 		.ascii	"Thread1\000"
 4693      61643100 
 4694              	.LASF7:
 4695 05b4 6C6F6E67 		.ascii	"long long int\000"
 4695      206C6F6E 
 4695      6720696E 
 4695      7400
 4696              	.LASF224:
 4697 05c2 6672616D 		.ascii	"frames\000"
 4697      657300
 4698              	.LASF37:
 4699 05c9 46544641 		.ascii	"FTFA_IRQn\000"
 4699      5F495251 
 4699      6E00
 4700              	.LASF125:
 4701 05d3 77656E64 		.ascii	"wend\000"
 4701      00
 4702              	.LASF43:
 4703 05d8 53504931 		.ascii	"SPI1_IRQn\000"
 4703      5F495251 
 4703      6E00
 4704              	.LASF181:
 4705 05e2 6E756D62 		.ascii	"number_of_samples\000"
 4705      65725F6F 
 4705      665F7361 
 4705      6D706C65 
 4705      7300
 4706              	.LASF185:
 4707 05f4 61646365 		.ascii	"adcerrorcallback_t\000"
 4707      72726F72 
 4707      63616C6C 
 4707      6261636B 
 4707      5F7400
 4708              	.LASF258:
 4709 0607 6D61696E 		.ascii	"main.c\000"
 4709      2E6300
 4710              	.LASF29:
 4711 060e 53564361 		.ascii	"SVCall_IRQn\000"
 4711      6C6C5F49 
 4711      52516E00 
 4712              	.LASF223:
 4713 061a 7068795F 		.ascii	"phy_demodulate\000"
 4713      64656D6F 
 4713      64756C61 
 4713      746500
 4714              	.LASF248:
 4715 0629 7466705F 		.ascii	"tfp_printf\000"
 4715      7072696E 
 4715      746600
 4716              	.LASF139:
 4717 0634 6576656E 		.ascii	"event_source_t\000"
 4717      745F736F 
 4717      75726365 
ARM GAS  /tmp/cczMqacF.s 			page 89


 4717      5F7400
 4718              	.LASF222:
 4719 0643 73746F72 		.ascii	"storage\000"
 4719      61676500 
 4720              	.LASF230:
 4721 064b 5F5F6D61 		.ascii	"__main_thread_stack_base__\000"
 4721      696E5F74 
 4721      68726561 
 4721      645F7374 
 4721      61636B5F 
 4722              	.LASF53:
 4723 0666 52544331 		.ascii	"RTC1_IRQn\000"
 4723      5F495251 
 4723      6E00
 4724              	.LASF84:
 4725 0670 4C4F4144 		.ascii	"LOAD\000"
 4725      00
 4726              	.LASF121:
 4727 0675 7466756E 		.ascii	"tfunc_t\000"
 4727      635F7400 
 4728              	.LASF261:
 4729 067d 64656D6F 		.ascii	"demod_loop\000"
 4729      645F6C6F 
 4729      6F7000
 4730              	.LASF18:
 4731 0688 74696D65 		.ascii	"timeout\000"
 4731      6F757400 
 4732              	.LASF161:
 4733 0690 716E6F74 		.ascii	"qnotify_t\000"
 4733      6966795F 
 4733      7400
 4734              	.LASF51:
 4735 069a 54504D32 		.ascii	"TPM2_IRQn\000"
 4735      5F495251 
 4735      6E00
 4736              	.LASF200:
 4737 06a4 6576656E 		.ascii	"event\000"
 4737      7400
 4738              	.LASF148:
 4739 06aa 72656164 		.ascii	"read\000"
 4739      00
 4740              	.LASF198:
 4741 06af 73647374 		.ascii	"sdstate_t\000"
 4741      6174655F 
 4741      7400
 4742              	.LASF0:
 4743 06b9 756E7369 		.ascii	"unsigned int\000"
 4743      676E6564 
 4743      20696E74 
 4743      00
 4744              	.LASF83:
 4745 06c6 4354524C 		.ascii	"CTRL\000"
 4745      00
 4746              	.LASF33:
 4747 06cb 444D4131 		.ascii	"DMA1_IRQn\000"
 4747      5F495251 
 4747      6E00
ARM GAS  /tmp/cczMqacF.s 			page 90


 4748              	.LASF172:
 4749 06d5 6164635F 		.ascii	"adc_channels_num_t\000"
 4749      6368616E 
 4749      6E656C73 
 4749      5F6E756D 
 4749      5F7400
 4750              	.LASF133:
 4751 06e8 6E696C5F 		.ascii	"nil_system\000"
 4751      73797374 
 4751      656D00
 4752              	.LASF187:
 4753 06f3 6E756D5F 		.ascii	"num_channels\000"
 4753      6368616E 
 4753      6E656C73 
 4753      00
 4754              	.LASF55:
 4755 0700 52657365 		.ascii	"Reserved1_IRQn\000"
 4755      72766564 
 4755      315F4952 
 4755      516E00
 4756              	.LASF204:
 4757 070f 73635F73 		.ascii	"sc_speed\000"
 4757      70656564 
 4757      00
 4758              	.LASF134:
 4759 0718 63757272 		.ascii	"current\000"
 4759      656E7400 
 4760              	.LASF233:
 4761 0720 41444344 		.ascii	"ADCD1\000"
 4761      3100
 4762              	.LASF108:
 4763 0726 50434F52 		.ascii	"PCOR\000"
 4763      00
 4764              	.LASF110:
 4765 072b 50444952 		.ascii	"PDIR\000"
 4765      00
 4766              	.LASF143:
 4767 0730 6576656E 		.ascii	"eventcallback_t\000"
 4767      7463616C 
 4767      6C626163 
 4767      6B5F7400 
 4768              	.LASF41:
 4769 0740 49324331 		.ascii	"I2C1_IRQn\000"
 4769      5F495251 
 4769      6E00
 4770              	.LASF86:
 4771 074a 53797354 		.ascii	"SysTick_Type\000"
 4771      69636B5F 
 4771      54797065 
 4771      00
 4772              	.LASF15:
 4773 0757 74687265 		.ascii	"thread_t\000"
 4773      61645F74 
 4773      00
 4774              	.LASF245:
 4775 0760 6E766963 		.ascii	"nvicDisableVector\000"
 4775      44697361 
ARM GAS  /tmp/cczMqacF.s 			page 91


 4775      626C6556 
 4775      6563746F 
 4775      7200
 4776              	.LASF129:
 4777 0772 74687265 		.ascii	"thread_reference_t\000"
 4777      61645F72 
 4777      65666572 
 4777      656E6365 
 4777      5F7400
 4778              	.LASF218:
 4779 0785 5F5F6865 		.ascii	"__heap_base__\000"
 4779      61705F62 
 4779      6173655F 
 4779      5F00
 4780              	.LASF117:
 4781 0793 706F7274 		.ascii	"port_intctx\000"
 4781      5F696E74 
 4781      63747800 
 4782              	.LASF167:
 4783 079f 4144435F 		.ascii	"ADC_ACTIVE\000"
 4783      41435449 
 4783      564500
 4784              	.LASF244:
 4785 07aa 46534B64 		.ascii	"FSKdemod\000"
 4785      656D6F64 
 4785      00
 4786              	.LASF75:
 4787 07b3 4E564943 		.ascii	"NVIC_Type\000"
 4787      5F547970 
 4787      6500
 4788              	.LASF155:
 4789 07bd 715F6275 		.ascii	"q_buffer\000"
 4789      66666572 
 4789      00
 4790              	.LASF14:
 4791 07c6 6C6F6E67 		.ascii	"long long unsigned int\000"
 4791      206C6F6E 
 4791      6720756E 
 4791      7369676E 
 4791      65642069 
 4792              	.LASF10:
 4793 07dd 75696E74 		.ascii	"uint16_t\000"
 4793      31365F74 
 4793      00
 4794              	.LASF236:
 4795 07e6 646D5F62 		.ascii	"dm_buf\000"
 4795      756600
 4796              	.LASF22:
 4797 07ed 6D73675F 		.ascii	"msg_t\000"
 4797      7400
 4798              	.LASF221:
 4799 07f3 4E564943 		.ascii	"NVIC_DisableIRQ\000"
 4799      5F446973 
 4799      61626C65 
 4799      49525100 
 4800              	.LASF144:
 4801 0803 6576656E 		.ascii	"eventflags_t\000"
ARM GAS  /tmp/cczMqacF.s 			page 92


 4801      74666C61 
 4801      67735F74 
 4801      00
 4802              	.LASF26:
 4803 0810 52657365 		.ascii	"Reset_IRQn\000"
 4803      745F4952 
 4803      516E00
 4804              	.LASF176:
 4805 081b 41444344 		.ascii	"ADCDriver\000"
 4805      72697665 
 4805      7200
 4806              	.LASF63:
 4807 0825 50494E42 		.ascii	"PINB_IRQn\000"
 4807      5F495251 
 4807      6E00
 4808              	.LASF123:
 4809 082f 6E696C5F 		.ascii	"nil_thread_cfg\000"
 4809      74687265 
 4809      61645F63 
 4809      666700
 4810              	.LASF190:
 4811 083e 6368616E 		.ascii	"channel_mask\000"
 4811      6E656C5F 
 4811      6D61736B 
 4811      00
 4812              	.LASF174:
 4813 084b 4144435F 		.ascii	"ADC_ERR_OVERFLOW\000"
 4813      4552525F 
 4813      4F564552 
 4813      464C4F57 
 4813      00
 4814              	.LASF67:
 4815 085c 49434552 		.ascii	"ICER\000"
 4815      00
 4816              	.LASF241:
 4817 0861 64617461 		.ascii	"dataReadyFlag\000"
 4817      52656164 
 4817      79466C61 
 4817      6700
 4818              	.LASF44:
 4819 086f 55415254 		.ascii	"UART0_IRQn\000"
 4819      305F4952 
 4819      516E00
 4820              	.LASF199:
 4821 087a 53657269 		.ascii	"SerialDriver\000"
 4821      616C4472 
 4821      69766572 
 4821      00
 4822              	.LASF57:
 4823 0887 44414330 		.ascii	"DAC0_IRQn\000"
 4823      5F495251 
 4823      6E00
 4824              	.LASF85:
 4825 0891 43414C49 		.ascii	"CALIB\000"
 4825      4200
 4826              	.LASF254:
 4827 0897 616E616C 		.ascii	"analogUpdateMic\000"
ARM GAS  /tmp/cczMqacF.s 			page 93


 4827      6F675570 
 4827      64617465 
 4827      4D696300 
 4828              	.LASF153:
 4829 08a7 715F7761 		.ascii	"q_waiting\000"
 4829      6974696E 
 4829      6700
 4830              	.LASF104:
 4831 08b1 434C4D30 		.ascii	"CLM0\000"
 4831      00
 4832              	.LASF103:
 4833 08b6 434C4D31 		.ascii	"CLM1\000"
 4833      00
 4834              	.LASF102:
 4835 08bb 434C4D32 		.ascii	"CLM2\000"
 4835      00
 4836              	.LASF101:
 4837 08c0 434C4D33 		.ascii	"CLM3\000"
 4837      00
 4838              	.LASF100:
 4839 08c5 434C4D34 		.ascii	"CLM4\000"
 4839      00
 4840              	.LASF146:
 4841 08ca 42617365 		.ascii	"BaseSequentialStreamVMT\000"
 4841      53657175 
 4841      656E7469 
 4841      616C5374 
 4841      7265616D 
 4842              	.LASF228:
 4843 08e2 61646363 		.ascii	"adccfg1\000"
 4843      66673100 
 4844              	.LASF98:
 4845 08ea 434C4D44 		.ascii	"CLMD\000"
 4845      00
 4846              	.LASF165:
 4847 08ef 4144435F 		.ascii	"ADC_STOP\000"
 4847      53544F50 
 4847      00
 4848              	.LASF99:
 4849 08f8 434C4D53 		.ascii	"CLMS\000"
 4849      00
 4850              	.LASF260:
 4851 08fd 6368436F 		.ascii	"chCoreGetStatusX\000"
 4851      72654765 
 4851      74537461 
 4851      74757358 
 4851      00
 4852              	.LASF62:
 4853 090e 50494E41 		.ascii	"PINA_IRQn\000"
 4853      5F495251 
 4853      6E00
 4854              	.LASF197:
 4855 0918 53445F52 		.ascii	"SD_READY\000"
 4855      45414459 
 4855      00
 4856              	.LASF118:
 4857 0921 696E7463 		.ascii	"intctx_t\000"
ARM GAS  /tmp/cczMqacF.s 			page 94


 4857      74785F74 
 4857      00
 4858              	.LASF48:
 4859 092a 434D5030 		.ascii	"CMP0_IRQn\000"
 4859      5F495251 
 4859      6E00
 4860              	.LASF180:
 4861 0934 67727070 		.ascii	"grpp\000"
 4861      00
 4862              	.LASF178:
 4863 0939 73616D70 		.ascii	"samples\000"
 4863      6C657300 
 4864              	.LASF138:
 4865 0941 6462675F 		.ascii	"dbg_panic_msg\000"
 4865      70616E69 
 4865      635F6D73 
 4865      6700
 4866              	.LASF106:
 4867 094f 50444F52 		.ascii	"PDOR\000"
 4867      00
 4868              	.LASF5:
 4869 0954 73686F72 		.ascii	"short int\000"
 4869      7420696E 
 4869      7400
 4870              	.LASF140:
 4871 095e 6576656E 		.ascii	"event_source\000"
 4871      745F736F 
 4871      75726365 
 4871      00
 4872              	.LASF13:
 4873 096b 75696E74 		.ascii	"uint64_t\000"
 4873      36345F74 
 4873      00
 4874              	.LASF215:
 4875 0974 7072696F 		.ascii	"priority\000"
 4875      72697479 
 4875      00
 4876              	.LASF183:
 4877 097d 63757272 		.ascii	"current_channel\000"
 4877      656E745F 
 4877      6368616E 
 4877      6E656C00 
 4878              	.LASF107:
 4879 098d 50534F52 		.ascii	"PSOR\000"
 4879      00
 4880              	.LASF203:
 4881 0992 75617274 		.ascii	"uart\000"
 4881      00
 4882              	.LASF4:
 4883 0997 696E7431 		.ascii	"int16_t\000"
 4883      365F7400 
 4884              	.LASF201:
 4885 099f 69717565 		.ascii	"iqueue\000"
 4885      756500
 4886              	.LASF259:
 4887 09a6 2F686F6D 		.ascii	"/home/bunnie/code/chibi-chibios/orchard\000"
 4887      652F6275 
ARM GAS  /tmp/cczMqacF.s 			page 95


 4887      6E6E6965 
 4887      2F636F64 
 4887      652F6368 
 4888              	.LASF151:
 4889 09ce 696F5F71 		.ascii	"io_queue_t\000"
 4889      75657565 
 4889      5F7400
 4890              	.LASF126:
 4891 09d9 6E616D65 		.ascii	"namep\000"
 4891      7000
 4892              	.LASF227:
 4893 09df 73657269 		.ascii	"serialConfig\000"
 4893      616C436F 
 4893      6E666967 
 4893      00
 4894              	.LASF112:
 4895 09ec 4750494F 		.ascii	"GPIO_TypeDef\000"
 4895      5F547970 
 4895      65446566 
 4895      00
 4896              	.LASF97:
 4897 09f9 434C5030 		.ascii	"CLP0\000"
 4897      00
 4898              	.LASF96:
 4899 09fe 434C5031 		.ascii	"CLP1\000"
 4899      00
 4900              	.LASF95:
 4901 0a03 434C5032 		.ascii	"CLP2\000"
 4901      00
 4902              	.LASF94:
 4903 0a08 434C5033 		.ascii	"CLP3\000"
 4903      00
 4904              	.LASF93:
 4905 0a0d 434C5034 		.ascii	"CLP4\000"
 4905      00
 4906              	.LASF91:
 4907 0a12 434C5044 		.ascii	"CLPD\000"
 4907      00
 4908              	.LASF92:
 4909 0a17 434C5053 		.ascii	"CLPS\000"
 4909      00
 4910              	.LASF242:
 4911 0a1c 6275666C 		.ascii	"bufloc\000"
 4911      6F6300
 4912              	.LASF42:
 4913 0a23 53504930 		.ascii	"SPI0_IRQn\000"
 4913      5F495251 
 4913      6E00
 4914              	.LASF256:
 4915 0a2d 63685379 		.ascii	"chSysInit\000"
 4915      73496E69 
 4915      7400
 4916              	.LASF12:
 4917 0a37 75696E74 		.ascii	"uint32_t\000"
 4917      33325F74 
 4917      00
 4918              	.LASF220:
ARM GAS  /tmp/cczMqacF.s 			page 96


 4919 0a40 4E564943 		.ascii	"NVIC_SetPriority\000"
 4919      5F536574 
 4919      5072696F 
 4919      72697479 
 4919      00
 4920              	.LASF162:
 4921 0a51 696E7075 		.ascii	"input_queue_t\000"
 4921      745F7175 
 4921      6575655F 
 4921      7400
 4922              	.LASF52:
 4923 0a5f 52544330 		.ascii	"RTC0_IRQn\000"
 4923      5F495251 
 4923      6E00
 4924              	.LASF11:
 4925 0a69 73686F72 		.ascii	"short unsigned int\000"
 4925      7420756E 
 4925      7369676E 
 4925      65642069 
 4925      6E7400
 4926              	.LASF50:
 4927 0a7c 54504D31 		.ascii	"TPM1_IRQn\000"
 4927      5F495251 
 4927      6E00
 4928              	.LASF253:
 4929 0a86 666C6173 		.ascii	"flashStart\000"
 4929      68537461 
 4929      727400
 4930              	.LASF250:
 4931 0a91 61646353 		.ascii	"adcStart\000"
 4931      74617274 
 4931      00
 4932              	.LASF30:
 4933 0a9a 50656E64 		.ascii	"PendSV_IRQn\000"
 4933      53565F49 
 4933      52516E00 
 4934              	.LASF32:
 4935 0aa6 444D4130 		.ascii	"DMA0_IRQn\000"
 4935      5F495251 
 4935      6E00
 4936              	.LASF163:
 4937 0ab0 6F757470 		.ascii	"output_queue_t\000"
 4937      75745F71 
 4937      75657565 
 4937      5F7400
 4938              	.LASF251:
 4939 0abf 616E616C 		.ascii	"analogStart\000"
 4939      6F675374 
 4939      61727400 
 4940              	.LASF196:
 4941 0acb 53445F53 		.ascii	"SD_STOP\000"
 4941      544F5000 
 4942              	.LASF237:
 4943 0ad3 706B7450 		.ascii	"pktPtr\000"
 4943      747200
 4944              	.LASF239:
 4945 0ada 706B7452 		.ascii	"pktReady\000"
ARM GAS  /tmp/cczMqacF.s 			page 97


 4945      65616479 
 4945      00
 4946              	.LASF65:
 4947 0ae3 49534552 		.ascii	"ISER\000"
 4947      00
 4948              	.LASF28:
 4949 0ae8 48617264 		.ascii	"HardFault_IRQn\000"
 4949      4661756C 
 4949      745F4952 
 4949      516E00
 4950              	.LASF36:
 4951 0af7 52657365 		.ascii	"Reserved0_IRQn\000"
 4951      72766564 
 4951      305F4952 
 4951      516E00
 4952              	.LASF135:
 4953 0b06 6E657874 		.ascii	"next\000"
 4953      00
 4954              	.LASF119:
 4955 0b0b 73656D61 		.ascii	"semaphore_t\000"
 4955      70686F72 
 4955      655F7400 
 4956              	.LASF231:
 4957 0b17 5F5F6D61 		.ascii	"__main_thread_stack_end__\000"
 4957      696E5F74 
 4957      68726561 
 4957      645F7374 
 4957      61636B5F 
 4958              	.LASF229:
 4959 0b31 77615468 		.ascii	"waThread1\000"
 4959      72656164 
 4959      3100
 4960              	.LASF194:
 4961 0b3b 41444343 		.ascii	"ADCConfig\000"
 4961      6F6E6669 
 4961      6700
 4962              	.LASF40:
 4963 0b45 49324330 		.ascii	"I2C0_IRQn\000"
 4963      5F495251 
 4963      6E00
 4964              		.ident	"GCC: (Debian 4.9.2-10) 4.9.2"
 4965              		.section	.note.GNU-stack,"",%progbits
ARM GAS  /tmp/cczMqacF.s 			page 98


DEFINED SYMBOLS
                            *ABS*:00000000 main.c
     /tmp/cczMqacF.s:18     .text.putc_x:00000000 $t
     /tmp/cczMqacF.s:23     .text.putc_x:00000000 putc_x
     /tmp/cczMqacF.s:61     .text.putc_x:0000001c $d
     /tmp/cczMqacF.s:66     .text.demod_loop:00000000 $t
     /tmp/cczMqacF.s:72     .text.demod_loop:00000000 demod_loop
     /tmp/cczMqacF.s:259    .text.demod_loop:000000dc $d
     /tmp/cczMqacF.s:273    .text.Thread1:00000000 $t
     /tmp/cczMqacF.s:278    .text.Thread1:00000000 Thread1
     /tmp/cczMqacF.s:553    .text.Thread1:000000e4 $d
     /tmp/cczMqacF.s:573    .text.startup.main:00000000 $t
     /tmp/cczMqacF.s:579    .text.startup.main:00000000 main
     /tmp/cczMqacF.s:629    .rodata.nil_thd_configs:00000000 nil_thd_configs
     /tmp/cczMqacF.s:666    .bss.buf_n:00000000 buf_n
     /tmp/cczMqacF.s:645    .bss.bufloc:00000000 bufloc
     /tmp/cczMqacF.s:684    .bss.dataReadyFlag:00000000 dataReadyFlag
     /tmp/cczMqacF.s:678    .bss.screenpos:00000000 screenpos
     /tmp/cczMqacF.s:610    .bss.stream:00000000 stream
     /tmp/cczMqacF.s:606    .bss.stream:00000000 $d
     /tmp/cczMqacF.s:613    .bss.waThread1:00000000 $d
     /tmp/cczMqacF.s:616    .bss.waThread1:00000000 waThread1
     /tmp/cczMqacF.s:619    .rodata.adccfg1:00000000 $d
     /tmp/cczMqacF.s:623    .rodata.adccfg1:00000000 adccfg1
     /tmp/cczMqacF.s:626    .rodata.nil_thd_configs:00000000 $d
     /tmp/cczMqacF.s:641    .bss.bufloc:00000000 $d
     /tmp/cczMqacF.s:648    .rodata.str1.4:00000000 $d
     /tmp/cczMqacF.s:662    .bss.buf_n:00000000 $d
     /tmp/cczMqacF.s:669    .rodata.serialConfig:00000000 $d
     /tmp/cczMqacF.s:673    .rodata.serialConfig:00000000 serialConfig
     /tmp/cczMqacF.s:679    .bss.screenpos:00000000 $d
     /tmp/cczMqacF.s:685    .bss.dataReadyFlag:00000000 $d
                     .debug_frame:00000010 $d
     /tmp/cczMqacF.s:272    .text.demod_loop:00000104 $t
     /tmp/cczMqacF.s:572    .text.Thread1:00000124 $t

UNDEFINED SYMBOLS
SD1
nvicDisableVector
FSKdemod
updaterPacketProcess
dm_buf
pktBuf
putBitMac
pktPtr
pktReady
sdStart
init_printf
tfp_printf
chThdSleep
adcStart
analogStart
demodInit
flashStart
analogUpdateMic
gitversion
__heap_end__
ARM GAS  /tmp/cczMqacF.s 			page 99


__heap_base__
ADCD1
halInit
chSysInit
__main_thread_stack_base__
__main_thread_stack_end__
