ARM GAS  /tmp/cctZGKLe.s 			page 1


   1              		.cpu cortex-m0
   2              		.fpu softvfp
   3              		.eabi_attribute 20, 1
   4              		.eabi_attribute 21, 1
   5              		.eabi_attribute 23, 3
   6              		.eabi_attribute 24, 1
   7              		.eabi_attribute 25, 1
   8              		.eabi_attribute 26, 2
   9              		.eabi_attribute 30, 2
  10              		.eabi_attribute 34, 0
  11              		.eabi_attribute 18, 4
  12              		.code	16
  13              		.file	"murmur3.c"
  14              		.text
  15              	.Ltext0:
  16              		.cfi_sections	.debug_frame
  17              		.section	.text.MurmurHash3_x86_32,"ax",%progbits
  18              		.align	2
  19              		.p2align 4,,15
  20              		.global	MurmurHash3_x86_32
  21              		.code	16
  22              		.thumb_func
  23              		.type	MurmurHash3_x86_32, %function
  24              	MurmurHash3_x86_32:
  25              	.LFB6:
  26              		.file 1 "murmur3.c"
  27              		.loc 1 76 0
  28              		.cfi_startproc
  29              	.LVL0:
  30 0000 F0B5     		push	{r4, r5, r6, r7, lr}
  31              		.cfi_def_cfa_offset 20
  32              		.cfi_offset 4, -20
  33              		.cfi_offset 5, -16
  34              		.cfi_offset 6, -12
  35              		.cfi_offset 7, -8
  36              		.cfi_offset 14, -4
  37 0002 5746     		mov	r7, r10
  38 0004 8A46     		mov	r10, r1
  39 0006 4546     		mov	r5, r8
  40 0008 4E46     		mov	r6, r9
  41 000a 9846     		mov	r8, r3
  42              		.loc 1 78 0
  43 000c CB17     		asr	r3, r1, #31
  44              	.LVL1:
  45 000e 9B0F     		lsr	r3, r3, #30
  46 0010 5344     		add	r3, r3, r10
  47 0012 9B10     		asr	r3, r3, #2
  48              	.LVL2:
  49              		.loc 1 88 0
  50 0014 9C00     		lsl	r4, r3, #2
  51              	.LVL3:
  52              	.LBB14:
  53              		.loc 1 90 0
  54 0016 5B42     		neg	r3, r3
  55              	.LVL4:
  56              	.LBE14:
  57              		.loc 1 76 0
ARM GAS  /tmp/cctZGKLe.s 			page 2


  58 0018 E0B4     		push	{r5, r6, r7}
  59              		.cfi_def_cfa_offset 32
  60              		.cfi_offset 8, -32
  61              		.cfi_offset 9, -28
  62              		.cfi_offset 10, -24
  63              	.LBB24:
  64              		.loc 1 90 0
  65 001a 002B     		cmp	r3, #0
  66 001c 45D0     		beq	.L16
  67 001e 9B00     		lsl	r3, r3, #2
  68              	.LVL5:
  69 0020 E518     		add	r5, r4, r3
  70              	.LBB15:
  71              		.loc 1 94 0
  72 0022 234B     		ldr	r3, .L18
  73              	.LBB16:
  74              	.LBB17:
  75              		.loc 1 17 0
  76 0024 1326     		mov	r6, #19
  77              	.LBE17:
  78              	.LBE16:
  79              		.loc 1 94 0
  80 0026 9C46     		mov	ip, r3
  81              	.LBB19:
  82              	.LBB20:
  83              		.loc 1 17 0
  84 0028 1123     		mov	r3, #17
  85              	.LBE20:
  86              	.LBE19:
  87              		.loc 1 96 0
  88 002a 224F     		ldr	r7, .L18+4
  89 002c 4519     		add	r5, r0, r5
  90 002e 0019     		add	r0, r0, r4
  91              	.LVL6:
  92              	.L3:
  93              		.loc 1 94 0
  94 0030 6146     		mov	r1, ip
  95 0032 10CD     		ldmia	r5!, {r4}
  96              	.LVL7:
  97 0034 4C43     		mul	r4, r1
  98              	.LBB22:
  99              	.LBB21:
 100              		.loc 1 17 0
 101 0036 DC41     		ror	r4, r4, r3
 102              	.LVL8:
 103              	.LBE21:
 104              	.LBE22:
 105              		.loc 1 96 0
 106 0038 7C43     		mul	r4, r7
 107              	.LVL9:
 108              		.loc 1 98 0
 109 003a 6240     		eor	r2, r4
 110              	.LVL10:
 111              	.LBB23:
 112              	.LBB18:
 113              		.loc 1 17 0
 114 003c F241     		ror	r2, r2, r6
ARM GAS  /tmp/cctZGKLe.s 			page 3


 115              	.LBE18:
 116              	.LBE23:
 117              		.loc 1 100 0
 118 003e 1E49     		ldr	r1, .L18+8
 119              	.LVL11:
 120 0040 9400     		lsl	r4, r2, #2
 121 0042 8946     		mov	r9, r1
 122 0044 A218     		add	r2, r4, r2
 123 0046 4A44     		add	r2, r2, r9
 124              	.LVL12:
 125              	.LBE15:
 126              		.loc 1 90 0
 127 0048 A842     		cmp	r0, r5
 128 004a F1D1     		bne	.L3
 129              	.LVL13:
 130              	.L2:
 131              	.LBE24:
 132              		.loc 1 110 0
 133 004c 0323     		mov	r3, #3
 134 004e 5146     		mov	r1, r10
 135 0050 0B40     		and	r3, r1
 136 0052 022B     		cmp	r3, #2
 137 0054 27D0     		beq	.L9
 138              	.LVL14:
 139 0056 032B     		cmp	r3, #3
 140 0058 1FD0     		beq	.L6
 141 005a 012B     		cmp	r3, #1
 142 005c 12D0     		beq	.L17
 143              	.LVL15:
 144              	.L4:
 145              		.loc 1 121 0
 146 005e 5346     		mov	r3, r10
 147 0060 5A40     		eor	r2, r3
 148              	.LVL16:
 149              	.LBB25:
 150              	.LBB26:
 151              		.loc 1 50 0
 152 0062 110C     		lsr	r1, r2, #16
 153              	.LVL17:
 154 0064 4A40     		eor	r2, r1
 155              	.LVL18:
 156              		.loc 1 51 0
 157 0066 1549     		ldr	r1, .L18+12
 158              		.loc 1 53 0
 159 0068 154B     		ldr	r3, .L18+16
 160              		.loc 1 51 0
 161 006a 4A43     		mul	r2, r1
 162              	.LVL19:
 163              		.loc 1 52 0
 164 006c 510B     		lsr	r1, r2, #13
 165 006e 4A40     		eor	r2, r1
 166              	.LVL20:
 167              		.loc 1 53 0
 168 0070 5A43     		mul	r2, r3
 169              	.LVL21:
 170              		.loc 1 54 0
 171 0072 130C     		lsr	r3, r2, #16
ARM GAS  /tmp/cctZGKLe.s 			page 4


 172 0074 5A40     		eor	r2, r3
 173              	.LVL22:
 174              	.LBE26:
 175              	.LBE25:
 176              		.loc 1 125 0
 177 0076 4346     		mov	r3, r8
 178              		.loc 1 126 0
 179              		@ sp needed
 180              		.loc 1 125 0
 181 0078 1A60     		str	r2, [r3]
 182              	.LVL23:
 183              	.LVL24:
 184              		.loc 1 126 0
 185 007a 1CBC     		pop	{r2, r3, r4}
 186 007c 9046     		mov	r8, r2
 187 007e 9946     		mov	r9, r3
 188 0080 A246     		mov	r10, r4
 189 0082 F0BD     		pop	{r4, r5, r6, r7, pc}
 190              	.LVL25:
 191              	.L17:
 192              		.loc 1 108 0
 193 0084 0023     		mov	r3, #0
 194              	.LVL26:
 195              	.L7:
 196              		.loc 1 114 0
 197 0086 0078     		ldrb	r0, [r0]
 198              	.LVL27:
 199 0088 4340     		eor	r3, r0
 200              	.LVL28:
 201              		.loc 1 115 0
 202 008a 0948     		ldr	r0, .L18
 203 008c 4343     		mul	r3, r0
 204              	.LVL29:
 205              	.LBB27:
 206              	.LBB28:
 207              		.loc 1 17 0
 208 008e 1120     		mov	r0, #17
 209 0090 C341     		ror	r3, r3, r0
 210              	.LVL30:
 211              	.LBE28:
 212              	.LBE27:
 213              		.loc 1 115 0
 214 0092 0848     		ldr	r0, .L18+4
 215 0094 4343     		mul	r3, r0
 216              	.LVL31:
 217 0096 5A40     		eor	r2, r3
 218              	.LVL32:
 219 0098 E1E7     		b	.L4
 220              	.LVL33:
 221              	.L6:
 222              		.loc 1 112 0
 223 009a 8378     		ldrb	r3, [r0, #2]
 224 009c 1C04     		lsl	r4, r3, #16
 225              	.LVL34:
 226              	.L5:
 227              		.loc 1 113 0
 228 009e 4378     		ldrb	r3, [r0, #1]
ARM GAS  /tmp/cctZGKLe.s 			page 5


 229 00a0 1B02     		lsl	r3, r3, #8
 230 00a2 6340     		eor	r3, r4
 231              	.LVL35:
 232 00a4 EFE7     		b	.L7
 233              	.LVL36:
 234              	.L9:
 235              		.loc 1 108 0
 236 00a6 0024     		mov	r4, #0
 237 00a8 F9E7     		b	.L5
 238              	.LVL37:
 239              	.L16:
 240 00aa 0019     		add	r0, r0, r4
 241              	.LVL38:
 242 00ac CEE7     		b	.L2
 243              	.L19:
 244 00ae C046     		.align	2
 245              	.L18:
 246 00b0 512D9ECC 		.word	-862048943
 247 00b4 9335871B 		.word	461845907
 248 00b8 646B54E6 		.word	-430675100
 249 00bc 6BCAEB85 		.word	-2048144789
 250 00c0 35AEB2C2 		.word	-1028477387
 251              		.cfi_endproc
 252              	.LFE6:
 253              		.size	MurmurHash3_x86_32, .-MurmurHash3_x86_32
 254 00c4 C046C046 		.text
 254      C046C046 
 254      C046C046 
 255              	.Letext0:
 256              		.file 2 "/usr/include/stdint.h"
 257              		.section	.debug_info,"",%progbits
 258              	.Ldebug_info0:
 259 0000 7C020000 		.4byte	0x27c
 260 0004 0400     		.2byte	0x4
 261 0006 00000000 		.4byte	.Ldebug_abbrev0
 262 000a 04       		.byte	0x4
 263 000b 01       		.uleb128 0x1
 264 000c CF000000 		.4byte	.LASF18
 265 0010 01       		.byte	0x1
 266 0011 D8010000 		.4byte	.LASF19
 267 0015 1A000000 		.4byte	.LASF20
 268 0019 48000000 		.4byte	.Ldebug_ranges0+0x48
 269 001d 00000000 		.4byte	0
 270 0021 00000000 		.4byte	.Ldebug_line0
 271 0025 02       		.uleb128 0x2
 272 0026 42000000 		.4byte	.LASF3
 273 002a 02       		.byte	0x2
 274 002b 24       		.byte	0x24
 275 002c 30000000 		.4byte	0x30
 276 0030 03       		.uleb128 0x3
 277 0031 01       		.byte	0x1
 278 0032 06       		.byte	0x6
 279 0033 F0010000 		.4byte	.LASF0
 280 0037 03       		.uleb128 0x3
 281 0038 02       		.byte	0x2
 282 0039 05       		.byte	0x5
 283 003a CE010000 		.4byte	.LASF1
ARM GAS  /tmp/cctZGKLe.s 			page 6


 284 003e 04       		.uleb128 0x4
 285 003f 04       		.byte	0x4
 286 0040 05       		.byte	0x5
 287 0041 696E7400 		.ascii	"int\000"
 288 0045 03       		.uleb128 0x3
 289 0046 08       		.byte	0x8
 290 0047 05       		.byte	0x5
 291 0048 00000000 		.4byte	.LASF2
 292 004c 02       		.uleb128 0x2
 293 004d B0000000 		.4byte	.LASF4
 294 0051 02       		.byte	0x2
 295 0052 30       		.byte	0x30
 296 0053 57000000 		.4byte	0x57
 297 0057 03       		.uleb128 0x3
 298 0058 01       		.byte	0x1
 299 0059 08       		.byte	0x8
 300 005a 49000000 		.4byte	.LASF5
 301 005e 03       		.uleb128 0x3
 302 005f 02       		.byte	0x2
 303 0060 07       		.byte	0x7
 304 0061 57000000 		.4byte	.LASF6
 305 0065 02       		.uleb128 0x2
 306 0066 E7010000 		.4byte	.LASF7
 307 006a 02       		.byte	0x2
 308 006b 33       		.byte	0x33
 309 006c 70000000 		.4byte	0x70
 310 0070 03       		.uleb128 0x3
 311 0071 04       		.byte	0x4
 312 0072 07       		.byte	0x7
 313 0073 8C000000 		.4byte	.LASF8
 314 0077 03       		.uleb128 0x3
 315 0078 08       		.byte	0x8
 316 0079 07       		.byte	0x7
 317 007a 99000000 		.4byte	.LASF9
 318 007e 05       		.uleb128 0x5
 319 007f BD000000 		.4byte	.LASF10
 320 0083 01       		.byte	0x1
 321 0084 23       		.byte	0x23
 322 0085 65000000 		.4byte	0x65
 323 0089 03       		.byte	0x3
 324 008a A1000000 		.4byte	0xa1
 325 008e 06       		.uleb128 0x6
 326 008f 7000     		.ascii	"p\000"
 327 0091 01       		.byte	0x1
 328 0092 23       		.byte	0x23
 329 0093 A1000000 		.4byte	0xa1
 330 0097 06       		.uleb128 0x6
 331 0098 6900     		.ascii	"i\000"
 332 009a 01       		.byte	0x1
 333 009b 23       		.byte	0x23
 334 009c 3E000000 		.4byte	0x3e
 335 00a0 00       		.byte	0
 336 00a1 07       		.uleb128 0x7
 337 00a2 04       		.byte	0x4
 338 00a3 A7000000 		.4byte	0xa7
 339 00a7 08       		.uleb128 0x8
 340 00a8 65000000 		.4byte	0x65
ARM GAS  /tmp/cctZGKLe.s 			page 7


 341 00ac 05       		.uleb128 0x5
 342 00ad 85000000 		.4byte	.LASF11
 343 00b1 01       		.byte	0x1
 344 00b2 0F       		.byte	0xf
 345 00b3 65000000 		.4byte	0x65
 346 00b7 03       		.byte	0x3
 347 00b8 CF000000 		.4byte	0xcf
 348 00bc 06       		.uleb128 0x6
 349 00bd 7800     		.ascii	"x\000"
 350 00bf 01       		.byte	0x1
 351 00c0 0F       		.byte	0xf
 352 00c1 65000000 		.4byte	0x65
 353 00c5 06       		.uleb128 0x6
 354 00c6 7200     		.ascii	"r\000"
 355 00c8 01       		.byte	0x1
 356 00c9 0F       		.byte	0xf
 357 00ca 25000000 		.4byte	0x25
 358 00ce 00       		.byte	0
 359 00cf 05       		.uleb128 0x5
 360 00d0 0E000000 		.4byte	.LASF12
 361 00d4 01       		.byte	0x1
 362 00d5 30       		.byte	0x30
 363 00d6 65000000 		.4byte	0x65
 364 00da 03       		.byte	0x3
 365 00db E9000000 		.4byte	0xe9
 366 00df 06       		.uleb128 0x6
 367 00e0 6800     		.ascii	"h\000"
 368 00e2 01       		.byte	0x1
 369 00e3 30       		.byte	0x30
 370 00e4 65000000 		.4byte	0x65
 371 00e8 00       		.byte	0
 372 00e9 09       		.uleb128 0x9
 373 00ea 72000000 		.4byte	.LASF21
 374 00ee 01       		.byte	0x1
 375 00ef 4A       		.byte	0x4a
 376 00f0 00000000 		.4byte	.LFB6
 377 00f4 C4000000 		.4byte	.LFE6-.LFB6
 378 00f8 01       		.uleb128 0x1
 379 00f9 9C       		.byte	0x9c
 380 00fa 66020000 		.4byte	0x266
 381 00fe 0A       		.uleb128 0xa
 382 00ff 6B657900 		.ascii	"key\000"
 383 0103 01       		.byte	0x1
 384 0104 4A       		.byte	0x4a
 385 0105 66020000 		.4byte	0x266
 386 0109 00000000 		.4byte	.LLST0
 387 010d 0A       		.uleb128 0xa
 388 010e 6C656E00 		.ascii	"len\000"
 389 0112 01       		.byte	0x1
 390 0113 4A       		.byte	0x4a
 391 0114 3E000000 		.4byte	0x3e
 392 0118 3A000000 		.4byte	.LLST1
 393 011c 0B       		.uleb128 0xb
 394 011d E2010000 		.4byte	.LASF13
 395 0121 01       		.byte	0x1
 396 0122 4B       		.byte	0x4b
 397 0123 65000000 		.4byte	0x65
ARM GAS  /tmp/cctZGKLe.s 			page 8


 398 0127 87000000 		.4byte	.LLST2
 399 012b 0A       		.uleb128 0xa
 400 012c 6F757400 		.ascii	"out\000"
 401 0130 01       		.byte	0x1
 402 0131 4B       		.byte	0x4b
 403 0132 6D020000 		.4byte	0x26d
 404 0136 B3000000 		.4byte	.LLST3
 405 013a 0C       		.uleb128 0xc
 406 013b 15000000 		.4byte	.LASF14
 407 013f 01       		.byte	0x1
 408 0140 4D       		.byte	0x4d
 409 0141 6F020000 		.4byte	0x26f
 410 0145 00000000 		.4byte	.LLST0
 411 0149 0C       		.uleb128 0xc
 412 014a 6A000000 		.4byte	.LASF15
 413 014e 01       		.byte	0x1
 414 014f 4E       		.byte	0x4e
 415 0150 7A020000 		.4byte	0x27a
 416 0154 E7000000 		.4byte	.LLST5
 417 0158 0D       		.uleb128 0xd
 418 0159 683100   		.ascii	"h1\000"
 419 015c 01       		.byte	0x1
 420 015d 50       		.byte	0x50
 421 015e 65000000 		.4byte	0x65
 422 0162 9C010000 		.4byte	.LLST6
 423 0166 0E       		.uleb128 0xe
 424 0167 633100   		.ascii	"c1\000"
 425 016a 01       		.byte	0x1
 426 016b 52       		.byte	0x52
 427 016c A7000000 		.4byte	0xa7
 428 0170 D1DAF8E4 		.sleb128 -862048943
 428      7C
 429 0175 0F       		.uleb128 0xf
 430 0176 633200   		.ascii	"c2\000"
 431 0179 01       		.byte	0x1
 432 017a 53       		.byte	0x53
 433 017b A7000000 		.4byte	0xa7
 434 017f 9335871B 		.4byte	0x1b873593
 435 0183 0C       		.uleb128 0xc
 436 0184 C8000000 		.4byte	.LASF16
 437 0188 01       		.byte	0x1
 438 0189 58       		.byte	0x58
 439 018a A1000000 		.4byte	0xa1
 440 018e C5010000 		.4byte	.LLST7
 441 0192 0C       		.uleb128 0xc
 442 0193 B8000000 		.4byte	.LASF17
 443 0197 01       		.byte	0x1
 444 0198 6A       		.byte	0x6a
 445 0199 6F020000 		.4byte	0x26f
 446 019d 97020000 		.4byte	.LLST8
 447 01a1 0D       		.uleb128 0xd
 448 01a2 6B3100   		.ascii	"k1\000"
 449 01a5 01       		.byte	0x1
 450 01a6 6C       		.byte	0x6c
 451 01a7 65000000 		.4byte	0x65
 452 01ab C0020000 		.4byte	.LLST9
 453 01af 10       		.uleb128 0x10
ARM GAS  /tmp/cctZGKLe.s 			page 9


 454 01b0 00000000 		.4byte	.Ldebug_ranges0+0
 455 01b4 26020000 		.4byte	0x226
 456 01b8 0D       		.uleb128 0xd
 457 01b9 6900     		.ascii	"i\000"
 458 01bb 01       		.byte	0x1
 459 01bc 5A       		.byte	0x5a
 460 01bd 3E000000 		.4byte	0x3e
 461 01c1 56030000 		.4byte	.LLST10
 462 01c5 11       		.uleb128 0x11
 463 01c6 22000000 		.4byte	.LBB15
 464 01ca 26000000 		.4byte	.LBE15-.LBB15
 465 01ce 0D       		.uleb128 0xd
 466 01cf 6B3100   		.ascii	"k1\000"
 467 01d2 01       		.byte	0x1
 468 01d3 5C       		.byte	0x5c
 469 01d4 65000000 		.4byte	0x65
 470 01d8 8B030000 		.4byte	.LLST11
 471 01dc 12       		.uleb128 0x12
 472 01dd AC000000 		.4byte	0xac
 473 01e1 24000000 		.4byte	.LBB16
 474 01e5 18000000 		.4byte	.Ldebug_ranges0+0x18
 475 01e9 01       		.byte	0x1
 476 01ea 63       		.byte	0x63
 477 01eb 02020000 		.4byte	0x202
 478 01ef 13       		.uleb128 0x13
 479 01f0 C5000000 		.4byte	0xc5
 480 01f4 14040000 		.4byte	.LLST12
 481 01f8 13       		.uleb128 0x13
 482 01f9 BC000000 		.4byte	0xbc
 483 01fd 28040000 		.4byte	.LLST13
 484 0201 00       		.byte	0
 485 0202 14       		.uleb128 0x14
 486 0203 AC000000 		.4byte	0xac
 487 0207 28000000 		.4byte	.LBB19
 488 020b 30000000 		.4byte	.Ldebug_ranges0+0x30
 489 020f 01       		.byte	0x1
 490 0210 5F       		.byte	0x5f
 491 0211 13       		.uleb128 0x13
 492 0212 C5000000 		.4byte	0xc5
 493 0216 6B040000 		.4byte	.LLST14
 494 021a 13       		.uleb128 0x13
 495 021b BC000000 		.4byte	0xbc
 496 021f 7F040000 		.4byte	.LLST15
 497 0223 00       		.byte	0
 498 0224 00       		.byte	0
 499 0225 00       		.byte	0
 500 0226 15       		.uleb128 0x15
 501 0227 CF000000 		.4byte	0xcf
 502 022b 62000000 		.4byte	.LBB25
 503 022f 14000000 		.4byte	.LBE25-.LBB25
 504 0233 01       		.byte	0x1
 505 0234 7B       		.byte	0x7b
 506 0235 43020000 		.4byte	0x243
 507 0239 13       		.uleb128 0x13
 508 023a DF000000 		.4byte	0xdf
 509 023e B1040000 		.4byte	.LLST16
 510 0242 00       		.byte	0
ARM GAS  /tmp/cctZGKLe.s 			page 10


 511 0243 16       		.uleb128 0x16
 512 0244 AC000000 		.4byte	0xac
 513 0248 8E000000 		.4byte	.LBB27
 514 024c 04000000 		.4byte	.LBE27-.LBB27
 515 0250 01       		.byte	0x1
 516 0251 73       		.byte	0x73
 517 0252 13       		.uleb128 0x13
 518 0253 C5000000 		.4byte	0xc5
 519 0257 E1040000 		.4byte	.LLST17
 520 025b 13       		.uleb128 0x13
 521 025c BC000000 		.4byte	0xbc
 522 0260 F5040000 		.4byte	.LLST18
 523 0264 00       		.byte	0
 524 0265 00       		.byte	0
 525 0266 07       		.uleb128 0x7
 526 0267 04       		.byte	0x4
 527 0268 6C020000 		.4byte	0x26c
 528 026c 17       		.uleb128 0x17
 529 026d 18       		.uleb128 0x18
 530 026e 04       		.byte	0x4
 531 026f 07       		.uleb128 0x7
 532 0270 04       		.byte	0x4
 533 0271 75020000 		.4byte	0x275
 534 0275 08       		.uleb128 0x8
 535 0276 4C000000 		.4byte	0x4c
 536 027a 08       		.uleb128 0x8
 537 027b 3E000000 		.4byte	0x3e
 538 027f 00       		.byte	0
 539              		.section	.debug_abbrev,"",%progbits
 540              	.Ldebug_abbrev0:
 541 0000 01       		.uleb128 0x1
 542 0001 11       		.uleb128 0x11
 543 0002 01       		.byte	0x1
 544 0003 25       		.uleb128 0x25
 545 0004 0E       		.uleb128 0xe
 546 0005 13       		.uleb128 0x13
 547 0006 0B       		.uleb128 0xb
 548 0007 03       		.uleb128 0x3
 549 0008 0E       		.uleb128 0xe
 550 0009 1B       		.uleb128 0x1b
 551 000a 0E       		.uleb128 0xe
 552 000b 55       		.uleb128 0x55
 553 000c 17       		.uleb128 0x17
 554 000d 11       		.uleb128 0x11
 555 000e 01       		.uleb128 0x1
 556 000f 10       		.uleb128 0x10
 557 0010 17       		.uleb128 0x17
 558 0011 00       		.byte	0
 559 0012 00       		.byte	0
 560 0013 02       		.uleb128 0x2
 561 0014 16       		.uleb128 0x16
 562 0015 00       		.byte	0
 563 0016 03       		.uleb128 0x3
 564 0017 0E       		.uleb128 0xe
 565 0018 3A       		.uleb128 0x3a
 566 0019 0B       		.uleb128 0xb
 567 001a 3B       		.uleb128 0x3b
ARM GAS  /tmp/cctZGKLe.s 			page 11


 568 001b 0B       		.uleb128 0xb
 569 001c 49       		.uleb128 0x49
 570 001d 13       		.uleb128 0x13
 571 001e 00       		.byte	0
 572 001f 00       		.byte	0
 573 0020 03       		.uleb128 0x3
 574 0021 24       		.uleb128 0x24
 575 0022 00       		.byte	0
 576 0023 0B       		.uleb128 0xb
 577 0024 0B       		.uleb128 0xb
 578 0025 3E       		.uleb128 0x3e
 579 0026 0B       		.uleb128 0xb
 580 0027 03       		.uleb128 0x3
 581 0028 0E       		.uleb128 0xe
 582 0029 00       		.byte	0
 583 002a 00       		.byte	0
 584 002b 04       		.uleb128 0x4
 585 002c 24       		.uleb128 0x24
 586 002d 00       		.byte	0
 587 002e 0B       		.uleb128 0xb
 588 002f 0B       		.uleb128 0xb
 589 0030 3E       		.uleb128 0x3e
 590 0031 0B       		.uleb128 0xb
 591 0032 03       		.uleb128 0x3
 592 0033 08       		.uleb128 0x8
 593 0034 00       		.byte	0
 594 0035 00       		.byte	0
 595 0036 05       		.uleb128 0x5
 596 0037 2E       		.uleb128 0x2e
 597 0038 01       		.byte	0x1
 598 0039 3F       		.uleb128 0x3f
 599 003a 19       		.uleb128 0x19
 600 003b 03       		.uleb128 0x3
 601 003c 0E       		.uleb128 0xe
 602 003d 3A       		.uleb128 0x3a
 603 003e 0B       		.uleb128 0xb
 604 003f 3B       		.uleb128 0x3b
 605 0040 0B       		.uleb128 0xb
 606 0041 27       		.uleb128 0x27
 607 0042 19       		.uleb128 0x19
 608 0043 49       		.uleb128 0x49
 609 0044 13       		.uleb128 0x13
 610 0045 20       		.uleb128 0x20
 611 0046 0B       		.uleb128 0xb
 612 0047 01       		.uleb128 0x1
 613 0048 13       		.uleb128 0x13
 614 0049 00       		.byte	0
 615 004a 00       		.byte	0
 616 004b 06       		.uleb128 0x6
 617 004c 05       		.uleb128 0x5
 618 004d 00       		.byte	0
 619 004e 03       		.uleb128 0x3
 620 004f 08       		.uleb128 0x8
 621 0050 3A       		.uleb128 0x3a
 622 0051 0B       		.uleb128 0xb
 623 0052 3B       		.uleb128 0x3b
 624 0053 0B       		.uleb128 0xb
ARM GAS  /tmp/cctZGKLe.s 			page 12


 625 0054 49       		.uleb128 0x49
 626 0055 13       		.uleb128 0x13
 627 0056 00       		.byte	0
 628 0057 00       		.byte	0
 629 0058 07       		.uleb128 0x7
 630 0059 0F       		.uleb128 0xf
 631 005a 00       		.byte	0
 632 005b 0B       		.uleb128 0xb
 633 005c 0B       		.uleb128 0xb
 634 005d 49       		.uleb128 0x49
 635 005e 13       		.uleb128 0x13
 636 005f 00       		.byte	0
 637 0060 00       		.byte	0
 638 0061 08       		.uleb128 0x8
 639 0062 26       		.uleb128 0x26
 640 0063 00       		.byte	0
 641 0064 49       		.uleb128 0x49
 642 0065 13       		.uleb128 0x13
 643 0066 00       		.byte	0
 644 0067 00       		.byte	0
 645 0068 09       		.uleb128 0x9
 646 0069 2E       		.uleb128 0x2e
 647 006a 01       		.byte	0x1
 648 006b 3F       		.uleb128 0x3f
 649 006c 19       		.uleb128 0x19
 650 006d 03       		.uleb128 0x3
 651 006e 0E       		.uleb128 0xe
 652 006f 3A       		.uleb128 0x3a
 653 0070 0B       		.uleb128 0xb
 654 0071 3B       		.uleb128 0x3b
 655 0072 0B       		.uleb128 0xb
 656 0073 27       		.uleb128 0x27
 657 0074 19       		.uleb128 0x19
 658 0075 11       		.uleb128 0x11
 659 0076 01       		.uleb128 0x1
 660 0077 12       		.uleb128 0x12
 661 0078 06       		.uleb128 0x6
 662 0079 40       		.uleb128 0x40
 663 007a 18       		.uleb128 0x18
 664 007b 9742     		.uleb128 0x2117
 665 007d 19       		.uleb128 0x19
 666 007e 01       		.uleb128 0x1
 667 007f 13       		.uleb128 0x13
 668 0080 00       		.byte	0
 669 0081 00       		.byte	0
 670 0082 0A       		.uleb128 0xa
 671 0083 05       		.uleb128 0x5
 672 0084 00       		.byte	0
 673 0085 03       		.uleb128 0x3
 674 0086 08       		.uleb128 0x8
 675 0087 3A       		.uleb128 0x3a
 676 0088 0B       		.uleb128 0xb
 677 0089 3B       		.uleb128 0x3b
 678 008a 0B       		.uleb128 0xb
 679 008b 49       		.uleb128 0x49
 680 008c 13       		.uleb128 0x13
 681 008d 02       		.uleb128 0x2
ARM GAS  /tmp/cctZGKLe.s 			page 13


 682 008e 17       		.uleb128 0x17
 683 008f 00       		.byte	0
 684 0090 00       		.byte	0
 685 0091 0B       		.uleb128 0xb
 686 0092 05       		.uleb128 0x5
 687 0093 00       		.byte	0
 688 0094 03       		.uleb128 0x3
 689 0095 0E       		.uleb128 0xe
 690 0096 3A       		.uleb128 0x3a
 691 0097 0B       		.uleb128 0xb
 692 0098 3B       		.uleb128 0x3b
 693 0099 0B       		.uleb128 0xb
 694 009a 49       		.uleb128 0x49
 695 009b 13       		.uleb128 0x13
 696 009c 02       		.uleb128 0x2
 697 009d 17       		.uleb128 0x17
 698 009e 00       		.byte	0
 699 009f 00       		.byte	0
 700 00a0 0C       		.uleb128 0xc
 701 00a1 34       		.uleb128 0x34
 702 00a2 00       		.byte	0
 703 00a3 03       		.uleb128 0x3
 704 00a4 0E       		.uleb128 0xe
 705 00a5 3A       		.uleb128 0x3a
 706 00a6 0B       		.uleb128 0xb
 707 00a7 3B       		.uleb128 0x3b
 708 00a8 0B       		.uleb128 0xb
 709 00a9 49       		.uleb128 0x49
 710 00aa 13       		.uleb128 0x13
 711 00ab 02       		.uleb128 0x2
 712 00ac 17       		.uleb128 0x17
 713 00ad 00       		.byte	0
 714 00ae 00       		.byte	0
 715 00af 0D       		.uleb128 0xd
 716 00b0 34       		.uleb128 0x34
 717 00b1 00       		.byte	0
 718 00b2 03       		.uleb128 0x3
 719 00b3 08       		.uleb128 0x8
 720 00b4 3A       		.uleb128 0x3a
 721 00b5 0B       		.uleb128 0xb
 722 00b6 3B       		.uleb128 0x3b
 723 00b7 0B       		.uleb128 0xb
 724 00b8 49       		.uleb128 0x49
 725 00b9 13       		.uleb128 0x13
 726 00ba 02       		.uleb128 0x2
 727 00bb 17       		.uleb128 0x17
 728 00bc 00       		.byte	0
 729 00bd 00       		.byte	0
 730 00be 0E       		.uleb128 0xe
 731 00bf 34       		.uleb128 0x34
 732 00c0 00       		.byte	0
 733 00c1 03       		.uleb128 0x3
 734 00c2 08       		.uleb128 0x8
 735 00c3 3A       		.uleb128 0x3a
 736 00c4 0B       		.uleb128 0xb
 737 00c5 3B       		.uleb128 0x3b
 738 00c6 0B       		.uleb128 0xb
ARM GAS  /tmp/cctZGKLe.s 			page 14


 739 00c7 49       		.uleb128 0x49
 740 00c8 13       		.uleb128 0x13
 741 00c9 1C       		.uleb128 0x1c
 742 00ca 0D       		.uleb128 0xd
 743 00cb 00       		.byte	0
 744 00cc 00       		.byte	0
 745 00cd 0F       		.uleb128 0xf
 746 00ce 34       		.uleb128 0x34
 747 00cf 00       		.byte	0
 748 00d0 03       		.uleb128 0x3
 749 00d1 08       		.uleb128 0x8
 750 00d2 3A       		.uleb128 0x3a
 751 00d3 0B       		.uleb128 0xb
 752 00d4 3B       		.uleb128 0x3b
 753 00d5 0B       		.uleb128 0xb
 754 00d6 49       		.uleb128 0x49
 755 00d7 13       		.uleb128 0x13
 756 00d8 1C       		.uleb128 0x1c
 757 00d9 06       		.uleb128 0x6
 758 00da 00       		.byte	0
 759 00db 00       		.byte	0
 760 00dc 10       		.uleb128 0x10
 761 00dd 0B       		.uleb128 0xb
 762 00de 01       		.byte	0x1
 763 00df 55       		.uleb128 0x55
 764 00e0 17       		.uleb128 0x17
 765 00e1 01       		.uleb128 0x1
 766 00e2 13       		.uleb128 0x13
 767 00e3 00       		.byte	0
 768 00e4 00       		.byte	0
 769 00e5 11       		.uleb128 0x11
 770 00e6 0B       		.uleb128 0xb
 771 00e7 01       		.byte	0x1
 772 00e8 11       		.uleb128 0x11
 773 00e9 01       		.uleb128 0x1
 774 00ea 12       		.uleb128 0x12
 775 00eb 06       		.uleb128 0x6
 776 00ec 00       		.byte	0
 777 00ed 00       		.byte	0
 778 00ee 12       		.uleb128 0x12
 779 00ef 1D       		.uleb128 0x1d
 780 00f0 01       		.byte	0x1
 781 00f1 31       		.uleb128 0x31
 782 00f2 13       		.uleb128 0x13
 783 00f3 52       		.uleb128 0x52
 784 00f4 01       		.uleb128 0x1
 785 00f5 55       		.uleb128 0x55
 786 00f6 17       		.uleb128 0x17
 787 00f7 58       		.uleb128 0x58
 788 00f8 0B       		.uleb128 0xb
 789 00f9 59       		.uleb128 0x59
 790 00fa 0B       		.uleb128 0xb
 791 00fb 01       		.uleb128 0x1
 792 00fc 13       		.uleb128 0x13
 793 00fd 00       		.byte	0
 794 00fe 00       		.byte	0
 795 00ff 13       		.uleb128 0x13
ARM GAS  /tmp/cctZGKLe.s 			page 15


 796 0100 05       		.uleb128 0x5
 797 0101 00       		.byte	0
 798 0102 31       		.uleb128 0x31
 799 0103 13       		.uleb128 0x13
 800 0104 02       		.uleb128 0x2
 801 0105 17       		.uleb128 0x17
 802 0106 00       		.byte	0
 803 0107 00       		.byte	0
 804 0108 14       		.uleb128 0x14
 805 0109 1D       		.uleb128 0x1d
 806 010a 01       		.byte	0x1
 807 010b 31       		.uleb128 0x31
 808 010c 13       		.uleb128 0x13
 809 010d 52       		.uleb128 0x52
 810 010e 01       		.uleb128 0x1
 811 010f 55       		.uleb128 0x55
 812 0110 17       		.uleb128 0x17
 813 0111 58       		.uleb128 0x58
 814 0112 0B       		.uleb128 0xb
 815 0113 59       		.uleb128 0x59
 816 0114 0B       		.uleb128 0xb
 817 0115 00       		.byte	0
 818 0116 00       		.byte	0
 819 0117 15       		.uleb128 0x15
 820 0118 1D       		.uleb128 0x1d
 821 0119 01       		.byte	0x1
 822 011a 31       		.uleb128 0x31
 823 011b 13       		.uleb128 0x13
 824 011c 11       		.uleb128 0x11
 825 011d 01       		.uleb128 0x1
 826 011e 12       		.uleb128 0x12
 827 011f 06       		.uleb128 0x6
 828 0120 58       		.uleb128 0x58
 829 0121 0B       		.uleb128 0xb
 830 0122 59       		.uleb128 0x59
 831 0123 0B       		.uleb128 0xb
 832 0124 01       		.uleb128 0x1
 833 0125 13       		.uleb128 0x13
 834 0126 00       		.byte	0
 835 0127 00       		.byte	0
 836 0128 16       		.uleb128 0x16
 837 0129 1D       		.uleb128 0x1d
 838 012a 01       		.byte	0x1
 839 012b 31       		.uleb128 0x31
 840 012c 13       		.uleb128 0x13
 841 012d 11       		.uleb128 0x11
 842 012e 01       		.uleb128 0x1
 843 012f 12       		.uleb128 0x12
 844 0130 06       		.uleb128 0x6
 845 0131 58       		.uleb128 0x58
 846 0132 0B       		.uleb128 0xb
 847 0133 59       		.uleb128 0x59
 848 0134 0B       		.uleb128 0xb
 849 0135 00       		.byte	0
 850 0136 00       		.byte	0
 851 0137 17       		.uleb128 0x17
 852 0138 26       		.uleb128 0x26
ARM GAS  /tmp/cctZGKLe.s 			page 16


 853 0139 00       		.byte	0
 854 013a 00       		.byte	0
 855 013b 00       		.byte	0
 856 013c 18       		.uleb128 0x18
 857 013d 0F       		.uleb128 0xf
 858 013e 00       		.byte	0
 859 013f 0B       		.uleb128 0xb
 860 0140 0B       		.uleb128 0xb
 861 0141 00       		.byte	0
 862 0142 00       		.byte	0
 863 0143 00       		.byte	0
 864              		.section	.debug_loc,"",%progbits
 865              	.Ldebug_loc0:
 866              	.LLST0:
 867 0000 00000000 		.4byte	.LVL0
 868 0004 30000000 		.4byte	.LVL6
 869 0008 0100     		.2byte	0x1
 870 000a 50       		.byte	0x50
 871 000b 30000000 		.4byte	.LVL6
 872 000f AA000000 		.4byte	.LVL37
 873 0013 0400     		.2byte	0x4
 874 0015 F3       		.byte	0xf3
 875 0016 01       		.uleb128 0x1
 876 0017 50       		.byte	0x50
 877 0018 9F       		.byte	0x9f
 878 0019 AA000000 		.4byte	.LVL37
 879 001d AC000000 		.4byte	.LVL38
 880 0021 0100     		.2byte	0x1
 881 0023 50       		.byte	0x50
 882 0024 AC000000 		.4byte	.LVL38
 883 0028 C4000000 		.4byte	.LFE6
 884 002c 0400     		.2byte	0x4
 885 002e F3       		.byte	0xf3
 886 002f 01       		.uleb128 0x1
 887 0030 50       		.byte	0x50
 888 0031 9F       		.byte	0x9f
 889 0032 00000000 		.4byte	0
 890 0036 00000000 		.4byte	0
 891              	.LLST1:
 892 003a 00000000 		.4byte	.LVL0
 893 003e 30000000 		.4byte	.LVL6
 894 0042 0100     		.2byte	0x1
 895 0044 51       		.byte	0x51
 896 0045 30000000 		.4byte	.LVL6
 897 0049 56000000 		.4byte	.LVL14
 898 004d 0100     		.2byte	0x1
 899 004f 5A       		.byte	0x5a
 900 0050 56000000 		.4byte	.LVL14
 901 0054 64000000 		.4byte	.LVL17
 902 0058 0100     		.2byte	0x1
 903 005a 51       		.byte	0x51
 904 005b 64000000 		.4byte	.LVL17
 905 005f 7A000000 		.4byte	.LVL24
 906 0063 0100     		.2byte	0x1
 907 0065 5A       		.byte	0x5a
 908 0066 7A000000 		.4byte	.LVL24
 909 006a 84000000 		.4byte	.LVL25
ARM GAS  /tmp/cctZGKLe.s 			page 17


 910 006e 0400     		.2byte	0x4
 911 0070 F3       		.byte	0xf3
 912 0071 01       		.uleb128 0x1
 913 0072 51       		.byte	0x51
 914 0073 9F       		.byte	0x9f
 915 0074 84000000 		.4byte	.LVL25
 916 0078 C4000000 		.4byte	.LFE6
 917 007c 0100     		.2byte	0x1
 918 007e 51       		.byte	0x51
 919 007f 00000000 		.4byte	0
 920 0083 00000000 		.4byte	0
 921              	.LLST2:
 922 0087 00000000 		.4byte	.LVL0
 923 008b 30000000 		.4byte	.LVL6
 924 008f 0100     		.2byte	0x1
 925 0091 52       		.byte	0x52
 926 0092 30000000 		.4byte	.LVL6
 927 0096 AA000000 		.4byte	.LVL37
 928 009a 0400     		.2byte	0x4
 929 009c F3       		.byte	0xf3
 930 009d 01       		.uleb128 0x1
 931 009e 52       		.byte	0x52
 932 009f 9F       		.byte	0x9f
 933 00a0 AA000000 		.4byte	.LVL37
 934 00a4 C4000000 		.4byte	.LFE6
 935 00a8 0100     		.2byte	0x1
 936 00aa 52       		.byte	0x52
 937 00ab 00000000 		.4byte	0
 938 00af 00000000 		.4byte	0
 939              	.LLST3:
 940 00b3 00000000 		.4byte	.LVL0
 941 00b7 0E000000 		.4byte	.LVL1
 942 00bb 0100     		.2byte	0x1
 943 00bd 53       		.byte	0x53
 944 00be 0E000000 		.4byte	.LVL1
 945 00c2 7A000000 		.4byte	.LVL23
 946 00c6 0100     		.2byte	0x1
 947 00c8 58       		.byte	0x58
 948 00c9 7A000000 		.4byte	.LVL23
 949 00cd 84000000 		.4byte	.LVL25
 950 00d1 0100     		.2byte	0x1
 951 00d3 53       		.byte	0x53
 952 00d4 84000000 		.4byte	.LVL25
 953 00d8 C4000000 		.4byte	.LFE6
 954 00dc 0100     		.2byte	0x1
 955 00de 58       		.byte	0x58
 956 00df 00000000 		.4byte	0
 957 00e3 00000000 		.4byte	0
 958              	.LLST5:
 959 00e7 14000000 		.4byte	.LVL2
 960 00eb 18000000 		.4byte	.LVL4
 961 00ef 0100     		.2byte	0x1
 962 00f1 53       		.byte	0x53
 963 00f2 18000000 		.4byte	.LVL4
 964 00f6 20000000 		.4byte	.LVL5
 965 00fa 0400     		.2byte	0x4
 966 00fc 73       		.byte	0x73
ARM GAS  /tmp/cctZGKLe.s 			page 18


 967 00fd 00       		.sleb128 0
 968 00fe 1F       		.byte	0x1f
 969 00ff 9F       		.byte	0x9f
 970 0100 20000000 		.4byte	.LVL5
 971 0104 30000000 		.4byte	.LVL6
 972 0108 0C00     		.2byte	0xc
 973 010a 71       		.byte	0x71
 974 010b 00       		.sleb128 0
 975 010c 4F       		.byte	0x4f
 976 010d 26       		.byte	0x26
 977 010e 4E       		.byte	0x4e
 978 010f 25       		.byte	0x25
 979 0110 71       		.byte	0x71
 980 0111 00       		.sleb128 0
 981 0112 22       		.byte	0x22
 982 0113 32       		.byte	0x32
 983 0114 26       		.byte	0x26
 984 0115 9F       		.byte	0x9f
 985 0116 30000000 		.4byte	.LVL6
 986 011a 56000000 		.4byte	.LVL14
 987 011e 0C00     		.2byte	0xc
 988 0120 7A       		.byte	0x7a
 989 0121 00       		.sleb128 0
 990 0122 4F       		.byte	0x4f
 991 0123 26       		.byte	0x26
 992 0124 4E       		.byte	0x4e
 993 0125 25       		.byte	0x25
 994 0126 7A       		.byte	0x7a
 995 0127 00       		.sleb128 0
 996 0128 22       		.byte	0x22
 997 0129 32       		.byte	0x32
 998 012a 26       		.byte	0x26
 999 012b 9F       		.byte	0x9f
 1000 012c 56000000 		.4byte	.LVL14
 1001 0130 64000000 		.4byte	.LVL17
 1002 0134 0C00     		.2byte	0xc
 1003 0136 71       		.byte	0x71
 1004 0137 00       		.sleb128 0
 1005 0138 4F       		.byte	0x4f
 1006 0139 26       		.byte	0x26
 1007 013a 4E       		.byte	0x4e
 1008 013b 25       		.byte	0x25
 1009 013c 71       		.byte	0x71
 1010 013d 00       		.sleb128 0
 1011 013e 22       		.byte	0x22
 1012 013f 32       		.byte	0x32
 1013 0140 26       		.byte	0x26
 1014 0141 9F       		.byte	0x9f
 1015 0142 64000000 		.4byte	.LVL17
 1016 0146 7A000000 		.4byte	.LVL24
 1017 014a 0C00     		.2byte	0xc
 1018 014c 7A       		.byte	0x7a
 1019 014d 00       		.sleb128 0
 1020 014e 4F       		.byte	0x4f
 1021 014f 26       		.byte	0x26
 1022 0150 4E       		.byte	0x4e
 1023 0151 25       		.byte	0x25
ARM GAS  /tmp/cctZGKLe.s 			page 19


 1024 0152 7A       		.byte	0x7a
 1025 0153 00       		.sleb128 0
 1026 0154 22       		.byte	0x22
 1027 0155 32       		.byte	0x32
 1028 0156 26       		.byte	0x26
 1029 0157 9F       		.byte	0x9f
 1030 0158 7A000000 		.4byte	.LVL24
 1031 015c 84000000 		.4byte	.LVL25
 1032 0160 0E00     		.2byte	0xe
 1033 0162 F3       		.byte	0xf3
 1034 0163 01       		.uleb128 0x1
 1035 0164 51       		.byte	0x51
 1036 0165 4F       		.byte	0x4f
 1037 0166 26       		.byte	0x26
 1038 0167 4E       		.byte	0x4e
 1039 0168 25       		.byte	0x25
 1040 0169 F3       		.byte	0xf3
 1041 016a 01       		.uleb128 0x1
 1042 016b 51       		.byte	0x51
 1043 016c 22       		.byte	0x22
 1044 016d 32       		.byte	0x32
 1045 016e 26       		.byte	0x26
 1046 016f 9F       		.byte	0x9f
 1047 0170 84000000 		.4byte	.LVL25
 1048 0174 AA000000 		.4byte	.LVL37
 1049 0178 0C00     		.2byte	0xc
 1050 017a 71       		.byte	0x71
 1051 017b 00       		.sleb128 0
 1052 017c 4F       		.byte	0x4f
 1053 017d 26       		.byte	0x26
 1054 017e 4E       		.byte	0x4e
 1055 017f 25       		.byte	0x25
 1056 0180 71       		.byte	0x71
 1057 0181 00       		.sleb128 0
 1058 0182 22       		.byte	0x22
 1059 0183 32       		.byte	0x32
 1060 0184 26       		.byte	0x26
 1061 0185 9F       		.byte	0x9f
 1062 0186 AA000000 		.4byte	.LVL37
 1063 018a C4000000 		.4byte	.LFE6
 1064 018e 0400     		.2byte	0x4
 1065 0190 73       		.byte	0x73
 1066 0191 00       		.sleb128 0
 1067 0192 1F       		.byte	0x1f
 1068 0193 9F       		.byte	0x9f
 1069 0194 00000000 		.4byte	0
 1070 0198 00000000 		.4byte	0
 1071              	.LLST6:
 1072 019c 14000000 		.4byte	.LVL2
 1073 01a0 38000000 		.4byte	.LVL8
 1074 01a4 0100     		.2byte	0x1
 1075 01a6 52       		.byte	0x52
 1076 01a7 48000000 		.4byte	.LVL12
 1077 01ab 66000000 		.4byte	.LVL18
 1078 01af 0100     		.2byte	0x1
 1079 01b1 52       		.byte	0x52
 1080 01b2 84000000 		.4byte	.LVL25
ARM GAS  /tmp/cctZGKLe.s 			page 20


 1081 01b6 C4000000 		.4byte	.LFE6
 1082 01ba 0100     		.2byte	0x1
 1083 01bc 52       		.byte	0x52
 1084 01bd 00000000 		.4byte	0
 1085 01c1 00000000 		.4byte	0
 1086              	.LLST7:
 1087 01c5 16000000 		.4byte	.LVL3
 1088 01c9 30000000 		.4byte	.LVL6
 1089 01cd 0600     		.2byte	0x6
 1090 01cf 70       		.byte	0x70
 1091 01d0 00       		.sleb128 0
 1092 01d1 74       		.byte	0x74
 1093 01d2 00       		.sleb128 0
 1094 01d3 22       		.byte	0x22
 1095 01d4 9F       		.byte	0x9f
 1096 01d5 30000000 		.4byte	.LVL6
 1097 01d9 4C000000 		.4byte	.LVL13
 1098 01dd 0100     		.2byte	0x1
 1099 01df 50       		.byte	0x50
 1100 01e0 4C000000 		.4byte	.LVL13
 1101 01e4 56000000 		.4byte	.LVL14
 1102 01e8 1200     		.2byte	0x12
 1103 01ea 7A       		.byte	0x7a
 1104 01eb 00       		.sleb128 0
 1105 01ec 4F       		.byte	0x4f
 1106 01ed 26       		.byte	0x26
 1107 01ee 4E       		.byte	0x4e
 1108 01ef 25       		.byte	0x25
 1109 01f0 7A       		.byte	0x7a
 1110 01f1 00       		.sleb128 0
 1111 01f2 22       		.byte	0x22
 1112 01f3 32       		.byte	0x32
 1113 01f4 26       		.byte	0x26
 1114 01f5 32       		.byte	0x32
 1115 01f6 24       		.byte	0x24
 1116 01f7 F3       		.byte	0xf3
 1117 01f8 01       		.uleb128 0x1
 1118 01f9 50       		.byte	0x50
 1119 01fa 22       		.byte	0x22
 1120 01fb 9F       		.byte	0x9f
 1121 01fc 56000000 		.4byte	.LVL14
 1122 0200 64000000 		.4byte	.LVL17
 1123 0204 1200     		.2byte	0x12
 1124 0206 71       		.byte	0x71
 1125 0207 00       		.sleb128 0
 1126 0208 4F       		.byte	0x4f
 1127 0209 26       		.byte	0x26
 1128 020a 4E       		.byte	0x4e
 1129 020b 25       		.byte	0x25
 1130 020c 71       		.byte	0x71
 1131 020d 00       		.sleb128 0
 1132 020e 22       		.byte	0x22
 1133 020f 32       		.byte	0x32
 1134 0210 26       		.byte	0x26
 1135 0211 32       		.byte	0x32
 1136 0212 24       		.byte	0x24
 1137 0213 F3       		.byte	0xf3
ARM GAS  /tmp/cctZGKLe.s 			page 21


 1138 0214 01       		.uleb128 0x1
 1139 0215 50       		.byte	0x50
 1140 0216 22       		.byte	0x22
 1141 0217 9F       		.byte	0x9f
 1142 0218 64000000 		.4byte	.LVL17
 1143 021c 7A000000 		.4byte	.LVL24
 1144 0220 1200     		.2byte	0x12
 1145 0222 7A       		.byte	0x7a
 1146 0223 00       		.sleb128 0
 1147 0224 4F       		.byte	0x4f
 1148 0225 26       		.byte	0x26
 1149 0226 4E       		.byte	0x4e
 1150 0227 25       		.byte	0x25
 1151 0228 7A       		.byte	0x7a
 1152 0229 00       		.sleb128 0
 1153 022a 22       		.byte	0x22
 1154 022b 32       		.byte	0x32
 1155 022c 26       		.byte	0x26
 1156 022d 32       		.byte	0x32
 1157 022e 24       		.byte	0x24
 1158 022f F3       		.byte	0xf3
 1159 0230 01       		.uleb128 0x1
 1160 0231 50       		.byte	0x50
 1161 0232 22       		.byte	0x22
 1162 0233 9F       		.byte	0x9f
 1163 0234 7A000000 		.4byte	.LVL24
 1164 0238 84000000 		.4byte	.LVL25
 1165 023c 1400     		.2byte	0x14
 1166 023e F3       		.byte	0xf3
 1167 023f 01       		.uleb128 0x1
 1168 0240 51       		.byte	0x51
 1169 0241 4F       		.byte	0x4f
 1170 0242 26       		.byte	0x26
 1171 0243 4E       		.byte	0x4e
 1172 0244 25       		.byte	0x25
 1173 0245 F3       		.byte	0xf3
 1174 0246 01       		.uleb128 0x1
 1175 0247 51       		.byte	0x51
 1176 0248 22       		.byte	0x22
 1177 0249 32       		.byte	0x32
 1178 024a 26       		.byte	0x26
 1179 024b 32       		.byte	0x32
 1180 024c 24       		.byte	0x24
 1181 024d F3       		.byte	0xf3
 1182 024e 01       		.uleb128 0x1
 1183 024f 50       		.byte	0x50
 1184 0250 22       		.byte	0x22
 1185 0251 9F       		.byte	0x9f
 1186 0252 84000000 		.4byte	.LVL25
 1187 0256 AA000000 		.4byte	.LVL37
 1188 025a 1200     		.2byte	0x12
 1189 025c 71       		.byte	0x71
 1190 025d 00       		.sleb128 0
 1191 025e 4F       		.byte	0x4f
 1192 025f 26       		.byte	0x26
 1193 0260 4E       		.byte	0x4e
 1194 0261 25       		.byte	0x25
ARM GAS  /tmp/cctZGKLe.s 			page 22


 1195 0262 71       		.byte	0x71
 1196 0263 00       		.sleb128 0
 1197 0264 22       		.byte	0x22
 1198 0265 32       		.byte	0x32
 1199 0266 26       		.byte	0x26
 1200 0267 32       		.byte	0x32
 1201 0268 24       		.byte	0x24
 1202 0269 F3       		.byte	0xf3
 1203 026a 01       		.uleb128 0x1
 1204 026b 50       		.byte	0x50
 1205 026c 22       		.byte	0x22
 1206 026d 9F       		.byte	0x9f
 1207 026e AA000000 		.4byte	.LVL37
 1208 0272 AC000000 		.4byte	.LVL38
 1209 0276 0600     		.2byte	0x6
 1210 0278 70       		.byte	0x70
 1211 0279 00       		.sleb128 0
 1212 027a 74       		.byte	0x74
 1213 027b 00       		.sleb128 0
 1214 027c 22       		.byte	0x22
 1215 027d 9F       		.byte	0x9f
 1216 027e AC000000 		.4byte	.LVL38
 1217 0282 C4000000 		.4byte	.LFE6
 1218 0286 0700     		.2byte	0x7
 1219 0288 F3       		.byte	0xf3
 1220 0289 01       		.uleb128 0x1
 1221 028a 50       		.byte	0x50
 1222 028b 74       		.byte	0x74
 1223 028c 00       		.sleb128 0
 1224 028d 22       		.byte	0x22
 1225 028e 9F       		.byte	0x9f
 1226 028f 00000000 		.4byte	0
 1227 0293 00000000 		.4byte	0
 1228              	.LLST8:
 1229 0297 4C000000 		.4byte	.LVL13
 1230 029b 5E000000 		.4byte	.LVL15
 1231 029f 0100     		.2byte	0x1
 1232 02a1 50       		.byte	0x50
 1233 02a2 84000000 		.4byte	.LVL25
 1234 02a6 88000000 		.4byte	.LVL27
 1235 02aa 0100     		.2byte	0x1
 1236 02ac 50       		.byte	0x50
 1237 02ad 9A000000 		.4byte	.LVL33
 1238 02b1 AA000000 		.4byte	.LVL37
 1239 02b5 0100     		.2byte	0x1
 1240 02b7 50       		.byte	0x50
 1241 02b8 00000000 		.4byte	0
 1242 02bc 00000000 		.4byte	0
 1243              	.LLST9:
 1244 02c0 4C000000 		.4byte	.LVL13
 1245 02c4 5E000000 		.4byte	.LVL15
 1246 02c8 0200     		.2byte	0x2
 1247 02ca 30       		.byte	0x30
 1248 02cb 9F       		.byte	0x9f
 1249 02cc 84000000 		.4byte	.LVL25
 1250 02d0 86000000 		.4byte	.LVL26
 1251 02d4 0200     		.2byte	0x2
ARM GAS  /tmp/cctZGKLe.s 			page 23


 1252 02d6 30       		.byte	0x30
 1253 02d7 9F       		.byte	0x9f
 1254 02d8 86000000 		.4byte	.LVL26
 1255 02dc 8A000000 		.4byte	.LVL28
 1256 02e0 0100     		.2byte	0x1
 1257 02e2 53       		.byte	0x53
 1258 02e3 8A000000 		.4byte	.LVL28
 1259 02e7 8E000000 		.4byte	.LVL29
 1260 02eb 0A00     		.2byte	0xa
 1261 02ed 73       		.byte	0x73
 1262 02ee 00       		.sleb128 0
 1263 02ef 11       		.byte	0x11
 1264 02f0 D1DAF8E4 		.sleb128 -862048943
 1264      7C
 1265 02f5 1E       		.byte	0x1e
 1266 02f6 9F       		.byte	0x9f
 1267 02f7 8E000000 		.4byte	.LVL29
 1268 02fb 92000000 		.4byte	.LVL30
 1269 02ff 0100     		.2byte	0x1
 1270 0301 53       		.byte	0x53
 1271 0302 92000000 		.4byte	.LVL30
 1272 0306 96000000 		.4byte	.LVL31
 1273 030a 0900     		.2byte	0x9
 1274 030c 73       		.byte	0x73
 1275 030d 00       		.sleb128 0
 1276 030e 0C       		.byte	0xc
 1277 030f 9335871B 		.4byte	0x1b873593
 1278 0313 1E       		.byte	0x1e
 1279 0314 9F       		.byte	0x9f
 1280 0315 96000000 		.4byte	.LVL31
 1281 0319 9A000000 		.4byte	.LVL33
 1282 031d 0100     		.2byte	0x1
 1283 031f 53       		.byte	0x53
 1284 0320 9A000000 		.4byte	.LVL33
 1285 0324 9E000000 		.4byte	.LVL34
 1286 0328 0200     		.2byte	0x2
 1287 032a 30       		.byte	0x30
 1288 032b 9F       		.byte	0x9f
 1289 032c 9E000000 		.4byte	.LVL34
 1290 0330 A4000000 		.4byte	.LVL35
 1291 0334 0100     		.2byte	0x1
 1292 0336 54       		.byte	0x54
 1293 0337 A4000000 		.4byte	.LVL35
 1294 033b A6000000 		.4byte	.LVL36
 1295 033f 0100     		.2byte	0x1
 1296 0341 53       		.byte	0x53
 1297 0342 A6000000 		.4byte	.LVL36
 1298 0346 AA000000 		.4byte	.LVL37
 1299 034a 0200     		.2byte	0x2
 1300 034c 30       		.byte	0x30
 1301 034d 9F       		.byte	0x9f
 1302 034e 00000000 		.4byte	0
 1303 0352 00000000 		.4byte	0
 1304              	.LLST10:
 1305 0356 18000000 		.4byte	.LVL4
 1306 035a 20000000 		.4byte	.LVL5
 1307 035e 0100     		.2byte	0x1
ARM GAS  /tmp/cctZGKLe.s 			page 24


 1308 0360 53       		.byte	0x53
 1309 0361 20000000 		.4byte	.LVL5
 1310 0365 30000000 		.4byte	.LVL6
 1311 0369 0D00     		.2byte	0xd
 1312 036b 71       		.byte	0x71
 1313 036c 00       		.sleb128 0
 1314 036d 4F       		.byte	0x4f
 1315 036e 26       		.byte	0x26
 1316 036f 4E       		.byte	0x4e
 1317 0370 25       		.byte	0x25
 1318 0371 71       		.byte	0x71
 1319 0372 00       		.sleb128 0
 1320 0373 22       		.byte	0x22
 1321 0374 32       		.byte	0x32
 1322 0375 26       		.byte	0x26
 1323 0376 1F       		.byte	0x1f
 1324 0377 9F       		.byte	0x9f
 1325 0378 AA000000 		.4byte	.LVL37
 1326 037c C4000000 		.4byte	.LFE6
 1327 0380 0100     		.2byte	0x1
 1328 0382 53       		.byte	0x53
 1329 0383 00000000 		.4byte	0
 1330 0387 00000000 		.4byte	0
 1331              	.LLST11:
 1332 038b 30000000 		.4byte	.LVL6
 1333 038f 34000000 		.4byte	.LVL7
 1334 0393 0B00     		.2byte	0xb
 1335 0395 75       		.byte	0x75
 1336 0396 00       		.sleb128 0
 1337 0397 06       		.byte	0x6
 1338 0398 11       		.byte	0x11
 1339 0399 D1DAF8E4 		.sleb128 -862048943
 1339      7C
 1340 039e 1E       		.byte	0x1e
 1341 039f 9F       		.byte	0x9f
 1342 03a0 34000000 		.4byte	.LVL7
 1343 03a4 38000000 		.4byte	.LVL8
 1344 03a8 0B00     		.2byte	0xb
 1345 03aa 75       		.byte	0x75
 1346 03ab 7C       		.sleb128 -4
 1347 03ac 06       		.byte	0x6
 1348 03ad 11       		.byte	0x11
 1349 03ae D1DAF8E4 		.sleb128 -862048943
 1349      7C
 1350 03b3 1E       		.byte	0x1e
 1351 03b4 9F       		.byte	0x9f
 1352 03b5 38000000 		.4byte	.LVL8
 1353 03b9 3A000000 		.4byte	.LVL9
 1354 03bd 0900     		.2byte	0x9
 1355 03bf 74       		.byte	0x74
 1356 03c0 00       		.sleb128 0
 1357 03c1 0C       		.byte	0xc
 1358 03c2 9335871B 		.4byte	0x1b873593
 1359 03c6 1E       		.byte	0x1e
 1360 03c7 9F       		.byte	0x9f
 1361 03c8 3A000000 		.4byte	.LVL9
 1362 03cc 40000000 		.4byte	.LVL11
ARM GAS  /tmp/cctZGKLe.s 			page 25


 1363 03d0 1800     		.2byte	0x18
 1364 03d2 71       		.byte	0x71
 1365 03d3 00       		.sleb128 0
 1366 03d4 75       		.byte	0x75
 1367 03d5 7C       		.sleb128 -4
 1368 03d6 06       		.byte	0x6
 1369 03d7 1E       		.byte	0x1e
 1370 03d8 73       		.byte	0x73
 1371 03d9 00       		.sleb128 0
 1372 03da 14       		.byte	0x14
 1373 03db 14       		.byte	0x14
 1374 03dc 1F       		.byte	0x1f
 1375 03dd 23       		.byte	0x23
 1376 03de 20       		.uleb128 0x20
 1377 03df 24       		.byte	0x24
 1378 03e0 17       		.byte	0x17
 1379 03e1 25       		.byte	0x25
 1380 03e2 21       		.byte	0x21
 1381 03e3 0C       		.byte	0xc
 1382 03e4 9335871B 		.4byte	0x1b873593
 1383 03e8 1E       		.byte	0x1e
 1384 03e9 9F       		.byte	0x9f
 1385 03ea 40000000 		.4byte	.LVL11
 1386 03ee 4C000000 		.4byte	.LVL13
 1387 03f2 1800     		.2byte	0x18
 1388 03f4 7C       		.byte	0x7c
 1389 03f5 00       		.sleb128 0
 1390 03f6 75       		.byte	0x75
 1391 03f7 7C       		.sleb128 -4
 1392 03f8 06       		.byte	0x6
 1393 03f9 1E       		.byte	0x1e
 1394 03fa 73       		.byte	0x73
 1395 03fb 00       		.sleb128 0
 1396 03fc 14       		.byte	0x14
 1397 03fd 14       		.byte	0x14
 1398 03fe 1F       		.byte	0x1f
 1399 03ff 23       		.byte	0x23
 1400 0400 20       		.uleb128 0x20
 1401 0401 24       		.byte	0x24
 1402 0402 17       		.byte	0x17
 1403 0403 25       		.byte	0x25
 1404 0404 21       		.byte	0x21
 1405 0405 0C       		.byte	0xc
 1406 0406 9335871B 		.4byte	0x1b873593
 1407 040a 1E       		.byte	0x1e
 1408 040b 9F       		.byte	0x9f
 1409 040c 00000000 		.4byte	0
 1410 0410 00000000 		.4byte	0
 1411              	.LLST12:
 1412 0414 38000000 		.4byte	.LVL8
 1413 0418 4C000000 		.4byte	.LVL13
 1414 041c 0200     		.2byte	0x2
 1415 041e 3D       		.byte	0x3d
 1416 041f 9F       		.byte	0x9f
 1417 0420 00000000 		.4byte	0
 1418 0424 00000000 		.4byte	0
 1419              	.LLST13:
ARM GAS  /tmp/cctZGKLe.s 			page 26


 1420 0428 38000000 		.4byte	.LVL8
 1421 042c 3A000000 		.4byte	.LVL9
 1422 0430 0C00     		.2byte	0xc
 1423 0432 74       		.byte	0x74
 1424 0433 00       		.sleb128 0
 1425 0434 0C       		.byte	0xc
 1426 0435 9335871B 		.4byte	0x1b873593
 1427 0439 1E       		.byte	0x1e
 1428 043a 72       		.byte	0x72
 1429 043b 00       		.sleb128 0
 1430 043c 27       		.byte	0x27
 1431 043d 9F       		.byte	0x9f
 1432 043e 3A000000 		.4byte	.LVL9
 1433 0442 3C000000 		.4byte	.LVL10
 1434 0446 1B00     		.2byte	0x1b
 1435 0448 71       		.byte	0x71
 1436 0449 00       		.sleb128 0
 1437 044a 75       		.byte	0x75
 1438 044b 7C       		.sleb128 -4
 1439 044c 06       		.byte	0x6
 1440 044d 1E       		.byte	0x1e
 1441 044e 73       		.byte	0x73
 1442 044f 00       		.sleb128 0
 1443 0450 14       		.byte	0x14
 1444 0451 14       		.byte	0x14
 1445 0452 1F       		.byte	0x1f
 1446 0453 23       		.byte	0x23
 1447 0454 20       		.uleb128 0x20
 1448 0455 24       		.byte	0x24
 1449 0456 17       		.byte	0x17
 1450 0457 25       		.byte	0x25
 1451 0458 21       		.byte	0x21
 1452 0459 0C       		.byte	0xc
 1453 045a 9335871B 		.4byte	0x1b873593
 1454 045e 1E       		.byte	0x1e
 1455 045f 72       		.byte	0x72
 1456 0460 00       		.sleb128 0
 1457 0461 27       		.byte	0x27
 1458 0462 9F       		.byte	0x9f
 1459 0463 00000000 		.4byte	0
 1460 0467 00000000 		.4byte	0
 1461              	.LLST14:
 1462 046b 30000000 		.4byte	.LVL6
 1463 046f 4C000000 		.4byte	.LVL13
 1464 0473 0200     		.2byte	0x2
 1465 0475 3F       		.byte	0x3f
 1466 0476 9F       		.byte	0x9f
 1467 0477 00000000 		.4byte	0
 1468 047b 00000000 		.4byte	0
 1469              	.LLST15:
 1470 047f 30000000 		.4byte	.LVL6
 1471 0483 34000000 		.4byte	.LVL7
 1472 0487 0B00     		.2byte	0xb
 1473 0489 75       		.byte	0x75
 1474 048a 00       		.sleb128 0
 1475 048b 06       		.byte	0x6
 1476 048c 11       		.byte	0x11
ARM GAS  /tmp/cctZGKLe.s 			page 27


 1477 048d D1DAF8E4 		.sleb128 -862048943
 1477      7C
 1478 0492 1E       		.byte	0x1e
 1479 0493 9F       		.byte	0x9f
 1480 0494 34000000 		.4byte	.LVL7
 1481 0498 4C000000 		.4byte	.LVL13
 1482 049c 0B00     		.2byte	0xb
 1483 049e 75       		.byte	0x75
 1484 049f 7C       		.sleb128 -4
 1485 04a0 06       		.byte	0x6
 1486 04a1 11       		.byte	0x11
 1487 04a2 D1DAF8E4 		.sleb128 -862048943
 1487      7C
 1488 04a7 1E       		.byte	0x1e
 1489 04a8 9F       		.byte	0x9f
 1490 04a9 00000000 		.4byte	0
 1491 04ad 00000000 		.4byte	0
 1492              	.LLST16:
 1493 04b1 62000000 		.4byte	.LVL16
 1494 04b5 72000000 		.4byte	.LVL21
 1495 04b9 0100     		.2byte	0x1
 1496 04bb 52       		.byte	0x52
 1497 04bc 72000000 		.4byte	.LVL21
 1498 04c0 76000000 		.4byte	.LVL22
 1499 04c4 0800     		.2byte	0x8
 1500 04c6 72       		.byte	0x72
 1501 04c7 00       		.sleb128 0
 1502 04c8 40       		.byte	0x40
 1503 04c9 25       		.byte	0x25
 1504 04ca 72       		.byte	0x72
 1505 04cb 00       		.sleb128 0
 1506 04cc 27       		.byte	0x27
 1507 04cd 9F       		.byte	0x9f
 1508 04ce 76000000 		.4byte	.LVL22
 1509 04d2 84000000 		.4byte	.LVL25
 1510 04d6 0100     		.2byte	0x1
 1511 04d8 52       		.byte	0x52
 1512 04d9 00000000 		.4byte	0
 1513 04dd 00000000 		.4byte	0
 1514              	.LLST17:
 1515 04e1 8A000000 		.4byte	.LVL28
 1516 04e5 9A000000 		.4byte	.LVL33
 1517 04e9 0200     		.2byte	0x2
 1518 04eb 3F       		.byte	0x3f
 1519 04ec 9F       		.byte	0x9f
 1520 04ed 00000000 		.4byte	0
 1521 04f1 00000000 		.4byte	0
 1522              	.LLST18:
 1523 04f5 8A000000 		.4byte	.LVL28
 1524 04f9 8E000000 		.4byte	.LVL29
 1525 04fd 0A00     		.2byte	0xa
 1526 04ff 73       		.byte	0x73
 1527 0500 00       		.sleb128 0
 1528 0501 11       		.byte	0x11
 1529 0502 D1DAF8E4 		.sleb128 -862048943
 1529      7C
 1530 0507 1E       		.byte	0x1e
ARM GAS  /tmp/cctZGKLe.s 			page 28


 1531 0508 9F       		.byte	0x9f
 1532 0509 8E000000 		.4byte	.LVL29
 1533 050d 92000000 		.4byte	.LVL30
 1534 0511 0100     		.2byte	0x1
 1535 0513 53       		.byte	0x53
 1536 0514 00000000 		.4byte	0
 1537 0518 00000000 		.4byte	0
 1538              		.section	.debug_aranges,"",%progbits
 1539 0000 1C000000 		.4byte	0x1c
 1540 0004 0200     		.2byte	0x2
 1541 0006 00000000 		.4byte	.Ldebug_info0
 1542 000a 04       		.byte	0x4
 1543 000b 00       		.byte	0
 1544 000c 0000     		.2byte	0
 1545 000e 0000     		.2byte	0
 1546 0010 00000000 		.4byte	.LFB6
 1547 0014 C4000000 		.4byte	.LFE6-.LFB6
 1548 0018 00000000 		.4byte	0
 1549 001c 00000000 		.4byte	0
 1550              		.section	.debug_ranges,"",%progbits
 1551              	.Ldebug_ranges0:
 1552 0000 16000000 		.4byte	.LBB14
 1553 0004 18000000 		.4byte	.LBE14
 1554 0008 1A000000 		.4byte	.LBB24
 1555 000c 4C000000 		.4byte	.LBE24
 1556 0010 00000000 		.4byte	0
 1557 0014 00000000 		.4byte	0
 1558 0018 24000000 		.4byte	.LBB16
 1559 001c 26000000 		.4byte	.LBE16
 1560 0020 3C000000 		.4byte	.LBB23
 1561 0024 3E000000 		.4byte	.LBE23
 1562 0028 00000000 		.4byte	0
 1563 002c 00000000 		.4byte	0
 1564 0030 28000000 		.4byte	.LBB19
 1565 0034 2A000000 		.4byte	.LBE19
 1566 0038 36000000 		.4byte	.LBB22
 1567 003c 38000000 		.4byte	.LBE22
 1568 0040 00000000 		.4byte	0
 1569 0044 00000000 		.4byte	0
 1570 0048 00000000 		.4byte	.LFB6
 1571 004c C4000000 		.4byte	.LFE6
 1572 0050 00000000 		.4byte	0
 1573 0054 00000000 		.4byte	0
 1574              		.section	.debug_line,"",%progbits
 1575              	.Ldebug_line0:
 1576 0000 A7000000 		.section	.debug_str,"MS",%progbits,1
 1576      02003900 
 1576      00000201 
 1576      FB0E0D00 
 1576      01010101 
 1577              	.LASF2:
 1578 0000 6C6F6E67 		.ascii	"long long int\000"
 1578      206C6F6E 
 1578      6720696E 
 1578      7400
 1579              	.LASF12:
 1580 000e 666D6978 		.ascii	"fmix32\000"
ARM GAS  /tmp/cctZGKLe.s 			page 29


 1580      333200
 1581              	.LASF14:
 1582 0015 64617461 		.ascii	"data\000"
 1582      00
 1583              	.LASF20:
 1584 001a 2F686F6D 		.ascii	"/home/bunnie/code/chibi-chibios/orchard\000"
 1584      652F6275 
 1584      6E6E6965 
 1584      2F636F64 
 1584      652F6368 
 1585              	.LASF3:
 1586 0042 696E7438 		.ascii	"int8_t\000"
 1586      5F7400
 1587              	.LASF5:
 1588 0049 756E7369 		.ascii	"unsigned char\000"
 1588      676E6564 
 1588      20636861 
 1588      7200
 1589              	.LASF6:
 1590 0057 73686F72 		.ascii	"short unsigned int\000"
 1590      7420756E 
 1590      7369676E 
 1590      65642069 
 1590      6E7400
 1591              	.LASF15:
 1592 006a 6E626C6F 		.ascii	"nblocks\000"
 1592      636B7300 
 1593              	.LASF21:
 1594 0072 4D75726D 		.ascii	"MurmurHash3_x86_32\000"
 1594      75724861 
 1594      7368335F 
 1594      7838365F 
 1594      333200
 1595              	.LASF11:
 1596 0085 726F746C 		.ascii	"rotl32\000"
 1596      333200
 1597              	.LASF8:
 1598 008c 756E7369 		.ascii	"unsigned int\000"
 1598      676E6564 
 1598      20696E74 
 1598      00
 1599              	.LASF9:
 1600 0099 6C6F6E67 		.ascii	"long long unsigned int\000"
 1600      206C6F6E 
 1600      6720756E 
 1600      7369676E 
 1600      65642069 
 1601              	.LASF4:
 1602 00b0 75696E74 		.ascii	"uint8_t\000"
 1602      385F7400 
 1603              	.LASF17:
 1604 00b8 7461696C 		.ascii	"tail\000"
 1604      00
 1605              	.LASF10:
 1606 00bd 67657462 		.ascii	"getblock32\000"
 1606      6C6F636B 
 1606      333200
ARM GAS  /tmp/cctZGKLe.s 			page 30


 1607              	.LASF16:
 1608 00c8 626C6F63 		.ascii	"blocks\000"
 1608      6B7300
 1609              	.LASF18:
 1610 00cf 474E5520 		.ascii	"GNU C 4.9.2 -mcpu=cortex-m0 -mfloat-abi=soft -mfp16"
 1610      4320342E 
 1610      392E3220 
 1610      2D6D6370 
 1610      753D636F 
 1611 0102 2D666F72 		.ascii	"-format=none -mno-thumb-interwork -mthumb -mfloat-a"
 1611      6D61743D 
 1611      6E6F6E65 
 1611      202D6D6E 
 1611      6F2D7468 
 1612 0135 62693D73 		.ascii	"bi=soft -mfpu=vfpv3-d16 -mtls-dialect=gnu -ggdb -O3"
 1612      6F667420 
 1612      2D6D6670 
 1612      753D7666 
 1612      7076332D 
 1613 0168 202D7374 		.ascii	" -std=gnu99 -fomit-frame-pointer -falign-functions="
 1613      643D676E 
 1613      75393920 
 1613      2D666F6D 
 1613      69742D66 
 1614 019b 3136202D 		.ascii	"16 -ffunction-sections -fdata-sections -fno-common\000"
 1614      6666756E 
 1614      6374696F 
 1614      6E2D7365 
 1614      6374696F 
 1615              	.LASF1:
 1616 01ce 73686F72 		.ascii	"short int\000"
 1616      7420696E 
 1616      7400
 1617              	.LASF19:
 1618 01d8 6D75726D 		.ascii	"murmur3.c\000"
 1618      7572332E 
 1618      6300
 1619              	.LASF13:
 1620 01e2 73656564 		.ascii	"seed\000"
 1620      00
 1621              	.LASF7:
 1622 01e7 75696E74 		.ascii	"uint32_t\000"
 1622      33325F74 
 1622      00
 1623              	.LASF0:
 1624 01f0 7369676E 		.ascii	"signed char\000"
 1624      65642063 
 1624      68617200 
 1625              		.ident	"GCC: (Debian 4.9.2-10) 4.9.2"
 1626              		.section	.note.GNU-stack,"",%progbits
ARM GAS  /tmp/cctZGKLe.s 			page 31


DEFINED SYMBOLS
                            *ABS*:00000000 murmur3.c
     /tmp/cctZGKLe.s:18     .text.MurmurHash3_x86_32:00000000 $t
     /tmp/cctZGKLe.s:24     .text.MurmurHash3_x86_32:00000000 MurmurHash3_x86_32
     /tmp/cctZGKLe.s:246    .text.MurmurHash3_x86_32:000000b0 $d
                     .debug_frame:00000010 $d
     /tmp/cctZGKLe.s:254    .text.MurmurHash3_x86_32:000000c4 $t

NO UNDEFINED SYMBOLS
