ARM GAS  /tmp/cctZGKLe.s 			page 1


   1              		.cpu cortex-m0
   2              		.fpu softvfp
   3              		.eabi_attribute 20, 1
   4              		.eabi_attribute 21, 1
   5              		.eabi_attribute 23, 3
   6              		.eabi_attribute 24, 1
   7              		.eabi_attribute 25, 1
   8              		.eabi_attribute 26, 2
   9              		.eabi_attribute 30, 2
  10              		.eabi_attribute 34, 0
  11              		.eabi_attribute 18, 4
  12              		.code	16
  13              		.file	"murmur3.c"
  14              		.text
  15              	.Ltext0:
  16              		.cfi_sections	.debug_frame
  17              		.section	.text.MurmurHash3_x86_32,"ax",%progbits
  18              		.align	2
  19              		.p2align 4,,15
  20              		.global	MurmurHash3_x86_32
  21              		.code	16
  22              		.thumb_func
  23              		.type	MurmurHash3_x86_32, %function
  24              	MurmurHash3_x86_32:
  25              	.LFB6:
  26              		.file 1 "murmur3.c"
  27              		.loc 1 76 0
  28              		.cfi_startproc
  29              	.LVL0:
  30 0000 F0B5     		push	{r4, r5, r6, r7, lr}
  31              		.cfi_def_cfa_offset 20
  32              		.cfi_offset 4, -20
  33              		.cfi_offset 5, -16
  34              		.cfi_offset 6, -12
  35              		.cfi_offset 7, -8
  36              		.cfi_offset 14, -4
  37 0002 5746     		mov	r7, r10
  38 0004 8A46     		mov	r10, r1
  39 0006 4546     		mov	r5, r8
  40 0008 4E46     		mov	r6, r9
  41 000a 9846     		mov	r8, r3
  42              		.loc 1 78 0
  43 000c CB17     		asr	r3, r1, #31
  44              	.LVL1:
  45 000e 9B0F     		lsr	r3, r3, #30
  46 0010 5344     		add	r3, r3, r10
  47 0012 9B10     		asr	r3, r3, #2
  48              	.LVL2:
  49              		.loc 1 88 0
  50 0014 9C00     		lsl	r4, r3, #2
  51              	.LVL3:
  52              	.LBB14:
  53              		.loc 1 90 0
  54 0016 5B42     		neg	r3, r3
  55              	.LVL4:
  56              	.LBE14:
  57              		.loc 1 76 0
ARM GAS  /tmp/cctZGKLe.s 			page 2


  58 0018 E0B4     		push	{r5, r6, r7}
  59              		.cfi_def_cfa_offset 32
  60              		.cfi_offset 8, -32
  61              		.cfi_offset 9, -28
  62              		.cfi_offset 10, -24
  63              	.LBB24:
  64              		.loc 1 90 0
  65 001a 002B     		cmp	r3, #0
  66 001c 45D0     		beq	.L16
  67 001e 9B00     		lsl	r3, r3, #2
  68              	.LVL5:
  69 0020 E518     		add	r5, r4, r3
  70              	.LBB15:
  71              		.loc 1 94 0
  72 0022 234B     		ldr	r3, .L18
  73              	.LBB16:
  74              	.LBB17:
  75              		.loc 1 17 0
  76 0024 1326     		mov	r6, #19
  77              	.LBE17:
  78              	.LBE16:
  79              		.loc 1 94 0
  80 0026 9C46     		mov	ip, r3
  81              	.LBB19:
  82              	.LBB20:
  83              		.loc 1 17 0
  84 0028 1123     		mov	r3, #17
  85              	.LBE20:
  86              	.LBE19:
  87              		.loc 1 96 0
  88 002a 224F     		ldr	r7, .L18+4
  89 002c 4519     		add	r5, r0, r5
  90 002e 0019     		add	r0, r0, r4
  91              	.LVL6:
  92              	.L3:
  93              		.loc 1 94 0
  94 0030 6146     		mov	r1, ip
  95 0032 10CD     		ldmia	r5!, {r4}
  96              	.LVL7:
  97 0034 4C43     		mul	r4, r1
  98              	.LBB22:
  99              	.LBB21:
 100              		.loc 1 17 0
 101 0036 DC41     		ror	r4, r4, r3
 102              	.LVL8:
 103              	.LBE21:
 104              	.LBE22:
 105              		.loc 1 96 0
 106 0038 7C43     		mul	r4, r7
 107              	.LVL9:
 108              		.loc 1 98 0
 109 003a 6240     		eor	r2, r4
 110              	.LVL10:
 111              	.LBB23:
 112              	.LBB18:
 113              		.loc 1 17 0
 114 003c F241     		ror	r2, r2, r6
ARM GAS  /tmp/cctZGKLe.s 			page 3


 115              	.LBE18:
 116              	.LBE23:
 117              		.loc 1 100 0
 118 003e 1E49     		ldr	r1, .L18+8
 119              	.LVL11:
 120 0040 9400     		lsl	r4, r2, #2
 121 0042 8946     		mov	r9, r1
 122 0044 A218     		add	r2, r4, r2
 123 0046 4A44     		add	r2, r2, r9
 124              	.LVL12:
 125              	.LBE15:
 126              		.loc 1 90 0
 127 0048 A842     		cmp	r0, r5
 128 004a F1D1     		bne	.L3
 129              	.LVL13:
 130              	.L2:
 131              	.LBE24:
 132              		.loc 1 110 0
 133 004c 0323     		mov	r3, #3
 134 004e 5146     		mov	r1, r10
 135 0050 0B40     		and	r3, r1
 136 0052 022B     		cmp	r3, #2
 137 0054 27D0     		beq	.L9
 138              	.LVL14:
 139 0056 032B     		cmp	r3, #3
 140 0058 1FD0     		beq	.L6
 141 005a 012B     		cmp	r3, #1
 142 005c 12D0     		beq	.L17
 143              	.LVL15:
 144              	.L4:
 145              		.loc 1 121 0
 146 005e 5346     		mov	r3, r10
 147 0060 5A40     		eor	r2, r3
 148              	.LVL16:
 149              	.LBB25:
 150              	.LBB26:
 151              		.loc 1 50 0
 152 0062 110C     		lsr	r1, r2, #16
 153              	.LVL17:
 154 0064 4A40     		eor	r2, r1
 155              	.LVL18:
 156              		.loc 1 51 0
 157 0066 1549     		ldr	r1, .L18+12
 158              		.loc 1 53 0
 159 0068 154B     		ldr	r3, .L18+16
 160              		.loc 1 51 0
 161 006a 4A43     		mul	r2, r1
 162              	.LVL19:
 163              		.loc 1 52 0
 164 006c 510B     		lsr	r1, r2, #13
 165 006e 4A40     		eor	r2, r1
 166              	.LVL20:
 167              		.loc 1 53 0
 168 0070 5A43     		mul	r2, r3
 169              	.LVL21:
 170              		.loc 1 54 0
 171 0072 130C     		lsr	r3, r2, #16
ARM GAS  /tmp/cctZGKLe.s 			page 4


 172 0074 5A40     		eor	r2, r3
 173              	.LVL22:
 174              	.LBE26:
 175              	.LBE25:
 176              		.loc 1 125 0
 177 0076 4346     		mov	r3, r8
 178              		.loc 1 126 0
 179              		@ sp needed
 180              		.loc 1 125 0
 181 0078 1A60     		str	r2, [r3]
 182              	.LVL23:
 183              	.LVL24:
 184              		.loc 1 126 0
 185 007a 1CBC     		pop	{r2, r3, r4}
 186 007c 9046     		mov	r8, r2
 187 007e 9946     		mov	r9, r3
 188 0080 A246     		mov	r10, r4
 189 0082 F0BD     		pop	{r4, r5, r6, r7, pc}
 190              	.LVL25:
 191              	.L17:
 192              		.loc 1 108 0
 193 0084 0023     		mov	r3, #0
 194              	.LVL26:
 195              	.L7:
 196              		.loc 1 114 0
 197 0086 0078     		ldrb	r0, [r0]
 198              	.LVL27:
 199 0088 4340     		eor	r3, r0
 200              	.LVL28:
 201              		.loc 1 115 0
 202 008a 0948     		ldr	r0, .L18
 203 008c 4343     		mul	r3, r0
 204              	.LVL29:
 205              	.LBB27:
 206              	.LBB28:
 207              		.loc 1 17 0
 208 008e 1120     		mov	r0, #17
 209 0090 C341     		ror	r3, r3, r0
 210              	.LVL30:
 211              	.LBE28:
 212              	.LBE27:
 213              		.loc 1 115 0
 214 0092 0848     		ldr	r0, .L18+4
 215 0094 4343     		mul	r3, r0
 216              	.LVL31:
 217 0096 5A40     		eor	r2, r3
 218              	.LVL32:
 219 0098 E1E7     		b	.L4
 220              	.LVL33:
 221              	.L6:
 222              		.loc 1 112 0
 223 009a 8378     		ldrb	r3, [r0, #2]
 224 009c 1C04     		lsl	r4, r3, #16
 225              	.LVL34:
 226              	.L5:
 227              		.loc 1 113 0
 228 009e 4378     		ldrb	r3, [r0, #1]
ARM GAS  /tmp/cctZGKLe.s 			page 5


 229 00a0 1B02     		lsl	r3, r3, #8
 230 00a2 6340     		eor	r3, r4
 231              	.LVL35:
 232 00a4 EFE7     		b	.L7
 233              	.LVL36:
 234              	.L9:
 235              		.loc 1 108 0
 236 00a6 0024     		mov	r4, #0
 237 00a8 F9E7     		b	.L5
 238              	.LVL37:
 239              	.L16:
 240 00aa 0019     		add	r0, r0, r4
 241              	.LVL38:
 242 00ac CEE7     		b	.L2
 243              	.L19:
 244 00ae C046     		.align	2
 245              	.L18:
 246 00b0 512D9ECC 		.word	-862048943
 247 00b4 9335871B 		.word	461845907
 248 00b8 646B54E6 		.word	-430675100
 249 00bc 6BCAEB85 		.word	-2048144789
 250 00c0 35AEB2C2 		.word	-1028477387
 251              		.cfi_endproc
 252              	.LFE6:
 253              		.size	MurmurHash3_x86_32, .-MurmurHash3_x86_32
 254 00c4 C046C046 		.text
 254      C046C046 
 254      C046C046 
 255              	.Letext0:
 256              		.file 2 "/usr/include/stdint.h"
 1626              		.section	.note.GNU-stack,"",%progbits
ARM GAS  /tmp/cctZGKLe.s 			page 31

