ARM GAS  /tmp/ccdne9DI.s 			page 1


   1              		.cpu cortex-m0
   2              		.fpu softvfp
   3              		.eabi_attribute 20, 1
   4              		.eabi_attribute 21, 1
   5              		.eabi_attribute 23, 3
   6              		.eabi_attribute 24, 1
   7              		.eabi_attribute 25, 1
   8              		.eabi_attribute 26, 2
   9              		.eabi_attribute 30, 2
  10              		.eabi_attribute 34, 0
  11              		.eabi_attribute 18, 4
  12              		.code	16
  13              		.file	"nilcore_v6m.c"
  14              		.text
  15              	.Ltext0:
  16              		.cfi_sections	.debug_frame
  17              		.section	.text.NMI_Handler,"ax",%progbits
  18              		.align	2
  19              		.p2align 4,,15
  20              		.global	NMI_Handler
  21              		.code	16
  22              		.thumb_func
  23              		.type	NMI_Handler, %function
  24              	NMI_Handler:
  25              	.LFB46:
  26              		.file 1 "../os/nil/ports/ARMCMx/nilcore_v6m.c"
  27              		.loc 1 61 0
  28              		.cfi_startproc
  29              	.LBB33:
  30              	.LBB34:
  31              		.file 2 "../os/ext/CMSIS/include/core_cmFunc.h"
  32              		.loc 2 430 0
  33              	#APP
  34              	@ 430 "../os/ext/CMSIS/include/core_cmFunc.h" 1
  35 0000 EFF30983 		MRS r3, psp
  36              	
  37              	@ 0 "" 2
  38              	.LVL0:
  39              		.code	16
  40              	.LBE34:
  41              	.LBE33:
  42              		.loc 1 69 0
  43 0004 2033     		add	r3, r3, #32
  44              	.LVL1:
  45              	.LBB35:
  46              	.LBB36:
  47              		.loc 2 443 0
  48              	#APP
  49              	@ 443 "../os/ext/CMSIS/include/core_cmFunc.h" 1
  50 0006 83F30988 		MSR psp, r3
  51              	
  52              	@ 0 "" 2
  53              		.code	16
  54              	.LBE36:
  55              	.LBE35:
  56              	.LBB37:
  57              	.LBB38:
ARM GAS  /tmp/ccdne9DI.s 			page 2


  58              	.LBB39:
  59              	.LBB40:
  60              		.loc 2 333 0
  61              	#APP
  62              	@ 333 "../os/ext/CMSIS/include/core_cmFunc.h" 1
  63 000a 62B6     		cpsie i
  64              	@ 0 "" 2
  65              		.code	16
  66              	.LBE40:
  67              	.LBE39:
  68              	.LBE38:
  69              	.LBE37:
  70              		.loc 1 76 0
  71              		@ sp needed
  72 000c 7047     		bx	lr
  73              		.cfi_endproc
  74              	.LFE46:
  75              		.size	NMI_Handler, .-NMI_Handler
  76 000e C046     		.section	.text._port_irq_epilogue,"ax",%progbits
  77              		.align	2
  78              		.p2align 4,,15
  79              		.global	_port_irq_epilogue
  80              		.code	16
  81              		.thumb_func
  82              		.type	_port_irq_epilogue, %function
  83              	_port_irq_epilogue:
  84              	.LFB47:
  85              		.loc 1 110 0
  86              		.cfi_startproc
  87              	.LVL2:
  88              		.loc 1 112 0
  89 0000 0F30     		add	r0, r0, #15
  90 0002 0FD0     		beq	.L2
  91              	.LVL3:
  92              	.LBB41:
  93              	.LBB42:
  94              	.LBB43:
  95              	.LBB44:
  96              	.LBB45:
  97              		.loc 2 344 0
  98              	#APP
  99              	@ 344 "../os/ext/CMSIS/include/core_cmFunc.h" 1
 100 0004 72B6     		cpsid i
 101              	@ 0 "" 2
 102              		.code	16
 103              	.LBE45:
 104              	.LBE44:
 105              	.LBE43:
 106              	.LBE42:
 107              	.LBB46:
 108              	.LBB47:
 109              		.loc 2 430 0
 110              	#APP
 111              	@ 430 "../os/ext/CMSIS/include/core_cmFunc.h" 1
 112 0006 EFF30983 		MRS r3, psp
 113              	
 114              	@ 0 "" 2
ARM GAS  /tmp/ccdne9DI.s 			page 3


 115              	.LVL4:
 116              		.code	16
 117              	.LBE47:
 118              	.LBE46:
 119              		.loc 1 122 0
 120 000a 203B     		sub	r3, r3, #32
 121              	.LVL5:
 122              	.LBB48:
 123              	.LBB49:
 124              		.loc 2 443 0
 125              	#APP
 126              	@ 443 "../os/ext/CMSIS/include/core_cmFunc.h" 1
 127 000c 83F30988 		MSR psp, r3
 128              	
 129              	@ 0 "" 2
 130              		.code	16
 131              	.LBE49:
 132              	.LBE48:
 133              		.loc 1 128 0
 134 0010 8022     		mov	r2, #128
 135 0012 5204     		lsl	r2, r2, #17
 136 0014 DA61     		str	r2, [r3, #28]
 137              		.loc 1 132 0
 138 0016 054A     		ldr	r2, .L9
 139 0018 1168     		ldr	r1, [r2]
 140 001a 5268     		ldr	r2, [r2, #4]
 141 001c 9142     		cmp	r1, r2
 142 001e 02D0     		beq	.L4
 143              		.loc 1 134 0
 144 0020 034A     		ldr	r2, .L9+4
 145 0022 9A61     		str	r2, [r3, #24]
 146              	.LVL6:
 147              	.L2:
 148              	.LBE41:
 149              		.loc 1 145 0
 150              		@ sp needed
 151 0024 7047     		bx	lr
 152              	.LVL7:
 153              	.L4:
 154              	.LBB50:
 155              		.loc 1 139 0
 156 0026 034A     		ldr	r2, .L9+8
 157 0028 9A61     		str	r2, [r3, #24]
 158 002a FBE7     		b	.L2
 159              	.L10:
 160              		.align	2
 161              	.L9:
 162 002c 00000000 		.word	nil
 163 0030 00000000 		.word	_port_switch_from_isr
 164 0034 00000000 		.word	_port_exit_from_isr
 165              	.LBE50:
 166              		.cfi_endproc
 167              	.LFE47:
 168              		.size	_port_irq_epilogue, .-_port_irq_epilogue
 169 0038 C046C046 		.text
 169      C046C046 
 170              	.Letext0:
ARM GAS  /tmp/ccdne9DI.s 			page 4


 171              		.file 3 "../os/nil/include/nil.h"
 172              		.file 4 "/usr/include/stdint.h"
 173              		.file 5 "../os/nil/ports/ARMCMx/compilers/GCC/niltypes.h"
 174              		.file 6 "../os/nil/ports/ARMCMx/nilcore.h"
 175              		.file 7 "../os/nil/ports/ARMCMx/nilcore_v6m.h"
 176              		.section	.debug_info,"",%progbits
 177              	.Ldebug_info0:
 178 0000 11050000 		.4byte	0x511
 179 0004 0400     		.2byte	0x4
 180 0006 00000000 		.4byte	.Ldebug_abbrev0
 181 000a 04       		.byte	0x4
 182 000b 01       		.uleb128 0x1
 183 000c E3000000 		.4byte	.LASF52
 184 0010 01       		.byte	0x1
 185 0011 61000000 		.4byte	.LASF53
 186 0015 BB000000 		.4byte	.LASF54
 187 0019 18000000 		.4byte	.Ldebug_ranges0+0x18
 188 001d 00000000 		.4byte	0
 189 0021 00000000 		.4byte	.Ldebug_line0
 190 0025 02       		.uleb128 0x2
 191 0026 45030000 		.4byte	.LASF8
 192 002a 03       		.byte	0x3
 193 002b 25       		.byte	0x25
 194 002c 30000000 		.4byte	0x30
 195 0030 03       		.uleb128 0x3
 196 0031 FE010000 		.4byte	.LASF25
 197 0035 18       		.byte	0x18
 198 0036 03       		.byte	0x3
 199 0037 6201     		.2byte	0x162
 200 0039 8B000000 		.4byte	0x8b
 201 003d 04       		.uleb128 0x4
 202 003e A6020000 		.4byte	.LASF0
 203 0042 03       		.byte	0x3
 204 0043 6301     		.2byte	0x163
 205 0045 D1020000 		.4byte	0x2d1
 206 0049 00       		.byte	0
 207 004a 04       		.uleb128 0x4
 208 004b 99000000 		.4byte	.LASF1
 209 004f 03       		.byte	0x3
 210 0050 6401     		.2byte	0x164
 211 0052 EF000000 		.4byte	0xef
 212 0056 04       		.byte	0x4
 213 0057 05       		.uleb128 0x5
 214 0058 753100   		.ascii	"u1\000"
 215 005b 03       		.byte	0x3
 216 005c 6F01     		.2byte	0x16f
 217 005e 81020000 		.4byte	0x281
 218 0062 08       		.byte	0x8
 219 0063 04       		.uleb128 0x4
 220 0064 F6010000 		.4byte	.LASF2
 221 0068 03       		.byte	0x3
 222 0069 7001     		.2byte	0x170
 223 006b D7020000 		.4byte	0x2d7
 224 006f 0C       		.byte	0xc
 225 0070 04       		.uleb128 0x4
 226 0071 B4000000 		.4byte	.LASF3
 227 0075 03       		.byte	0x3
ARM GAS  /tmp/ccdne9DI.s 			page 5


 228 0076 7301     		.2byte	0x173
 229 0078 05010000 		.4byte	0x105
 230 007c 10       		.byte	0x10
 231 007d 04       		.uleb128 0x4
 232 007e AB020000 		.4byte	.LASF4
 233 0082 03       		.byte	0x3
 234 0083 7601     		.2byte	0x176
 235 0085 57020000 		.4byte	0x257
 236 0089 14       		.byte	0x14
 237 008a 00       		.byte	0
 238 008b 06       		.uleb128 0x6
 239 008c 04       		.byte	0x4
 240 008d 05       		.byte	0x5
 241 008e 696E7400 		.ascii	"int\000"
 242 0092 07       		.uleb128 0x7
 243 0093 04       		.byte	0x4
 244 0094 07       		.byte	0x7
 245 0095 E2010000 		.4byte	.LASF5
 246 0099 07       		.uleb128 0x7
 247 009a 01       		.byte	0x1
 248 009b 06       		.byte	0x6
 249 009c 55000000 		.4byte	.LASF6
 250 00a0 07       		.uleb128 0x7
 251 00a1 02       		.byte	0x2
 252 00a2 05       		.byte	0x5
 253 00a3 EF020000 		.4byte	.LASF7
 254 00a7 02       		.uleb128 0x2
 255 00a8 B2020000 		.4byte	.LASF9
 256 00ac 04       		.byte	0x4
 257 00ad 26       		.byte	0x26
 258 00ae 8B000000 		.4byte	0x8b
 259 00b2 07       		.uleb128 0x7
 260 00b3 08       		.byte	0x8
 261 00b4 05       		.byte	0x5
 262 00b5 47000000 		.4byte	.LASF10
 263 00b9 02       		.uleb128 0x2
 264 00ba 95030000 		.4byte	.LASF11
 265 00be 04       		.byte	0x4
 266 00bf 30       		.byte	0x30
 267 00c0 C4000000 		.4byte	0xc4
 268 00c4 07       		.uleb128 0x7
 269 00c5 01       		.byte	0x1
 270 00c6 08       		.byte	0x8
 271 00c7 BA020000 		.4byte	.LASF12
 272 00cb 07       		.uleb128 0x7
 273 00cc 02       		.byte	0x2
 274 00cd 07       		.byte	0x7
 275 00ce 09020000 		.4byte	.LASF13
 276 00d2 02       		.uleb128 0x2
 277 00d3 19030000 		.4byte	.LASF14
 278 00d7 04       		.byte	0x4
 279 00d8 33       		.byte	0x33
 280 00d9 92000000 		.4byte	0x92
 281 00dd 02       		.uleb128 0x2
 282 00de 0C000000 		.4byte	.LASF15
 283 00e2 04       		.byte	0x4
 284 00e3 3A       		.byte	0x3a
ARM GAS  /tmp/ccdne9DI.s 			page 6


 285 00e4 E8000000 		.4byte	0xe8
 286 00e8 07       		.uleb128 0x7
 287 00e9 08       		.byte	0x8
 288 00ea 07       		.byte	0x7
 289 00eb 2B000000 		.4byte	.LASF16
 290 00ef 02       		.uleb128 0x2
 291 00f0 9F000000 		.4byte	.LASF17
 292 00f4 05       		.byte	0x5
 293 00f5 37       		.byte	0x37
 294 00f6 B9000000 		.4byte	0xb9
 295 00fa 02       		.uleb128 0x2
 296 00fb 1C020000 		.4byte	.LASF18
 297 00ff 05       		.byte	0x5
 298 0100 38       		.byte	0x38
 299 0101 A7000000 		.4byte	0xa7
 300 0105 02       		.uleb128 0x2
 301 0106 2F020000 		.4byte	.LASF19
 302 010a 05       		.byte	0x5
 303 010b 39       		.byte	0x39
 304 010c D2000000 		.4byte	0xd2
 305 0110 02       		.uleb128 0x2
 306 0111 71020000 		.4byte	.LASF20
 307 0115 05       		.byte	0x5
 308 0116 3A       		.byte	0x3a
 309 0117 A7000000 		.4byte	0xa7
 310 011b 02       		.uleb128 0x2
 311 011c 4E030000 		.4byte	.LASF21
 312 0120 05       		.byte	0x5
 313 0121 41       		.byte	0x41
 314 0122 D2000000 		.4byte	0xd2
 315 0126 07       		.uleb128 0x7
 316 0127 04       		.byte	0x4
 317 0128 07       		.byte	0x7
 318 0129 55020000 		.4byte	.LASF22
 319 012d 02       		.uleb128 0x2
 320 012e 22030000 		.4byte	.LASF23
 321 0132 06       		.byte	0x6
 322 0133 65       		.byte	0x65
 323 0134 38010000 		.4byte	0x138
 324 0138 08       		.uleb128 0x8
 325 0139 04       		.byte	0x4
 326 013a 02       		.uleb128 0x2
 327 013b 4A020000 		.4byte	.LASF24
 328 013f 06       		.byte	0x6
 329 0140 6D       		.byte	0x6d
 330 0141 DD000000 		.4byte	0xdd
 331 0145 09       		.uleb128 0x9
 332 0146 77020000 		.4byte	.LASF26
 333 014a 20       		.byte	0x20
 334 014b 07       		.byte	0x7
 335 014c 99       		.byte	0x99
 336 014d AD010000 		.4byte	0x1ad
 337 0151 0A       		.uleb128 0xa
 338 0152 723000   		.ascii	"r0\000"
 339 0155 07       		.byte	0x7
 340 0156 9A       		.byte	0x9a
 341 0157 2D010000 		.4byte	0x12d
ARM GAS  /tmp/ccdne9DI.s 			page 7


 342 015b 00       		.byte	0
 343 015c 0A       		.uleb128 0xa
 344 015d 723100   		.ascii	"r1\000"
 345 0160 07       		.byte	0x7
 346 0161 9B       		.byte	0x9b
 347 0162 2D010000 		.4byte	0x12d
 348 0166 04       		.byte	0x4
 349 0167 0A       		.uleb128 0xa
 350 0168 723200   		.ascii	"r2\000"
 351 016b 07       		.byte	0x7
 352 016c 9C       		.byte	0x9c
 353 016d 2D010000 		.4byte	0x12d
 354 0171 08       		.byte	0x8
 355 0172 0A       		.uleb128 0xa
 356 0173 723300   		.ascii	"r3\000"
 357 0176 07       		.byte	0x7
 358 0177 9D       		.byte	0x9d
 359 0178 2D010000 		.4byte	0x12d
 360 017c 0C       		.byte	0xc
 361 017d 0A       		.uleb128 0xa
 362 017e 72313200 		.ascii	"r12\000"
 363 0182 07       		.byte	0x7
 364 0183 9E       		.byte	0x9e
 365 0184 2D010000 		.4byte	0x12d
 366 0188 10       		.byte	0x10
 367 0189 0B       		.uleb128 0xb
 368 018a EF010000 		.4byte	.LASF27
 369 018e 07       		.byte	0x7
 370 018f 9F       		.byte	0x9f
 371 0190 2D010000 		.4byte	0x12d
 372 0194 14       		.byte	0x14
 373 0195 0A       		.uleb128 0xa
 374 0196 706300   		.ascii	"pc\000"
 375 0199 07       		.byte	0x7
 376 019a A0       		.byte	0xa0
 377 019b 2D010000 		.4byte	0x12d
 378 019f 18       		.byte	0x18
 379 01a0 0B       		.uleb128 0xb
 380 01a1 01030000 		.4byte	.LASF28
 381 01a5 07       		.byte	0x7
 382 01a6 A1       		.byte	0xa1
 383 01a7 2D010000 		.4byte	0x12d
 384 01ab 1C       		.byte	0x1c
 385 01ac 00       		.byte	0
 386 01ad 09       		.uleb128 0x9
 387 01ae 15000000 		.4byte	.LASF29
 388 01b2 24       		.byte	0x24
 389 01b3 07       		.byte	0x7
 390 01b4 A4       		.byte	0xa4
 391 01b5 1F020000 		.4byte	0x21f
 392 01b9 0A       		.uleb128 0xa
 393 01ba 723800   		.ascii	"r8\000"
 394 01bd 07       		.byte	0x7
 395 01be A5       		.byte	0xa5
 396 01bf 2D010000 		.4byte	0x12d
 397 01c3 00       		.byte	0
 398 01c4 0A       		.uleb128 0xa
ARM GAS  /tmp/ccdne9DI.s 			page 8


 399 01c5 723900   		.ascii	"r9\000"
 400 01c8 07       		.byte	0x7
 401 01c9 A6       		.byte	0xa6
 402 01ca 2D010000 		.4byte	0x12d
 403 01ce 04       		.byte	0x4
 404 01cf 0A       		.uleb128 0xa
 405 01d0 72313000 		.ascii	"r10\000"
 406 01d4 07       		.byte	0x7
 407 01d5 A7       		.byte	0xa7
 408 01d6 2D010000 		.4byte	0x12d
 409 01da 08       		.byte	0x8
 410 01db 0A       		.uleb128 0xa
 411 01dc 72313100 		.ascii	"r11\000"
 412 01e0 07       		.byte	0x7
 413 01e1 A8       		.byte	0xa8
 414 01e2 2D010000 		.4byte	0x12d
 415 01e6 0C       		.byte	0xc
 416 01e7 0A       		.uleb128 0xa
 417 01e8 723400   		.ascii	"r4\000"
 418 01eb 07       		.byte	0x7
 419 01ec A9       		.byte	0xa9
 420 01ed 2D010000 		.4byte	0x12d
 421 01f1 10       		.byte	0x10
 422 01f2 0A       		.uleb128 0xa
 423 01f3 723500   		.ascii	"r5\000"
 424 01f6 07       		.byte	0x7
 425 01f7 AA       		.byte	0xaa
 426 01f8 2D010000 		.4byte	0x12d
 427 01fc 14       		.byte	0x14
 428 01fd 0A       		.uleb128 0xa
 429 01fe 723600   		.ascii	"r6\000"
 430 0201 07       		.byte	0x7
 431 0202 AB       		.byte	0xab
 432 0203 2D010000 		.4byte	0x12d
 433 0207 18       		.byte	0x18
 434 0208 0A       		.uleb128 0xa
 435 0209 723700   		.ascii	"r7\000"
 436 020c 07       		.byte	0x7
 437 020d AC       		.byte	0xac
 438 020e 2D010000 		.4byte	0x12d
 439 0212 1C       		.byte	0x1c
 440 0213 0A       		.uleb128 0xa
 441 0214 6C7200   		.ascii	"lr\000"
 442 0217 07       		.byte	0x7
 443 0218 AD       		.byte	0xad
 444 0219 2D010000 		.4byte	0x12d
 445 021d 20       		.byte	0x20
 446 021e 00       		.byte	0
 447 021f 0C       		.uleb128 0xc
 448 0220 86000000 		.4byte	.LASF30
 449 0224 03       		.byte	0x3
 450 0225 3701     		.2byte	0x137
 451 0227 AD010000 		.4byte	0x1ad
 452 022b 0C       		.uleb128 0xc
 453 022c 0D030000 		.4byte	.LASF31
 454 0230 03       		.byte	0x3
 455 0231 3C01     		.2byte	0x13c
ARM GAS  /tmp/ccdne9DI.s 			page 9


 456 0233 37020000 		.4byte	0x237
 457 0237 03       		.uleb128 0x3
 458 0238 D6020000 		.4byte	.LASF32
 459 023c 04       		.byte	0x4
 460 023d 03       		.byte	0x3
 461 023e 4101     		.2byte	0x141
 462 0240 52020000 		.4byte	0x252
 463 0244 05       		.uleb128 0x5
 464 0245 636E7400 		.ascii	"cnt\000"
 465 0249 03       		.byte	0x3
 466 024a 4201     		.2byte	0x142
 467 024c 52020000 		.4byte	0x252
 468 0250 00       		.byte	0
 469 0251 00       		.byte	0
 470 0252 0D       		.uleb128 0xd
 471 0253 10010000 		.4byte	0x110
 472 0257 0E       		.uleb128 0xe
 473 0258 04       		.byte	0x4
 474 0259 3A010000 		.4byte	0x13a
 475 025d 0E       		.uleb128 0xe
 476 025e 04       		.byte	0x4
 477 025f 63020000 		.4byte	0x263
 478 0263 0F       		.uleb128 0xf
 479 0264 68020000 		.4byte	0x268
 480 0268 07       		.uleb128 0x7
 481 0269 01       		.byte	0x1
 482 026a 08       		.byte	0x8
 483 026b 2B030000 		.4byte	.LASF33
 484 026f 0C       		.uleb128 0xc
 485 0270 5E020000 		.4byte	.LASF34
 486 0274 03       		.byte	0x3
 487 0275 5D01     		.2byte	0x15d
 488 0277 7B020000 		.4byte	0x27b
 489 027b 0E       		.uleb128 0xe
 490 027c 04       		.byte	0x4
 491 027d 25000000 		.4byte	0x25
 492 0281 10       		.uleb128 0x10
 493 0282 04       		.byte	0x4
 494 0283 03       		.byte	0x3
 495 0284 6701     		.2byte	0x167
 496 0286 C5020000 		.4byte	0x2c5
 497 028a 11       		.uleb128 0x11
 498 028b 6D736700 		.ascii	"msg\000"
 499 028f 03       		.byte	0x3
 500 0290 6801     		.2byte	0x168
 501 0292 FA000000 		.4byte	0xfa
 502 0296 11       		.uleb128 0x11
 503 0297 7000     		.ascii	"p\000"
 504 0299 03       		.byte	0x3
 505 029a 6901     		.2byte	0x169
 506 029c 38010000 		.4byte	0x138
 507 02a0 11       		.uleb128 0x11
 508 02a1 74727000 		.ascii	"trp\000"
 509 02a5 03       		.byte	0x3
 510 02a6 6A01     		.2byte	0x16a
 511 02a8 C5020000 		.4byte	0x2c5
 512 02ac 12       		.uleb128 0x12
ARM GAS  /tmp/ccdne9DI.s 			page 10


 513 02ad 22020000 		.4byte	.LASF35
 514 02b1 03       		.byte	0x3
 515 02b2 6B01     		.2byte	0x16b
 516 02b4 CB020000 		.4byte	0x2cb
 517 02b8 12       		.uleb128 0x12
 518 02b9 06030000 		.4byte	.LASF36
 519 02bd 03       		.byte	0x3
 520 02be 6D01     		.2byte	0x16d
 521 02c0 05010000 		.4byte	0x105
 522 02c4 00       		.byte	0
 523 02c5 0E       		.uleb128 0xe
 524 02c6 04       		.byte	0x4
 525 02c7 6F020000 		.4byte	0x26f
 526 02cb 0E       		.uleb128 0xe
 527 02cc 04       		.byte	0x4
 528 02cd 2B020000 		.4byte	0x22b
 529 02d1 0E       		.uleb128 0xe
 530 02d2 04       		.byte	0x4
 531 02d3 1F020000 		.4byte	0x21f
 532 02d7 0D       		.uleb128 0xd
 533 02d8 1B010000 		.4byte	0x11b
 534 02dc 0C       		.uleb128 0xc
 535 02dd 58030000 		.4byte	.LASF37
 536 02e1 03       		.byte	0x3
 537 02e2 7F01     		.2byte	0x17f
 538 02e4 E8020000 		.4byte	0x2e8
 539 02e8 03       		.uleb128 0x3
 540 02e9 E4020000 		.4byte	.LASF38
 541 02ed 40       		.byte	0x40
 542 02ee 03       		.byte	0x3
 543 02ef 8601     		.2byte	0x186
 544 02f1 37030000 		.4byte	0x337
 545 02f5 04       		.uleb128 0x4
 546 02f6 90020000 		.4byte	.LASF39
 547 02fa 03       		.byte	0x3
 548 02fb 8A01     		.2byte	0x18a
 549 02fd 7B020000 		.4byte	0x27b
 550 0301 00       		.byte	0
 551 0302 04       		.uleb128 0x4
 552 0303 42000000 		.4byte	.LASF40
 553 0307 03       		.byte	0x3
 554 0308 9001     		.2byte	0x190
 555 030a 7B020000 		.4byte	0x27b
 556 030e 04       		.byte	0x4
 557 030f 04       		.uleb128 0x4
 558 0310 27020000 		.4byte	.LASF41
 559 0314 03       		.byte	0x3
 560 0315 9501     		.2byte	0x195
 561 0317 D7020000 		.4byte	0x2d7
 562 031b 08       		.byte	0x8
 563 031c 04       		.uleb128 0x4
 564 031d F9020000 		.4byte	.LASF42
 565 0321 03       		.byte	0x3
 566 0322 A401     		.2byte	0x1a4
 567 0324 37030000 		.4byte	0x337
 568 0328 0C       		.byte	0xc
 569 0329 04       		.uleb128 0x4
ARM GAS  /tmp/ccdne9DI.s 			page 11


 570 032a C8020000 		.4byte	.LASF43
 571 032e 03       		.byte	0x3
 572 032f AD01     		.2byte	0x1ad
 573 0331 47030000 		.4byte	0x347
 574 0335 3C       		.byte	0x3c
 575 0336 00       		.byte	0
 576 0337 13       		.uleb128 0x13
 577 0338 25000000 		.4byte	0x25
 578 033c 47030000 		.4byte	0x347
 579 0340 14       		.uleb128 0x14
 580 0341 26010000 		.4byte	0x126
 581 0345 01       		.byte	0x1
 582 0346 00       		.byte	0
 583 0347 0D       		.uleb128 0xd
 584 0348 5D020000 		.4byte	0x25d
 585 034c 15       		.uleb128 0x15
 586 034d 98020000 		.4byte	.LASF44
 587 0351 02       		.byte	0x2
 588 0352 5601     		.2byte	0x156
 589 0354 03       		.byte	0x3
 590 0355 15       		.uleb128 0x15
 591 0356 83020000 		.4byte	.LASF45
 592 035a 02       		.byte	0x2
 593 035b 4B01     		.2byte	0x14b
 594 035d 03       		.byte	0x3
 595 035e 15       		.uleb128 0x15
 596 035f 21000000 		.4byte	.LASF46
 597 0363 07       		.byte	0x7
 598 0364 4901     		.2byte	0x149
 599 0366 03       		.byte	0x3
 600 0367 15       		.uleb128 0x15
 601 0368 A8000000 		.4byte	.LASF47
 602 036c 07       		.byte	0x7
 603 036d 5201     		.2byte	0x152
 604 036f 03       		.byte	0x3
 605 0370 16       		.uleb128 0x16
 606 0371 78030000 		.4byte	.LASF55
 607 0375 02       		.byte	0x2
 608 0376 AA01     		.2byte	0x1aa
 609 0378 D2000000 		.4byte	0xd2
 610 037c 03       		.byte	0x3
 611 037d 8E030000 		.4byte	0x38e
 612 0381 17       		.uleb128 0x17
 613 0382 9D030000 		.4byte	.LASF56
 614 0386 02       		.byte	0x2
 615 0387 AC01     		.2byte	0x1ac
 616 0389 D2000000 		.4byte	0xd2
 617 038d 00       		.byte	0
 618 038e 18       		.uleb128 0x18
 619 038f 8F000000 		.4byte	.LASF57
 620 0393 02       		.byte	0x2
 621 0394 B901     		.2byte	0x1b9
 622 0396 03       		.byte	0x3
 623 0397 A8030000 		.4byte	0x3a8
 624 039b 19       		.uleb128 0x19
 625 039c 3B020000 		.4byte	.LASF58
 626 03a0 02       		.byte	0x2
ARM GAS  /tmp/ccdne9DI.s 			page 12


 627 03a1 B901     		.2byte	0x1b9
 628 03a3 D2000000 		.4byte	0xd2
 629 03a7 00       		.byte	0
 630 03a8 15       		.uleb128 0x15
 631 03a9 30030000 		.4byte	.LASF48
 632 03ad 07       		.byte	0x7
 633 03ae 6601     		.2byte	0x166
 634 03b0 03       		.byte	0x3
 635 03b1 15       		.uleb128 0x15
 636 03b2 65030000 		.4byte	.LASF49
 637 03b6 07       		.byte	0x7
 638 03b7 5C01     		.2byte	0x15c
 639 03b9 03       		.byte	0x3
 640 03ba 1A       		.uleb128 0x1a
 641 03bb 00000000 		.4byte	.LASF50
 642 03bf 01       		.byte	0x1
 643 03c0 3D       		.byte	0x3d
 644 03c1 00000000 		.4byte	.LFB46
 645 03c5 0E000000 		.4byte	.LFE46-.LFB46
 646 03c9 01       		.uleb128 0x1
 647 03ca 9C       		.byte	0x9c
 648 03cb 54040000 		.4byte	0x454
 649 03cf 1B       		.uleb128 0x1b
 650 03d0 A6020000 		.4byte	.LASF0
 651 03d4 01       		.byte	0x1
 652 03d5 41       		.byte	0x41
 653 03d6 54040000 		.4byte	0x454
 654 03da 00000000 		.4byte	.LLST0
 655 03de 1C       		.uleb128 0x1c
 656 03df 70030000 		.4byte	0x370
 657 03e3 00000000 		.4byte	.LBB33
 658 03e7 04000000 		.4byte	.LBE33-.LBB33
 659 03eb 01       		.byte	0x1
 660 03ec 41       		.byte	0x41
 661 03ed 05040000 		.4byte	0x405
 662 03f1 1D       		.uleb128 0x1d
 663 03f2 00000000 		.4byte	.LBB34
 664 03f6 04000000 		.4byte	.LBE34-.LBB34
 665 03fa 1E       		.uleb128 0x1e
 666 03fb 81030000 		.4byte	0x381
 667 03ff 20000000 		.4byte	.LLST1
 668 0403 00       		.byte	0
 669 0404 00       		.byte	0
 670 0405 1C       		.uleb128 0x1c
 671 0406 8E030000 		.4byte	0x38e
 672 040a 06000000 		.4byte	.LBB35
 673 040e 04000000 		.4byte	.LBE35-.LBB35
 674 0412 01       		.byte	0x1
 675 0413 48       		.byte	0x48
 676 0414 22040000 		.4byte	0x422
 677 0418 1F       		.uleb128 0x1f
 678 0419 9B030000 		.4byte	0x39b
 679 041d 00000000 		.4byte	.LLST0
 680 0421 00       		.byte	0
 681 0422 20       		.uleb128 0x20
 682 0423 A8030000 		.4byte	0x3a8
 683 0427 0A000000 		.4byte	.LBB37
ARM GAS  /tmp/ccdne9DI.s 			page 13


 684 042b 02000000 		.4byte	.LBE37-.LBB37
 685 042f 01       		.byte	0x1
 686 0430 4B       		.byte	0x4b
 687 0431 21       		.uleb128 0x21
 688 0432 67030000 		.4byte	0x367
 689 0436 0A000000 		.4byte	.LBB38
 690 043a 02000000 		.4byte	.LBE38-.LBB38
 691 043e 07       		.byte	0x7
 692 043f 6801     		.2byte	0x168
 693 0441 22       		.uleb128 0x22
 694 0442 55030000 		.4byte	0x355
 695 0446 0A000000 		.4byte	.LBB39
 696 044a 02000000 		.4byte	.LBE39-.LBB39
 697 044e 07       		.byte	0x7
 698 044f 5401     		.2byte	0x154
 699 0451 00       		.byte	0
 700 0452 00       		.byte	0
 701 0453 00       		.byte	0
 702 0454 0E       		.uleb128 0xe
 703 0455 04       		.byte	0x4
 704 0456 45010000 		.4byte	0x145
 705 045a 1A       		.uleb128 0x1a
 706 045b 82030000 		.4byte	.LASF51
 707 045f 01       		.byte	0x1
 708 0460 6E       		.byte	0x6e
 709 0461 00000000 		.4byte	.LFB47
 710 0465 38000000 		.4byte	.LFE47-.LFB47
 711 0469 01       		.uleb128 0x1
 712 046a 9C       		.byte	0x9c
 713 046b 08050000 		.4byte	0x508
 714 046f 23       		.uleb128 0x23
 715 0470 6C7200   		.ascii	"lr\000"
 716 0473 01       		.byte	0x1
 717 0474 6E       		.byte	0x6e
 718 0475 2D010000 		.4byte	0x12d
 719 0479 40000000 		.4byte	.LLST3
 720 047d 24       		.uleb128 0x24
 721 047e 00000000 		.4byte	.Ldebug_ranges0+0
 722 0482 1B       		.uleb128 0x1b
 723 0483 A6020000 		.4byte	.LASF0
 724 0487 01       		.byte	0x1
 725 0488 71       		.byte	0x71
 726 0489 54040000 		.4byte	0x454
 727 048d 61000000 		.4byte	.LLST4
 728 0491 1C       		.uleb128 0x1c
 729 0492 B1030000 		.4byte	0x3b1
 730 0496 04000000 		.4byte	.LBB42
 731 049a 02000000 		.4byte	.LBE42-.LBB42
 732 049e 01       		.byte	0x1
 733 049f 73       		.byte	0x73
 734 04a0 C6040000 		.4byte	0x4c6
 735 04a4 21       		.uleb128 0x21
 736 04a5 5E030000 		.4byte	0x35e
 737 04a9 04000000 		.4byte	.LBB43
 738 04ad 02000000 		.4byte	.LBE43-.LBB43
 739 04b1 07       		.byte	0x7
 740 04b2 5E01     		.2byte	0x15e
ARM GAS  /tmp/ccdne9DI.s 			page 14


 741 04b4 22       		.uleb128 0x22
 742 04b5 4C030000 		.4byte	0x34c
 743 04b9 04000000 		.4byte	.LBB44
 744 04bd 02000000 		.4byte	.LBE44-.LBB44
 745 04c1 07       		.byte	0x7
 746 04c2 4B01     		.2byte	0x14b
 747 04c4 00       		.byte	0
 748 04c5 00       		.byte	0
 749 04c6 1C       		.uleb128 0x1c
 750 04c7 70030000 		.4byte	0x370
 751 04cb 06000000 		.4byte	.LBB46
 752 04cf 04000000 		.4byte	.LBE46-.LBB46
 753 04d3 01       		.byte	0x1
 754 04d4 76       		.byte	0x76
 755 04d5 ED040000 		.4byte	0x4ed
 756 04d9 1D       		.uleb128 0x1d
 757 04da 06000000 		.4byte	.LBB47
 758 04de 04000000 		.4byte	.LBE47-.LBB47
 759 04e2 1E       		.uleb128 0x1e
 760 04e3 81030000 		.4byte	0x381
 761 04e7 8C000000 		.4byte	.LLST5
 762 04eb 00       		.byte	0
 763 04ec 00       		.byte	0
 764 04ed 20       		.uleb128 0x20
 765 04ee 8E030000 		.4byte	0x38e
 766 04f2 0C000000 		.4byte	.LBB48
 767 04f6 04000000 		.4byte	.LBE48-.LBB48
 768 04fa 01       		.byte	0x1
 769 04fb 7D       		.byte	0x7d
 770 04fc 1F       		.uleb128 0x1f
 771 04fd 9B030000 		.4byte	0x39b
 772 0501 61000000 		.4byte	.LLST4
 773 0505 00       		.byte	0
 774 0506 00       		.byte	0
 775 0507 00       		.byte	0
 776 0508 25       		.uleb128 0x25
 777 0509 6E696C00 		.ascii	"nil\000"
 778 050d 03       		.byte	0x3
 779 050e C203     		.2byte	0x3c2
 780 0510 DC020000 		.4byte	0x2dc
 781 0514 00       		.byte	0
 782              		.section	.debug_abbrev,"",%progbits
 783              	.Ldebug_abbrev0:
 784 0000 01       		.uleb128 0x1
 785 0001 11       		.uleb128 0x11
 786 0002 01       		.byte	0x1
 787 0003 25       		.uleb128 0x25
 788 0004 0E       		.uleb128 0xe
 789 0005 13       		.uleb128 0x13
 790 0006 0B       		.uleb128 0xb
 791 0007 03       		.uleb128 0x3
 792 0008 0E       		.uleb128 0xe
 793 0009 1B       		.uleb128 0x1b
 794 000a 0E       		.uleb128 0xe
 795 000b 55       		.uleb128 0x55
 796 000c 17       		.uleb128 0x17
 797 000d 11       		.uleb128 0x11
ARM GAS  /tmp/ccdne9DI.s 			page 15


 798 000e 01       		.uleb128 0x1
 799 000f 10       		.uleb128 0x10
 800 0010 17       		.uleb128 0x17
 801 0011 00       		.byte	0
 802 0012 00       		.byte	0
 803 0013 02       		.uleb128 0x2
 804 0014 16       		.uleb128 0x16
 805 0015 00       		.byte	0
 806 0016 03       		.uleb128 0x3
 807 0017 0E       		.uleb128 0xe
 808 0018 3A       		.uleb128 0x3a
 809 0019 0B       		.uleb128 0xb
 810 001a 3B       		.uleb128 0x3b
 811 001b 0B       		.uleb128 0xb
 812 001c 49       		.uleb128 0x49
 813 001d 13       		.uleb128 0x13
 814 001e 00       		.byte	0
 815 001f 00       		.byte	0
 816 0020 03       		.uleb128 0x3
 817 0021 13       		.uleb128 0x13
 818 0022 01       		.byte	0x1
 819 0023 03       		.uleb128 0x3
 820 0024 0E       		.uleb128 0xe
 821 0025 0B       		.uleb128 0xb
 822 0026 0B       		.uleb128 0xb
 823 0027 3A       		.uleb128 0x3a
 824 0028 0B       		.uleb128 0xb
 825 0029 3B       		.uleb128 0x3b
 826 002a 05       		.uleb128 0x5
 827 002b 01       		.uleb128 0x1
 828 002c 13       		.uleb128 0x13
 829 002d 00       		.byte	0
 830 002e 00       		.byte	0
 831 002f 04       		.uleb128 0x4
 832 0030 0D       		.uleb128 0xd
 833 0031 00       		.byte	0
 834 0032 03       		.uleb128 0x3
 835 0033 0E       		.uleb128 0xe
 836 0034 3A       		.uleb128 0x3a
 837 0035 0B       		.uleb128 0xb
 838 0036 3B       		.uleb128 0x3b
 839 0037 05       		.uleb128 0x5
 840 0038 49       		.uleb128 0x49
 841 0039 13       		.uleb128 0x13
 842 003a 38       		.uleb128 0x38
 843 003b 0B       		.uleb128 0xb
 844 003c 00       		.byte	0
 845 003d 00       		.byte	0
 846 003e 05       		.uleb128 0x5
 847 003f 0D       		.uleb128 0xd
 848 0040 00       		.byte	0
 849 0041 03       		.uleb128 0x3
 850 0042 08       		.uleb128 0x8
 851 0043 3A       		.uleb128 0x3a
 852 0044 0B       		.uleb128 0xb
 853 0045 3B       		.uleb128 0x3b
 854 0046 05       		.uleb128 0x5
ARM GAS  /tmp/ccdne9DI.s 			page 16


 855 0047 49       		.uleb128 0x49
 856 0048 13       		.uleb128 0x13
 857 0049 38       		.uleb128 0x38
 858 004a 0B       		.uleb128 0xb
 859 004b 00       		.byte	0
 860 004c 00       		.byte	0
 861 004d 06       		.uleb128 0x6
 862 004e 24       		.uleb128 0x24
 863 004f 00       		.byte	0
 864 0050 0B       		.uleb128 0xb
 865 0051 0B       		.uleb128 0xb
 866 0052 3E       		.uleb128 0x3e
 867 0053 0B       		.uleb128 0xb
 868 0054 03       		.uleb128 0x3
 869 0055 08       		.uleb128 0x8
 870 0056 00       		.byte	0
 871 0057 00       		.byte	0
 872 0058 07       		.uleb128 0x7
 873 0059 24       		.uleb128 0x24
 874 005a 00       		.byte	0
 875 005b 0B       		.uleb128 0xb
 876 005c 0B       		.uleb128 0xb
 877 005d 3E       		.uleb128 0x3e
 878 005e 0B       		.uleb128 0xb
 879 005f 03       		.uleb128 0x3
 880 0060 0E       		.uleb128 0xe
 881 0061 00       		.byte	0
 882 0062 00       		.byte	0
 883 0063 08       		.uleb128 0x8
 884 0064 0F       		.uleb128 0xf
 885 0065 00       		.byte	0
 886 0066 0B       		.uleb128 0xb
 887 0067 0B       		.uleb128 0xb
 888 0068 00       		.byte	0
 889 0069 00       		.byte	0
 890 006a 09       		.uleb128 0x9
 891 006b 13       		.uleb128 0x13
 892 006c 01       		.byte	0x1
 893 006d 03       		.uleb128 0x3
 894 006e 0E       		.uleb128 0xe
 895 006f 0B       		.uleb128 0xb
 896 0070 0B       		.uleb128 0xb
 897 0071 3A       		.uleb128 0x3a
 898 0072 0B       		.uleb128 0xb
 899 0073 3B       		.uleb128 0x3b
 900 0074 0B       		.uleb128 0xb
 901 0075 01       		.uleb128 0x1
 902 0076 13       		.uleb128 0x13
 903 0077 00       		.byte	0
 904 0078 00       		.byte	0
 905 0079 0A       		.uleb128 0xa
 906 007a 0D       		.uleb128 0xd
 907 007b 00       		.byte	0
 908 007c 03       		.uleb128 0x3
 909 007d 08       		.uleb128 0x8
 910 007e 3A       		.uleb128 0x3a
 911 007f 0B       		.uleb128 0xb
ARM GAS  /tmp/ccdne9DI.s 			page 17


 912 0080 3B       		.uleb128 0x3b
 913 0081 0B       		.uleb128 0xb
 914 0082 49       		.uleb128 0x49
 915 0083 13       		.uleb128 0x13
 916 0084 38       		.uleb128 0x38
 917 0085 0B       		.uleb128 0xb
 918 0086 00       		.byte	0
 919 0087 00       		.byte	0
 920 0088 0B       		.uleb128 0xb
 921 0089 0D       		.uleb128 0xd
 922 008a 00       		.byte	0
 923 008b 03       		.uleb128 0x3
 924 008c 0E       		.uleb128 0xe
 925 008d 3A       		.uleb128 0x3a
 926 008e 0B       		.uleb128 0xb
 927 008f 3B       		.uleb128 0x3b
 928 0090 0B       		.uleb128 0xb
 929 0091 49       		.uleb128 0x49
 930 0092 13       		.uleb128 0x13
 931 0093 38       		.uleb128 0x38
 932 0094 0B       		.uleb128 0xb
 933 0095 00       		.byte	0
 934 0096 00       		.byte	0
 935 0097 0C       		.uleb128 0xc
 936 0098 16       		.uleb128 0x16
 937 0099 00       		.byte	0
 938 009a 03       		.uleb128 0x3
 939 009b 0E       		.uleb128 0xe
 940 009c 3A       		.uleb128 0x3a
 941 009d 0B       		.uleb128 0xb
 942 009e 3B       		.uleb128 0x3b
 943 009f 05       		.uleb128 0x5
 944 00a0 49       		.uleb128 0x49
 945 00a1 13       		.uleb128 0x13
 946 00a2 00       		.byte	0
 947 00a3 00       		.byte	0
 948 00a4 0D       		.uleb128 0xd
 949 00a5 35       		.uleb128 0x35
 950 00a6 00       		.byte	0
 951 00a7 49       		.uleb128 0x49
 952 00a8 13       		.uleb128 0x13
 953 00a9 00       		.byte	0
 954 00aa 00       		.byte	0
 955 00ab 0E       		.uleb128 0xe
 956 00ac 0F       		.uleb128 0xf
 957 00ad 00       		.byte	0
 958 00ae 0B       		.uleb128 0xb
 959 00af 0B       		.uleb128 0xb
 960 00b0 49       		.uleb128 0x49
 961 00b1 13       		.uleb128 0x13
 962 00b2 00       		.byte	0
 963 00b3 00       		.byte	0
 964 00b4 0F       		.uleb128 0xf
 965 00b5 26       		.uleb128 0x26
 966 00b6 00       		.byte	0
 967 00b7 49       		.uleb128 0x49
 968 00b8 13       		.uleb128 0x13
ARM GAS  /tmp/ccdne9DI.s 			page 18


 969 00b9 00       		.byte	0
 970 00ba 00       		.byte	0
 971 00bb 10       		.uleb128 0x10
 972 00bc 17       		.uleb128 0x17
 973 00bd 01       		.byte	0x1
 974 00be 0B       		.uleb128 0xb
 975 00bf 0B       		.uleb128 0xb
 976 00c0 3A       		.uleb128 0x3a
 977 00c1 0B       		.uleb128 0xb
 978 00c2 3B       		.uleb128 0x3b
 979 00c3 05       		.uleb128 0x5
 980 00c4 01       		.uleb128 0x1
 981 00c5 13       		.uleb128 0x13
 982 00c6 00       		.byte	0
 983 00c7 00       		.byte	0
 984 00c8 11       		.uleb128 0x11
 985 00c9 0D       		.uleb128 0xd
 986 00ca 00       		.byte	0
 987 00cb 03       		.uleb128 0x3
 988 00cc 08       		.uleb128 0x8
 989 00cd 3A       		.uleb128 0x3a
 990 00ce 0B       		.uleb128 0xb
 991 00cf 3B       		.uleb128 0x3b
 992 00d0 05       		.uleb128 0x5
 993 00d1 49       		.uleb128 0x49
 994 00d2 13       		.uleb128 0x13
 995 00d3 00       		.byte	0
 996 00d4 00       		.byte	0
 997 00d5 12       		.uleb128 0x12
 998 00d6 0D       		.uleb128 0xd
 999 00d7 00       		.byte	0
 1000 00d8 03       		.uleb128 0x3
 1001 00d9 0E       		.uleb128 0xe
 1002 00da 3A       		.uleb128 0x3a
 1003 00db 0B       		.uleb128 0xb
 1004 00dc 3B       		.uleb128 0x3b
 1005 00dd 05       		.uleb128 0x5
 1006 00de 49       		.uleb128 0x49
 1007 00df 13       		.uleb128 0x13
 1008 00e0 00       		.byte	0
 1009 00e1 00       		.byte	0
 1010 00e2 13       		.uleb128 0x13
 1011 00e3 01       		.uleb128 0x1
 1012 00e4 01       		.byte	0x1
 1013 00e5 49       		.uleb128 0x49
 1014 00e6 13       		.uleb128 0x13
 1015 00e7 01       		.uleb128 0x1
 1016 00e8 13       		.uleb128 0x13
 1017 00e9 00       		.byte	0
 1018 00ea 00       		.byte	0
 1019 00eb 14       		.uleb128 0x14
 1020 00ec 21       		.uleb128 0x21
 1021 00ed 00       		.byte	0
 1022 00ee 49       		.uleb128 0x49
 1023 00ef 13       		.uleb128 0x13
 1024 00f0 2F       		.uleb128 0x2f
 1025 00f1 0B       		.uleb128 0xb
ARM GAS  /tmp/ccdne9DI.s 			page 19


 1026 00f2 00       		.byte	0
 1027 00f3 00       		.byte	0
 1028 00f4 15       		.uleb128 0x15
 1029 00f5 2E       		.uleb128 0x2e
 1030 00f6 00       		.byte	0
 1031 00f7 03       		.uleb128 0x3
 1032 00f8 0E       		.uleb128 0xe
 1033 00f9 3A       		.uleb128 0x3a
 1034 00fa 0B       		.uleb128 0xb
 1035 00fb 3B       		.uleb128 0x3b
 1036 00fc 05       		.uleb128 0x5
 1037 00fd 27       		.uleb128 0x27
 1038 00fe 19       		.uleb128 0x19
 1039 00ff 20       		.uleb128 0x20
 1040 0100 0B       		.uleb128 0xb
 1041 0101 00       		.byte	0
 1042 0102 00       		.byte	0
 1043 0103 16       		.uleb128 0x16
 1044 0104 2E       		.uleb128 0x2e
 1045 0105 01       		.byte	0x1
 1046 0106 03       		.uleb128 0x3
 1047 0107 0E       		.uleb128 0xe
 1048 0108 3A       		.uleb128 0x3a
 1049 0109 0B       		.uleb128 0xb
 1050 010a 3B       		.uleb128 0x3b
 1051 010b 05       		.uleb128 0x5
 1052 010c 27       		.uleb128 0x27
 1053 010d 19       		.uleb128 0x19
 1054 010e 49       		.uleb128 0x49
 1055 010f 13       		.uleb128 0x13
 1056 0110 20       		.uleb128 0x20
 1057 0111 0B       		.uleb128 0xb
 1058 0112 01       		.uleb128 0x1
 1059 0113 13       		.uleb128 0x13
 1060 0114 00       		.byte	0
 1061 0115 00       		.byte	0
 1062 0116 17       		.uleb128 0x17
 1063 0117 34       		.uleb128 0x34
 1064 0118 00       		.byte	0
 1065 0119 03       		.uleb128 0x3
 1066 011a 0E       		.uleb128 0xe
 1067 011b 3A       		.uleb128 0x3a
 1068 011c 0B       		.uleb128 0xb
 1069 011d 3B       		.uleb128 0x3b
 1070 011e 05       		.uleb128 0x5
 1071 011f 49       		.uleb128 0x49
 1072 0120 13       		.uleb128 0x13
 1073 0121 00       		.byte	0
 1074 0122 00       		.byte	0
 1075 0123 18       		.uleb128 0x18
 1076 0124 2E       		.uleb128 0x2e
 1077 0125 01       		.byte	0x1
 1078 0126 03       		.uleb128 0x3
 1079 0127 0E       		.uleb128 0xe
 1080 0128 3A       		.uleb128 0x3a
 1081 0129 0B       		.uleb128 0xb
 1082 012a 3B       		.uleb128 0x3b
ARM GAS  /tmp/ccdne9DI.s 			page 20


 1083 012b 05       		.uleb128 0x5
 1084 012c 27       		.uleb128 0x27
 1085 012d 19       		.uleb128 0x19
 1086 012e 20       		.uleb128 0x20
 1087 012f 0B       		.uleb128 0xb
 1088 0130 01       		.uleb128 0x1
 1089 0131 13       		.uleb128 0x13
 1090 0132 00       		.byte	0
 1091 0133 00       		.byte	0
 1092 0134 19       		.uleb128 0x19
 1093 0135 05       		.uleb128 0x5
 1094 0136 00       		.byte	0
 1095 0137 03       		.uleb128 0x3
 1096 0138 0E       		.uleb128 0xe
 1097 0139 3A       		.uleb128 0x3a
 1098 013a 0B       		.uleb128 0xb
 1099 013b 3B       		.uleb128 0x3b
 1100 013c 05       		.uleb128 0x5
 1101 013d 49       		.uleb128 0x49
 1102 013e 13       		.uleb128 0x13
 1103 013f 00       		.byte	0
 1104 0140 00       		.byte	0
 1105 0141 1A       		.uleb128 0x1a
 1106 0142 2E       		.uleb128 0x2e
 1107 0143 01       		.byte	0x1
 1108 0144 3F       		.uleb128 0x3f
 1109 0145 19       		.uleb128 0x19
 1110 0146 03       		.uleb128 0x3
 1111 0147 0E       		.uleb128 0xe
 1112 0148 3A       		.uleb128 0x3a
 1113 0149 0B       		.uleb128 0xb
 1114 014a 3B       		.uleb128 0x3b
 1115 014b 0B       		.uleb128 0xb
 1116 014c 27       		.uleb128 0x27
 1117 014d 19       		.uleb128 0x19
 1118 014e 11       		.uleb128 0x11
 1119 014f 01       		.uleb128 0x1
 1120 0150 12       		.uleb128 0x12
 1121 0151 06       		.uleb128 0x6
 1122 0152 40       		.uleb128 0x40
 1123 0153 18       		.uleb128 0x18
 1124 0154 9742     		.uleb128 0x2117
 1125 0156 19       		.uleb128 0x19
 1126 0157 01       		.uleb128 0x1
 1127 0158 13       		.uleb128 0x13
 1128 0159 00       		.byte	0
 1129 015a 00       		.byte	0
 1130 015b 1B       		.uleb128 0x1b
 1131 015c 34       		.uleb128 0x34
 1132 015d 00       		.byte	0
 1133 015e 03       		.uleb128 0x3
 1134 015f 0E       		.uleb128 0xe
 1135 0160 3A       		.uleb128 0x3a
 1136 0161 0B       		.uleb128 0xb
 1137 0162 3B       		.uleb128 0x3b
 1138 0163 0B       		.uleb128 0xb
 1139 0164 49       		.uleb128 0x49
ARM GAS  /tmp/ccdne9DI.s 			page 21


 1140 0165 13       		.uleb128 0x13
 1141 0166 02       		.uleb128 0x2
 1142 0167 17       		.uleb128 0x17
 1143 0168 00       		.byte	0
 1144 0169 00       		.byte	0
 1145 016a 1C       		.uleb128 0x1c
 1146 016b 1D       		.uleb128 0x1d
 1147 016c 01       		.byte	0x1
 1148 016d 31       		.uleb128 0x31
 1149 016e 13       		.uleb128 0x13
 1150 016f 11       		.uleb128 0x11
 1151 0170 01       		.uleb128 0x1
 1152 0171 12       		.uleb128 0x12
 1153 0172 06       		.uleb128 0x6
 1154 0173 58       		.uleb128 0x58
 1155 0174 0B       		.uleb128 0xb
 1156 0175 59       		.uleb128 0x59
 1157 0176 0B       		.uleb128 0xb
 1158 0177 01       		.uleb128 0x1
 1159 0178 13       		.uleb128 0x13
 1160 0179 00       		.byte	0
 1161 017a 00       		.byte	0
 1162 017b 1D       		.uleb128 0x1d
 1163 017c 0B       		.uleb128 0xb
 1164 017d 01       		.byte	0x1
 1165 017e 11       		.uleb128 0x11
 1166 017f 01       		.uleb128 0x1
 1167 0180 12       		.uleb128 0x12
 1168 0181 06       		.uleb128 0x6
 1169 0182 00       		.byte	0
 1170 0183 00       		.byte	0
 1171 0184 1E       		.uleb128 0x1e
 1172 0185 34       		.uleb128 0x34
 1173 0186 00       		.byte	0
 1174 0187 31       		.uleb128 0x31
 1175 0188 13       		.uleb128 0x13
 1176 0189 02       		.uleb128 0x2
 1177 018a 17       		.uleb128 0x17
 1178 018b 00       		.byte	0
 1179 018c 00       		.byte	0
 1180 018d 1F       		.uleb128 0x1f
 1181 018e 05       		.uleb128 0x5
 1182 018f 00       		.byte	0
 1183 0190 31       		.uleb128 0x31
 1184 0191 13       		.uleb128 0x13
 1185 0192 02       		.uleb128 0x2
 1186 0193 17       		.uleb128 0x17
 1187 0194 00       		.byte	0
 1188 0195 00       		.byte	0
 1189 0196 20       		.uleb128 0x20
 1190 0197 1D       		.uleb128 0x1d
 1191 0198 01       		.byte	0x1
 1192 0199 31       		.uleb128 0x31
 1193 019a 13       		.uleb128 0x13
 1194 019b 11       		.uleb128 0x11
 1195 019c 01       		.uleb128 0x1
 1196 019d 12       		.uleb128 0x12
ARM GAS  /tmp/ccdne9DI.s 			page 22


 1197 019e 06       		.uleb128 0x6
 1198 019f 58       		.uleb128 0x58
 1199 01a0 0B       		.uleb128 0xb
 1200 01a1 59       		.uleb128 0x59
 1201 01a2 0B       		.uleb128 0xb
 1202 01a3 00       		.byte	0
 1203 01a4 00       		.byte	0
 1204 01a5 21       		.uleb128 0x21
 1205 01a6 1D       		.uleb128 0x1d
 1206 01a7 01       		.byte	0x1
 1207 01a8 31       		.uleb128 0x31
 1208 01a9 13       		.uleb128 0x13
 1209 01aa 11       		.uleb128 0x11
 1210 01ab 01       		.uleb128 0x1
 1211 01ac 12       		.uleb128 0x12
 1212 01ad 06       		.uleb128 0x6
 1213 01ae 58       		.uleb128 0x58
 1214 01af 0B       		.uleb128 0xb
 1215 01b0 59       		.uleb128 0x59
 1216 01b1 05       		.uleb128 0x5
 1217 01b2 00       		.byte	0
 1218 01b3 00       		.byte	0
 1219 01b4 22       		.uleb128 0x22
 1220 01b5 1D       		.uleb128 0x1d
 1221 01b6 00       		.byte	0
 1222 01b7 31       		.uleb128 0x31
 1223 01b8 13       		.uleb128 0x13
 1224 01b9 11       		.uleb128 0x11
 1225 01ba 01       		.uleb128 0x1
 1226 01bb 12       		.uleb128 0x12
 1227 01bc 06       		.uleb128 0x6
 1228 01bd 58       		.uleb128 0x58
 1229 01be 0B       		.uleb128 0xb
 1230 01bf 59       		.uleb128 0x59
 1231 01c0 05       		.uleb128 0x5
 1232 01c1 00       		.byte	0
 1233 01c2 00       		.byte	0
 1234 01c3 23       		.uleb128 0x23
 1235 01c4 05       		.uleb128 0x5
 1236 01c5 00       		.byte	0
 1237 01c6 03       		.uleb128 0x3
 1238 01c7 08       		.uleb128 0x8
 1239 01c8 3A       		.uleb128 0x3a
 1240 01c9 0B       		.uleb128 0xb
 1241 01ca 3B       		.uleb128 0x3b
 1242 01cb 0B       		.uleb128 0xb
 1243 01cc 49       		.uleb128 0x49
 1244 01cd 13       		.uleb128 0x13
 1245 01ce 02       		.uleb128 0x2
 1246 01cf 17       		.uleb128 0x17
 1247 01d0 00       		.byte	0
 1248 01d1 00       		.byte	0
 1249 01d2 24       		.uleb128 0x24
 1250 01d3 0B       		.uleb128 0xb
 1251 01d4 01       		.byte	0x1
 1252 01d5 55       		.uleb128 0x55
 1253 01d6 17       		.uleb128 0x17
ARM GAS  /tmp/ccdne9DI.s 			page 23


 1254 01d7 00       		.byte	0
 1255 01d8 00       		.byte	0
 1256 01d9 25       		.uleb128 0x25
 1257 01da 34       		.uleb128 0x34
 1258 01db 00       		.byte	0
 1259 01dc 03       		.uleb128 0x3
 1260 01dd 08       		.uleb128 0x8
 1261 01de 3A       		.uleb128 0x3a
 1262 01df 0B       		.uleb128 0xb
 1263 01e0 3B       		.uleb128 0x3b
 1264 01e1 05       		.uleb128 0x5
 1265 01e2 49       		.uleb128 0x49
 1266 01e3 13       		.uleb128 0x13
 1267 01e4 3F       		.uleb128 0x3f
 1268 01e5 19       		.uleb128 0x19
 1269 01e6 3C       		.uleb128 0x3c
 1270 01e7 19       		.uleb128 0x19
 1271 01e8 00       		.byte	0
 1272 01e9 00       		.byte	0
 1273 01ea 00       		.byte	0
 1274              		.section	.debug_loc,"",%progbits
 1275              	.Ldebug_loc0:
 1276              	.LLST0:
 1277 0000 04000000 		.4byte	.LVL0
 1278 0004 06000000 		.4byte	.LVL1
 1279 0008 0300     		.2byte	0x3
 1280 000a 73       		.byte	0x73
 1281 000b 20       		.sleb128 32
 1282 000c 9F       		.byte	0x9f
 1283 000d 06000000 		.4byte	.LVL1
 1284 0011 0E000000 		.4byte	.LFE46
 1285 0015 0100     		.2byte	0x1
 1286 0017 53       		.byte	0x53
 1287 0018 00000000 		.4byte	0
 1288 001c 00000000 		.4byte	0
 1289              	.LLST1:
 1290 0020 04000000 		.4byte	.LVL0
 1291 0024 06000000 		.4byte	.LVL1
 1292 0028 0100     		.2byte	0x1
 1293 002a 53       		.byte	0x53
 1294 002b 06000000 		.4byte	.LVL1
 1295 002f 0E000000 		.4byte	.LFE46
 1296 0033 0300     		.2byte	0x3
 1297 0035 73       		.byte	0x73
 1298 0036 60       		.sleb128 -32
 1299 0037 9F       		.byte	0x9f
 1300 0038 00000000 		.4byte	0
 1301 003c 00000000 		.4byte	0
 1302              	.LLST3:
 1303 0040 00000000 		.4byte	.LVL2
 1304 0044 04000000 		.4byte	.LVL3
 1305 0048 0100     		.2byte	0x1
 1306 004a 50       		.byte	0x50
 1307 004b 04000000 		.4byte	.LVL3
 1308 004f 38000000 		.4byte	.LFE47
 1309 0053 0400     		.2byte	0x4
 1310 0055 F3       		.byte	0xf3
ARM GAS  /tmp/ccdne9DI.s 			page 24


 1311 0056 01       		.uleb128 0x1
 1312 0057 50       		.byte	0x50
 1313 0058 9F       		.byte	0x9f
 1314 0059 00000000 		.4byte	0
 1315 005d 00000000 		.4byte	0
 1316              	.LLST4:
 1317 0061 0A000000 		.4byte	.LVL4
 1318 0065 0C000000 		.4byte	.LVL5
 1319 0069 0300     		.2byte	0x3
 1320 006b 73       		.byte	0x73
 1321 006c 60       		.sleb128 -32
 1322 006d 9F       		.byte	0x9f
 1323 006e 0C000000 		.4byte	.LVL5
 1324 0072 24000000 		.4byte	.LVL6
 1325 0076 0100     		.2byte	0x1
 1326 0078 53       		.byte	0x53
 1327 0079 26000000 		.4byte	.LVL7
 1328 007d 38000000 		.4byte	.LFE47
 1329 0081 0100     		.2byte	0x1
 1330 0083 53       		.byte	0x53
 1331 0084 00000000 		.4byte	0
 1332 0088 00000000 		.4byte	0
 1333              	.LLST5:
 1334 008c 0A000000 		.4byte	.LVL4
 1335 0090 0C000000 		.4byte	.LVL5
 1336 0094 0100     		.2byte	0x1
 1337 0096 53       		.byte	0x53
 1338 0097 0C000000 		.4byte	.LVL5
 1339 009b 24000000 		.4byte	.LVL6
 1340 009f 0300     		.2byte	0x3
 1341 00a1 73       		.byte	0x73
 1342 00a2 20       		.sleb128 32
 1343 00a3 9F       		.byte	0x9f
 1344 00a4 26000000 		.4byte	.LVL7
 1345 00a8 38000000 		.4byte	.LFE47
 1346 00ac 0300     		.2byte	0x3
 1347 00ae 73       		.byte	0x73
 1348 00af 20       		.sleb128 32
 1349 00b0 9F       		.byte	0x9f
 1350 00b1 00000000 		.4byte	0
 1351 00b5 00000000 		.4byte	0
 1352              		.section	.debug_aranges,"",%progbits
 1353 0000 24000000 		.4byte	0x24
 1354 0004 0200     		.2byte	0x2
 1355 0006 00000000 		.4byte	.Ldebug_info0
 1356 000a 04       		.byte	0x4
 1357 000b 00       		.byte	0
 1358 000c 0000     		.2byte	0
 1359 000e 0000     		.2byte	0
 1360 0010 00000000 		.4byte	.LFB46
 1361 0014 0E000000 		.4byte	.LFE46-.LFB46
 1362 0018 00000000 		.4byte	.LFB47
 1363 001c 38000000 		.4byte	.LFE47-.LFB47
 1364 0020 00000000 		.4byte	0
 1365 0024 00000000 		.4byte	0
 1366              		.section	.debug_ranges,"",%progbits
 1367              	.Ldebug_ranges0:
ARM GAS  /tmp/ccdne9DI.s 			page 25


 1368 0000 04000000 		.4byte	.LBB41
 1369 0004 24000000 		.4byte	.LBE41
 1370 0008 26000000 		.4byte	.LBB50
 1371 000c 38000000 		.4byte	.LBE50
 1372 0010 00000000 		.4byte	0
 1373 0014 00000000 		.4byte	0
 1374 0018 00000000 		.4byte	.LFB46
 1375 001c 0E000000 		.4byte	.LFE46
 1376 0020 00000000 		.4byte	.LFB47
 1377 0024 38000000 		.4byte	.LFE47
 1378 0028 00000000 		.4byte	0
 1379 002c 00000000 		.4byte	0
 1380              		.section	.debug_line,"",%progbits
 1381              	.Ldebug_line0:
 1382 0000 4F010000 		.section	.debug_str,"MS",%progbits,1
 1382      0200E900 
 1382      00000201 
 1382      FB0E0D00 
 1382      01010101 
 1383              	.LASF50:
 1384 0000 4E4D495F 		.ascii	"NMI_Handler\000"
 1384      48616E64 
 1384      6C657200 
 1385              	.LASF15:
 1386 000c 75696E74 		.ascii	"uint64_t\000"
 1386      36345F74 
 1386      00
 1387              	.LASF29:
 1388 0015 706F7274 		.ascii	"port_intctx\000"
 1388      5F696E74 
 1388      63747800 
 1389              	.LASF46:
 1390 0021 706F7274 		.ascii	"port_lock\000"
 1390      5F6C6F63 
 1390      6B00
 1391              	.LASF16:
 1392 002b 6C6F6E67 		.ascii	"long long unsigned int\000"
 1392      206C6F6E 
 1392      6720756E 
 1392      7369676E 
 1392      65642069 
 1393              	.LASF40:
 1394 0042 6E657874 		.ascii	"next\000"
 1394      00
 1395              	.LASF10:
 1396 0047 6C6F6E67 		.ascii	"long long int\000"
 1396      206C6F6E 
 1396      6720696E 
 1396      7400
 1397              	.LASF6:
 1398 0055 7369676E 		.ascii	"signed char\000"
 1398      65642063 
 1398      68617200 
 1399              	.LASF53:
 1400 0061 2E2E2F6F 		.ascii	"../os/nil/ports/ARMCMx/nilcore_v6m.c\000"
 1400      732F6E69 
 1400      6C2F706F 
ARM GAS  /tmp/ccdne9DI.s 			page 26


 1400      7274732F 
 1400      41524D43 
 1401              	.LASF30:
 1402 0086 696E7463 		.ascii	"intctx_t\000"
 1402      74785F74 
 1402      00
 1403              	.LASF57:
 1404 008f 5F5F7365 		.ascii	"__set_PSP\000"
 1404      745F5053 
 1404      5000
 1405              	.LASF1:
 1406 0099 73746174 		.ascii	"state\000"
 1406      6500
 1407              	.LASF17:
 1408 009f 74737461 		.ascii	"tstate_t\000"
 1408      74655F74 
 1408      00
 1409              	.LASF47:
 1410 00a8 706F7274 		.ascii	"port_unlock\000"
 1410      5F756E6C 
 1410      6F636B00 
 1411              	.LASF3:
 1412 00b4 65706D61 		.ascii	"epmask\000"
 1412      736B00
 1413              	.LASF54:
 1414 00bb 2F686F6D 		.ascii	"/home/bunnie/code/chibi-chibios/orchard\000"
 1414      652F6275 
 1414      6E6E6965 
 1414      2F636F64 
 1414      652F6368 
 1415              	.LASF52:
 1416 00e3 474E5520 		.ascii	"GNU C 4.9.2 -mcpu=cortex-m0 -mfloat-abi=soft -mfp16"
 1416      4320342E 
 1416      392E3220 
 1416      2D6D6370 
 1416      753D636F 
 1417 0116 2D666F72 		.ascii	"-format=none -mno-thumb-interwork -mthumb -mfloat-a"
 1417      6D61743D 
 1417      6E6F6E65 
 1417      202D6D6E 
 1417      6F2D7468 
 1418 0149 62693D73 		.ascii	"bi=soft -mfpu=vfpv3-d16 -mtls-dialect=gnu -ggdb -O3"
 1418      6F667420 
 1418      2D6D6670 
 1418      753D7666 
 1418      7076332D 
 1419 017c 202D7374 		.ascii	" -std=gnu99 -fomit-frame-pointer -falign-functions="
 1419      643D676E 
 1419      75393920 
 1419      2D666F6D 
 1419      69742D66 
 1420 01af 3136202D 		.ascii	"16 -ffunction-sections -fdata-sections -fno-common\000"
 1420      6666756E 
 1420      6374696F 
 1420      6E2D7365 
 1420      6374696F 
 1421              	.LASF5:
ARM GAS  /tmp/ccdne9DI.s 			page 27


 1422 01e2 756E7369 		.ascii	"unsigned int\000"
 1422      676E6564 
 1422      20696E74 
 1422      00
 1423              	.LASF27:
 1424 01ef 6C725F74 		.ascii	"lr_thd\000"
 1424      686400
 1425              	.LASF2:
 1426 01f6 74696D65 		.ascii	"timeout\000"
 1426      6F757400 
 1427              	.LASF25:
 1428 01fe 6E696C5F 		.ascii	"nil_thread\000"
 1428      74687265 
 1428      616400
 1429              	.LASF13:
 1430 0209 73686F72 		.ascii	"short unsigned int\000"
 1430      7420756E 
 1430      7369676E 
 1430      65642069 
 1430      6E7400
 1431              	.LASF18:
 1432 021c 6D73675F 		.ascii	"msg_t\000"
 1432      7400
 1433              	.LASF35:
 1434 0222 73656D70 		.ascii	"semp\000"
 1434      00
 1435              	.LASF41:
 1436 0227 73797374 		.ascii	"systime\000"
 1436      696D6500 
 1437              	.LASF19:
 1438 022f 6576656E 		.ascii	"eventmask_t\000"
 1438      746D6173 
 1438      6B5F7400 
 1439              	.LASF58:
 1440 023b 746F704F 		.ascii	"topOfProcStack\000"
 1440      6650726F 
 1440      63537461 
 1440      636B00
 1441              	.LASF24:
 1442 024a 73746B61 		.ascii	"stkalign_t\000"
 1442      6C69676E 
 1442      5F7400
 1443              	.LASF22:
 1444 0255 73697A65 		.ascii	"sizetype\000"
 1444      74797065 
 1444      00
 1445              	.LASF34:
 1446 025e 74687265 		.ascii	"thread_reference_t\000"
 1446      61645F72 
 1446      65666572 
 1446      656E6365 
 1446      5F7400
 1447              	.LASF20:
 1448 0271 636E745F 		.ascii	"cnt_t\000"
 1448      7400
 1449              	.LASF26:
 1450 0277 706F7274 		.ascii	"port_extctx\000"
ARM GAS  /tmp/ccdne9DI.s 			page 28


 1450      5F657874 
 1450      63747800 
 1451              	.LASF45:
 1452 0283 5F5F656E 		.ascii	"__enable_irq\000"
 1452      61626C65 
 1452      5F697271 
 1452      00
 1453              	.LASF39:
 1454 0290 63757272 		.ascii	"current\000"
 1454      656E7400 
 1455              	.LASF44:
 1456 0298 5F5F6469 		.ascii	"__disable_irq\000"
 1456      7361626C 
 1456      655F6972 
 1456      7100
 1457              	.LASF0:
 1458 02a6 63747870 		.ascii	"ctxp\000"
 1458      00
 1459              	.LASF4:
 1460 02ab 73746B6C 		.ascii	"stklim\000"
 1460      696D00
 1461              	.LASF9:
 1462 02b2 696E7433 		.ascii	"int32_t\000"
 1462      325F7400 
 1463              	.LASF12:
 1464 02ba 756E7369 		.ascii	"unsigned char\000"
 1464      676E6564 
 1464      20636861 
 1464      7200
 1465              	.LASF43:
 1466 02c8 6462675F 		.ascii	"dbg_panic_msg\000"
 1466      70616E69 
 1466      635F6D73 
 1466      6700
 1467              	.LASF32:
 1468 02d6 6E696C5F 		.ascii	"nil_semaphore\000"
 1468      73656D61 
 1468      70686F72 
 1468      6500
 1469              	.LASF38:
 1470 02e4 6E696C5F 		.ascii	"nil_system\000"
 1470      73797374 
 1470      656D00
 1471              	.LASF7:
 1472 02ef 73686F72 		.ascii	"short int\000"
 1472      7420696E 
 1472      7400
 1473              	.LASF42:
 1474 02f9 74687265 		.ascii	"threads\000"
 1474      61647300 
 1475              	.LASF28:
 1476 0301 78707372 		.ascii	"xpsr\000"
 1476      00
 1477              	.LASF36:
 1478 0306 65776D61 		.ascii	"ewmask\000"
 1478      736B00
 1479              	.LASF31:
ARM GAS  /tmp/ccdne9DI.s 			page 29


 1480 030d 73656D61 		.ascii	"semaphore_t\000"
 1480      70686F72 
 1480      655F7400 
 1481              	.LASF14:
 1482 0319 75696E74 		.ascii	"uint32_t\000"
 1482      33325F74 
 1482      00
 1483              	.LASF23:
 1484 0322 72656761 		.ascii	"regarm_t\000"
 1484      726D5F74 
 1484      00
 1485              	.LASF33:
 1486 032b 63686172 		.ascii	"char\000"
 1486      00
 1487              	.LASF48:
 1488 0330 706F7274 		.ascii	"port_unlock_from_isr\000"
 1488      5F756E6C 
 1488      6F636B5F 
 1488      66726F6D 
 1488      5F697372 
 1489              	.LASF8:
 1490 0345 74687265 		.ascii	"thread_t\000"
 1490      61645F74 
 1490      00
 1491              	.LASF21:
 1492 034e 73797374 		.ascii	"systime_t\000"
 1492      696D655F 
 1492      7400
 1493              	.LASF37:
 1494 0358 6E696C5F 		.ascii	"nil_system_t\000"
 1494      73797374 
 1494      656D5F74 
 1494      00
 1495              	.LASF49:
 1496 0365 706F7274 		.ascii	"port_lock_from_isr\000"
 1496      5F6C6F63 
 1496      6B5F6672 
 1496      6F6D5F69 
 1496      737200
 1497              	.LASF55:
 1498 0378 5F5F6765 		.ascii	"__get_PSP\000"
 1498      745F5053 
 1498      5000
 1499              	.LASF51:
 1500 0382 5F706F72 		.ascii	"_port_irq_epilogue\000"
 1500      745F6972 
 1500      715F6570 
 1500      696C6F67 
 1500      756500
 1501              	.LASF11:
 1502 0395 75696E74 		.ascii	"uint8_t\000"
 1502      385F7400 
 1503              	.LASF56:
 1504 039d 72657375 		.ascii	"result\000"
 1504      6C7400
 1505              		.ident	"GCC: (Debian 4.9.2-10) 4.9.2"
 1506              		.section	.note.GNU-stack,"",%progbits
ARM GAS  /tmp/ccdne9DI.s 			page 30


ARM GAS  /tmp/ccdne9DI.s 			page 31


DEFINED SYMBOLS
                            *ABS*:00000000 nilcore_v6m.c
     /tmp/ccdne9DI.s:18     .text.NMI_Handler:00000000 $t
     /tmp/ccdne9DI.s:24     .text.NMI_Handler:00000000 NMI_Handler
     /tmp/ccdne9DI.s:77     .text._port_irq_epilogue:00000000 $t
     /tmp/ccdne9DI.s:83     .text._port_irq_epilogue:00000000 _port_irq_epilogue
     /tmp/ccdne9DI.s:162    .text._port_irq_epilogue:0000002c $d
                     .debug_frame:00000010 $d
     /tmp/ccdne9DI.s:169    .text._port_irq_epilogue:00000038 $t

UNDEFINED SYMBOLS
nil
_port_switch_from_isr
_port_exit_from_isr
