ARM GAS  /tmp/ccrSvMhU.s 			page 1


   1              		.cpu cortex-m0
   2              		.fpu softvfp
   3              		.eabi_attribute 20, 1
   4              		.eabi_attribute 21, 1
   5              		.eabi_attribute 23, 3
   6              		.eabi_attribute 24, 1
   7              		.eabi_attribute 25, 1
   8              		.eabi_attribute 26, 2
   9              		.eabi_attribute 30, 2
  10              		.eabi_attribute 34, 0
  11              		.eabi_attribute 18, 4
  12              		.code	16
  13              		.file	"nvic.c"
  14              		.text
  15              	.Ltext0:
  16              		.cfi_sections	.debug_frame
  17              		.section	.text.nvicEnableVector,"ax",%progbits
  18              		.align	2
  19              		.p2align 4,,15
  20              		.global	nvicEnableVector
  21              		.code	16
  22              		.thumb_func
  23              		.type	nvicEnableVector, %function
  24              	nvicEnableVector:
  25              	.LFB81:
  26              		.file 1 "../os/hal/ports/common/ARMCMx/nvic.c"
  27              		.loc 1 57 0
  28              		.cfi_startproc
  29              	.LVL0:
  30              		.loc 1 63 0
  31 0000 031C     		mov	r3, r0
  32 0002 0A4A     		ldr	r2, .L2
  33 0004 C033     		add	r3, r3, #192
  34 0006 8901     		lsl	r1, r1, #6
  35              	.LVL1:
  36 0008 9B00     		lsl	r3, r3, #2
  37 000a 9950     		str	r1, [r3, r2]
  38              		.loc 1 65 0
  39 000c 1F23     		mov	r3, #31
  40 000e 0122     		mov	r2, #1
  41 0010 0340     		and	r3, r0
  42 0012 9A40     		lsl	r2, r2, r3
  43 0014 131C     		mov	r3, r2
  44 0016 054A     		ldr	r2, .L2
  45 0018 4009     		lsr	r0, r0, #5
  46              	.LVL2:
  47 001a 9446     		mov	ip, r2
  48 001c C022     		mov	r2, #192
  49 001e 8000     		lsl	r0, r0, #2
  50 0020 6044     		add	r0, r0, ip
  51 0022 5200     		lsl	r2, r2, #1
  52 0024 8350     		str	r3, [r0, r2]
  53              		.loc 1 67 0
  54              		@ sp needed
  55              		.loc 1 66 0
  56 0026 0360     		str	r3, [r0]
  57              		.loc 1 67 0
ARM GAS  /tmp/ccrSvMhU.s 			page 2


  58 0028 7047     		bx	lr
  59              	.L3:
  60 002a C046     		.align	2
  61              	.L2:
  62 002c 00E100E0 		.word	-536813312
  63              		.cfi_endproc
  64              	.LFE81:
  65              		.size	nvicEnableVector, .-nvicEnableVector
  66              		.section	.text.nvicDisableVector,"ax",%progbits
  67              		.align	2
  68              		.p2align 4,,15
  69              		.global	nvicDisableVector
  70              		.code	16
  71              		.thumb_func
  72              		.type	nvicDisableVector, %function
  73              	nvicDisableVector:
  74              	.LFB82:
  75              		.loc 1 74 0
  76              		.cfi_startproc
  77              	.LVL3:
  78              		.loc 1 76 0
  79 0000 1F22     		mov	r2, #31
  80 0002 0121     		mov	r1, #1
  81 0004 0240     		and	r2, r0
  82 0006 9140     		lsl	r1, r1, r2
  83 0008 0A1C     		mov	r2, r1
  84 000a 4309     		lsr	r3, r0, #5
  85 000c 0449     		ldr	r1, .L5
  86 000e 2033     		add	r3, r3, #32
  87 0010 9B00     		lsl	r3, r3, #2
  88 0012 5A50     		str	r2, [r3, r1]
  89              		.loc 1 80 0
  90 0014 0023     		mov	r3, #0
  91 0016 C030     		add	r0, r0, #192
  92              	.LVL4:
  93 0018 8000     		lsl	r0, r0, #2
  94              	.LVL5:
  95 001a 4350     		str	r3, [r0, r1]
  96              		.loc 1 82 0
  97              		@ sp needed
  98 001c 7047     		bx	lr
  99              	.L6:
 100 001e C046     		.align	2
 101              	.L5:
 102 0020 00E100E0 		.word	-536813312
 103              		.cfi_endproc
 104              	.LFE82:
 105              		.size	nvicDisableVector, .-nvicDisableVector
 106 0024 C046C046 		.section	.text.nvicSetSystemHandlerPriority,"ax",%progbits
 106      C046C046 
 106      C046C046 
 107              		.align	2
 108              		.p2align 4,,15
 109              		.global	nvicSetSystemHandlerPriority
 110              		.code	16
 111              		.thumb_func
 112              		.type	nvicSetSystemHandlerPriority, %function
ARM GAS  /tmp/ccrSvMhU.s 			page 3


 113              	nvicSetSystemHandlerPriority:
 114              	.LFB83:
 115              		.loc 1 90 0
 116              		.cfi_startproc
 117              	.LVL6:
 118              		.loc 1 100 0
 119 0000 034B     		ldr	r3, .L8
 120 0002 8000     		lsl	r0, r0, #2
 121              	.LVL7:
 122 0004 9C46     		mov	ip, r3
 123 0006 8901     		lsl	r1, r1, #6
 124              	.LVL8:
 125 0008 6044     		add	r0, r0, ip
 126 000a 4160     		str	r1, [r0, #4]
 127              		.loc 1 102 0
 128              		@ sp needed
 129 000c 7047     		bx	lr
 130              	.L9:
 131 000e C046     		.align	2
 132              	.L8:
 133 0010 18ED00E0 		.word	-536810216
 134              		.cfi_endproc
 135              	.LFE83:
 136              		.size	nvicSetSystemHandlerPriority, .-nvicSetSystemHandlerPriority
 137 0014 C046C046 		.section	.text.nvicClearPending,"ax",%progbits
 137      C046C046 
 137      C046C046 
 138              		.align	2
 139              		.p2align 4,,15
 140              		.global	nvicClearPending
 141              		.code	16
 142              		.thumb_func
 143              		.type	nvicClearPending, %function
 144              	nvicClearPending:
 145              	.LFB84:
 146              		.loc 1 109 0
 147              		.cfi_startproc
 148              	.LVL9:
 149              		.loc 1 111 0
 150 0000 1F22     		mov	r2, #31
 151 0002 4309     		lsr	r3, r0, #5
 152 0004 1040     		and	r0, r2
 153              	.LVL10:
 154 0006 0122     		mov	r2, #1
 155 0008 8240     		lsl	r2, r2, r0
 156 000a 101C     		mov	r0, r2
 157 000c 6033     		add	r3, r3, #96
 158 000e 024A     		ldr	r2, .L11
 159 0010 9B00     		lsl	r3, r3, #2
 160 0012 9850     		str	r0, [r3, r2]
 161              		.loc 1 112 0
 162              		@ sp needed
 163 0014 7047     		bx	lr
 164              	.L12:
 165 0016 C046     		.align	2
 166              	.L11:
 167 0018 00E100E0 		.word	-536813312
ARM GAS  /tmp/ccrSvMhU.s 			page 4


 168              		.cfi_endproc
 169              	.LFE84:
 170              		.size	nvicClearPending, .-nvicClearPending
 171 001c C046C046 		.text
 172              	.Letext0:
 173              		.file 2 "/usr/include/stdint.h"
 174              		.file 3 "../os/nil/include/nil.h"
 175              		.file 4 "../os/nil/ports/ARMCMx/compilers/GCC/niltypes.h"
 176              		.file 5 "../os/ext/CMSIS/include/core_cm0plus.h"
 177              		.file 6 "../os/nil/ports/ARMCMx/nilcore.h"
 178              		.file 7 "../os/nil/ports/ARMCMx/nilcore_v6m.h"
 179              		.section	.debug_info,"",%progbits
 180              	.Ldebug_info0:
 181 0000 5F050000 		.4byte	0x55f
 182 0004 0400     		.2byte	0x4
 183 0006 00000000 		.4byte	.Ldebug_abbrev0
 184 000a 04       		.byte	0x4
 185 000b 01       		.uleb128 0x1
 186 000c ED000000 		.4byte	.LASF65
 187 0010 01       		.byte	0x1
 188 0011 1D030000 		.4byte	.LASF66
 189 0015 6F030000 		.4byte	.LASF67
 190 0019 00000000 		.4byte	.Ldebug_ranges0+0
 191 001d 00000000 		.4byte	0
 192 0021 00000000 		.4byte	.Ldebug_line0
 193 0025 02       		.uleb128 0x2
 194 0026 04       		.byte	0x4
 195 0027 05       		.byte	0x5
 196 0028 696E7400 		.ascii	"int\000"
 197 002c 03       		.uleb128 0x3
 198 002d 04       		.byte	0x4
 199 002e 07       		.byte	0x7
 200 002f 67020000 		.4byte	.LASF0
 201 0033 03       		.uleb128 0x3
 202 0034 01       		.byte	0x1
 203 0035 06       		.byte	0x6
 204 0036 33020000 		.4byte	.LASF1
 205 003a 03       		.uleb128 0x3
 206 003b 02       		.byte	0x2
 207 003c 05       		.byte	0x5
 208 003d 1F000000 		.4byte	.LASF2
 209 0041 04       		.uleb128 0x4
 210 0042 3F020000 		.4byte	.LASF4
 211 0046 02       		.byte	0x2
 212 0047 26       		.byte	0x26
 213 0048 25000000 		.4byte	0x25
 214 004c 03       		.uleb128 0x3
 215 004d 08       		.byte	0x8
 216 004e 05       		.byte	0x5
 217 004f 49000000 		.4byte	.LASF3
 218 0053 04       		.uleb128 0x4
 219 0054 8F000000 		.4byte	.LASF5
 220 0058 02       		.byte	0x2
 221 0059 30       		.byte	0x30
 222 005a 5E000000 		.4byte	0x5e
 223 005e 03       		.uleb128 0x3
 224 005f 01       		.byte	0x1
ARM GAS  /tmp/ccrSvMhU.s 			page 5


 225 0060 08       		.byte	0x8
 226 0061 EC010000 		.4byte	.LASF6
 227 0065 03       		.uleb128 0x3
 228 0066 02       		.byte	0x2
 229 0067 07       		.byte	0x7
 230 0068 A1020000 		.4byte	.LASF7
 231 006c 04       		.uleb128 0x4
 232 006d 5E020000 		.4byte	.LASF8
 233 0071 02       		.byte	0x2
 234 0072 33       		.byte	0x33
 235 0073 2C000000 		.4byte	0x2c
 236 0077 04       		.uleb128 0x4
 237 0078 16000000 		.4byte	.LASF9
 238 007c 02       		.byte	0x2
 239 007d 3A       		.byte	0x3a
 240 007e 82000000 		.4byte	0x82
 241 0082 03       		.uleb128 0x3
 242 0083 08       		.byte	0x8
 243 0084 07       		.byte	0x7
 244 0085 47020000 		.4byte	.LASF10
 245 0089 04       		.uleb128 0x4
 246 008a 00000000 		.4byte	.LASF11
 247 008e 03       		.byte	0x3
 248 008f 25       		.byte	0x25
 249 0090 94000000 		.4byte	0x94
 250 0094 05       		.uleb128 0x5
 251 0095 63000000 		.4byte	.LASF42
 252 0099 18       		.byte	0x18
 253 009a 03       		.byte	0x3
 254 009b 6201     		.2byte	0x162
 255 009d EF000000 		.4byte	0xef
 256 00a1 06       		.uleb128 0x6
 257 00a2 E8000000 		.4byte	.LASF12
 258 00a6 03       		.byte	0x3
 259 00a7 6301     		.2byte	0x163
 260 00a9 0A040000 		.4byte	0x40a
 261 00ad 00       		.byte	0
 262 00ae 06       		.uleb128 0x6
 263 00af 10000000 		.4byte	.LASF13
 264 00b3 03       		.byte	0x3
 265 00b4 6401     		.2byte	0x164
 266 00b6 EF000000 		.4byte	0xef
 267 00ba 04       		.byte	0x4
 268 00bb 07       		.uleb128 0x7
 269 00bc 753100   		.ascii	"u1\000"
 270 00bf 03       		.byte	0x3
 271 00c0 6F01     		.2byte	0x16f
 272 00c2 BA030000 		.4byte	0x3ba
 273 00c6 08       		.byte	0x8
 274 00c7 06       		.uleb128 0x6
 275 00c8 C8030000 		.4byte	.LASF14
 276 00cc 03       		.byte	0x3
 277 00cd 7001     		.2byte	0x170
 278 00cf 10040000 		.4byte	0x410
 279 00d3 0C       		.byte	0xc
 280 00d4 06       		.uleb128 0x6
 281 00d5 09000000 		.4byte	.LASF15
ARM GAS  /tmp/ccrSvMhU.s 			page 6


 282 00d9 03       		.byte	0x3
 283 00da 7301     		.2byte	0x173
 284 00dc 05010000 		.4byte	0x105
 285 00e0 10       		.byte	0x10
 286 00e1 06       		.uleb128 0x6
 287 00e2 B6030000 		.4byte	.LASF16
 288 00e6 03       		.byte	0x3
 289 00e7 7601     		.2byte	0x176
 290 00e9 90030000 		.4byte	0x390
 291 00ed 14       		.byte	0x14
 292 00ee 00       		.byte	0
 293 00ef 04       		.uleb128 0x4
 294 00f0 66030000 		.4byte	.LASF17
 295 00f4 04       		.byte	0x4
 296 00f5 37       		.byte	0x37
 297 00f6 53000000 		.4byte	0x53
 298 00fa 04       		.uleb128 0x4
 299 00fb BD030000 		.4byte	.LASF18
 300 00ff 04       		.byte	0x4
 301 0100 38       		.byte	0x38
 302 0101 41000000 		.4byte	0x41
 303 0105 04       		.uleb128 0x4
 304 0106 57000000 		.4byte	.LASF19
 305 010a 04       		.byte	0x4
 306 010b 39       		.byte	0x39
 307 010c 6C000000 		.4byte	0x6c
 308 0110 04       		.uleb128 0x4
 309 0111 D9020000 		.4byte	.LASF20
 310 0115 04       		.byte	0x4
 311 0116 3A       		.byte	0x3a
 312 0117 41000000 		.4byte	0x41
 313 011b 04       		.uleb128 0x4
 314 011c B4020000 		.4byte	.LASF21
 315 0120 04       		.byte	0x4
 316 0121 41       		.byte	0x41
 317 0122 6C000000 		.4byte	0x6c
 318 0126 08       		.uleb128 0x8
 319 0127 2003     		.2byte	0x320
 320 0129 05       		.byte	0x5
 321 012a 5C01     		.2byte	0x15c
 322 012c B8010000 		.4byte	0x1b8
 323 0130 06       		.uleb128 0x6
 324 0131 F0020000 		.4byte	.LASF22
 325 0135 05       		.byte	0x5
 326 0136 5E01     		.2byte	0x15e
 327 0138 CF010000 		.4byte	0x1cf
 328 013c 00       		.byte	0
 329 013d 06       		.uleb128 0x6
 330 013e 7C000000 		.4byte	.LASF23
 331 0142 05       		.byte	0x5
 332 0143 5F01     		.2byte	0x15f
 333 0145 D4010000 		.4byte	0x1d4
 334 0149 04       		.byte	0x4
 335 014a 06       		.uleb128 0x6
 336 014b 7A020000 		.4byte	.LASF24
 337 014f 05       		.byte	0x5
 338 0150 6001     		.2byte	0x160
ARM GAS  /tmp/ccrSvMhU.s 			page 7


 339 0152 E4010000 		.4byte	0x1e4
 340 0156 80       		.byte	0x80
 341 0157 06       		.uleb128 0x6
 342 0158 C4000000 		.4byte	.LASF25
 343 015c 05       		.byte	0x5
 344 015d 6101     		.2byte	0x161
 345 015f D4010000 		.4byte	0x1d4
 346 0163 84       		.byte	0x84
 347 0164 09       		.uleb128 0x9
 348 0165 32000000 		.4byte	.LASF26
 349 0169 05       		.byte	0x5
 350 016a 6201     		.2byte	0x162
 351 016c E9010000 		.4byte	0x1e9
 352 0170 0001     		.2byte	0x100
 353 0172 09       		.uleb128 0x9
 354 0173 FF020000 		.4byte	.LASF27
 355 0177 05       		.byte	0x5
 356 0178 6301     		.2byte	0x163
 357 017a D4010000 		.4byte	0x1d4
 358 017e 0401     		.2byte	0x104
 359 0180 09       		.uleb128 0x9
 360 0181 2E020000 		.4byte	.LASF28
 361 0185 05       		.byte	0x5
 362 0186 6401     		.2byte	0x164
 363 0188 EE010000 		.4byte	0x1ee
 364 018c 8001     		.2byte	0x180
 365 018e 09       		.uleb128 0x9
 366 018f 09030000 		.4byte	.LASF29
 367 0193 05       		.byte	0x5
 368 0194 6501     		.2byte	0x165
 369 0196 D4010000 		.4byte	0x1d4
 370 019a 8401     		.2byte	0x184
 371 019c 09       		.uleb128 0x9
 372 019d 13030000 		.4byte	.LASF30
 373 01a1 05       		.byte	0x5
 374 01a2 6601     		.2byte	0x166
 375 01a4 F3010000 		.4byte	0x1f3
 376 01a8 0002     		.2byte	0x200
 377 01aa 0A       		.uleb128 0xa
 378 01ab 495000   		.ascii	"IP\000"
 379 01ae 05       		.byte	0x5
 380 01af 6701     		.2byte	0x167
 381 01b1 13020000 		.4byte	0x213
 382 01b5 0003     		.2byte	0x300
 383 01b7 00       		.byte	0
 384 01b8 0B       		.uleb128 0xb
 385 01b9 6C000000 		.4byte	0x6c
 386 01bd C8010000 		.4byte	0x1c8
 387 01c1 0C       		.uleb128 0xc
 388 01c2 C8010000 		.4byte	0x1c8
 389 01c6 00       		.byte	0
 390 01c7 00       		.byte	0
 391 01c8 03       		.uleb128 0x3
 392 01c9 04       		.byte	0x4
 393 01ca 07       		.byte	0x7
 394 01cb 29000000 		.4byte	.LASF31
 395 01cf 0D       		.uleb128 0xd
ARM GAS  /tmp/ccrSvMhU.s 			page 8


 396 01d0 B8010000 		.4byte	0x1b8
 397 01d4 0B       		.uleb128 0xb
 398 01d5 6C000000 		.4byte	0x6c
 399 01d9 E4010000 		.4byte	0x1e4
 400 01dd 0C       		.uleb128 0xc
 401 01de C8010000 		.4byte	0x1c8
 402 01e2 1E       		.byte	0x1e
 403 01e3 00       		.byte	0
 404 01e4 0D       		.uleb128 0xd
 405 01e5 B8010000 		.4byte	0x1b8
 406 01e9 0D       		.uleb128 0xd
 407 01ea B8010000 		.4byte	0x1b8
 408 01ee 0D       		.uleb128 0xd
 409 01ef B8010000 		.4byte	0x1b8
 410 01f3 0B       		.uleb128 0xb
 411 01f4 6C000000 		.4byte	0x6c
 412 01f8 03020000 		.4byte	0x203
 413 01fc 0C       		.uleb128 0xc
 414 01fd C8010000 		.4byte	0x1c8
 415 0201 3F       		.byte	0x3f
 416 0202 00       		.byte	0
 417 0203 0B       		.uleb128 0xb
 418 0204 6C000000 		.4byte	0x6c
 419 0208 13020000 		.4byte	0x213
 420 020c 0C       		.uleb128 0xc
 421 020d C8010000 		.4byte	0x1c8
 422 0211 07       		.byte	0x7
 423 0212 00       		.byte	0
 424 0213 0D       		.uleb128 0xd
 425 0214 03020000 		.4byte	0x203
 426 0218 0E       		.uleb128 0xe
 427 0219 24020000 		.4byte	.LASF32
 428 021d 05       		.byte	0x5
 429 021e 6801     		.2byte	0x168
 430 0220 26010000 		.4byte	0x126
 431 0224 0F       		.uleb128 0xf
 432 0225 28       		.byte	0x28
 433 0226 05       		.byte	0x5
 434 0227 7501     		.2byte	0x175
 435 0229 A3020000 		.4byte	0x2a3
 436 022d 06       		.uleb128 0x6
 437 022e 76000000 		.4byte	.LASF33
 438 0232 05       		.byte	0x5
 439 0233 7701     		.2byte	0x177
 440 0235 A3020000 		.4byte	0x2a3
 441 0239 00       		.byte	0
 442 023a 06       		.uleb128 0x6
 443 023b BF000000 		.4byte	.LASF34
 444 023f 05       		.byte	0x5
 445 0240 7801     		.2byte	0x178
 446 0242 A8020000 		.4byte	0x2a8
 447 0246 04       		.byte	0x4
 448 0247 06       		.uleb128 0x6
 449 0248 C3020000 		.4byte	.LASF35
 450 024c 05       		.byte	0x5
 451 024d 7A01     		.2byte	0x17a
 452 024f A8020000 		.4byte	0x2a8
ARM GAS  /tmp/ccrSvMhU.s 			page 9


 453 0253 08       		.byte	0x8
 454 0254 06       		.uleb128 0x6
 455 0255 FA010000 		.4byte	.LASF36
 456 0259 05       		.byte	0x5
 457 025a 7E01     		.2byte	0x17e
 458 025c A8020000 		.4byte	0x2a8
 459 0260 0C       		.byte	0xc
 460 0261 07       		.uleb128 0x7
 461 0262 53435200 		.ascii	"SCR\000"
 462 0266 05       		.byte	0x5
 463 0267 7F01     		.2byte	0x17f
 464 0269 A8020000 		.4byte	0x2a8
 465 026d 10       		.byte	0x10
 466 026e 07       		.uleb128 0x7
 467 026f 43435200 		.ascii	"CCR\000"
 468 0273 05       		.byte	0x5
 469 0274 8001     		.2byte	0x180
 470 0276 A8020000 		.4byte	0x2a8
 471 027a 14       		.byte	0x14
 472 027b 06       		.uleb128 0x6
 473 027c F5020000 		.4byte	.LASF37
 474 0280 05       		.byte	0x5
 475 0281 8101     		.2byte	0x181
 476 0283 6C000000 		.4byte	0x6c
 477 0287 18       		.byte	0x18
 478 0288 07       		.uleb128 0x7
 479 0289 53485000 		.ascii	"SHP\000"
 480 028d 05       		.byte	0x5
 481 028e 8201     		.2byte	0x182
 482 0290 BD020000 		.4byte	0x2bd
 483 0294 1C       		.byte	0x1c
 484 0295 06       		.uleb128 0x6
 485 0296 74020000 		.4byte	.LASF38
 486 029a 05       		.byte	0x5
 487 029b 8301     		.2byte	0x183
 488 029d A8020000 		.4byte	0x2a8
 489 02a1 24       		.byte	0x24
 490 02a2 00       		.byte	0
 491 02a3 10       		.uleb128 0x10
 492 02a4 A8020000 		.4byte	0x2a8
 493 02a8 0D       		.uleb128 0xd
 494 02a9 6C000000 		.4byte	0x6c
 495 02ad 0B       		.uleb128 0xb
 496 02ae 6C000000 		.4byte	0x6c
 497 02b2 BD020000 		.4byte	0x2bd
 498 02b6 0C       		.uleb128 0xc
 499 02b7 C8010000 		.4byte	0x1c8
 500 02bb 01       		.byte	0x1
 501 02bc 00       		.byte	0
 502 02bd 0D       		.uleb128 0xd
 503 02be AD020000 		.4byte	0x2ad
 504 02c2 0E       		.uleb128 0xe
 505 02c3 97000000 		.4byte	.LASF39
 506 02c7 05       		.byte	0x5
 507 02c8 8401     		.2byte	0x184
 508 02ca 24020000 		.4byte	0x224
 509 02ce 04       		.uleb128 0x4
ARM GAS  /tmp/ccrSvMhU.s 			page 10


 510 02cf 86000000 		.4byte	.LASF40
 511 02d3 06       		.byte	0x6
 512 02d4 65       		.byte	0x65
 513 02d5 D9020000 		.4byte	0x2d9
 514 02d9 11       		.uleb128 0x11
 515 02da 04       		.byte	0x4
 516 02db 04       		.uleb128 0x4
 517 02dc E5020000 		.4byte	.LASF41
 518 02e0 06       		.byte	0x6
 519 02e1 6D       		.byte	0x6d
 520 02e2 77000000 		.4byte	0x77
 521 02e6 12       		.uleb128 0x12
 522 02e7 42030000 		.4byte	.LASF43
 523 02eb 24       		.byte	0x24
 524 02ec 07       		.byte	0x7
 525 02ed A4       		.byte	0xa4
 526 02ee 58030000 		.4byte	0x358
 527 02f2 13       		.uleb128 0x13
 528 02f3 723800   		.ascii	"r8\000"
 529 02f6 07       		.byte	0x7
 530 02f7 A5       		.byte	0xa5
 531 02f8 CE020000 		.4byte	0x2ce
 532 02fc 00       		.byte	0
 533 02fd 13       		.uleb128 0x13
 534 02fe 723900   		.ascii	"r9\000"
 535 0301 07       		.byte	0x7
 536 0302 A6       		.byte	0xa6
 537 0303 CE020000 		.4byte	0x2ce
 538 0307 04       		.byte	0x4
 539 0308 13       		.uleb128 0x13
 540 0309 72313000 		.ascii	"r10\000"
 541 030d 07       		.byte	0x7
 542 030e A7       		.byte	0xa7
 543 030f CE020000 		.4byte	0x2ce
 544 0313 08       		.byte	0x8
 545 0314 13       		.uleb128 0x13
 546 0315 72313100 		.ascii	"r11\000"
 547 0319 07       		.byte	0x7
 548 031a A8       		.byte	0xa8
 549 031b CE020000 		.4byte	0x2ce
 550 031f 0C       		.byte	0xc
 551 0320 13       		.uleb128 0x13
 552 0321 723400   		.ascii	"r4\000"
 553 0324 07       		.byte	0x7
 554 0325 A9       		.byte	0xa9
 555 0326 CE020000 		.4byte	0x2ce
 556 032a 10       		.byte	0x10
 557 032b 13       		.uleb128 0x13
 558 032c 723500   		.ascii	"r5\000"
 559 032f 07       		.byte	0x7
 560 0330 AA       		.byte	0xaa
 561 0331 CE020000 		.4byte	0x2ce
 562 0335 14       		.byte	0x14
 563 0336 13       		.uleb128 0x13
 564 0337 723600   		.ascii	"r6\000"
 565 033a 07       		.byte	0x7
 566 033b AB       		.byte	0xab
ARM GAS  /tmp/ccrSvMhU.s 			page 11


 567 033c CE020000 		.4byte	0x2ce
 568 0340 18       		.byte	0x18
 569 0341 13       		.uleb128 0x13
 570 0342 723700   		.ascii	"r7\000"
 571 0345 07       		.byte	0x7
 572 0346 AC       		.byte	0xac
 573 0347 CE020000 		.4byte	0x2ce
 574 034b 1C       		.byte	0x1c
 575 034c 13       		.uleb128 0x13
 576 034d 6C7200   		.ascii	"lr\000"
 577 0350 07       		.byte	0x7
 578 0351 AD       		.byte	0xad
 579 0352 CE020000 		.4byte	0x2ce
 580 0356 20       		.byte	0x20
 581 0357 00       		.byte	0
 582 0358 0E       		.uleb128 0xe
 583 0359 97030000 		.4byte	.LASF44
 584 035d 03       		.byte	0x3
 585 035e 3701     		.2byte	0x137
 586 0360 E6020000 		.4byte	0x2e6
 587 0364 0E       		.uleb128 0xe
 588 0365 AB000000 		.4byte	.LASF45
 589 0369 03       		.byte	0x3
 590 036a 3C01     		.2byte	0x13c
 591 036c 70030000 		.4byte	0x370
 592 0370 05       		.uleb128 0x5
 593 0371 CD000000 		.4byte	.LASF46
 594 0375 04       		.byte	0x4
 595 0376 03       		.byte	0x3
 596 0377 4101     		.2byte	0x141
 597 0379 8B030000 		.4byte	0x38b
 598 037d 07       		.uleb128 0x7
 599 037e 636E7400 		.ascii	"cnt\000"
 600 0382 03       		.byte	0x3
 601 0383 4201     		.2byte	0x142
 602 0385 8B030000 		.4byte	0x38b
 603 0389 00       		.byte	0
 604 038a 00       		.byte	0
 605 038b 0D       		.uleb128 0xd
 606 038c 10010000 		.4byte	0x110
 607 0390 14       		.uleb128 0x14
 608 0391 04       		.byte	0x4
 609 0392 DB020000 		.4byte	0x2db
 610 0396 14       		.uleb128 0x14
 611 0397 04       		.byte	0x4
 612 0398 9C030000 		.4byte	0x39c
 613 039c 10       		.uleb128 0x10
 614 039d A1030000 		.4byte	0x3a1
 615 03a1 03       		.uleb128 0x3
 616 03a2 01       		.byte	0x1
 617 03a3 08       		.byte	0x8
 618 03a4 BE020000 		.4byte	.LASF47
 619 03a8 0E       		.uleb128 0xe
 620 03a9 53030000 		.4byte	.LASF48
 621 03ad 03       		.byte	0x3
 622 03ae 5D01     		.2byte	0x15d
 623 03b0 B4030000 		.4byte	0x3b4
ARM GAS  /tmp/ccrSvMhU.s 			page 12


 624 03b4 14       		.uleb128 0x14
 625 03b5 04       		.byte	0x4
 626 03b6 89000000 		.4byte	0x89
 627 03ba 15       		.uleb128 0x15
 628 03bb 04       		.byte	0x4
 629 03bc 03       		.byte	0x3
 630 03bd 6701     		.2byte	0x167
 631 03bf FE030000 		.4byte	0x3fe
 632 03c3 16       		.uleb128 0x16
 633 03c4 6D736700 		.ascii	"msg\000"
 634 03c8 03       		.byte	0x3
 635 03c9 6801     		.2byte	0x168
 636 03cb FA000000 		.4byte	0xfa
 637 03cf 16       		.uleb128 0x16
 638 03d0 7000     		.ascii	"p\000"
 639 03d2 03       		.byte	0x3
 640 03d3 6901     		.2byte	0x169
 641 03d5 D9020000 		.4byte	0x2d9
 642 03d9 16       		.uleb128 0x16
 643 03da 74727000 		.ascii	"trp\000"
 644 03de 03       		.byte	0x3
 645 03df 6A01     		.2byte	0x16a
 646 03e1 FE030000 		.4byte	0x3fe
 647 03e5 17       		.uleb128 0x17
 648 03e6 4E030000 		.4byte	.LASF49
 649 03ea 03       		.byte	0x3
 650 03eb 6B01     		.2byte	0x16b
 651 03ed 04040000 		.4byte	0x404
 652 03f1 17       		.uleb128 0x17
 653 03f2 1D020000 		.4byte	.LASF50
 654 03f6 03       		.byte	0x3
 655 03f7 6D01     		.2byte	0x16d
 656 03f9 05010000 		.4byte	0x105
 657 03fd 00       		.byte	0
 658 03fe 14       		.uleb128 0x14
 659 03ff 04       		.byte	0x4
 660 0400 A8030000 		.4byte	0x3a8
 661 0404 14       		.uleb128 0x14
 662 0405 04       		.byte	0x4
 663 0406 64030000 		.4byte	0x364
 664 040a 14       		.uleb128 0x14
 665 040b 04       		.byte	0x4
 666 040c 58030000 		.4byte	0x358
 667 0410 0D       		.uleb128 0xd
 668 0411 1B010000 		.4byte	0x11b
 669 0415 0E       		.uleb128 0xe
 670 0416 DB000000 		.4byte	.LASF51
 671 041a 03       		.byte	0x3
 672 041b 7F01     		.2byte	0x17f
 673 041d 21040000 		.4byte	0x421
 674 0421 05       		.uleb128 0x5
 675 0422 A0000000 		.4byte	.LASF52
 676 0426 40       		.byte	0x40
 677 0427 03       		.byte	0x3
 678 0428 8601     		.2byte	0x186
 679 042a 70040000 		.4byte	0x470
 680 042e 06       		.uleb128 0x6
ARM GAS  /tmp/ccrSvMhU.s 			page 13


 681 042f 7F020000 		.4byte	.LASF53
 682 0433 03       		.byte	0x3
 683 0434 8A01     		.2byte	0x18a
 684 0436 B4030000 		.4byte	0x3b4
 685 043a 00       		.byte	0
 686 043b 06       		.uleb128 0x6
 687 043c D0030000 		.4byte	.LASF54
 688 0440 03       		.byte	0x3
 689 0441 9001     		.2byte	0x190
 690 0443 B4030000 		.4byte	0x3b4
 691 0447 04       		.byte	0x4
 692 0448 06       		.uleb128 0x6
 693 0449 B7000000 		.4byte	.LASF55
 694 044d 03       		.byte	0x3
 695 044e 9501     		.2byte	0x195
 696 0450 10040000 		.4byte	0x410
 697 0454 08       		.byte	0x8
 698 0455 06       		.uleb128 0x6
 699 0456 A0030000 		.4byte	.LASF56
 700 045a 03       		.byte	0x3
 701 045b A401     		.2byte	0x1a4
 702 045d 70040000 		.4byte	0x470
 703 0461 0C       		.byte	0xc
 704 0462 06       		.uleb128 0x6
 705 0463 A8030000 		.4byte	.LASF57
 706 0467 03       		.byte	0x3
 707 0468 AD01     		.2byte	0x1ad
 708 046a 80040000 		.4byte	0x480
 709 046e 3C       		.byte	0x3c
 710 046f 00       		.byte	0
 711 0470 0B       		.uleb128 0xb
 712 0471 89000000 		.4byte	0x89
 713 0475 80040000 		.4byte	0x480
 714 0479 0C       		.uleb128 0xc
 715 047a C8010000 		.4byte	0x1c8
 716 047e 01       		.byte	0x1
 717 047f 00       		.byte	0
 718 0480 0D       		.uleb128 0xd
 719 0481 96030000 		.4byte	0x396
 720 0485 03       		.uleb128 0x3
 721 0486 01       		.byte	0x1
 722 0487 02       		.byte	0x2
 723 0488 DF020000 		.4byte	.LASF58
 724 048c 18       		.uleb128 0x18
 725 048d 87020000 		.4byte	.LASF60
 726 0491 01       		.byte	0x1
 727 0492 39       		.byte	0x39
 728 0493 00000000 		.4byte	.LFB81
 729 0497 30000000 		.4byte	.LFE81-.LFB81
 730 049b 01       		.uleb128 0x1
 731 049c 9C       		.byte	0x9c
 732 049d BE040000 		.4byte	0x4be
 733 04a1 19       		.uleb128 0x19
 734 04a2 6E00     		.ascii	"n\000"
 735 04a4 01       		.byte	0x1
 736 04a5 39       		.byte	0x39
 737 04a6 6C000000 		.4byte	0x6c
ARM GAS  /tmp/ccrSvMhU.s 			page 14


 738 04aa 00000000 		.4byte	.LLST0
 739 04ae 1A       		.uleb128 0x1a
 740 04af C3030000 		.4byte	.LASF59
 741 04b3 01       		.byte	0x1
 742 04b4 39       		.byte	0x39
 743 04b5 6C000000 		.4byte	0x6c
 744 04b9 21000000 		.4byte	.LLST1
 745 04bd 00       		.byte	0
 746 04be 18       		.uleb128 0x18
 747 04bf 37000000 		.4byte	.LASF61
 748 04c3 01       		.byte	0x1
 749 04c4 4A       		.byte	0x4a
 750 04c5 00000000 		.4byte	.LFB82
 751 04c9 24000000 		.4byte	.LFE82-.LFB82
 752 04cd 01       		.uleb128 0x1
 753 04ce 9C       		.byte	0x9c
 754 04cf E1040000 		.4byte	0x4e1
 755 04d3 19       		.uleb128 0x19
 756 04d4 6E00     		.ascii	"n\000"
 757 04d6 01       		.byte	0x1
 758 04d7 4A       		.byte	0x4a
 759 04d8 6C000000 		.4byte	0x6c
 760 04dc 42000000 		.4byte	.LLST2
 761 04e0 00       		.byte	0
 762 04e1 18       		.uleb128 0x18
 763 04e2 00020000 		.4byte	.LASF62
 764 04e6 01       		.byte	0x1
 765 04e7 5A       		.byte	0x5a
 766 04e8 00000000 		.4byte	.LFB83
 767 04ec 14000000 		.4byte	.LFE83-.LFB83
 768 04f0 01       		.uleb128 0x1
 769 04f1 9C       		.byte	0x9c
 770 04f2 1E050000 		.4byte	0x51e
 771 04f6 1A       		.uleb128 0x1a
 772 04f7 6E000000 		.4byte	.LASF63
 773 04fb 01       		.byte	0x1
 774 04fc 5A       		.byte	0x5a
 775 04fd 6C000000 		.4byte	0x6c
 776 0501 71000000 		.4byte	.LLST3
 777 0505 1A       		.uleb128 0x1a
 778 0506 C3030000 		.4byte	.LASF59
 779 050a 01       		.byte	0x1
 780 050b 5A       		.byte	0x5a
 781 050c 6C000000 		.4byte	0x6c
 782 0510 92000000 		.4byte	.LLST4
 783 0514 1B       		.uleb128 0x1b
 784 0515 98020000 		.4byte	.LASF68
 785 0519 2E050000 		.4byte	0x52e
 786 051d 00       		.byte	0
 787 051e 0B       		.uleb128 0xb
 788 051f A1030000 		.4byte	0x3a1
 789 0523 2E050000 		.4byte	0x52e
 790 0527 0C       		.uleb128 0xc
 791 0528 C8010000 		.4byte	0x1c8
 792 052c 1C       		.byte	0x1c
 793 052d 00       		.byte	0
 794 052e 10       		.uleb128 0x10
ARM GAS  /tmp/ccrSvMhU.s 			page 15


 795 052f 1E050000 		.4byte	0x51e
 796 0533 18       		.uleb128 0x18
 797 0534 C8020000 		.4byte	.LASF64
 798 0538 01       		.byte	0x1
 799 0539 6D       		.byte	0x6d
 800 053a 00000000 		.4byte	.LFB84
 801 053e 1C000000 		.4byte	.LFE84-.LFB84
 802 0542 01       		.uleb128 0x1
 803 0543 9C       		.byte	0x9c
 804 0544 56050000 		.4byte	0x556
 805 0548 19       		.uleb128 0x19
 806 0549 6E00     		.ascii	"n\000"
 807 054b 01       		.byte	0x1
 808 054c 6D       		.byte	0x6d
 809 054d 6C000000 		.4byte	0x6c
 810 0551 B3000000 		.4byte	.LLST5
 811 0555 00       		.byte	0
 812 0556 1C       		.uleb128 0x1c
 813 0557 6E696C00 		.ascii	"nil\000"
 814 055b 03       		.byte	0x3
 815 055c C203     		.2byte	0x3c2
 816 055e 15040000 		.4byte	0x415
 817 0562 00       		.byte	0
 818              		.section	.debug_abbrev,"",%progbits
 819              	.Ldebug_abbrev0:
 820 0000 01       		.uleb128 0x1
 821 0001 11       		.uleb128 0x11
 822 0002 01       		.byte	0x1
 823 0003 25       		.uleb128 0x25
 824 0004 0E       		.uleb128 0xe
 825 0005 13       		.uleb128 0x13
 826 0006 0B       		.uleb128 0xb
 827 0007 03       		.uleb128 0x3
 828 0008 0E       		.uleb128 0xe
 829 0009 1B       		.uleb128 0x1b
 830 000a 0E       		.uleb128 0xe
 831 000b 55       		.uleb128 0x55
 832 000c 17       		.uleb128 0x17
 833 000d 11       		.uleb128 0x11
 834 000e 01       		.uleb128 0x1
 835 000f 10       		.uleb128 0x10
 836 0010 17       		.uleb128 0x17
 837 0011 00       		.byte	0
 838 0012 00       		.byte	0
 839 0013 02       		.uleb128 0x2
 840 0014 24       		.uleb128 0x24
 841 0015 00       		.byte	0
 842 0016 0B       		.uleb128 0xb
 843 0017 0B       		.uleb128 0xb
 844 0018 3E       		.uleb128 0x3e
 845 0019 0B       		.uleb128 0xb
 846 001a 03       		.uleb128 0x3
 847 001b 08       		.uleb128 0x8
 848 001c 00       		.byte	0
 849 001d 00       		.byte	0
 850 001e 03       		.uleb128 0x3
 851 001f 24       		.uleb128 0x24
ARM GAS  /tmp/ccrSvMhU.s 			page 16


 852 0020 00       		.byte	0
 853 0021 0B       		.uleb128 0xb
 854 0022 0B       		.uleb128 0xb
 855 0023 3E       		.uleb128 0x3e
 856 0024 0B       		.uleb128 0xb
 857 0025 03       		.uleb128 0x3
 858 0026 0E       		.uleb128 0xe
 859 0027 00       		.byte	0
 860 0028 00       		.byte	0
 861 0029 04       		.uleb128 0x4
 862 002a 16       		.uleb128 0x16
 863 002b 00       		.byte	0
 864 002c 03       		.uleb128 0x3
 865 002d 0E       		.uleb128 0xe
 866 002e 3A       		.uleb128 0x3a
 867 002f 0B       		.uleb128 0xb
 868 0030 3B       		.uleb128 0x3b
 869 0031 0B       		.uleb128 0xb
 870 0032 49       		.uleb128 0x49
 871 0033 13       		.uleb128 0x13
 872 0034 00       		.byte	0
 873 0035 00       		.byte	0
 874 0036 05       		.uleb128 0x5
 875 0037 13       		.uleb128 0x13
 876 0038 01       		.byte	0x1
 877 0039 03       		.uleb128 0x3
 878 003a 0E       		.uleb128 0xe
 879 003b 0B       		.uleb128 0xb
 880 003c 0B       		.uleb128 0xb
 881 003d 3A       		.uleb128 0x3a
 882 003e 0B       		.uleb128 0xb
 883 003f 3B       		.uleb128 0x3b
 884 0040 05       		.uleb128 0x5
 885 0041 01       		.uleb128 0x1
 886 0042 13       		.uleb128 0x13
 887 0043 00       		.byte	0
 888 0044 00       		.byte	0
 889 0045 06       		.uleb128 0x6
 890 0046 0D       		.uleb128 0xd
 891 0047 00       		.byte	0
 892 0048 03       		.uleb128 0x3
 893 0049 0E       		.uleb128 0xe
 894 004a 3A       		.uleb128 0x3a
 895 004b 0B       		.uleb128 0xb
 896 004c 3B       		.uleb128 0x3b
 897 004d 05       		.uleb128 0x5
 898 004e 49       		.uleb128 0x49
 899 004f 13       		.uleb128 0x13
 900 0050 38       		.uleb128 0x38
 901 0051 0B       		.uleb128 0xb
 902 0052 00       		.byte	0
 903 0053 00       		.byte	0
 904 0054 07       		.uleb128 0x7
 905 0055 0D       		.uleb128 0xd
 906 0056 00       		.byte	0
 907 0057 03       		.uleb128 0x3
 908 0058 08       		.uleb128 0x8
ARM GAS  /tmp/ccrSvMhU.s 			page 17


 909 0059 3A       		.uleb128 0x3a
 910 005a 0B       		.uleb128 0xb
 911 005b 3B       		.uleb128 0x3b
 912 005c 05       		.uleb128 0x5
 913 005d 49       		.uleb128 0x49
 914 005e 13       		.uleb128 0x13
 915 005f 38       		.uleb128 0x38
 916 0060 0B       		.uleb128 0xb
 917 0061 00       		.byte	0
 918 0062 00       		.byte	0
 919 0063 08       		.uleb128 0x8
 920 0064 13       		.uleb128 0x13
 921 0065 01       		.byte	0x1
 922 0066 0B       		.uleb128 0xb
 923 0067 05       		.uleb128 0x5
 924 0068 3A       		.uleb128 0x3a
 925 0069 0B       		.uleb128 0xb
 926 006a 3B       		.uleb128 0x3b
 927 006b 05       		.uleb128 0x5
 928 006c 01       		.uleb128 0x1
 929 006d 13       		.uleb128 0x13
 930 006e 00       		.byte	0
 931 006f 00       		.byte	0
 932 0070 09       		.uleb128 0x9
 933 0071 0D       		.uleb128 0xd
 934 0072 00       		.byte	0
 935 0073 03       		.uleb128 0x3
 936 0074 0E       		.uleb128 0xe
 937 0075 3A       		.uleb128 0x3a
 938 0076 0B       		.uleb128 0xb
 939 0077 3B       		.uleb128 0x3b
 940 0078 05       		.uleb128 0x5
 941 0079 49       		.uleb128 0x49
 942 007a 13       		.uleb128 0x13
 943 007b 38       		.uleb128 0x38
 944 007c 05       		.uleb128 0x5
 945 007d 00       		.byte	0
 946 007e 00       		.byte	0
 947 007f 0A       		.uleb128 0xa
 948 0080 0D       		.uleb128 0xd
 949 0081 00       		.byte	0
 950 0082 03       		.uleb128 0x3
 951 0083 08       		.uleb128 0x8
 952 0084 3A       		.uleb128 0x3a
 953 0085 0B       		.uleb128 0xb
 954 0086 3B       		.uleb128 0x3b
 955 0087 05       		.uleb128 0x5
 956 0088 49       		.uleb128 0x49
 957 0089 13       		.uleb128 0x13
 958 008a 38       		.uleb128 0x38
 959 008b 05       		.uleb128 0x5
 960 008c 00       		.byte	0
 961 008d 00       		.byte	0
 962 008e 0B       		.uleb128 0xb
 963 008f 01       		.uleb128 0x1
 964 0090 01       		.byte	0x1
 965 0091 49       		.uleb128 0x49
ARM GAS  /tmp/ccrSvMhU.s 			page 18


 966 0092 13       		.uleb128 0x13
 967 0093 01       		.uleb128 0x1
 968 0094 13       		.uleb128 0x13
 969 0095 00       		.byte	0
 970 0096 00       		.byte	0
 971 0097 0C       		.uleb128 0xc
 972 0098 21       		.uleb128 0x21
 973 0099 00       		.byte	0
 974 009a 49       		.uleb128 0x49
 975 009b 13       		.uleb128 0x13
 976 009c 2F       		.uleb128 0x2f
 977 009d 0B       		.uleb128 0xb
 978 009e 00       		.byte	0
 979 009f 00       		.byte	0
 980 00a0 0D       		.uleb128 0xd
 981 00a1 35       		.uleb128 0x35
 982 00a2 00       		.byte	0
 983 00a3 49       		.uleb128 0x49
 984 00a4 13       		.uleb128 0x13
 985 00a5 00       		.byte	0
 986 00a6 00       		.byte	0
 987 00a7 0E       		.uleb128 0xe
 988 00a8 16       		.uleb128 0x16
 989 00a9 00       		.byte	0
 990 00aa 03       		.uleb128 0x3
 991 00ab 0E       		.uleb128 0xe
 992 00ac 3A       		.uleb128 0x3a
 993 00ad 0B       		.uleb128 0xb
 994 00ae 3B       		.uleb128 0x3b
 995 00af 05       		.uleb128 0x5
 996 00b0 49       		.uleb128 0x49
 997 00b1 13       		.uleb128 0x13
 998 00b2 00       		.byte	0
 999 00b3 00       		.byte	0
 1000 00b4 0F       		.uleb128 0xf
 1001 00b5 13       		.uleb128 0x13
 1002 00b6 01       		.byte	0x1
 1003 00b7 0B       		.uleb128 0xb
 1004 00b8 0B       		.uleb128 0xb
 1005 00b9 3A       		.uleb128 0x3a
 1006 00ba 0B       		.uleb128 0xb
 1007 00bb 3B       		.uleb128 0x3b
 1008 00bc 05       		.uleb128 0x5
 1009 00bd 01       		.uleb128 0x1
 1010 00be 13       		.uleb128 0x13
 1011 00bf 00       		.byte	0
 1012 00c0 00       		.byte	0
 1013 00c1 10       		.uleb128 0x10
 1014 00c2 26       		.uleb128 0x26
 1015 00c3 00       		.byte	0
 1016 00c4 49       		.uleb128 0x49
 1017 00c5 13       		.uleb128 0x13
 1018 00c6 00       		.byte	0
 1019 00c7 00       		.byte	0
 1020 00c8 11       		.uleb128 0x11
 1021 00c9 0F       		.uleb128 0xf
 1022 00ca 00       		.byte	0
ARM GAS  /tmp/ccrSvMhU.s 			page 19


 1023 00cb 0B       		.uleb128 0xb
 1024 00cc 0B       		.uleb128 0xb
 1025 00cd 00       		.byte	0
 1026 00ce 00       		.byte	0
 1027 00cf 12       		.uleb128 0x12
 1028 00d0 13       		.uleb128 0x13
 1029 00d1 01       		.byte	0x1
 1030 00d2 03       		.uleb128 0x3
 1031 00d3 0E       		.uleb128 0xe
 1032 00d4 0B       		.uleb128 0xb
 1033 00d5 0B       		.uleb128 0xb
 1034 00d6 3A       		.uleb128 0x3a
 1035 00d7 0B       		.uleb128 0xb
 1036 00d8 3B       		.uleb128 0x3b
 1037 00d9 0B       		.uleb128 0xb
 1038 00da 01       		.uleb128 0x1
 1039 00db 13       		.uleb128 0x13
 1040 00dc 00       		.byte	0
 1041 00dd 00       		.byte	0
 1042 00de 13       		.uleb128 0x13
 1043 00df 0D       		.uleb128 0xd
 1044 00e0 00       		.byte	0
 1045 00e1 03       		.uleb128 0x3
 1046 00e2 08       		.uleb128 0x8
 1047 00e3 3A       		.uleb128 0x3a
 1048 00e4 0B       		.uleb128 0xb
 1049 00e5 3B       		.uleb128 0x3b
 1050 00e6 0B       		.uleb128 0xb
 1051 00e7 49       		.uleb128 0x49
 1052 00e8 13       		.uleb128 0x13
 1053 00e9 38       		.uleb128 0x38
 1054 00ea 0B       		.uleb128 0xb
 1055 00eb 00       		.byte	0
 1056 00ec 00       		.byte	0
 1057 00ed 14       		.uleb128 0x14
 1058 00ee 0F       		.uleb128 0xf
 1059 00ef 00       		.byte	0
 1060 00f0 0B       		.uleb128 0xb
 1061 00f1 0B       		.uleb128 0xb
 1062 00f2 49       		.uleb128 0x49
 1063 00f3 13       		.uleb128 0x13
 1064 00f4 00       		.byte	0
 1065 00f5 00       		.byte	0
 1066 00f6 15       		.uleb128 0x15
 1067 00f7 17       		.uleb128 0x17
 1068 00f8 01       		.byte	0x1
 1069 00f9 0B       		.uleb128 0xb
 1070 00fa 0B       		.uleb128 0xb
 1071 00fb 3A       		.uleb128 0x3a
 1072 00fc 0B       		.uleb128 0xb
 1073 00fd 3B       		.uleb128 0x3b
 1074 00fe 05       		.uleb128 0x5
 1075 00ff 01       		.uleb128 0x1
 1076 0100 13       		.uleb128 0x13
 1077 0101 00       		.byte	0
 1078 0102 00       		.byte	0
 1079 0103 16       		.uleb128 0x16
ARM GAS  /tmp/ccrSvMhU.s 			page 20


 1080 0104 0D       		.uleb128 0xd
 1081 0105 00       		.byte	0
 1082 0106 03       		.uleb128 0x3
 1083 0107 08       		.uleb128 0x8
 1084 0108 3A       		.uleb128 0x3a
 1085 0109 0B       		.uleb128 0xb
 1086 010a 3B       		.uleb128 0x3b
 1087 010b 05       		.uleb128 0x5
 1088 010c 49       		.uleb128 0x49
 1089 010d 13       		.uleb128 0x13
 1090 010e 00       		.byte	0
 1091 010f 00       		.byte	0
 1092 0110 17       		.uleb128 0x17
 1093 0111 0D       		.uleb128 0xd
 1094 0112 00       		.byte	0
 1095 0113 03       		.uleb128 0x3
 1096 0114 0E       		.uleb128 0xe
 1097 0115 3A       		.uleb128 0x3a
 1098 0116 0B       		.uleb128 0xb
 1099 0117 3B       		.uleb128 0x3b
 1100 0118 05       		.uleb128 0x5
 1101 0119 49       		.uleb128 0x49
 1102 011a 13       		.uleb128 0x13
 1103 011b 00       		.byte	0
 1104 011c 00       		.byte	0
 1105 011d 18       		.uleb128 0x18
 1106 011e 2E       		.uleb128 0x2e
 1107 011f 01       		.byte	0x1
 1108 0120 3F       		.uleb128 0x3f
 1109 0121 19       		.uleb128 0x19
 1110 0122 03       		.uleb128 0x3
 1111 0123 0E       		.uleb128 0xe
 1112 0124 3A       		.uleb128 0x3a
 1113 0125 0B       		.uleb128 0xb
 1114 0126 3B       		.uleb128 0x3b
 1115 0127 0B       		.uleb128 0xb
 1116 0128 27       		.uleb128 0x27
 1117 0129 19       		.uleb128 0x19
 1118 012a 11       		.uleb128 0x11
 1119 012b 01       		.uleb128 0x1
 1120 012c 12       		.uleb128 0x12
 1121 012d 06       		.uleb128 0x6
 1122 012e 40       		.uleb128 0x40
 1123 012f 18       		.uleb128 0x18
 1124 0130 9742     		.uleb128 0x2117
 1125 0132 19       		.uleb128 0x19
 1126 0133 01       		.uleb128 0x1
 1127 0134 13       		.uleb128 0x13
 1128 0135 00       		.byte	0
 1129 0136 00       		.byte	0
 1130 0137 19       		.uleb128 0x19
 1131 0138 05       		.uleb128 0x5
 1132 0139 00       		.byte	0
 1133 013a 03       		.uleb128 0x3
 1134 013b 08       		.uleb128 0x8
 1135 013c 3A       		.uleb128 0x3a
 1136 013d 0B       		.uleb128 0xb
ARM GAS  /tmp/ccrSvMhU.s 			page 21


 1137 013e 3B       		.uleb128 0x3b
 1138 013f 0B       		.uleb128 0xb
 1139 0140 49       		.uleb128 0x49
 1140 0141 13       		.uleb128 0x13
 1141 0142 02       		.uleb128 0x2
 1142 0143 17       		.uleb128 0x17
 1143 0144 00       		.byte	0
 1144 0145 00       		.byte	0
 1145 0146 1A       		.uleb128 0x1a
 1146 0147 05       		.uleb128 0x5
 1147 0148 00       		.byte	0
 1148 0149 03       		.uleb128 0x3
 1149 014a 0E       		.uleb128 0xe
 1150 014b 3A       		.uleb128 0x3a
 1151 014c 0B       		.uleb128 0xb
 1152 014d 3B       		.uleb128 0x3b
 1153 014e 0B       		.uleb128 0xb
 1154 014f 49       		.uleb128 0x49
 1155 0150 13       		.uleb128 0x13
 1156 0151 02       		.uleb128 0x2
 1157 0152 17       		.uleb128 0x17
 1158 0153 00       		.byte	0
 1159 0154 00       		.byte	0
 1160 0155 1B       		.uleb128 0x1b
 1161 0156 34       		.uleb128 0x34
 1162 0157 00       		.byte	0
 1163 0158 03       		.uleb128 0x3
 1164 0159 0E       		.uleb128 0xe
 1165 015a 49       		.uleb128 0x49
 1166 015b 13       		.uleb128 0x13
 1167 015c 34       		.uleb128 0x34
 1168 015d 19       		.uleb128 0x19
 1169 015e 00       		.byte	0
 1170 015f 00       		.byte	0
 1171 0160 1C       		.uleb128 0x1c
 1172 0161 34       		.uleb128 0x34
 1173 0162 00       		.byte	0
 1174 0163 03       		.uleb128 0x3
 1175 0164 08       		.uleb128 0x8
 1176 0165 3A       		.uleb128 0x3a
 1177 0166 0B       		.uleb128 0xb
 1178 0167 3B       		.uleb128 0x3b
 1179 0168 05       		.uleb128 0x5
 1180 0169 49       		.uleb128 0x49
 1181 016a 13       		.uleb128 0x13
 1182 016b 3F       		.uleb128 0x3f
 1183 016c 19       		.uleb128 0x19
 1184 016d 3C       		.uleb128 0x3c
 1185 016e 19       		.uleb128 0x19
 1186 016f 00       		.byte	0
 1187 0170 00       		.byte	0
 1188 0171 00       		.byte	0
 1189              		.section	.debug_loc,"",%progbits
 1190              	.Ldebug_loc0:
 1191              	.LLST0:
 1192 0000 00000000 		.4byte	.LVL0
 1193 0004 1A000000 		.4byte	.LVL2
ARM GAS  /tmp/ccrSvMhU.s 			page 22


 1194 0008 0100     		.2byte	0x1
 1195 000a 50       		.byte	0x50
 1196 000b 1A000000 		.4byte	.LVL2
 1197 000f 30000000 		.4byte	.LFE81
 1198 0013 0400     		.2byte	0x4
 1199 0015 F3       		.byte	0xf3
 1200 0016 01       		.uleb128 0x1
 1201 0017 50       		.byte	0x50
 1202 0018 9F       		.byte	0x9f
 1203 0019 00000000 		.4byte	0
 1204 001d 00000000 		.4byte	0
 1205              	.LLST1:
 1206 0021 00000000 		.4byte	.LVL0
 1207 0025 08000000 		.4byte	.LVL1
 1208 0029 0100     		.2byte	0x1
 1209 002b 51       		.byte	0x51
 1210 002c 08000000 		.4byte	.LVL1
 1211 0030 30000000 		.4byte	.LFE81
 1212 0034 0400     		.2byte	0x4
 1213 0036 F3       		.byte	0xf3
 1214 0037 01       		.uleb128 0x1
 1215 0038 51       		.byte	0x51
 1216 0039 9F       		.byte	0x9f
 1217 003a 00000000 		.4byte	0
 1218 003e 00000000 		.4byte	0
 1219              	.LLST2:
 1220 0042 00000000 		.4byte	.LVL3
 1221 0046 18000000 		.4byte	.LVL4
 1222 004a 0100     		.2byte	0x1
 1223 004c 50       		.byte	0x50
 1224 004d 18000000 		.4byte	.LVL4
 1225 0051 1A000000 		.4byte	.LVL5
 1226 0055 0400     		.2byte	0x4
 1227 0057 70       		.byte	0x70
 1228 0058 C07E     		.sleb128 -192
 1229 005a 9F       		.byte	0x9f
 1230 005b 1A000000 		.4byte	.LVL5
 1231 005f 24000000 		.4byte	.LFE82
 1232 0063 0400     		.2byte	0x4
 1233 0065 F3       		.byte	0xf3
 1234 0066 01       		.uleb128 0x1
 1235 0067 50       		.byte	0x50
 1236 0068 9F       		.byte	0x9f
 1237 0069 00000000 		.4byte	0
 1238 006d 00000000 		.4byte	0
 1239              	.LLST3:
 1240 0071 00000000 		.4byte	.LVL6
 1241 0075 04000000 		.4byte	.LVL7
 1242 0079 0100     		.2byte	0x1
 1243 007b 50       		.byte	0x50
 1244 007c 04000000 		.4byte	.LVL7
 1245 0080 14000000 		.4byte	.LFE83
 1246 0084 0400     		.2byte	0x4
 1247 0086 F3       		.byte	0xf3
 1248 0087 01       		.uleb128 0x1
 1249 0088 50       		.byte	0x50
 1250 0089 9F       		.byte	0x9f
ARM GAS  /tmp/ccrSvMhU.s 			page 23


 1251 008a 00000000 		.4byte	0
 1252 008e 00000000 		.4byte	0
 1253              	.LLST4:
 1254 0092 00000000 		.4byte	.LVL6
 1255 0096 08000000 		.4byte	.LVL8
 1256 009a 0100     		.2byte	0x1
 1257 009c 51       		.byte	0x51
 1258 009d 08000000 		.4byte	.LVL8
 1259 00a1 14000000 		.4byte	.LFE83
 1260 00a5 0400     		.2byte	0x4
 1261 00a7 F3       		.byte	0xf3
 1262 00a8 01       		.uleb128 0x1
 1263 00a9 51       		.byte	0x51
 1264 00aa 9F       		.byte	0x9f
 1265 00ab 00000000 		.4byte	0
 1266 00af 00000000 		.4byte	0
 1267              	.LLST5:
 1268 00b3 00000000 		.4byte	.LVL9
 1269 00b7 06000000 		.4byte	.LVL10
 1270 00bb 0100     		.2byte	0x1
 1271 00bd 50       		.byte	0x50
 1272 00be 06000000 		.4byte	.LVL10
 1273 00c2 1C000000 		.4byte	.LFE84
 1274 00c6 0400     		.2byte	0x4
 1275 00c8 F3       		.byte	0xf3
 1276 00c9 01       		.uleb128 0x1
 1277 00ca 50       		.byte	0x50
 1278 00cb 9F       		.byte	0x9f
 1279 00cc 00000000 		.4byte	0
 1280 00d0 00000000 		.4byte	0
 1281              		.section	.debug_aranges,"",%progbits
 1282 0000 34000000 		.4byte	0x34
 1283 0004 0200     		.2byte	0x2
 1284 0006 00000000 		.4byte	.Ldebug_info0
 1285 000a 04       		.byte	0x4
 1286 000b 00       		.byte	0
 1287 000c 0000     		.2byte	0
 1288 000e 0000     		.2byte	0
 1289 0010 00000000 		.4byte	.LFB81
 1290 0014 30000000 		.4byte	.LFE81-.LFB81
 1291 0018 00000000 		.4byte	.LFB82
 1292 001c 24000000 		.4byte	.LFE82-.LFB82
 1293 0020 00000000 		.4byte	.LFB83
 1294 0024 14000000 		.4byte	.LFE83-.LFB83
 1295 0028 00000000 		.4byte	.LFB84
 1296 002c 1C000000 		.4byte	.LFE84-.LFB84
 1297 0030 00000000 		.4byte	0
 1298 0034 00000000 		.4byte	0
 1299              		.section	.debug_ranges,"",%progbits
 1300              	.Ldebug_ranges0:
 1301 0000 00000000 		.4byte	.LFB81
 1302 0004 30000000 		.4byte	.LFE81
 1303 0008 00000000 		.4byte	.LFB82
 1304 000c 24000000 		.4byte	.LFE82
 1305 0010 00000000 		.4byte	.LFB83
 1306 0014 14000000 		.4byte	.LFE83
 1307 0018 00000000 		.4byte	.LFB84
ARM GAS  /tmp/ccrSvMhU.s 			page 24


 1308 001c 1C000000 		.4byte	.LFE84
 1309 0020 00000000 		.4byte	0
 1310 0024 00000000 		.4byte	0
 1311              		.section	.debug_line,"",%progbits
 1312              	.Ldebug_line0:
 1313 0000 54010000 		.section	.debug_str,"MS",%progbits,1
 1313      02000101 
 1313      00000201 
 1313      FB0E0D00 
 1313      01010101 
 1314              	.LASF11:
 1315 0000 74687265 		.ascii	"thread_t\000"
 1315      61645F74 
 1315      00
 1316              	.LASF15:
 1317 0009 65706D61 		.ascii	"epmask\000"
 1317      736B00
 1318              	.LASF13:
 1319 0010 73746174 		.ascii	"state\000"
 1319      6500
 1320              	.LASF9:
 1321 0016 75696E74 		.ascii	"uint64_t\000"
 1321      36345F74 
 1321      00
 1322              	.LASF2:
 1323 001f 73686F72 		.ascii	"short int\000"
 1323      7420696E 
 1323      7400
 1324              	.LASF31:
 1325 0029 73697A65 		.ascii	"sizetype\000"
 1325      74797065 
 1325      00
 1326              	.LASF26:
 1327 0032 49535052 		.ascii	"ISPR\000"
 1327      00
 1328              	.LASF61:
 1329 0037 6E766963 		.ascii	"nvicDisableVector\000"
 1329      44697361 
 1329      626C6556 
 1329      6563746F 
 1329      7200
 1330              	.LASF3:
 1331 0049 6C6F6E67 		.ascii	"long long int\000"
 1331      206C6F6E 
 1331      6720696E 
 1331      7400
 1332              	.LASF19:
 1333 0057 6576656E 		.ascii	"eventmask_t\000"
 1333      746D6173 
 1333      6B5F7400 
 1334              	.LASF42:
 1335 0063 6E696C5F 		.ascii	"nil_thread\000"
 1335      74687265 
 1335      616400
 1336              	.LASF63:
 1337 006e 68616E64 		.ascii	"handler\000"
 1337      6C657200 
ARM GAS  /tmp/ccrSvMhU.s 			page 25


 1338              	.LASF33:
 1339 0076 43505549 		.ascii	"CPUID\000"
 1339      4400
 1340              	.LASF23:
 1341 007c 52455345 		.ascii	"RESERVED0\000"
 1341      52564544 
 1341      3000
 1342              	.LASF40:
 1343 0086 72656761 		.ascii	"regarm_t\000"
 1343      726D5F74 
 1343      00
 1344              	.LASF5:
 1345 008f 75696E74 		.ascii	"uint8_t\000"
 1345      385F7400 
 1346              	.LASF39:
 1347 0097 5343425F 		.ascii	"SCB_Type\000"
 1347      54797065 
 1347      00
 1348              	.LASF52:
 1349 00a0 6E696C5F 		.ascii	"nil_system\000"
 1349      73797374 
 1349      656D00
 1350              	.LASF45:
 1351 00ab 73656D61 		.ascii	"semaphore_t\000"
 1351      70686F72 
 1351      655F7400 
 1352              	.LASF55:
 1353 00b7 73797374 		.ascii	"systime\000"
 1353      696D6500 
 1354              	.LASF34:
 1355 00bf 49435352 		.ascii	"ICSR\000"
 1355      00
 1356              	.LASF25:
 1357 00c4 52534552 		.ascii	"RSERVED1\000"
 1357      56454431 
 1357      00
 1358              	.LASF46:
 1359 00cd 6E696C5F 		.ascii	"nil_semaphore\000"
 1359      73656D61 
 1359      70686F72 
 1359      6500
 1360              	.LASF51:
 1361 00db 6E696C5F 		.ascii	"nil_system_t\000"
 1361      73797374 
 1361      656D5F74 
 1361      00
 1362              	.LASF12:
 1363 00e8 63747870 		.ascii	"ctxp\000"
 1363      00
 1364              	.LASF65:
 1365 00ed 474E5520 		.ascii	"GNU C 4.9.2 -mcpu=cortex-m0 -mfloat-abi=soft -mfp16"
 1365      4320342E 
 1365      392E3220 
 1365      2D6D6370 
 1365      753D636F 
 1366 0120 2D666F72 		.ascii	"-format=none -mno-thumb-interwork -mthumb -mfloat-a"
 1366      6D61743D 
ARM GAS  /tmp/ccrSvMhU.s 			page 26


 1366      6E6F6E65 
 1366      202D6D6E 
 1366      6F2D7468 
 1367 0153 62693D73 		.ascii	"bi=soft -mfpu=vfpv3-d16 -mtls-dialect=gnu -ggdb -O3"
 1367      6F667420 
 1367      2D6D6670 
 1367      753D7666 
 1367      7076332D 
 1368 0186 202D7374 		.ascii	" -std=gnu99 -fomit-frame-pointer -falign-functions="
 1368      643D676E 
 1368      75393920 
 1368      2D666F6D 
 1368      69742D66 
 1369 01b9 3136202D 		.ascii	"16 -ffunction-sections -fdata-sections -fno-common\000"
 1369      6666756E 
 1369      6374696F 
 1369      6E2D7365 
 1369      6374696F 
 1370              	.LASF6:
 1371 01ec 756E7369 		.ascii	"unsigned char\000"
 1371      676E6564 
 1371      20636861 
 1371      7200
 1372              	.LASF36:
 1373 01fa 41495243 		.ascii	"AIRCR\000"
 1373      5200
 1374              	.LASF62:
 1375 0200 6E766963 		.ascii	"nvicSetSystemHandlerPriority\000"
 1375      53657453 
 1375      79737465 
 1375      6D48616E 
 1375      646C6572 
 1376              	.LASF50:
 1377 021d 65776D61 		.ascii	"ewmask\000"
 1377      736B00
 1378              	.LASF32:
 1379 0224 4E564943 		.ascii	"NVIC_Type\000"
 1379      5F547970 
 1379      6500
 1380              	.LASF28:
 1381 022e 49435052 		.ascii	"ICPR\000"
 1381      00
 1382              	.LASF1:
 1383 0233 7369676E 		.ascii	"signed char\000"
 1383      65642063 
 1383      68617200 
 1384              	.LASF4:
 1385 023f 696E7433 		.ascii	"int32_t\000"
 1385      325F7400 
 1386              	.LASF10:
 1387 0247 6C6F6E67 		.ascii	"long long unsigned int\000"
 1387      206C6F6E 
 1387      6720756E 
 1387      7369676E 
 1387      65642069 
 1388              	.LASF8:
 1389 025e 75696E74 		.ascii	"uint32_t\000"
ARM GAS  /tmp/ccrSvMhU.s 			page 27


 1389      33325F74 
 1389      00
 1390              	.LASF0:
 1391 0267 756E7369 		.ascii	"unsigned int\000"
 1391      676E6564 
 1391      20696E74 
 1391      00
 1392              	.LASF38:
 1393 0274 53484353 		.ascii	"SHCSR\000"
 1393      5200
 1394              	.LASF24:
 1395 027a 49434552 		.ascii	"ICER\000"
 1395      00
 1396              	.LASF53:
 1397 027f 63757272 		.ascii	"current\000"
 1397      656E7400 
 1398              	.LASF60:
 1399 0287 6E766963 		.ascii	"nvicEnableVector\000"
 1399      456E6162 
 1399      6C655665 
 1399      63746F72 
 1399      00
 1400              	.LASF68:
 1401 0298 5F5F6675 		.ascii	"__func__\000"
 1401      6E635F5F 
 1401      00
 1402              	.LASF7:
 1403 02a1 73686F72 		.ascii	"short unsigned int\000"
 1403      7420756E 
 1403      7369676E 
 1403      65642069 
 1403      6E7400
 1404              	.LASF21:
 1405 02b4 73797374 		.ascii	"systime_t\000"
 1405      696D655F 
 1405      7400
 1406              	.LASF47:
 1407 02be 63686172 		.ascii	"char\000"
 1407      00
 1408              	.LASF35:
 1409 02c3 56544F52 		.ascii	"VTOR\000"
 1409      00
 1410              	.LASF64:
 1411 02c8 6E766963 		.ascii	"nvicClearPending\000"
 1411      436C6561 
 1411      7250656E 
 1411      64696E67 
 1411      00
 1412              	.LASF20:
 1413 02d9 636E745F 		.ascii	"cnt_t\000"
 1413      7400
 1414              	.LASF58:
 1415 02df 5F426F6F 		.ascii	"_Bool\000"
 1415      6C00
 1416              	.LASF41:
 1417 02e5 73746B61 		.ascii	"stkalign_t\000"
 1417      6C69676E 
ARM GAS  /tmp/ccrSvMhU.s 			page 28


 1417      5F7400
 1418              	.LASF22:
 1419 02f0 49534552 		.ascii	"ISER\000"
 1419      00
 1420              	.LASF37:
 1421 02f5 52455345 		.ascii	"RESERVED1\000"
 1421      52564544 
 1421      3100
 1422              	.LASF27:
 1423 02ff 52455345 		.ascii	"RESERVED2\000"
 1423      52564544 
 1423      3200
 1424              	.LASF29:
 1425 0309 52455345 		.ascii	"RESERVED3\000"
 1425      52564544 
 1425      3300
 1426              	.LASF30:
 1427 0313 52455345 		.ascii	"RESERVED4\000"
 1427      52564544 
 1427      3400
 1428              	.LASF66:
 1429 031d 2E2E2F6F 		.ascii	"../os/hal/ports/common/ARMCMx/nvic.c\000"
 1429      732F6861 
 1429      6C2F706F 
 1429      7274732F 
 1429      636F6D6D 
 1430              	.LASF43:
 1431 0342 706F7274 		.ascii	"port_intctx\000"
 1431      5F696E74 
 1431      63747800 
 1432              	.LASF49:
 1433 034e 73656D70 		.ascii	"semp\000"
 1433      00
 1434              	.LASF48:
 1435 0353 74687265 		.ascii	"thread_reference_t\000"
 1435      61645F72 
 1435      65666572 
 1435      656E6365 
 1435      5F7400
 1436              	.LASF17:
 1437 0366 74737461 		.ascii	"tstate_t\000"
 1437      74655F74 
 1437      00
 1438              	.LASF67:
 1439 036f 2F686F6D 		.ascii	"/home/bunnie/code/chibi-chibios/orchard\000"
 1439      652F6275 
 1439      6E6E6965 
 1439      2F636F64 
 1439      652F6368 
 1440              	.LASF44:
 1441 0397 696E7463 		.ascii	"intctx_t\000"
 1441      74785F74 
 1441      00
 1442              	.LASF56:
 1443 03a0 74687265 		.ascii	"threads\000"
 1443      61647300 
 1444              	.LASF57:
ARM GAS  /tmp/ccrSvMhU.s 			page 29


 1445 03a8 6462675F 		.ascii	"dbg_panic_msg\000"
 1445      70616E69 
 1445      635F6D73 
 1445      6700
 1446              	.LASF16:
 1447 03b6 73746B6C 		.ascii	"stklim\000"
 1447      696D00
 1448              	.LASF18:
 1449 03bd 6D73675F 		.ascii	"msg_t\000"
 1449      7400
 1450              	.LASF59:
 1451 03c3 7072696F 		.ascii	"prio\000"
 1451      00
 1452              	.LASF14:
 1453 03c8 74696D65 		.ascii	"timeout\000"
 1453      6F757400 
 1454              	.LASF54:
 1455 03d0 6E657874 		.ascii	"next\000"
 1455      00
 1456              		.ident	"GCC: (Debian 4.9.2-10) 4.9.2"
 1457              		.section	.note.GNU-stack,"",%progbits
ARM GAS  /tmp/ccrSvMhU.s 			page 30


DEFINED SYMBOLS
                            *ABS*:00000000 nvic.c
     /tmp/ccrSvMhU.s:18     .text.nvicEnableVector:00000000 $t
     /tmp/ccrSvMhU.s:24     .text.nvicEnableVector:00000000 nvicEnableVector
     /tmp/ccrSvMhU.s:62     .text.nvicEnableVector:0000002c $d
     /tmp/ccrSvMhU.s:67     .text.nvicDisableVector:00000000 $t
     /tmp/ccrSvMhU.s:73     .text.nvicDisableVector:00000000 nvicDisableVector
     /tmp/ccrSvMhU.s:102    .text.nvicDisableVector:00000020 $d
     /tmp/ccrSvMhU.s:107    .text.nvicSetSystemHandlerPriority:00000000 $t
     /tmp/ccrSvMhU.s:113    .text.nvicSetSystemHandlerPriority:00000000 nvicSetSystemHandlerPriority
     /tmp/ccrSvMhU.s:133    .text.nvicSetSystemHandlerPriority:00000010 $d
     /tmp/ccrSvMhU.s:138    .text.nvicClearPending:00000000 $t
     /tmp/ccrSvMhU.s:144    .text.nvicClearPending:00000000 nvicClearPending
     /tmp/ccrSvMhU.s:167    .text.nvicClearPending:00000018 $d
                     .debug_frame:00000010 $d
     /tmp/ccrSvMhU.s:106    .text.nvicDisableVector:00000024 $t
     /tmp/ccrSvMhU.s:137    .text.nvicSetSystemHandlerPriority:00000014 $t
     /tmp/ccrSvMhU.s:171    .text.nvicClearPending:0000001c $t

NO UNDEFINED SYMBOLS
