ARM GAS  /tmp/ccgTIPQG.s 			page 1


   1              		.cpu cortex-m0
   2              		.fpu softvfp
   3              		.eabi_attribute 20, 1
   4              		.eabi_attribute 21, 1
   5              		.eabi_attribute 23, 3
   6              		.eabi_attribute 24, 1
   7              		.eabi_attribute 25, 1
   8              		.eabi_attribute 26, 2
   9              		.eabi_attribute 30, 2
  10              		.eabi_attribute 34, 0
  11              		.eabi_attribute 18, 4
  12              		.code	16
  13              		.file	"orchard-vectors.c"
  14              		.text
  15              	.Ltext0:
  16              		.cfi_sections	.debug_frame
  17              		.section	.text.HardFault_Handler,"ax",%progbits
  18              		.align	2
  19              		.p2align 4,,15
  20              		.global	HardFault_Handler
  21              		.code	16
  22              		.thumb_func
  23              		.type	HardFault_Handler, %function
  24              	HardFault_Handler:
  25              	.LFB81:
  26              		.file 1 "orchard-vectors.c"
  27              		.loc 1 20 0
  28              		.cfi_startproc
  29              		.loc 1 23 0
  30 0000 034A     		ldr	r2, .L4
  31              	#APP
  32              	@ 23 "orchard-vectors.c" 1
  33 0002 EFF30983 		mrs r3, psp
  34              	@ 0 "" 2
  35              		.code	16
  36 0006 1360     		str	r3, [r2]
  37              		.loc 1 24 0
  38 0008 9D46     		mov	sp, r3
  39              		.loc 1 27 0
  40              	#APP
  41              	@ 27 "orchard-vectors.c" 1
  42 000a 00BE     		bkpt #0
  43              	@ 0 "" 2
  44              		.code	16
  45              	.L2:
  46              		.loc 1 29 0 discriminator 1
  47 000c FEE7     		b	.L2
  48              	.L5:
  49 000e C046     		.align	2
  50              	.L4:
  51 0010 00000000 		.word	.LANCHOR0
  52              		.cfi_endproc
  53              	.LFE81:
  54              		.size	HardFault_Handler, .-HardFault_Handler
  55 0014 C046C046 		.section	.text.MemManage_Handler,"ax",%progbits
  55      C046C046 
  55      C046C046 
ARM GAS  /tmp/ccgTIPQG.s 			page 2


  56              		.align	2
  57              		.p2align 4,,15
  58              		.global	MemManage_Handler
  59              		.code	16
  60              		.thumb_func
  61              		.type	MemManage_Handler, %function
  62              	MemManage_Handler:
  63              	.LFB82:
  64              		.loc 1 40 0
  65              		.cfi_startproc
  66              	.L7:
  67              		.loc 1 44 0 discriminator 1
  68 0000 FEE7     		b	.L7
  69              		.cfi_endproc
  70              	.LFE82:
  71              		.size	MemManage_Handler, .-MemManage_Handler
  72 0002 C046C046 		.section	.text.BusFault_Handler,"ax",%progbits
  72      C046C046 
  72      C046C046 
  72      C046
  73              		.align	2
  74              		.p2align 4,,15
  75              		.global	BusFault_Handler
  76              		.code	16
  77              		.thumb_func
  78              		.type	BusFault_Handler, %function
  79              	BusFault_Handler:
  80              	.LFB83:
  81              		.loc 1 55 0
  82              		.cfi_startproc
  83              	.L9:
  84              		.loc 1 59 0 discriminator 1
  85 0000 FEE7     		b	.L9
  86              		.cfi_endproc
  87              	.LFE83:
  88              		.size	BusFault_Handler, .-BusFault_Handler
  89 0002 C046C046 		.section	.text.UsageFault_Handler,"ax",%progbits
  89      C046C046 
  89      C046C046 
  89      C046
  90              		.align	2
  91              		.p2align 4,,15
  92              		.global	UsageFault_Handler
  93              		.code	16
  94              		.thumb_func
  95              		.type	UsageFault_Handler, %function
  96              	UsageFault_Handler:
  97              	.LFB84:
  98              		.loc 1 70 0
  99              		.cfi_startproc
 100              	.L11:
 101              		.loc 1 74 0 discriminator 1
 102 0000 FEE7     		b	.L11
 103              		.cfi_endproc
 104              	.LFE84:
 105              		.size	UsageFault_Handler, .-UsageFault_Handler
 106 0002 C046C046 		.section	.text.__stack_chk_fail,"ax",%progbits
ARM GAS  /tmp/ccgTIPQG.s 			page 3


 106      C046C046 
 106      C046C046 
 106      C046
 107              		.align	2
 108              		.p2align 4,,15
 109              		.global	__stack_chk_fail
 110              		.code	16
 111              		.thumb_func
 112              		.type	__stack_chk_fail, %function
 113              	__stack_chk_fail:
 114              	.LFB85:
 115              		.loc 1 79 0
 116              		.cfi_startproc
 117 0000 08B5     		push	{r3, lr}
 118              		.cfi_def_cfa_offset 8
 119              		.cfi_offset 3, -8
 120              		.cfi_offset 14, -4
 121              		.loc 1 80 0
 122 0002 0248     		ldr	r0, .L14
 123 0004 FFF7FEFF 		bl	chSysHalt
 124              	.LVL0:
 125              	.L13:
 126              		.loc 1 81 0 discriminator 1
 127 0008 FEE7     		b	.L13
 128              	.L15:
 129 000a C046     		.align	2
 130              	.L14:
 131 000c 00000000 		.word	.LC1
 132              		.cfi_endproc
 133              	.LFE85:
 134              		.size	__stack_chk_fail, .-__stack_chk_fail
 135              		.global	__stack_chk_guard
 136              		.global	HARDFAULT_PSP
 137              		.section	.bss.HARDFAULT_PSP,"aw",%nobits
 138              		.align	2
 139              	.LANCHOR0 = . + 0
 140              		.type	HARDFAULT_PSP, %object
 141              		.size	HARDFAULT_PSP, 4
 142              	HARDFAULT_PSP:
 143 0000 00000000 		.space	4
 144              		.section	.rodata.str1.4,"aMS",%progbits,1
 145              		.align	2
 146              	.LC1:
 147 0000 53746163 		.ascii	"Stack check fail\000"
 147      6B206368 
 147      65636B20 
 147      6661696C 
 147      00
 148 0011 000000   		.section	.data.__stack_chk_guard,"aw",%progbits
 149              		.align	2
 150              		.type	__stack_chk_guard, %object
 151              		.size	__stack_chk_guard, 4
 152              	__stack_chk_guard:
 153 0000 78563412 		.word	305419896
 154              		.text
 155              	.Letext0:
 156              		.file 2 "../os/nil/include/nil.h"
ARM GAS  /tmp/ccgTIPQG.s 			page 4


 157              		.file 3 "/usr/include/stdint.h"
 158              		.file 4 "../os/nil/ports/ARMCMx/compilers/GCC/niltypes.h"
 159              		.file 5 "../os/nil/ports/ARMCMx/nilcore.h"
 160              		.file 6 "../os/nil/ports/ARMCMx/nilcore_v6m.h"
 161              		.section	.debug_info,"",%progbits
 162              	.Ldebug_info0:
 163 0000 AF030000 		.4byte	0x3af
 164 0004 0400     		.2byte	0x4
 165 0006 00000000 		.4byte	.Ldebug_abbrev0
 166 000a 04       		.byte	0x4
 167 000b 01       		.uleb128 0x1
 168 000c 93000000 		.4byte	.LASF50
 169 0010 01       		.byte	0x1
 170 0011 9E020000 		.4byte	.LASF51
 171 0015 EE020000 		.4byte	.LASF52
 172 0019 00000000 		.4byte	.Ldebug_ranges0+0
 173 001d 00000000 		.4byte	0
 174 0021 00000000 		.4byte	.Ldebug_line0
 175 0025 02       		.uleb128 0x2
 176 0026 00000000 		.4byte	.LASF8
 177 002a 02       		.byte	0x2
 178 002b 25       		.byte	0x25
 179 002c 30000000 		.4byte	0x30
 180 0030 03       		.uleb128 0x3
 181 0031 7E000000 		.4byte	.LASF26
 182 0035 18       		.byte	0x18
 183 0036 02       		.byte	0x2
 184 0037 6201     		.2byte	0x162
 185 0039 8B000000 		.4byte	0x8b
 186 003d 04       		.uleb128 0x4
 187 003e E2010000 		.4byte	.LASF0
 188 0042 02       		.byte	0x2
 189 0043 6301     		.2byte	0x163
 190 0045 74020000 		.4byte	0x274
 191 0049 00       		.byte	0
 192 004a 04       		.uleb128 0x4
 193 004b 10000000 		.4byte	.LASF1
 194 004f 02       		.byte	0x2
 195 0050 6401     		.2byte	0x164
 196 0052 FA000000 		.4byte	0xfa
 197 0056 04       		.byte	0x4
 198 0057 05       		.uleb128 0x5
 199 0058 753100   		.ascii	"u1\000"
 200 005b 02       		.byte	0x2
 201 005c 6F01     		.2byte	0x16f
 202 005e 24020000 		.4byte	0x224
 203 0062 08       		.byte	0x8
 204 0063 04       		.uleb128 0x4
 205 0064 5D030000 		.4byte	.LASF2
 206 0068 02       		.byte	0x2
 207 0069 7001     		.2byte	0x170
 208 006b 7A020000 		.4byte	0x27a
 209 006f 0C       		.byte	0xc
 210 0070 04       		.uleb128 0x4
 211 0071 09000000 		.4byte	.LASF3
 212 0075 02       		.byte	0x2
 213 0076 7301     		.2byte	0x173
ARM GAS  /tmp/ccgTIPQG.s 			page 5


 214 0078 10010000 		.4byte	0x110
 215 007c 10       		.byte	0x10
 216 007d 04       		.uleb128 0x4
 217 007e 2D030000 		.4byte	.LASF4
 218 0082 02       		.byte	0x2
 219 0083 7601     		.2byte	0x176
 220 0085 FA010000 		.4byte	0x1fa
 221 0089 14       		.byte	0x14
 222 008a 00       		.byte	0
 223 008b 06       		.uleb128 0x6
 224 008c 04       		.byte	0x4
 225 008d 05       		.byte	0x5
 226 008e 696E7400 		.ascii	"int\000"
 227 0092 07       		.uleb128 0x7
 228 0093 04       		.byte	0x4
 229 0094 07       		.byte	0x7
 230 0095 28020000 		.4byte	.LASF5
 231 0099 07       		.uleb128 0x7
 232 009a 01       		.byte	0x1
 233 009b 06       		.byte	0x6
 234 009c FC010000 		.4byte	.LASF6
 235 00a0 07       		.uleb128 0x7
 236 00a1 02       		.byte	0x2
 237 00a2 05       		.byte	0x5
 238 00a3 1F000000 		.4byte	.LASF7
 239 00a7 02       		.uleb128 0x2
 240 00a8 5F020000 		.4byte	.LASF9
 241 00ac 03       		.byte	0x3
 242 00ad 26       		.byte	0x26
 243 00ae 8B000000 		.4byte	0x8b
 244 00b2 07       		.uleb128 0x7
 245 00b3 08       		.byte	0x8
 246 00b4 05       		.byte	0x5
 247 00b5 64000000 		.4byte	.LASF10
 248 00b9 02       		.uleb128 0x2
 249 00ba 9B010000 		.4byte	.LASF11
 250 00be 03       		.byte	0x3
 251 00bf 30       		.byte	0x30
 252 00c0 C4000000 		.4byte	0xc4
 253 00c4 07       		.uleb128 0x7
 254 00c5 01       		.byte	0x1
 255 00c6 08       		.byte	0x8
 256 00c7 E7010000 		.4byte	.LASF12
 257 00cb 07       		.uleb128 0x7
 258 00cc 02       		.byte	0x2
 259 00cd 07       		.byte	0x7
 260 00ce 3D020000 		.4byte	.LASF13
 261 00d2 02       		.uleb128 0x2
 262 00d3 1F020000 		.4byte	.LASF14
 263 00d7 03       		.byte	0x3
 264 00d8 33       		.byte	0x33
 265 00d9 92000000 		.4byte	0x92
 266 00dd 02       		.uleb128 0x2
 267 00de 16000000 		.4byte	.LASF15
 268 00e2 03       		.byte	0x3
 269 00e3 3A       		.byte	0x3a
 270 00e4 E8000000 		.4byte	0xe8
ARM GAS  /tmp/ccgTIPQG.s 			page 6


 271 00e8 07       		.uleb128 0x7
 272 00e9 08       		.byte	0x8
 273 00ea 07       		.byte	0x7
 274 00eb 08020000 		.4byte	.LASF16
 275 00ef 02       		.uleb128 0x2
 276 00f0 A3010000 		.4byte	.LASF17
 277 00f4 03       		.byte	0x3
 278 00f5 80       		.byte	0x80
 279 00f6 92000000 		.4byte	0x92
 280 00fa 02       		.uleb128 0x2
 281 00fb E5020000 		.4byte	.LASF18
 282 00ff 04       		.byte	0x4
 283 0100 37       		.byte	0x37
 284 0101 B9000000 		.4byte	0xb9
 285 0105 02       		.uleb128 0x2
 286 0106 57030000 		.4byte	.LASF19
 287 010a 04       		.byte	0x4
 288 010b 38       		.byte	0x38
 289 010c A7000000 		.4byte	0xa7
 290 0110 02       		.uleb128 0x2
 291 0111 72000000 		.4byte	.LASF20
 292 0115 04       		.byte	0x4
 293 0116 39       		.byte	0x39
 294 0117 D2000000 		.4byte	0xd2
 295 011b 02       		.uleb128 0x2
 296 011c 67020000 		.4byte	.LASF21
 297 0120 04       		.byte	0x4
 298 0121 3A       		.byte	0x3a
 299 0122 A7000000 		.4byte	0xa7
 300 0126 02       		.uleb128 0x2
 301 0127 50020000 		.4byte	.LASF22
 302 012b 04       		.byte	0x4
 303 012c 41       		.byte	0x41
 304 012d D2000000 		.4byte	0xd2
 305 0131 07       		.uleb128 0x7
 306 0132 04       		.byte	0x4
 307 0133 07       		.byte	0x7
 308 0134 3C000000 		.4byte	.LASF23
 309 0138 02       		.uleb128 0x2
 310 0139 92010000 		.4byte	.LASF24
 311 013d 05       		.byte	0x5
 312 013e 65       		.byte	0x65
 313 013f 43010000 		.4byte	0x143
 314 0143 08       		.uleb128 0x8
 315 0144 04       		.byte	0x4
 316 0145 02       		.uleb128 0x2
 317 0146 73020000 		.4byte	.LASF25
 318 014a 05       		.byte	0x5
 319 014b 6D       		.byte	0x6d
 320 014c DD000000 		.4byte	0xdd
 321 0150 09       		.uleb128 0x9
 322 0151 B0020000 		.4byte	.LASF27
 323 0155 24       		.byte	0x24
 324 0156 06       		.byte	0x6
 325 0157 A4       		.byte	0xa4
 326 0158 C2010000 		.4byte	0x1c2
 327 015c 0A       		.uleb128 0xa
ARM GAS  /tmp/ccgTIPQG.s 			page 7


 328 015d 723800   		.ascii	"r8\000"
 329 0160 06       		.byte	0x6
 330 0161 A5       		.byte	0xa5
 331 0162 38010000 		.4byte	0x138
 332 0166 00       		.byte	0
 333 0167 0A       		.uleb128 0xa
 334 0168 723900   		.ascii	"r9\000"
 335 016b 06       		.byte	0x6
 336 016c A6       		.byte	0xa6
 337 016d 38010000 		.4byte	0x138
 338 0171 04       		.byte	0x4
 339 0172 0A       		.uleb128 0xa
 340 0173 72313000 		.ascii	"r10\000"
 341 0177 06       		.byte	0x6
 342 0178 A7       		.byte	0xa7
 343 0179 38010000 		.4byte	0x138
 344 017d 08       		.byte	0x8
 345 017e 0A       		.uleb128 0xa
 346 017f 72313100 		.ascii	"r11\000"
 347 0183 06       		.byte	0x6
 348 0184 A8       		.byte	0xa8
 349 0185 38010000 		.4byte	0x138
 350 0189 0C       		.byte	0xc
 351 018a 0A       		.uleb128 0xa
 352 018b 723400   		.ascii	"r4\000"
 353 018e 06       		.byte	0x6
 354 018f A9       		.byte	0xa9
 355 0190 38010000 		.4byte	0x138
 356 0194 10       		.byte	0x10
 357 0195 0A       		.uleb128 0xa
 358 0196 723500   		.ascii	"r5\000"
 359 0199 06       		.byte	0x6
 360 019a AA       		.byte	0xaa
 361 019b 38010000 		.4byte	0x138
 362 019f 14       		.byte	0x14
 363 01a0 0A       		.uleb128 0xa
 364 01a1 723600   		.ascii	"r6\000"
 365 01a4 06       		.byte	0x6
 366 01a5 AB       		.byte	0xab
 367 01a6 38010000 		.4byte	0x138
 368 01aa 18       		.byte	0x18
 369 01ab 0A       		.uleb128 0xa
 370 01ac 723700   		.ascii	"r7\000"
 371 01af 06       		.byte	0x6
 372 01b0 AC       		.byte	0xac
 373 01b1 38010000 		.4byte	0x138
 374 01b5 1C       		.byte	0x1c
 375 01b6 0A       		.uleb128 0xa
 376 01b7 6C7200   		.ascii	"lr\000"
 377 01ba 06       		.byte	0x6
 378 01bb AD       		.byte	0xad
 379 01bc 38010000 		.4byte	0x138
 380 01c0 20       		.byte	0x20
 381 01c1 00       		.byte	0
 382 01c2 0B       		.uleb128 0xb
 383 01c3 16030000 		.4byte	.LASF28
 384 01c7 02       		.byte	0x2
ARM GAS  /tmp/ccgTIPQG.s 			page 8


 385 01c8 3701     		.2byte	0x137
 386 01ca 50010000 		.4byte	0x150
 387 01ce 0B       		.uleb128 0xb
 388 01cf B8010000 		.4byte	.LASF29
 389 01d3 02       		.byte	0x2
 390 01d4 3C01     		.2byte	0x13c
 391 01d6 DA010000 		.4byte	0x1da
 392 01da 03       		.uleb128 0x3
 393 01db D4010000 		.4byte	.LASF30
 394 01df 04       		.byte	0x4
 395 01e0 02       		.byte	0x2
 396 01e1 4101     		.2byte	0x141
 397 01e3 F5010000 		.4byte	0x1f5
 398 01e7 05       		.uleb128 0x5
 399 01e8 636E7400 		.ascii	"cnt\000"
 400 01ec 02       		.byte	0x2
 401 01ed 4201     		.2byte	0x142
 402 01ef F5010000 		.4byte	0x1f5
 403 01f3 00       		.byte	0
 404 01f4 00       		.byte	0
 405 01f5 0C       		.uleb128 0xc
 406 01f6 1B010000 		.4byte	0x11b
 407 01fa 0D       		.uleb128 0xd
 408 01fb 04       		.byte	0x4
 409 01fc 45010000 		.4byte	0x145
 410 0200 0D       		.uleb128 0xd
 411 0201 04       		.byte	0x4
 412 0202 06020000 		.4byte	0x206
 413 0206 0E       		.uleb128 0xe
 414 0207 0B020000 		.4byte	0x20b
 415 020b 07       		.uleb128 0x7
 416 020c 01       		.byte	0x1
 417 020d 08       		.byte	0x8
 418 020e 5A020000 		.4byte	.LASF31
 419 0212 0B       		.uleb128 0xb
 420 0213 D2020000 		.4byte	.LASF32
 421 0217 02       		.byte	0x2
 422 0218 5D01     		.2byte	0x15d
 423 021a 1E020000 		.4byte	0x21e
 424 021e 0D       		.uleb128 0xd
 425 021f 04       		.byte	0x4
 426 0220 25000000 		.4byte	0x25
 427 0224 0F       		.uleb128 0xf
 428 0225 04       		.byte	0x4
 429 0226 02       		.byte	0x2
 430 0227 6701     		.2byte	0x167
 431 0229 68020000 		.4byte	0x268
 432 022d 10       		.uleb128 0x10
 433 022e 6D736700 		.ascii	"msg\000"
 434 0232 02       		.byte	0x2
 435 0233 6801     		.2byte	0x168
 436 0235 05010000 		.4byte	0x105
 437 0239 10       		.uleb128 0x10
 438 023a 7000     		.ascii	"p\000"
 439 023c 02       		.byte	0x2
 440 023d 6901     		.2byte	0x169
 441 023f 43010000 		.4byte	0x143
ARM GAS  /tmp/ccgTIPQG.s 			page 9


 442 0243 10       		.uleb128 0x10
 443 0244 74727000 		.ascii	"trp\000"
 444 0248 02       		.byte	0x2
 445 0249 6A01     		.2byte	0x16a
 446 024b 68020000 		.4byte	0x268
 447 024f 11       		.uleb128 0x11
 448 0250 BC020000 		.4byte	.LASF33
 449 0254 02       		.byte	0x2
 450 0255 6B01     		.2byte	0x16b
 451 0257 6E020000 		.4byte	0x26e
 452 025b 11       		.uleb128 0x11
 453 025c F5010000 		.4byte	.LASF34
 454 0260 02       		.byte	0x2
 455 0261 6D01     		.2byte	0x16d
 456 0263 10010000 		.4byte	0x110
 457 0267 00       		.byte	0
 458 0268 0D       		.uleb128 0xd
 459 0269 04       		.byte	0x4
 460 026a 12020000 		.4byte	0x212
 461 026e 0D       		.uleb128 0xd
 462 026f 04       		.byte	0x4
 463 0270 CE010000 		.4byte	0x1ce
 464 0274 0D       		.uleb128 0xd
 465 0275 04       		.byte	0x4
 466 0276 C2010000 		.4byte	0x1c2
 467 027a 0C       		.uleb128 0xc
 468 027b 26010000 		.4byte	0x126
 469 027f 0B       		.uleb128 0xb
 470 0280 57000000 		.4byte	.LASF35
 471 0284 02       		.byte	0x2
 472 0285 7F01     		.2byte	0x17f
 473 0287 8B020000 		.4byte	0x28b
 474 028b 03       		.uleb128 0x3
 475 028c AD010000 		.4byte	.LASF36
 476 0290 40       		.byte	0x40
 477 0291 02       		.byte	0x2
 478 0292 8601     		.2byte	0x186
 479 0294 DA020000 		.4byte	0x2da
 480 0298 04       		.uleb128 0x4
 481 0299 35020000 		.4byte	.LASF37
 482 029d 02       		.byte	0x2
 483 029e 8A01     		.2byte	0x18a
 484 02a0 1E020000 		.4byte	0x21e
 485 02a4 00       		.byte	0
 486 02a5 04       		.uleb128 0x4
 487 02a6 65030000 		.4byte	.LASF38
 488 02aa 02       		.byte	0x2
 489 02ab 9001     		.2byte	0x190
 490 02ad 1E020000 		.4byte	0x21e
 491 02b1 04       		.byte	0x4
 492 02b2 04       		.uleb128 0x4
 493 02b3 C4010000 		.4byte	.LASF39
 494 02b7 02       		.byte	0x2
 495 02b8 9501     		.2byte	0x195
 496 02ba 7A020000 		.4byte	0x27a
 497 02be 08       		.byte	0x8
 498 02bf 04       		.uleb128 0x4
ARM GAS  /tmp/ccgTIPQG.s 			page 10


 499 02c0 CC010000 		.4byte	.LASF40
 500 02c4 02       		.byte	0x2
 501 02c5 A401     		.2byte	0x1a4
 502 02c7 DA020000 		.4byte	0x2da
 503 02cb 0C       		.byte	0xc
 504 02cc 04       		.uleb128 0x4
 505 02cd 1F030000 		.4byte	.LASF41
 506 02d1 02       		.byte	0x2
 507 02d2 AD01     		.2byte	0x1ad
 508 02d4 EA020000 		.4byte	0x2ea
 509 02d8 3C       		.byte	0x3c
 510 02d9 00       		.byte	0
 511 02da 12       		.uleb128 0x12
 512 02db 25000000 		.4byte	0x25
 513 02df EA020000 		.4byte	0x2ea
 514 02e3 13       		.uleb128 0x13
 515 02e4 31010000 		.4byte	0x131
 516 02e8 01       		.byte	0x1
 517 02e9 00       		.byte	0
 518 02ea 0C       		.uleb128 0xc
 519 02eb 00020000 		.4byte	0x200
 520 02ef 07       		.uleb128 0x7
 521 02f0 01       		.byte	0x1
 522 02f1 02       		.byte	0x2
 523 02f2 6D020000 		.4byte	.LASF42
 524 02f6 14       		.uleb128 0x14
 525 02f7 8C020000 		.4byte	.LASF43
 526 02fb 01       		.byte	0x1
 527 02fc 14       		.byte	0x14
 528 02fd 00000000 		.4byte	.LFB81
 529 0301 14000000 		.4byte	.LFE81-.LFB81
 530 0305 01       		.uleb128 0x1
 531 0306 9C       		.byte	0x9c
 532 0307 14       		.uleb128 0x14
 533 0308 34030000 		.4byte	.LASF44
 534 030c 01       		.byte	0x1
 535 030d 28       		.byte	0x28
 536 030e 00000000 		.4byte	.LFB82
 537 0312 02000000 		.4byte	.LFE82-.LFB82
 538 0316 01       		.uleb128 0x1
 539 0317 9C       		.byte	0x9c
 540 0318 14       		.uleb128 0x14
 541 0319 C1020000 		.4byte	.LASF45
 542 031d 01       		.byte	0x1
 543 031e 37       		.byte	0x37
 544 031f 00000000 		.4byte	.LFB83
 545 0323 02000000 		.4byte	.LFE83-.LFB83
 546 0327 01       		.uleb128 0x1
 547 0328 9C       		.byte	0x9c
 548 0329 14       		.uleb128 0x14
 549 032a 29000000 		.4byte	.LASF46
 550 032e 01       		.byte	0x1
 551 032f 46       		.byte	0x46
 552 0330 00000000 		.4byte	.LFB84
 553 0334 02000000 		.4byte	.LFE84-.LFB84
 554 0338 01       		.uleb128 0x1
 555 0339 9C       		.byte	0x9c
ARM GAS  /tmp/ccgTIPQG.s 			page 11


 556 033a 15       		.uleb128 0x15
 557 033b 46030000 		.4byte	.LASF53
 558 033f 01       		.byte	0x1
 559 0340 4F       		.byte	0x4f
 560 0341 00000000 		.4byte	.LFB85
 561 0345 10000000 		.4byte	.LFE85-.LFB85
 562 0349 01       		.uleb128 0x1
 563 034a 9C       		.byte	0x9c
 564 034b 63030000 		.4byte	0x363
 565 034f 16       		.uleb128 0x16
 566 0350 08000000 		.4byte	.LVL0
 567 0354 A4030000 		.4byte	0x3a4
 568 0358 17       		.uleb128 0x17
 569 0359 01       		.uleb128 0x1
 570 035a 50       		.byte	0x50
 571 035b 05       		.uleb128 0x5
 572 035c 03       		.byte	0x3
 573 035d 00000000 		.4byte	.LC1
 574 0361 00       		.byte	0
 575 0362 00       		.byte	0
 576 0363 18       		.uleb128 0x18
 577 0364 6E696C00 		.ascii	"nil\000"
 578 0368 02       		.byte	0x2
 579 0369 C203     		.2byte	0x3c2
 580 036b 7F020000 		.4byte	0x27f
 581 036f 19       		.uleb128 0x19
 582 0370 7E020000 		.4byte	.LASF47
 583 0374 01       		.byte	0x1
 584 0375 11       		.byte	0x11
 585 0376 80030000 		.4byte	0x380
 586 037a 05       		.uleb128 0x5
 587 037b 03       		.byte	0x3
 588 037c 00000000 		.4byte	HARDFAULT_PSP
 589 0380 0D       		.uleb128 0xd
 590 0381 04       		.byte	0x4
 591 0382 43010000 		.4byte	0x143
 592 0386 19       		.uleb128 0x19
 593 0387 6A030000 		.4byte	.LASF48
 594 038b 01       		.byte	0x1
 595 038c 12       		.byte	0x12
 596 038d 43010000 		.4byte	0x143
 597 0391 01       		.uleb128 0x1
 598 0392 5D       		.byte	0x5d
 599 0393 19       		.uleb128 0x19
 600 0394 45000000 		.4byte	.LASF49
 601 0398 01       		.byte	0x1
 602 0399 4D       		.byte	0x4d
 603 039a EF000000 		.4byte	0xef
 604 039e 05       		.uleb128 0x5
 605 039f 03       		.byte	0x3
 606 03a0 00000000 		.4byte	__stack_chk_guard
 607 03a4 1A       		.uleb128 0x1a
 608 03a5 89000000 		.4byte	.LASF54
 609 03a9 02       		.byte	0x2
 610 03aa CA03     		.2byte	0x3ca
 611 03ac 1B       		.uleb128 0x1b
 612 03ad 00020000 		.4byte	0x200
ARM GAS  /tmp/ccgTIPQG.s 			page 12


 613 03b1 00       		.byte	0
 614 03b2 00       		.byte	0
 615              		.section	.debug_abbrev,"",%progbits
 616              	.Ldebug_abbrev0:
 617 0000 01       		.uleb128 0x1
 618 0001 11       		.uleb128 0x11
 619 0002 01       		.byte	0x1
 620 0003 25       		.uleb128 0x25
 621 0004 0E       		.uleb128 0xe
 622 0005 13       		.uleb128 0x13
 623 0006 0B       		.uleb128 0xb
 624 0007 03       		.uleb128 0x3
 625 0008 0E       		.uleb128 0xe
 626 0009 1B       		.uleb128 0x1b
 627 000a 0E       		.uleb128 0xe
 628 000b 55       		.uleb128 0x55
 629 000c 17       		.uleb128 0x17
 630 000d 11       		.uleb128 0x11
 631 000e 01       		.uleb128 0x1
 632 000f 10       		.uleb128 0x10
 633 0010 17       		.uleb128 0x17
 634 0011 00       		.byte	0
 635 0012 00       		.byte	0
 636 0013 02       		.uleb128 0x2
 637 0014 16       		.uleb128 0x16
 638 0015 00       		.byte	0
 639 0016 03       		.uleb128 0x3
 640 0017 0E       		.uleb128 0xe
 641 0018 3A       		.uleb128 0x3a
 642 0019 0B       		.uleb128 0xb
 643 001a 3B       		.uleb128 0x3b
 644 001b 0B       		.uleb128 0xb
 645 001c 49       		.uleb128 0x49
 646 001d 13       		.uleb128 0x13
 647 001e 00       		.byte	0
 648 001f 00       		.byte	0
 649 0020 03       		.uleb128 0x3
 650 0021 13       		.uleb128 0x13
 651 0022 01       		.byte	0x1
 652 0023 03       		.uleb128 0x3
 653 0024 0E       		.uleb128 0xe
 654 0025 0B       		.uleb128 0xb
 655 0026 0B       		.uleb128 0xb
 656 0027 3A       		.uleb128 0x3a
 657 0028 0B       		.uleb128 0xb
 658 0029 3B       		.uleb128 0x3b
 659 002a 05       		.uleb128 0x5
 660 002b 01       		.uleb128 0x1
 661 002c 13       		.uleb128 0x13
 662 002d 00       		.byte	0
 663 002e 00       		.byte	0
 664 002f 04       		.uleb128 0x4
 665 0030 0D       		.uleb128 0xd
 666 0031 00       		.byte	0
 667 0032 03       		.uleb128 0x3
 668 0033 0E       		.uleb128 0xe
 669 0034 3A       		.uleb128 0x3a
ARM GAS  /tmp/ccgTIPQG.s 			page 13


 670 0035 0B       		.uleb128 0xb
 671 0036 3B       		.uleb128 0x3b
 672 0037 05       		.uleb128 0x5
 673 0038 49       		.uleb128 0x49
 674 0039 13       		.uleb128 0x13
 675 003a 38       		.uleb128 0x38
 676 003b 0B       		.uleb128 0xb
 677 003c 00       		.byte	0
 678 003d 00       		.byte	0
 679 003e 05       		.uleb128 0x5
 680 003f 0D       		.uleb128 0xd
 681 0040 00       		.byte	0
 682 0041 03       		.uleb128 0x3
 683 0042 08       		.uleb128 0x8
 684 0043 3A       		.uleb128 0x3a
 685 0044 0B       		.uleb128 0xb
 686 0045 3B       		.uleb128 0x3b
 687 0046 05       		.uleb128 0x5
 688 0047 49       		.uleb128 0x49
 689 0048 13       		.uleb128 0x13
 690 0049 38       		.uleb128 0x38
 691 004a 0B       		.uleb128 0xb
 692 004b 00       		.byte	0
 693 004c 00       		.byte	0
 694 004d 06       		.uleb128 0x6
 695 004e 24       		.uleb128 0x24
 696 004f 00       		.byte	0
 697 0050 0B       		.uleb128 0xb
 698 0051 0B       		.uleb128 0xb
 699 0052 3E       		.uleb128 0x3e
 700 0053 0B       		.uleb128 0xb
 701 0054 03       		.uleb128 0x3
 702 0055 08       		.uleb128 0x8
 703 0056 00       		.byte	0
 704 0057 00       		.byte	0
 705 0058 07       		.uleb128 0x7
 706 0059 24       		.uleb128 0x24
 707 005a 00       		.byte	0
 708 005b 0B       		.uleb128 0xb
 709 005c 0B       		.uleb128 0xb
 710 005d 3E       		.uleb128 0x3e
 711 005e 0B       		.uleb128 0xb
 712 005f 03       		.uleb128 0x3
 713 0060 0E       		.uleb128 0xe
 714 0061 00       		.byte	0
 715 0062 00       		.byte	0
 716 0063 08       		.uleb128 0x8
 717 0064 0F       		.uleb128 0xf
 718 0065 00       		.byte	0
 719 0066 0B       		.uleb128 0xb
 720 0067 0B       		.uleb128 0xb
 721 0068 00       		.byte	0
 722 0069 00       		.byte	0
 723 006a 09       		.uleb128 0x9
 724 006b 13       		.uleb128 0x13
 725 006c 01       		.byte	0x1
 726 006d 03       		.uleb128 0x3
ARM GAS  /tmp/ccgTIPQG.s 			page 14


 727 006e 0E       		.uleb128 0xe
 728 006f 0B       		.uleb128 0xb
 729 0070 0B       		.uleb128 0xb
 730 0071 3A       		.uleb128 0x3a
 731 0072 0B       		.uleb128 0xb
 732 0073 3B       		.uleb128 0x3b
 733 0074 0B       		.uleb128 0xb
 734 0075 01       		.uleb128 0x1
 735 0076 13       		.uleb128 0x13
 736 0077 00       		.byte	0
 737 0078 00       		.byte	0
 738 0079 0A       		.uleb128 0xa
 739 007a 0D       		.uleb128 0xd
 740 007b 00       		.byte	0
 741 007c 03       		.uleb128 0x3
 742 007d 08       		.uleb128 0x8
 743 007e 3A       		.uleb128 0x3a
 744 007f 0B       		.uleb128 0xb
 745 0080 3B       		.uleb128 0x3b
 746 0081 0B       		.uleb128 0xb
 747 0082 49       		.uleb128 0x49
 748 0083 13       		.uleb128 0x13
 749 0084 38       		.uleb128 0x38
 750 0085 0B       		.uleb128 0xb
 751 0086 00       		.byte	0
 752 0087 00       		.byte	0
 753 0088 0B       		.uleb128 0xb
 754 0089 16       		.uleb128 0x16
 755 008a 00       		.byte	0
 756 008b 03       		.uleb128 0x3
 757 008c 0E       		.uleb128 0xe
 758 008d 3A       		.uleb128 0x3a
 759 008e 0B       		.uleb128 0xb
 760 008f 3B       		.uleb128 0x3b
 761 0090 05       		.uleb128 0x5
 762 0091 49       		.uleb128 0x49
 763 0092 13       		.uleb128 0x13
 764 0093 00       		.byte	0
 765 0094 00       		.byte	0
 766 0095 0C       		.uleb128 0xc
 767 0096 35       		.uleb128 0x35
 768 0097 00       		.byte	0
 769 0098 49       		.uleb128 0x49
 770 0099 13       		.uleb128 0x13
 771 009a 00       		.byte	0
 772 009b 00       		.byte	0
 773 009c 0D       		.uleb128 0xd
 774 009d 0F       		.uleb128 0xf
 775 009e 00       		.byte	0
 776 009f 0B       		.uleb128 0xb
 777 00a0 0B       		.uleb128 0xb
 778 00a1 49       		.uleb128 0x49
 779 00a2 13       		.uleb128 0x13
 780 00a3 00       		.byte	0
 781 00a4 00       		.byte	0
 782 00a5 0E       		.uleb128 0xe
 783 00a6 26       		.uleb128 0x26
ARM GAS  /tmp/ccgTIPQG.s 			page 15


 784 00a7 00       		.byte	0
 785 00a8 49       		.uleb128 0x49
 786 00a9 13       		.uleb128 0x13
 787 00aa 00       		.byte	0
 788 00ab 00       		.byte	0
 789 00ac 0F       		.uleb128 0xf
 790 00ad 17       		.uleb128 0x17
 791 00ae 01       		.byte	0x1
 792 00af 0B       		.uleb128 0xb
 793 00b0 0B       		.uleb128 0xb
 794 00b1 3A       		.uleb128 0x3a
 795 00b2 0B       		.uleb128 0xb
 796 00b3 3B       		.uleb128 0x3b
 797 00b4 05       		.uleb128 0x5
 798 00b5 01       		.uleb128 0x1
 799 00b6 13       		.uleb128 0x13
 800 00b7 00       		.byte	0
 801 00b8 00       		.byte	0
 802 00b9 10       		.uleb128 0x10
 803 00ba 0D       		.uleb128 0xd
 804 00bb 00       		.byte	0
 805 00bc 03       		.uleb128 0x3
 806 00bd 08       		.uleb128 0x8
 807 00be 3A       		.uleb128 0x3a
 808 00bf 0B       		.uleb128 0xb
 809 00c0 3B       		.uleb128 0x3b
 810 00c1 05       		.uleb128 0x5
 811 00c2 49       		.uleb128 0x49
 812 00c3 13       		.uleb128 0x13
 813 00c4 00       		.byte	0
 814 00c5 00       		.byte	0
 815 00c6 11       		.uleb128 0x11
 816 00c7 0D       		.uleb128 0xd
 817 00c8 00       		.byte	0
 818 00c9 03       		.uleb128 0x3
 819 00ca 0E       		.uleb128 0xe
 820 00cb 3A       		.uleb128 0x3a
 821 00cc 0B       		.uleb128 0xb
 822 00cd 3B       		.uleb128 0x3b
 823 00ce 05       		.uleb128 0x5
 824 00cf 49       		.uleb128 0x49
 825 00d0 13       		.uleb128 0x13
 826 00d1 00       		.byte	0
 827 00d2 00       		.byte	0
 828 00d3 12       		.uleb128 0x12
 829 00d4 01       		.uleb128 0x1
 830 00d5 01       		.byte	0x1
 831 00d6 49       		.uleb128 0x49
 832 00d7 13       		.uleb128 0x13
 833 00d8 01       		.uleb128 0x1
 834 00d9 13       		.uleb128 0x13
 835 00da 00       		.byte	0
 836 00db 00       		.byte	0
 837 00dc 13       		.uleb128 0x13
 838 00dd 21       		.uleb128 0x21
 839 00de 00       		.byte	0
 840 00df 49       		.uleb128 0x49
ARM GAS  /tmp/ccgTIPQG.s 			page 16


 841 00e0 13       		.uleb128 0x13
 842 00e1 2F       		.uleb128 0x2f
 843 00e2 0B       		.uleb128 0xb
 844 00e3 00       		.byte	0
 845 00e4 00       		.byte	0
 846 00e5 14       		.uleb128 0x14
 847 00e6 2E       		.uleb128 0x2e
 848 00e7 00       		.byte	0
 849 00e8 3F       		.uleb128 0x3f
 850 00e9 19       		.uleb128 0x19
 851 00ea 03       		.uleb128 0x3
 852 00eb 0E       		.uleb128 0xe
 853 00ec 3A       		.uleb128 0x3a
 854 00ed 0B       		.uleb128 0xb
 855 00ee 3B       		.uleb128 0x3b
 856 00ef 0B       		.uleb128 0xb
 857 00f0 27       		.uleb128 0x27
 858 00f1 19       		.uleb128 0x19
 859 00f2 11       		.uleb128 0x11
 860 00f3 01       		.uleb128 0x1
 861 00f4 12       		.uleb128 0x12
 862 00f5 06       		.uleb128 0x6
 863 00f6 40       		.uleb128 0x40
 864 00f7 18       		.uleb128 0x18
 865 00f8 9742     		.uleb128 0x2117
 866 00fa 19       		.uleb128 0x19
 867 00fb 00       		.byte	0
 868 00fc 00       		.byte	0
 869 00fd 15       		.uleb128 0x15
 870 00fe 2E       		.uleb128 0x2e
 871 00ff 01       		.byte	0x1
 872 0100 3F       		.uleb128 0x3f
 873 0101 19       		.uleb128 0x19
 874 0102 03       		.uleb128 0x3
 875 0103 0E       		.uleb128 0xe
 876 0104 3A       		.uleb128 0x3a
 877 0105 0B       		.uleb128 0xb
 878 0106 3B       		.uleb128 0x3b
 879 0107 0B       		.uleb128 0xb
 880 0108 27       		.uleb128 0x27
 881 0109 19       		.uleb128 0x19
 882 010a 11       		.uleb128 0x11
 883 010b 01       		.uleb128 0x1
 884 010c 12       		.uleb128 0x12
 885 010d 06       		.uleb128 0x6
 886 010e 40       		.uleb128 0x40
 887 010f 18       		.uleb128 0x18
 888 0110 9742     		.uleb128 0x2117
 889 0112 19       		.uleb128 0x19
 890 0113 01       		.uleb128 0x1
 891 0114 13       		.uleb128 0x13
 892 0115 00       		.byte	0
 893 0116 00       		.byte	0
 894 0117 16       		.uleb128 0x16
 895 0118 898201   		.uleb128 0x4109
 896 011b 01       		.byte	0x1
 897 011c 11       		.uleb128 0x11
ARM GAS  /tmp/ccgTIPQG.s 			page 17


 898 011d 01       		.uleb128 0x1
 899 011e 31       		.uleb128 0x31
 900 011f 13       		.uleb128 0x13
 901 0120 00       		.byte	0
 902 0121 00       		.byte	0
 903 0122 17       		.uleb128 0x17
 904 0123 8A8201   		.uleb128 0x410a
 905 0126 00       		.byte	0
 906 0127 02       		.uleb128 0x2
 907 0128 18       		.uleb128 0x18
 908 0129 9142     		.uleb128 0x2111
 909 012b 18       		.uleb128 0x18
 910 012c 00       		.byte	0
 911 012d 00       		.byte	0
 912 012e 18       		.uleb128 0x18
 913 012f 34       		.uleb128 0x34
 914 0130 00       		.byte	0
 915 0131 03       		.uleb128 0x3
 916 0132 08       		.uleb128 0x8
 917 0133 3A       		.uleb128 0x3a
 918 0134 0B       		.uleb128 0xb
 919 0135 3B       		.uleb128 0x3b
 920 0136 05       		.uleb128 0x5
 921 0137 49       		.uleb128 0x49
 922 0138 13       		.uleb128 0x13
 923 0139 3F       		.uleb128 0x3f
 924 013a 19       		.uleb128 0x19
 925 013b 3C       		.uleb128 0x3c
 926 013c 19       		.uleb128 0x19
 927 013d 00       		.byte	0
 928 013e 00       		.byte	0
 929 013f 19       		.uleb128 0x19
 930 0140 34       		.uleb128 0x34
 931 0141 00       		.byte	0
 932 0142 03       		.uleb128 0x3
 933 0143 0E       		.uleb128 0xe
 934 0144 3A       		.uleb128 0x3a
 935 0145 0B       		.uleb128 0xb
 936 0146 3B       		.uleb128 0x3b
 937 0147 0B       		.uleb128 0xb
 938 0148 49       		.uleb128 0x49
 939 0149 13       		.uleb128 0x13
 940 014a 3F       		.uleb128 0x3f
 941 014b 19       		.uleb128 0x19
 942 014c 02       		.uleb128 0x2
 943 014d 18       		.uleb128 0x18
 944 014e 00       		.byte	0
 945 014f 00       		.byte	0
 946 0150 1A       		.uleb128 0x1a
 947 0151 2E       		.uleb128 0x2e
 948 0152 01       		.byte	0x1
 949 0153 3F       		.uleb128 0x3f
 950 0154 19       		.uleb128 0x19
 951 0155 03       		.uleb128 0x3
 952 0156 0E       		.uleb128 0xe
 953 0157 3A       		.uleb128 0x3a
 954 0158 0B       		.uleb128 0xb
ARM GAS  /tmp/ccgTIPQG.s 			page 18


 955 0159 3B       		.uleb128 0x3b
 956 015a 05       		.uleb128 0x5
 957 015b 27       		.uleb128 0x27
 958 015c 19       		.uleb128 0x19
 959 015d 3C       		.uleb128 0x3c
 960 015e 19       		.uleb128 0x19
 961 015f 00       		.byte	0
 962 0160 00       		.byte	0
 963 0161 1B       		.uleb128 0x1b
 964 0162 05       		.uleb128 0x5
 965 0163 00       		.byte	0
 966 0164 49       		.uleb128 0x49
 967 0165 13       		.uleb128 0x13
 968 0166 00       		.byte	0
 969 0167 00       		.byte	0
 970 0168 00       		.byte	0
 971              		.section	.debug_aranges,"",%progbits
 972 0000 3C000000 		.4byte	0x3c
 973 0004 0200     		.2byte	0x2
 974 0006 00000000 		.4byte	.Ldebug_info0
 975 000a 04       		.byte	0x4
 976 000b 00       		.byte	0
 977 000c 0000     		.2byte	0
 978 000e 0000     		.2byte	0
 979 0010 00000000 		.4byte	.LFB81
 980 0014 14000000 		.4byte	.LFE81-.LFB81
 981 0018 00000000 		.4byte	.LFB82
 982 001c 02000000 		.4byte	.LFE82-.LFB82
 983 0020 00000000 		.4byte	.LFB83
 984 0024 02000000 		.4byte	.LFE83-.LFB83
 985 0028 00000000 		.4byte	.LFB84
 986 002c 02000000 		.4byte	.LFE84-.LFB84
 987 0030 00000000 		.4byte	.LFB85
 988 0034 10000000 		.4byte	.LFE85-.LFB85
 989 0038 00000000 		.4byte	0
 990 003c 00000000 		.4byte	0
 991              		.section	.debug_ranges,"",%progbits
 992              	.Ldebug_ranges0:
 993 0000 00000000 		.4byte	.LFB81
 994 0004 14000000 		.4byte	.LFE81
 995 0008 00000000 		.4byte	.LFB82
 996 000c 02000000 		.4byte	.LFE82
 997 0010 00000000 		.4byte	.LFB83
 998 0014 02000000 		.4byte	.LFE83
 999 0018 00000000 		.4byte	.LFB84
 1000 001c 02000000 		.4byte	.LFE84
 1001 0020 00000000 		.4byte	.LFB85
 1002 0024 10000000 		.4byte	.LFE85
 1003 0028 00000000 		.4byte	0
 1004 002c 00000000 		.4byte	0
 1005              		.section	.debug_line,"",%progbits
 1006              	.Ldebug_line0:
 1007 0000 34010000 		.section	.debug_str,"MS",%progbits,1
 1007      0200C400 
 1007      00000201 
 1007      FB0E0D00 
 1007      01010101 
ARM GAS  /tmp/ccgTIPQG.s 			page 19


 1008              	.LASF8:
 1009 0000 74687265 		.ascii	"thread_t\000"
 1009      61645F74 
 1009      00
 1010              	.LASF3:
 1011 0009 65706D61 		.ascii	"epmask\000"
 1011      736B00
 1012              	.LASF1:
 1013 0010 73746174 		.ascii	"state\000"
 1013      6500
 1014              	.LASF15:
 1015 0016 75696E74 		.ascii	"uint64_t\000"
 1015      36345F74 
 1015      00
 1016              	.LASF7:
 1017 001f 73686F72 		.ascii	"short int\000"
 1017      7420696E 
 1017      7400
 1018              	.LASF46:
 1019 0029 55736167 		.ascii	"UsageFault_Handler\000"
 1019      65466175 
 1019      6C745F48 
 1019      616E646C 
 1019      657200
 1020              	.LASF23:
 1021 003c 73697A65 		.ascii	"sizetype\000"
 1021      74797065 
 1021      00
 1022              	.LASF49:
 1023 0045 5F5F7374 		.ascii	"__stack_chk_guard\000"
 1023      61636B5F 
 1023      63686B5F 
 1023      67756172 
 1023      6400
 1024              	.LASF35:
 1025 0057 6E696C5F 		.ascii	"nil_system_t\000"
 1025      73797374 
 1025      656D5F74 
 1025      00
 1026              	.LASF10:
 1027 0064 6C6F6E67 		.ascii	"long long int\000"
 1027      206C6F6E 
 1027      6720696E 
 1027      7400
 1028              	.LASF20:
 1029 0072 6576656E 		.ascii	"eventmask_t\000"
 1029      746D6173 
 1029      6B5F7400 
 1030              	.LASF26:
 1031 007e 6E696C5F 		.ascii	"nil_thread\000"
 1031      74687265 
 1031      616400
 1032              	.LASF54:
 1033 0089 63685379 		.ascii	"chSysHalt\000"
 1033      7348616C 
 1033      7400
 1034              	.LASF50:
ARM GAS  /tmp/ccgTIPQG.s 			page 20


 1035 0093 474E5520 		.ascii	"GNU C 4.9.2 -mcpu=cortex-m0 -mfloat-abi=soft -mfp16"
 1035      4320342E 
 1035      392E3220 
 1035      2D6D6370 
 1035      753D636F 
 1036 00c6 2D666F72 		.ascii	"-format=none -mno-thumb-interwork -mthumb -mfloat-a"
 1036      6D61743D 
 1036      6E6F6E65 
 1036      202D6D6E 
 1036      6F2D7468 
 1037 00f9 62693D73 		.ascii	"bi=soft -mfpu=vfpv3-d16 -mtls-dialect=gnu -ggdb -O3"
 1037      6F667420 
 1037      2D6D6670 
 1037      753D7666 
 1037      7076332D 
 1038 012c 202D7374 		.ascii	" -std=gnu99 -fomit-frame-pointer -falign-functions="
 1038      643D676E 
 1038      75393920 
 1038      2D666F6D 
 1038      69742D66 
 1039 015f 3136202D 		.ascii	"16 -ffunction-sections -fdata-sections -fno-common\000"
 1039      6666756E 
 1039      6374696F 
 1039      6E2D7365 
 1039      6374696F 
 1040              	.LASF24:
 1041 0192 72656761 		.ascii	"regarm_t\000"
 1041      726D5F74 
 1041      00
 1042              	.LASF11:
 1043 019b 75696E74 		.ascii	"uint8_t\000"
 1043      385F7400 
 1044              	.LASF17:
 1045 01a3 75696E74 		.ascii	"uintptr_t\000"
 1045      7074725F 
 1045      7400
 1046              	.LASF36:
 1047 01ad 6E696C5F 		.ascii	"nil_system\000"
 1047      73797374 
 1047      656D00
 1048              	.LASF29:
 1049 01b8 73656D61 		.ascii	"semaphore_t\000"
 1049      70686F72 
 1049      655F7400 
 1050              	.LASF39:
 1051 01c4 73797374 		.ascii	"systime\000"
 1051      696D6500 
 1052              	.LASF40:
 1053 01cc 74687265 		.ascii	"threads\000"
 1053      61647300 
 1054              	.LASF30:
 1055 01d4 6E696C5F 		.ascii	"nil_semaphore\000"
 1055      73656D61 
 1055      70686F72 
 1055      6500
 1056              	.LASF0:
 1057 01e2 63747870 		.ascii	"ctxp\000"
ARM GAS  /tmp/ccgTIPQG.s 			page 21


 1057      00
 1058              	.LASF12:
 1059 01e7 756E7369 		.ascii	"unsigned char\000"
 1059      676E6564 
 1059      20636861 
 1059      7200
 1060              	.LASF34:
 1061 01f5 65776D61 		.ascii	"ewmask\000"
 1061      736B00
 1062              	.LASF6:
 1063 01fc 7369676E 		.ascii	"signed char\000"
 1063      65642063 
 1063      68617200 
 1064              	.LASF16:
 1065 0208 6C6F6E67 		.ascii	"long long unsigned int\000"
 1065      206C6F6E 
 1065      6720756E 
 1065      7369676E 
 1065      65642069 
 1066              	.LASF14:
 1067 021f 75696E74 		.ascii	"uint32_t\000"
 1067      33325F74 
 1067      00
 1068              	.LASF5:
 1069 0228 756E7369 		.ascii	"unsigned int\000"
 1069      676E6564 
 1069      20696E74 
 1069      00
 1070              	.LASF37:
 1071 0235 63757272 		.ascii	"current\000"
 1071      656E7400 
 1072              	.LASF13:
 1073 023d 73686F72 		.ascii	"short unsigned int\000"
 1073      7420756E 
 1073      7369676E 
 1073      65642069 
 1073      6E7400
 1074              	.LASF22:
 1075 0250 73797374 		.ascii	"systime_t\000"
 1075      696D655F 
 1075      7400
 1076              	.LASF31:
 1077 025a 63686172 		.ascii	"char\000"
 1077      00
 1078              	.LASF9:
 1079 025f 696E7433 		.ascii	"int32_t\000"
 1079      325F7400 
 1080              	.LASF21:
 1081 0267 636E745F 		.ascii	"cnt_t\000"
 1081      7400
 1082              	.LASF42:
 1083 026d 5F426F6F 		.ascii	"_Bool\000"
 1083      6C00
 1084              	.LASF25:
 1085 0273 73746B61 		.ascii	"stkalign_t\000"
 1085      6C69676E 
 1085      5F7400
ARM GAS  /tmp/ccgTIPQG.s 			page 22


 1086              	.LASF47:
 1087 027e 48415244 		.ascii	"HARDFAULT_PSP\000"
 1087      4641554C 
 1087      545F5053 
 1087      5000
 1088              	.LASF43:
 1089 028c 48617264 		.ascii	"HardFault_Handler\000"
 1089      4661756C 
 1089      745F4861 
 1089      6E646C65 
 1089      7200
 1090              	.LASF51:
 1091 029e 6F726368 		.ascii	"orchard-vectors.c\000"
 1091      6172642D 
 1091      76656374 
 1091      6F72732E 
 1091      6300
 1092              	.LASF27:
 1093 02b0 706F7274 		.ascii	"port_intctx\000"
 1093      5F696E74 
 1093      63747800 
 1094              	.LASF33:
 1095 02bc 73656D70 		.ascii	"semp\000"
 1095      00
 1096              	.LASF45:
 1097 02c1 42757346 		.ascii	"BusFault_Handler\000"
 1097      61756C74 
 1097      5F48616E 
 1097      646C6572 
 1097      00
 1098              	.LASF32:
 1099 02d2 74687265 		.ascii	"thread_reference_t\000"
 1099      61645F72 
 1099      65666572 
 1099      656E6365 
 1099      5F7400
 1100              	.LASF18:
 1101 02e5 74737461 		.ascii	"tstate_t\000"
 1101      74655F74 
 1101      00
 1102              	.LASF52:
 1103 02ee 2F686F6D 		.ascii	"/home/bunnie/code/chibi-chibios/orchard\000"
 1103      652F6275 
 1103      6E6E6965 
 1103      2F636F64 
 1103      652F6368 
 1104              	.LASF28:
 1105 0316 696E7463 		.ascii	"intctx_t\000"
 1105      74785F74 
 1105      00
 1106              	.LASF41:
 1107 031f 6462675F 		.ascii	"dbg_panic_msg\000"
 1107      70616E69 
 1107      635F6D73 
 1107      6700
 1108              	.LASF4:
 1109 032d 73746B6C 		.ascii	"stklim\000"
ARM GAS  /tmp/ccgTIPQG.s 			page 23


 1109      696D00
 1110              	.LASF44:
 1111 0334 4D656D4D 		.ascii	"MemManage_Handler\000"
 1111      616E6167 
 1111      655F4861 
 1111      6E646C65 
 1111      7200
 1112              	.LASF53:
 1113 0346 5F5F7374 		.ascii	"__stack_chk_fail\000"
 1113      61636B5F 
 1113      63686B5F 
 1113      6661696C 
 1113      00
 1114              	.LASF19:
 1115 0357 6D73675F 		.ascii	"msg_t\000"
 1115      7400
 1116              	.LASF2:
 1117 035d 74696D65 		.ascii	"timeout\000"
 1117      6F757400 
 1118              	.LASF38:
 1119 0365 6E657874 		.ascii	"next\000"
 1119      00
 1120              	.LASF48:
 1121 036a 73746163 		.ascii	"stack_pointer\000"
 1121      6B5F706F 
 1121      696E7465 
 1121      7200
 1122              		.ident	"GCC: (Debian 4.9.2-10) 4.9.2"
 1123              		.section	.note.GNU-stack,"",%progbits
ARM GAS  /tmp/ccgTIPQG.s 			page 24


DEFINED SYMBOLS
                            *ABS*:00000000 orchard-vectors.c
     /tmp/ccgTIPQG.s:18     .text.HardFault_Handler:00000000 $t
     /tmp/ccgTIPQG.s:24     .text.HardFault_Handler:00000000 HardFault_Handler
     /tmp/ccgTIPQG.s:51     .text.HardFault_Handler:00000010 $d
     /tmp/ccgTIPQG.s:56     .text.MemManage_Handler:00000000 $t
     /tmp/ccgTIPQG.s:62     .text.MemManage_Handler:00000000 MemManage_Handler
     /tmp/ccgTIPQG.s:73     .text.BusFault_Handler:00000000 $t
     /tmp/ccgTIPQG.s:79     .text.BusFault_Handler:00000000 BusFault_Handler
     /tmp/ccgTIPQG.s:90     .text.UsageFault_Handler:00000000 $t
     /tmp/ccgTIPQG.s:96     .text.UsageFault_Handler:00000000 UsageFault_Handler
     /tmp/ccgTIPQG.s:107    .text.__stack_chk_fail:00000000 $t
     /tmp/ccgTIPQG.s:113    .text.__stack_chk_fail:00000000 __stack_chk_fail
     /tmp/ccgTIPQG.s:131    .text.__stack_chk_fail:0000000c $d
     /tmp/ccgTIPQG.s:152    .data.__stack_chk_guard:00000000 __stack_chk_guard
     /tmp/ccgTIPQG.s:142    .bss.HARDFAULT_PSP:00000000 HARDFAULT_PSP
     /tmp/ccgTIPQG.s:138    .bss.HARDFAULT_PSP:00000000 $d
     /tmp/ccgTIPQG.s:145    .rodata.str1.4:00000000 $d
     /tmp/ccgTIPQG.s:149    .data.__stack_chk_guard:00000000 $d
                     .debug_frame:00000010 $d
     /tmp/ccgTIPQG.s:55     .text.HardFault_Handler:00000014 $t

UNDEFINED SYMBOLS
chSysHalt
