ARM GAS  /tmp/ccgvpqhM.s 			page 1


   1              		.cpu cortex-m0
   2              		.fpu softvfp
   3              		.eabi_attribute 20, 1
   4              		.eabi_attribute 21, 1
   5              		.eabi_attribute 23, 3
   6              		.eabi_attribute 24, 1
   7              		.eabi_attribute 25, 1
   8              		.eabi_attribute 26, 2
   9              		.eabi_attribute 30, 2
  10              		.eabi_attribute 34, 0
  11              		.eabi_attribute 18, 4
  12              		.code	16
  13              		.file	"osal.c"
  14              		.text
  15              	.Ltext0:
  16              		.cfi_sections	.debug_frame
  17              		.section	.text.osalThreadDequeueNextI,"ax",%progbits
  18              		.align	2
  19              		.p2align 4,,15
  20              		.global	osalThreadDequeueNextI
  21              		.code	16
  22              		.thumb_func
  23              		.type	osalThreadDequeueNextI, %function
  24              	osalThreadDequeueNextI:
  25              	.LFB75:
  26              		.file 1 "../os/hal/osal/nil/osal.c"
  27              		.loc 1 59 0
  28              		.cfi_startproc
  29              	.LVL0:
  30 0000 08B5     		push	{r3, lr}
  31              		.cfi_def_cfa_offset 8
  32              		.cfi_offset 3, -8
  33              		.cfi_offset 14, -4
  34              		.loc 1 62 0
  35 0002 0368     		ldr	r3, [r0]
  36 0004 002B     		cmp	r3, #0
  37 0006 00DB     		blt	.L8
  38              	.LVL1:
  39              	.L1:
  40              		.loc 1 80 0
  41              		@ sp needed
  42 0008 08BD     		pop	{r3, pc}
  43              	.LVL2:
  44              	.L8:
  45              	.LBB2:
  46              		.loc 1 66 0
  47 000a 084B     		ldr	r3, .L9
  48 000c 5A69     		ldr	r2, [r3, #20]
  49 000e 0C33     		add	r3, r3, #12
  50 0010 8242     		cmp	r2, r0
  51 0012 03D0     		beq	.L4
  52              	.LVL3:
  53              	.L6:
  54              		.loc 1 74 0
  55 0014 1833     		add	r3, r3, #24
  56              	.LVL4:
  57              		.loc 1 66 0
ARM GAS  /tmp/ccgvpqhM.s 			page 2


  58 0016 9A68     		ldr	r2, [r3, #8]
  59 0018 8242     		cmp	r2, r0
  60 001a FBD1     		bne	.L6
  61              	.LVL5:
  62              	.L4:
  63              		.loc 1 67 0
  64 001c 0268     		ldr	r2, [r0]
  65 001e 0132     		add	r2, r2, #1
  66 0020 0260     		str	r2, [r0]
  67              		.loc 1 71 0
  68 0022 181C     		mov	r0, r3
  69              	.LVL6:
  70 0024 FFF7FEFF 		bl	chSchReadyI
  71              	.LVL7:
  72              		.loc 1 72 0
  73 0028 EEE7     		b	.L1
  74              	.L10:
  75 002a C046     		.align	2
  76              	.L9:
  77 002c 00000000 		.word	nil
  78              	.LBE2:
  79              		.cfi_endproc
  80              	.LFE75:
  81              		.size	osalThreadDequeueNextI, .-osalThreadDequeueNextI
  82              		.section	.text.osalThreadDequeueAllI,"ax",%progbits
  83              		.align	2
  84              		.p2align 4,,15
  85              		.global	osalThreadDequeueAllI
  86              		.code	16
  87              		.thumb_func
  88              		.type	osalThreadDequeueAllI, %function
  89              	osalThreadDequeueAllI:
  90              	.LFB76:
  91              		.loc 1 90 0
  92              		.cfi_startproc
  93              	.LVL8:
  94 0000 F8B5     		push	{r3, r4, r5, r6, r7, lr}
  95              		.cfi_def_cfa_offset 24
  96              		.cfi_offset 3, -24
  97              		.cfi_offset 4, -20
  98              		.cfi_offset 5, -16
  99              		.cfi_offset 6, -12
 100              		.cfi_offset 7, -8
 101              		.cfi_offset 14, -4
 102              		.loc 1 96 0
 103 0002 0023     		mov	r3, #0
 104              		.loc 1 95 0
 105 0004 0668     		ldr	r6, [r0]
 106              	.LVL9:
 107              		.loc 1 96 0
 108 0006 0360     		str	r3, [r0]
 109              	.LVL10:
 110              		.loc 1 98 0
 111 0008 002E     		cmp	r6, #0
 112 000a 0FDA     		bge	.L11
 113 000c 0F1C     		mov	r7, r1
 114 000e 051C     		mov	r5, r0
ARM GAS  /tmp/ccgvpqhM.s 			page 3


 115 0010 074C     		ldr	r4, .L17
 116              	.LVL11:
 117 0012 00E0     		b	.L13
 118              	.LVL12:
 119              	.L14:
 120              		.loc 1 111 0
 121 0014 1834     		add	r4, r4, #24
 122              	.LVL13:
 123              	.L13:
 124              		.loc 1 104 0
 125 0016 A368     		ldr	r3, [r4, #8]
 126 0018 AB42     		cmp	r3, r5
 127 001a FBD1     		bne	.L14
 128              		.loc 1 109 0
 129 001c 201C     		mov	r0, r4
 130 001e 391C     		mov	r1, r7
 131              		.loc 1 108 0
 132 0020 0136     		add	r6, r6, #1
 133              	.LVL14:
 134              		.loc 1 109 0
 135 0022 FFF7FEFF 		bl	chSchReadyI
 136              	.LVL15:
 137              		.loc 1 111 0
 138 0026 1834     		add	r4, r4, #24
 139              	.LVL16:
 140              		.loc 1 98 0
 141 0028 002E     		cmp	r6, #0
 142 002a F4D1     		bne	.L13
 143              	.LVL17:
 144              	.L11:
 145              		.loc 1 113 0
 146              		@ sp needed
 147              	.LVL18:
 148 002c F8BD     		pop	{r3, r4, r5, r6, r7, pc}
 149              	.L18:
 150 002e C046     		.align	2
 151              	.L17:
 152 0030 0C000000 		.word	nil+12
 153              		.cfi_endproc
 154              	.LFE76:
 155              		.size	osalThreadDequeueAllI, .-osalThreadDequeueAllI
 156 0034 C046C046 		.text
 156      C046C046 
 156      C046C046 
 157              	.Letext0:
 158              		.file 2 "/usr/include/stdint.h"
 159              		.file 3 "../os/nil/include/nil.h"
 160              		.file 4 "../os/nil/ports/ARMCMx/compilers/GCC/niltypes.h"
 161              		.file 5 "../os/nil/ports/ARMCMx/nilcore.h"
 162              		.file 6 "../os/nil/ports/ARMCMx/nilcore_v6m.h"
 163              		.file 7 "../os/hal/osal/nil/osal.h"
 1302              		.section	.note.GNU-stack,"",%progbits
ARM GAS  /tmp/ccgvpqhM.s 			page 27

