ARM GAS  /tmp/ccgvpqhM.s 			page 1


   1              		.cpu cortex-m0
   2              		.fpu softvfp
   3              		.eabi_attribute 20, 1
   4              		.eabi_attribute 21, 1
   5              		.eabi_attribute 23, 3
   6              		.eabi_attribute 24, 1
   7              		.eabi_attribute 25, 1
   8              		.eabi_attribute 26, 2
   9              		.eabi_attribute 30, 2
  10              		.eabi_attribute 34, 0
  11              		.eabi_attribute 18, 4
  12              		.code	16
  13              		.file	"osal.c"
  14              		.text
  15              	.Ltext0:
  16              		.cfi_sections	.debug_frame
  17              		.section	.text.osalThreadDequeueNextI,"ax",%progbits
  18              		.align	2
  19              		.p2align 4,,15
  20              		.global	osalThreadDequeueNextI
  21              		.code	16
  22              		.thumb_func
  23              		.type	osalThreadDequeueNextI, %function
  24              	osalThreadDequeueNextI:
  25              	.LFB75:
  26              		.file 1 "../os/hal/osal/nil/osal.c"
  27              		.loc 1 59 0
  28              		.cfi_startproc
  29              	.LVL0:
  30 0000 08B5     		push	{r3, lr}
  31              		.cfi_def_cfa_offset 8
  32              		.cfi_offset 3, -8
  33              		.cfi_offset 14, -4
  34              		.loc 1 62 0
  35 0002 0368     		ldr	r3, [r0]
  36 0004 002B     		cmp	r3, #0
  37 0006 00DB     		blt	.L8
  38              	.LVL1:
  39              	.L1:
  40              		.loc 1 80 0
  41              		@ sp needed
  42 0008 08BD     		pop	{r3, pc}
  43              	.LVL2:
  44              	.L8:
  45              	.LBB2:
  46              		.loc 1 66 0
  47 000a 084B     		ldr	r3, .L9
  48 000c 5A69     		ldr	r2, [r3, #20]
  49 000e 0C33     		add	r3, r3, #12
  50 0010 8242     		cmp	r2, r0
  51 0012 03D0     		beq	.L4
  52              	.LVL3:
  53              	.L6:
  54              		.loc 1 74 0
  55 0014 1833     		add	r3, r3, #24
  56              	.LVL4:
  57              		.loc 1 66 0
ARM GAS  /tmp/ccgvpqhM.s 			page 2


  58 0016 9A68     		ldr	r2, [r3, #8]
  59 0018 8242     		cmp	r2, r0
  60 001a FBD1     		bne	.L6
  61              	.LVL5:
  62              	.L4:
  63              		.loc 1 67 0
  64 001c 0268     		ldr	r2, [r0]
  65 001e 0132     		add	r2, r2, #1
  66 0020 0260     		str	r2, [r0]
  67              		.loc 1 71 0
  68 0022 181C     		mov	r0, r3
  69              	.LVL6:
  70 0024 FFF7FEFF 		bl	chSchReadyI
  71              	.LVL7:
  72              		.loc 1 72 0
  73 0028 EEE7     		b	.L1
  74              	.L10:
  75 002a C046     		.align	2
  76              	.L9:
  77 002c 00000000 		.word	nil
  78              	.LBE2:
  79              		.cfi_endproc
  80              	.LFE75:
  81              		.size	osalThreadDequeueNextI, .-osalThreadDequeueNextI
  82              		.section	.text.osalThreadDequeueAllI,"ax",%progbits
  83              		.align	2
  84              		.p2align 4,,15
  85              		.global	osalThreadDequeueAllI
  86              		.code	16
  87              		.thumb_func
  88              		.type	osalThreadDequeueAllI, %function
  89              	osalThreadDequeueAllI:
  90              	.LFB76:
  91              		.loc 1 90 0
  92              		.cfi_startproc
  93              	.LVL8:
  94 0000 F8B5     		push	{r3, r4, r5, r6, r7, lr}
  95              		.cfi_def_cfa_offset 24
  96              		.cfi_offset 3, -24
  97              		.cfi_offset 4, -20
  98              		.cfi_offset 5, -16
  99              		.cfi_offset 6, -12
 100              		.cfi_offset 7, -8
 101              		.cfi_offset 14, -4
 102              		.loc 1 96 0
 103 0002 0023     		mov	r3, #0
 104              		.loc 1 95 0
 105 0004 0668     		ldr	r6, [r0]
 106              	.LVL9:
 107              		.loc 1 96 0
 108 0006 0360     		str	r3, [r0]
 109              	.LVL10:
 110              		.loc 1 98 0
 111 0008 002E     		cmp	r6, #0
 112 000a 0FDA     		bge	.L11
 113 000c 0F1C     		mov	r7, r1
 114 000e 051C     		mov	r5, r0
ARM GAS  /tmp/ccgvpqhM.s 			page 3


 115 0010 074C     		ldr	r4, .L17
 116              	.LVL11:
 117 0012 00E0     		b	.L13
 118              	.LVL12:
 119              	.L14:
 120              		.loc 1 111 0
 121 0014 1834     		add	r4, r4, #24
 122              	.LVL13:
 123              	.L13:
 124              		.loc 1 104 0
 125 0016 A368     		ldr	r3, [r4, #8]
 126 0018 AB42     		cmp	r3, r5
 127 001a FBD1     		bne	.L14
 128              		.loc 1 109 0
 129 001c 201C     		mov	r0, r4
 130 001e 391C     		mov	r1, r7
 131              		.loc 1 108 0
 132 0020 0136     		add	r6, r6, #1
 133              	.LVL14:
 134              		.loc 1 109 0
 135 0022 FFF7FEFF 		bl	chSchReadyI
 136              	.LVL15:
 137              		.loc 1 111 0
 138 0026 1834     		add	r4, r4, #24
 139              	.LVL16:
 140              		.loc 1 98 0
 141 0028 002E     		cmp	r6, #0
 142 002a F4D1     		bne	.L13
 143              	.LVL17:
 144              	.L11:
 145              		.loc 1 113 0
 146              		@ sp needed
 147              	.LVL18:
 148 002c F8BD     		pop	{r3, r4, r5, r6, r7, pc}
 149              	.L18:
 150 002e C046     		.align	2
 151              	.L17:
 152 0030 0C000000 		.word	nil+12
 153              		.cfi_endproc
 154              	.LFE76:
 155              		.size	osalThreadDequeueAllI, .-osalThreadDequeueAllI
 156 0034 C046C046 		.text
 156      C046C046 
 156      C046C046 
 157              	.Letext0:
 158              		.file 2 "/usr/include/stdint.h"
 159              		.file 3 "../os/nil/include/nil.h"
 160              		.file 4 "../os/nil/ports/ARMCMx/compilers/GCC/niltypes.h"
 161              		.file 5 "../os/nil/ports/ARMCMx/nilcore.h"
 162              		.file 6 "../os/nil/ports/ARMCMx/nilcore_v6m.h"
 163              		.file 7 "../os/hal/osal/nil/osal.h"
 164              		.section	.debug_info,"",%progbits
 165              	.Ldebug_info0:
 166 0000 3E040000 		.4byte	0x43e
 167 0004 0400     		.2byte	0x4
 168 0006 00000000 		.4byte	.Ldebug_abbrev0
 169 000a 04       		.byte	0x4
ARM GAS  /tmp/ccgvpqhM.s 			page 4


 170 000b 01       		.uleb128 0x1
 171 000c A9000000 		.4byte	.LASF45
 172 0010 01       		.byte	0x1
 173 0011 B5010000 		.4byte	.LASF46
 174 0015 81000000 		.4byte	.LASF47
 175 0019 00000000 		.4byte	.Ldebug_ranges0+0
 176 001d 00000000 		.4byte	0
 177 0021 00000000 		.4byte	.Ldebug_line0
 178 0025 02       		.uleb128 0x2
 179 0026 04       		.byte	0x4
 180 0027 05       		.byte	0x5
 181 0028 696E7400 		.ascii	"int\000"
 182 002c 03       		.uleb128 0x3
 183 002d 04       		.byte	0x4
 184 002e 07       		.byte	0x7
 185 002f A8010000 		.4byte	.LASF0
 186 0033 03       		.uleb128 0x3
 187 0034 01       		.byte	0x1
 188 0035 06       		.byte	0x6
 189 0036 3F000000 		.4byte	.LASF1
 190 003a 03       		.uleb128 0x3
 191 003b 02       		.byte	0x2
 192 003c 05       		.byte	0x5
 193 003d 92020000 		.4byte	.LASF2
 194 0041 04       		.uleb128 0x4
 195 0042 55020000 		.4byte	.LASF4
 196 0046 02       		.byte	0x2
 197 0047 26       		.byte	0x26
 198 0048 25000000 		.4byte	0x25
 199 004c 03       		.uleb128 0x3
 200 004d 08       		.byte	0x8
 201 004e 05       		.byte	0x5
 202 004f 31000000 		.4byte	.LASF3
 203 0053 04       		.uleb128 0x4
 204 0054 13030000 		.4byte	.LASF5
 205 0058 02       		.byte	0x2
 206 0059 30       		.byte	0x30
 207 005a 5E000000 		.4byte	0x5e
 208 005e 03       		.uleb128 0x3
 209 005f 01       		.byte	0x1
 210 0060 08       		.byte	0x8
 211 0061 5D020000 		.4byte	.LASF6
 212 0065 03       		.uleb128 0x3
 213 0066 02       		.byte	0x2
 214 0067 07       		.byte	0x7
 215 0068 E2010000 		.4byte	.LASF7
 216 006c 04       		.uleb128 0x4
 217 006d C0020000 		.4byte	.LASF8
 218 0071 02       		.byte	0x2
 219 0072 33       		.byte	0x33
 220 0073 2C000000 		.4byte	0x2c
 221 0077 04       		.uleb128 0x4
 222 0078 00000000 		.4byte	.LASF9
 223 007c 02       		.byte	0x2
 224 007d 3A       		.byte	0x3a
 225 007e 82000000 		.4byte	0x82
 226 0082 03       		.uleb128 0x3
ARM GAS  /tmp/ccgvpqhM.s 			page 5


 227 0083 08       		.byte	0x8
 228 0084 07       		.byte	0x7
 229 0085 15000000 		.4byte	.LASF10
 230 0089 04       		.uleb128 0x4
 231 008a E3020000 		.4byte	.LASF11
 232 008e 03       		.byte	0x3
 233 008f 25       		.byte	0x25
 234 0090 94000000 		.4byte	0x94
 235 0094 05       		.uleb128 0x5
 236 0095 D7010000 		.4byte	.LASF25
 237 0099 18       		.byte	0x18
 238 009a 03       		.byte	0x3
 239 009b 6201     		.2byte	0x162
 240 009d EF000000 		.4byte	0xef
 241 00a1 06       		.uleb128 0x6
 242 00a2 49020000 		.4byte	.LASF12
 243 00a6 03       		.byte	0x3
 244 00a7 6301     		.2byte	0x163
 245 00a9 69020000 		.4byte	0x269
 246 00ad 00       		.byte	0
 247 00ae 06       		.uleb128 0x6
 248 00af 6B000000 		.4byte	.LASF13
 249 00b3 03       		.byte	0x3
 250 00b4 6401     		.2byte	0x164
 251 00b6 EF000000 		.4byte	0xef
 252 00ba 04       		.byte	0x4
 253 00bb 07       		.uleb128 0x7
 254 00bc 753100   		.ascii	"u1\000"
 255 00bf 03       		.byte	0x3
 256 00c0 6F01     		.2byte	0x16f
 257 00c2 19020000 		.4byte	0x219
 258 00c6 08       		.byte	0x8
 259 00c7 06       		.uleb128 0x6
 260 00c8 CF010000 		.4byte	.LASF14
 261 00cc 03       		.byte	0x3
 262 00cd 7001     		.2byte	0x170
 263 00cf 6F020000 		.4byte	0x26f
 264 00d3 0C       		.byte	0xc
 265 00d4 06       		.uleb128 0x6
 266 00d5 7A000000 		.4byte	.LASF15
 267 00d9 03       		.byte	0x3
 268 00da 7301     		.2byte	0x173
 269 00dc 05010000 		.4byte	0x105
 270 00e0 10       		.byte	0x10
 271 00e1 06       		.uleb128 0x6
 272 00e2 4E020000 		.4byte	.LASF16
 273 00e6 03       		.byte	0x3
 274 00e7 7601     		.2byte	0x176
 275 00e9 EF010000 		.4byte	0x1ef
 276 00ed 14       		.byte	0x14
 277 00ee 00       		.byte	0
 278 00ef 04       		.uleb128 0x4
 279 00f0 71000000 		.4byte	.LASF17
 280 00f4 04       		.byte	0x4
 281 00f5 37       		.byte	0x37
 282 00f6 53000000 		.4byte	0x53
 283 00fa 04       		.uleb128 0x4
ARM GAS  /tmp/ccgvpqhM.s 			page 6


 284 00fb F5010000 		.4byte	.LASF18
 285 00ff 04       		.byte	0x4
 286 0100 38       		.byte	0x38
 287 0101 41000000 		.4byte	0x41
 288 0105 04       		.uleb128 0x4
 289 0106 08020000 		.4byte	.LASF19
 290 010a 04       		.byte	0x4
 291 010b 39       		.byte	0x39
 292 010c 6C000000 		.4byte	0x6c
 293 0110 04       		.uleb128 0x4
 294 0111 3B020000 		.4byte	.LASF20
 295 0115 04       		.byte	0x4
 296 0116 3A       		.byte	0x3a
 297 0117 41000000 		.4byte	0x41
 298 011b 04       		.uleb128 0x4
 299 011c EC020000 		.4byte	.LASF21
 300 0120 04       		.byte	0x4
 301 0121 41       		.byte	0x41
 302 0122 6C000000 		.4byte	0x6c
 303 0126 03       		.uleb128 0x3
 304 0127 04       		.byte	0x4
 305 0128 07       		.byte	0x7
 306 0129 1F020000 		.4byte	.LASF22
 307 012d 04       		.uleb128 0x4
 308 012e C9020000 		.4byte	.LASF23
 309 0132 05       		.byte	0x5
 310 0133 65       		.byte	0x65
 311 0134 38010000 		.4byte	0x138
 312 0138 08       		.uleb128 0x8
 313 0139 04       		.byte	0x4
 314 013a 04       		.uleb128 0x4
 315 013b 14020000 		.4byte	.LASF24
 316 013f 05       		.byte	0x5
 317 0140 6D       		.byte	0x6d
 318 0141 77000000 		.4byte	0x77
 319 0145 09       		.uleb128 0x9
 320 0146 09000000 		.4byte	.LASF26
 321 014a 24       		.byte	0x24
 322 014b 06       		.byte	0x6
 323 014c A4       		.byte	0xa4
 324 014d B7010000 		.4byte	0x1b7
 325 0151 0A       		.uleb128 0xa
 326 0152 723800   		.ascii	"r8\000"
 327 0155 06       		.byte	0x6
 328 0156 A5       		.byte	0xa5
 329 0157 2D010000 		.4byte	0x12d
 330 015b 00       		.byte	0
 331 015c 0A       		.uleb128 0xa
 332 015d 723900   		.ascii	"r9\000"
 333 0160 06       		.byte	0x6
 334 0161 A6       		.byte	0xa6
 335 0162 2D010000 		.4byte	0x12d
 336 0166 04       		.byte	0x4
 337 0167 0A       		.uleb128 0xa
 338 0168 72313000 		.ascii	"r10\000"
 339 016c 06       		.byte	0x6
 340 016d A7       		.byte	0xa7
ARM GAS  /tmp/ccgvpqhM.s 			page 7


 341 016e 2D010000 		.4byte	0x12d
 342 0172 08       		.byte	0x8
 343 0173 0A       		.uleb128 0xa
 344 0174 72313100 		.ascii	"r11\000"
 345 0178 06       		.byte	0x6
 346 0179 A8       		.byte	0xa8
 347 017a 2D010000 		.4byte	0x12d
 348 017e 0C       		.byte	0xc
 349 017f 0A       		.uleb128 0xa
 350 0180 723400   		.ascii	"r4\000"
 351 0183 06       		.byte	0x6
 352 0184 A9       		.byte	0xa9
 353 0185 2D010000 		.4byte	0x12d
 354 0189 10       		.byte	0x10
 355 018a 0A       		.uleb128 0xa
 356 018b 723500   		.ascii	"r5\000"
 357 018e 06       		.byte	0x6
 358 018f AA       		.byte	0xaa
 359 0190 2D010000 		.4byte	0x12d
 360 0194 14       		.byte	0x14
 361 0195 0A       		.uleb128 0xa
 362 0196 723600   		.ascii	"r6\000"
 363 0199 06       		.byte	0x6
 364 019a AB       		.byte	0xab
 365 019b 2D010000 		.4byte	0x12d
 366 019f 18       		.byte	0x18
 367 01a0 0A       		.uleb128 0xa
 368 01a1 723700   		.ascii	"r7\000"
 369 01a4 06       		.byte	0x6
 370 01a5 AC       		.byte	0xac
 371 01a6 2D010000 		.4byte	0x12d
 372 01aa 1C       		.byte	0x1c
 373 01ab 0A       		.uleb128 0xa
 374 01ac 6C7200   		.ascii	"lr\000"
 375 01af 06       		.byte	0x6
 376 01b0 AD       		.byte	0xad
 377 01b1 2D010000 		.4byte	0x12d
 378 01b5 20       		.byte	0x20
 379 01b6 00       		.byte	0
 380 01b7 0B       		.uleb128 0xb
 381 01b8 62000000 		.4byte	.LASF27
 382 01bc 03       		.byte	0x3
 383 01bd 3701     		.2byte	0x137
 384 01bf 45010000 		.4byte	0x145
 385 01c3 0B       		.uleb128 0xb
 386 01c4 B4020000 		.4byte	.LASF28
 387 01c8 03       		.byte	0x3
 388 01c9 3C01     		.2byte	0x13c
 389 01cb CF010000 		.4byte	0x1cf
 390 01cf 05       		.uleb128 0x5
 391 01d0 79020000 		.4byte	.LASF29
 392 01d4 04       		.byte	0x4
 393 01d5 03       		.byte	0x3
 394 01d6 4101     		.2byte	0x141
 395 01d8 EA010000 		.4byte	0x1ea
 396 01dc 07       		.uleb128 0x7
 397 01dd 636E7400 		.ascii	"cnt\000"
ARM GAS  /tmp/ccgvpqhM.s 			page 8


 398 01e1 03       		.byte	0x3
 399 01e2 4201     		.2byte	0x142
 400 01e4 EA010000 		.4byte	0x1ea
 401 01e8 00       		.byte	0
 402 01e9 00       		.byte	0
 403 01ea 0C       		.uleb128 0xc
 404 01eb 10010000 		.4byte	0x110
 405 01ef 0D       		.uleb128 0xd
 406 01f0 04       		.byte	0x4
 407 01f1 3A010000 		.4byte	0x13a
 408 01f5 0D       		.uleb128 0xd
 409 01f6 04       		.byte	0x4
 410 01f7 FB010000 		.4byte	0x1fb
 411 01fb 0E       		.uleb128 0xe
 412 01fc 00020000 		.4byte	0x200
 413 0200 03       		.uleb128 0x3
 414 0201 01       		.byte	0x1
 415 0202 08       		.byte	0x8
 416 0203 DE020000 		.4byte	.LASF30
 417 0207 0B       		.uleb128 0xb
 418 0208 28020000 		.4byte	.LASF31
 419 020c 03       		.byte	0x3
 420 020d 5D01     		.2byte	0x15d
 421 020f 13020000 		.4byte	0x213
 422 0213 0D       		.uleb128 0xd
 423 0214 04       		.byte	0x4
 424 0215 89000000 		.4byte	0x89
 425 0219 0F       		.uleb128 0xf
 426 021a 04       		.byte	0x4
 427 021b 03       		.byte	0x3
 428 021c 6701     		.2byte	0x167
 429 021e 5D020000 		.4byte	0x25d
 430 0222 10       		.uleb128 0x10
 431 0223 6D736700 		.ascii	"msg\000"
 432 0227 03       		.byte	0x3
 433 0228 6801     		.2byte	0x168
 434 022a FA000000 		.4byte	0xfa
 435 022e 10       		.uleb128 0x10
 436 022f 7000     		.ascii	"p\000"
 437 0231 03       		.byte	0x3
 438 0232 6901     		.2byte	0x169
 439 0234 38010000 		.4byte	0x138
 440 0238 10       		.uleb128 0x10
 441 0239 74727000 		.ascii	"trp\000"
 442 023d 03       		.byte	0x3
 443 023e 6A01     		.2byte	0x16a
 444 0240 5D020000 		.4byte	0x25d
 445 0244 11       		.uleb128 0x11
 446 0245 FB010000 		.4byte	.LASF32
 447 0249 03       		.byte	0x3
 448 024a 6B01     		.2byte	0x16b
 449 024c 63020000 		.4byte	0x263
 450 0250 11       		.uleb128 0x11
 451 0251 A4020000 		.4byte	.LASF33
 452 0255 03       		.byte	0x3
 453 0256 6D01     		.2byte	0x16d
 454 0258 05010000 		.4byte	0x105
ARM GAS  /tmp/ccgvpqhM.s 			page 9


 455 025c 00       		.byte	0
 456 025d 0D       		.uleb128 0xd
 457 025e 04       		.byte	0x4
 458 025f 07020000 		.4byte	0x207
 459 0263 0D       		.uleb128 0xd
 460 0264 04       		.byte	0x4
 461 0265 C3010000 		.4byte	0x1c3
 462 0269 0D       		.uleb128 0xd
 463 026a 04       		.byte	0x4
 464 026b B7010000 		.4byte	0x1b7
 465 026f 0C       		.uleb128 0xc
 466 0270 1B010000 		.4byte	0x11b
 467 0274 0B       		.uleb128 0xb
 468 0275 F6020000 		.4byte	.LASF34
 469 0279 03       		.byte	0x3
 470 027a 7F01     		.2byte	0x17f
 471 027c 80020000 		.4byte	0x280
 472 0280 05       		.uleb128 0x5
 473 0281 87020000 		.4byte	.LASF35
 474 0285 40       		.byte	0x40
 475 0286 03       		.byte	0x3
 476 0287 8601     		.2byte	0x186
 477 0289 CF020000 		.4byte	0x2cf
 478 028d 06       		.uleb128 0x6
 479 028e 41020000 		.4byte	.LASF36
 480 0292 03       		.byte	0x3
 481 0293 8A01     		.2byte	0x18a
 482 0295 13020000 		.4byte	0x213
 483 0299 00       		.byte	0
 484 029a 06       		.uleb128 0x6
 485 029b 2C000000 		.4byte	.LASF37
 486 029f 03       		.byte	0x3
 487 02a0 9001     		.2byte	0x190
 488 02a2 13020000 		.4byte	0x213
 489 02a6 04       		.byte	0x4
 490 02a7 06       		.uleb128 0x6
 491 02a8 00020000 		.4byte	.LASF38
 492 02ac 03       		.byte	0x3
 493 02ad 9501     		.2byte	0x195
 494 02af 6F020000 		.4byte	0x26f
 495 02b3 08       		.byte	0x8
 496 02b4 06       		.uleb128 0x6
 497 02b5 9C020000 		.4byte	.LASF39
 498 02b9 03       		.byte	0x3
 499 02ba A401     		.2byte	0x1a4
 500 02bc CF020000 		.4byte	0x2cf
 501 02c0 0C       		.byte	0xc
 502 02c1 06       		.uleb128 0x6
 503 02c2 6B020000 		.4byte	.LASF40
 504 02c6 03       		.byte	0x3
 505 02c7 AD01     		.2byte	0x1ad
 506 02c9 DF020000 		.4byte	0x2df
 507 02cd 3C       		.byte	0x3c
 508 02ce 00       		.byte	0
 509 02cf 12       		.uleb128 0x12
 510 02d0 89000000 		.4byte	0x89
 511 02d4 DF020000 		.4byte	0x2df
ARM GAS  /tmp/ccgvpqhM.s 			page 10


 512 02d8 13       		.uleb128 0x13
 513 02d9 26010000 		.4byte	0x126
 514 02dd 01       		.byte	0x1
 515 02de 00       		.byte	0
 516 02df 0C       		.uleb128 0xc
 517 02e0 F5010000 		.4byte	0x1f5
 518 02e4 14       		.uleb128 0x14
 519 02e5 04       		.byte	0x4
 520 02e6 07       		.byte	0x7
 521 02e7 DF       		.byte	0xdf
 522 02e8 F9020000 		.4byte	0x2f9
 523 02ec 0A       		.uleb128 0xa
 524 02ed 73656D00 		.ascii	"sem\000"
 525 02f1 07       		.byte	0x7
 526 02f2 E0       		.byte	0xe0
 527 02f3 C3010000 		.4byte	0x1c3
 528 02f7 00       		.byte	0
 529 02f8 00       		.byte	0
 530 02f9 04       		.uleb128 0x4
 531 02fa 03030000 		.4byte	.LASF41
 532 02fe 07       		.byte	0x7
 533 02ff E1       		.byte	0xe1
 534 0300 E4020000 		.4byte	0x2e4
 535 0304 15       		.uleb128 0x15
 536 0305 4B000000 		.4byte	.LASF42
 537 0309 01       		.byte	0x1
 538 030a 3B       		.byte	0x3b
 539 030b 00000000 		.4byte	.LFB75
 540 030f 30000000 		.4byte	.LFE75-.LFB75
 541 0313 01       		.uleb128 0x1
 542 0314 9C       		.byte	0x9c
 543 0315 70030000 		.4byte	0x370
 544 0319 16       		.uleb128 0x16
 545 031a 74717000 		.ascii	"tqp\000"
 546 031e 01       		.byte	0x1
 547 031f 3B       		.byte	0x3b
 548 0320 70030000 		.4byte	0x370
 549 0324 00000000 		.4byte	.LLST0
 550 0328 16       		.uleb128 0x16
 551 0329 6D736700 		.ascii	"msg\000"
 552 032d 01       		.byte	0x1
 553 032e 3B       		.byte	0x3b
 554 032f FA000000 		.4byte	0xfa
 555 0333 3A000000 		.4byte	.LLST1
 556 0337 17       		.uleb128 0x17
 557 0338 737000   		.ascii	"sp\000"
 558 033b 01       		.byte	0x1
 559 033c 3C       		.byte	0x3c
 560 033d 63020000 		.4byte	0x263
 561 0341 00000000 		.4byte	.LLST0
 562 0345 18       		.uleb128 0x18
 563 0346 AB020000 		.4byte	.LASF44
 564 034a 86030000 		.4byte	0x386
 565 034e 19       		.uleb128 0x19
 566 034f 0A000000 		.4byte	.LBB2
 567 0353 26000000 		.4byte	.LBE2-.LBB2
 568 0357 17       		.uleb128 0x17
ARM GAS  /tmp/ccgvpqhM.s 			page 11


 569 0358 747000   		.ascii	"tp\000"
 570 035b 01       		.byte	0x1
 571 035c 3F       		.byte	0x3f
 572 035d 13020000 		.4byte	0x213
 573 0361 74000000 		.4byte	.LLST3
 574 0365 1A       		.uleb128 0x1a
 575 0366 28000000 		.4byte	.LVL7
 576 036a 2A040000 		.4byte	0x42a
 577 036e 00       		.byte	0
 578 036f 00       		.byte	0
 579 0370 0D       		.uleb128 0xd
 580 0371 04       		.byte	0x4
 581 0372 F9020000 		.4byte	0x2f9
 582 0376 12       		.uleb128 0x12
 583 0377 00020000 		.4byte	0x200
 584 037b 86030000 		.4byte	0x386
 585 037f 13       		.uleb128 0x13
 586 0380 26010000 		.4byte	0x126
 587 0384 16       		.byte	0x16
 588 0385 00       		.byte	0
 589 0386 0E       		.uleb128 0xe
 590 0387 76030000 		.4byte	0x376
 591 038b 15       		.uleb128 0x15
 592 038c 1B030000 		.4byte	.LASF43
 593 0390 01       		.byte	0x1
 594 0391 5A       		.byte	0x5a
 595 0392 00000000 		.4byte	.LFB76
 596 0396 34000000 		.4byte	.LFE76-.LFB76
 597 039a 01       		.uleb128 0x1
 598 039b 9C       		.byte	0x9c
 599 039c 09040000 		.4byte	0x409
 600 03a0 16       		.uleb128 0x16
 601 03a1 74717000 		.ascii	"tqp\000"
 602 03a5 01       		.byte	0x1
 603 03a6 5A       		.byte	0x5a
 604 03a7 70030000 		.4byte	0x370
 605 03ab 87000000 		.4byte	.LLST4
 606 03af 16       		.uleb128 0x16
 607 03b0 6D736700 		.ascii	"msg\000"
 608 03b4 01       		.byte	0x1
 609 03b5 5A       		.byte	0x5a
 610 03b6 FA000000 		.4byte	0xfa
 611 03ba B3000000 		.4byte	.LLST5
 612 03be 17       		.uleb128 0x17
 613 03bf 737000   		.ascii	"sp\000"
 614 03c2 01       		.byte	0x1
 615 03c3 5B       		.byte	0x5b
 616 03c4 63020000 		.4byte	0x263
 617 03c8 87000000 		.4byte	.LLST4
 618 03cc 17       		.uleb128 0x17
 619 03cd 747000   		.ascii	"tp\000"
 620 03d0 01       		.byte	0x1
 621 03d1 5C       		.byte	0x5c
 622 03d2 13020000 		.4byte	0x213
 623 03d6 DF000000 		.4byte	.LLST7
 624 03da 17       		.uleb128 0x17
 625 03db 636E7400 		.ascii	"cnt\000"
ARM GAS  /tmp/ccgvpqhM.s 			page 12


 626 03df 01       		.byte	0x1
 627 03e0 5D       		.byte	0x5d
 628 03e1 10010000 		.4byte	0x110
 629 03e5 F2000000 		.4byte	.LLST8
 630 03e9 18       		.uleb128 0x18
 631 03ea AB020000 		.4byte	.LASF44
 632 03ee 19040000 		.4byte	0x419
 633 03f2 1B       		.uleb128 0x1b
 634 03f3 26000000 		.4byte	.LVL15
 635 03f7 2A040000 		.4byte	0x42a
 636 03fb 1C       		.uleb128 0x1c
 637 03fc 01       		.uleb128 0x1
 638 03fd 51       		.byte	0x51
 639 03fe 02       		.uleb128 0x2
 640 03ff 77       		.byte	0x77
 641 0400 00       		.sleb128 0
 642 0401 1C       		.uleb128 0x1c
 643 0402 01       		.uleb128 0x1
 644 0403 50       		.byte	0x50
 645 0404 02       		.uleb128 0x2
 646 0405 74       		.byte	0x74
 647 0406 00       		.sleb128 0
 648 0407 00       		.byte	0
 649 0408 00       		.byte	0
 650 0409 12       		.uleb128 0x12
 651 040a 00020000 		.4byte	0x200
 652 040e 19040000 		.4byte	0x419
 653 0412 13       		.uleb128 0x13
 654 0413 26010000 		.4byte	0x126
 655 0417 15       		.byte	0x15
 656 0418 00       		.byte	0
 657 0419 0E       		.uleb128 0xe
 658 041a 09040000 		.4byte	0x409
 659 041e 1D       		.uleb128 0x1d
 660 041f 6E696C00 		.ascii	"nil\000"
 661 0423 03       		.byte	0x3
 662 0424 C203     		.2byte	0x3c2
 663 0426 74020000 		.4byte	0x274
 664 042a 1E       		.uleb128 0x1e
 665 042b D2020000 		.4byte	.LASF48
 666 042f 03       		.byte	0x3
 667 0430 D203     		.2byte	0x3d2
 668 0432 13020000 		.4byte	0x213
 669 0436 1F       		.uleb128 0x1f
 670 0437 13020000 		.4byte	0x213
 671 043b 1F       		.uleb128 0x1f
 672 043c FA000000 		.4byte	0xfa
 673 0440 00       		.byte	0
 674 0441 00       		.byte	0
 675              		.section	.debug_abbrev,"",%progbits
 676              	.Ldebug_abbrev0:
 677 0000 01       		.uleb128 0x1
 678 0001 11       		.uleb128 0x11
 679 0002 01       		.byte	0x1
 680 0003 25       		.uleb128 0x25
 681 0004 0E       		.uleb128 0xe
 682 0005 13       		.uleb128 0x13
ARM GAS  /tmp/ccgvpqhM.s 			page 13


 683 0006 0B       		.uleb128 0xb
 684 0007 03       		.uleb128 0x3
 685 0008 0E       		.uleb128 0xe
 686 0009 1B       		.uleb128 0x1b
 687 000a 0E       		.uleb128 0xe
 688 000b 55       		.uleb128 0x55
 689 000c 17       		.uleb128 0x17
 690 000d 11       		.uleb128 0x11
 691 000e 01       		.uleb128 0x1
 692 000f 10       		.uleb128 0x10
 693 0010 17       		.uleb128 0x17
 694 0011 00       		.byte	0
 695 0012 00       		.byte	0
 696 0013 02       		.uleb128 0x2
 697 0014 24       		.uleb128 0x24
 698 0015 00       		.byte	0
 699 0016 0B       		.uleb128 0xb
 700 0017 0B       		.uleb128 0xb
 701 0018 3E       		.uleb128 0x3e
 702 0019 0B       		.uleb128 0xb
 703 001a 03       		.uleb128 0x3
 704 001b 08       		.uleb128 0x8
 705 001c 00       		.byte	0
 706 001d 00       		.byte	0
 707 001e 03       		.uleb128 0x3
 708 001f 24       		.uleb128 0x24
 709 0020 00       		.byte	0
 710 0021 0B       		.uleb128 0xb
 711 0022 0B       		.uleb128 0xb
 712 0023 3E       		.uleb128 0x3e
 713 0024 0B       		.uleb128 0xb
 714 0025 03       		.uleb128 0x3
 715 0026 0E       		.uleb128 0xe
 716 0027 00       		.byte	0
 717 0028 00       		.byte	0
 718 0029 04       		.uleb128 0x4
 719 002a 16       		.uleb128 0x16
 720 002b 00       		.byte	0
 721 002c 03       		.uleb128 0x3
 722 002d 0E       		.uleb128 0xe
 723 002e 3A       		.uleb128 0x3a
 724 002f 0B       		.uleb128 0xb
 725 0030 3B       		.uleb128 0x3b
 726 0031 0B       		.uleb128 0xb
 727 0032 49       		.uleb128 0x49
 728 0033 13       		.uleb128 0x13
 729 0034 00       		.byte	0
 730 0035 00       		.byte	0
 731 0036 05       		.uleb128 0x5
 732 0037 13       		.uleb128 0x13
 733 0038 01       		.byte	0x1
 734 0039 03       		.uleb128 0x3
 735 003a 0E       		.uleb128 0xe
 736 003b 0B       		.uleb128 0xb
 737 003c 0B       		.uleb128 0xb
 738 003d 3A       		.uleb128 0x3a
 739 003e 0B       		.uleb128 0xb
ARM GAS  /tmp/ccgvpqhM.s 			page 14


 740 003f 3B       		.uleb128 0x3b
 741 0040 05       		.uleb128 0x5
 742 0041 01       		.uleb128 0x1
 743 0042 13       		.uleb128 0x13
 744 0043 00       		.byte	0
 745 0044 00       		.byte	0
 746 0045 06       		.uleb128 0x6
 747 0046 0D       		.uleb128 0xd
 748 0047 00       		.byte	0
 749 0048 03       		.uleb128 0x3
 750 0049 0E       		.uleb128 0xe
 751 004a 3A       		.uleb128 0x3a
 752 004b 0B       		.uleb128 0xb
 753 004c 3B       		.uleb128 0x3b
 754 004d 05       		.uleb128 0x5
 755 004e 49       		.uleb128 0x49
 756 004f 13       		.uleb128 0x13
 757 0050 38       		.uleb128 0x38
 758 0051 0B       		.uleb128 0xb
 759 0052 00       		.byte	0
 760 0053 00       		.byte	0
 761 0054 07       		.uleb128 0x7
 762 0055 0D       		.uleb128 0xd
 763 0056 00       		.byte	0
 764 0057 03       		.uleb128 0x3
 765 0058 08       		.uleb128 0x8
 766 0059 3A       		.uleb128 0x3a
 767 005a 0B       		.uleb128 0xb
 768 005b 3B       		.uleb128 0x3b
 769 005c 05       		.uleb128 0x5
 770 005d 49       		.uleb128 0x49
 771 005e 13       		.uleb128 0x13
 772 005f 38       		.uleb128 0x38
 773 0060 0B       		.uleb128 0xb
 774 0061 00       		.byte	0
 775 0062 00       		.byte	0
 776 0063 08       		.uleb128 0x8
 777 0064 0F       		.uleb128 0xf
 778 0065 00       		.byte	0
 779 0066 0B       		.uleb128 0xb
 780 0067 0B       		.uleb128 0xb
 781 0068 00       		.byte	0
 782 0069 00       		.byte	0
 783 006a 09       		.uleb128 0x9
 784 006b 13       		.uleb128 0x13
 785 006c 01       		.byte	0x1
 786 006d 03       		.uleb128 0x3
 787 006e 0E       		.uleb128 0xe
 788 006f 0B       		.uleb128 0xb
 789 0070 0B       		.uleb128 0xb
 790 0071 3A       		.uleb128 0x3a
 791 0072 0B       		.uleb128 0xb
 792 0073 3B       		.uleb128 0x3b
 793 0074 0B       		.uleb128 0xb
 794 0075 01       		.uleb128 0x1
 795 0076 13       		.uleb128 0x13
 796 0077 00       		.byte	0
ARM GAS  /tmp/ccgvpqhM.s 			page 15


 797 0078 00       		.byte	0
 798 0079 0A       		.uleb128 0xa
 799 007a 0D       		.uleb128 0xd
 800 007b 00       		.byte	0
 801 007c 03       		.uleb128 0x3
 802 007d 08       		.uleb128 0x8
 803 007e 3A       		.uleb128 0x3a
 804 007f 0B       		.uleb128 0xb
 805 0080 3B       		.uleb128 0x3b
 806 0081 0B       		.uleb128 0xb
 807 0082 49       		.uleb128 0x49
 808 0083 13       		.uleb128 0x13
 809 0084 38       		.uleb128 0x38
 810 0085 0B       		.uleb128 0xb
 811 0086 00       		.byte	0
 812 0087 00       		.byte	0
 813 0088 0B       		.uleb128 0xb
 814 0089 16       		.uleb128 0x16
 815 008a 00       		.byte	0
 816 008b 03       		.uleb128 0x3
 817 008c 0E       		.uleb128 0xe
 818 008d 3A       		.uleb128 0x3a
 819 008e 0B       		.uleb128 0xb
 820 008f 3B       		.uleb128 0x3b
 821 0090 05       		.uleb128 0x5
 822 0091 49       		.uleb128 0x49
 823 0092 13       		.uleb128 0x13
 824 0093 00       		.byte	0
 825 0094 00       		.byte	0
 826 0095 0C       		.uleb128 0xc
 827 0096 35       		.uleb128 0x35
 828 0097 00       		.byte	0
 829 0098 49       		.uleb128 0x49
 830 0099 13       		.uleb128 0x13
 831 009a 00       		.byte	0
 832 009b 00       		.byte	0
 833 009c 0D       		.uleb128 0xd
 834 009d 0F       		.uleb128 0xf
 835 009e 00       		.byte	0
 836 009f 0B       		.uleb128 0xb
 837 00a0 0B       		.uleb128 0xb
 838 00a1 49       		.uleb128 0x49
 839 00a2 13       		.uleb128 0x13
 840 00a3 00       		.byte	0
 841 00a4 00       		.byte	0
 842 00a5 0E       		.uleb128 0xe
 843 00a6 26       		.uleb128 0x26
 844 00a7 00       		.byte	0
 845 00a8 49       		.uleb128 0x49
 846 00a9 13       		.uleb128 0x13
 847 00aa 00       		.byte	0
 848 00ab 00       		.byte	0
 849 00ac 0F       		.uleb128 0xf
 850 00ad 17       		.uleb128 0x17
 851 00ae 01       		.byte	0x1
 852 00af 0B       		.uleb128 0xb
 853 00b0 0B       		.uleb128 0xb
ARM GAS  /tmp/ccgvpqhM.s 			page 16


 854 00b1 3A       		.uleb128 0x3a
 855 00b2 0B       		.uleb128 0xb
 856 00b3 3B       		.uleb128 0x3b
 857 00b4 05       		.uleb128 0x5
 858 00b5 01       		.uleb128 0x1
 859 00b6 13       		.uleb128 0x13
 860 00b7 00       		.byte	0
 861 00b8 00       		.byte	0
 862 00b9 10       		.uleb128 0x10
 863 00ba 0D       		.uleb128 0xd
 864 00bb 00       		.byte	0
 865 00bc 03       		.uleb128 0x3
 866 00bd 08       		.uleb128 0x8
 867 00be 3A       		.uleb128 0x3a
 868 00bf 0B       		.uleb128 0xb
 869 00c0 3B       		.uleb128 0x3b
 870 00c1 05       		.uleb128 0x5
 871 00c2 49       		.uleb128 0x49
 872 00c3 13       		.uleb128 0x13
 873 00c4 00       		.byte	0
 874 00c5 00       		.byte	0
 875 00c6 11       		.uleb128 0x11
 876 00c7 0D       		.uleb128 0xd
 877 00c8 00       		.byte	0
 878 00c9 03       		.uleb128 0x3
 879 00ca 0E       		.uleb128 0xe
 880 00cb 3A       		.uleb128 0x3a
 881 00cc 0B       		.uleb128 0xb
 882 00cd 3B       		.uleb128 0x3b
 883 00ce 05       		.uleb128 0x5
 884 00cf 49       		.uleb128 0x49
 885 00d0 13       		.uleb128 0x13
 886 00d1 00       		.byte	0
 887 00d2 00       		.byte	0
 888 00d3 12       		.uleb128 0x12
 889 00d4 01       		.uleb128 0x1
 890 00d5 01       		.byte	0x1
 891 00d6 49       		.uleb128 0x49
 892 00d7 13       		.uleb128 0x13
 893 00d8 01       		.uleb128 0x1
 894 00d9 13       		.uleb128 0x13
 895 00da 00       		.byte	0
 896 00db 00       		.byte	0
 897 00dc 13       		.uleb128 0x13
 898 00dd 21       		.uleb128 0x21
 899 00de 00       		.byte	0
 900 00df 49       		.uleb128 0x49
 901 00e0 13       		.uleb128 0x13
 902 00e1 2F       		.uleb128 0x2f
 903 00e2 0B       		.uleb128 0xb
 904 00e3 00       		.byte	0
 905 00e4 00       		.byte	0
 906 00e5 14       		.uleb128 0x14
 907 00e6 13       		.uleb128 0x13
 908 00e7 01       		.byte	0x1
 909 00e8 0B       		.uleb128 0xb
 910 00e9 0B       		.uleb128 0xb
ARM GAS  /tmp/ccgvpqhM.s 			page 17


 911 00ea 3A       		.uleb128 0x3a
 912 00eb 0B       		.uleb128 0xb
 913 00ec 3B       		.uleb128 0x3b
 914 00ed 0B       		.uleb128 0xb
 915 00ee 01       		.uleb128 0x1
 916 00ef 13       		.uleb128 0x13
 917 00f0 00       		.byte	0
 918 00f1 00       		.byte	0
 919 00f2 15       		.uleb128 0x15
 920 00f3 2E       		.uleb128 0x2e
 921 00f4 01       		.byte	0x1
 922 00f5 3F       		.uleb128 0x3f
 923 00f6 19       		.uleb128 0x19
 924 00f7 03       		.uleb128 0x3
 925 00f8 0E       		.uleb128 0xe
 926 00f9 3A       		.uleb128 0x3a
 927 00fa 0B       		.uleb128 0xb
 928 00fb 3B       		.uleb128 0x3b
 929 00fc 0B       		.uleb128 0xb
 930 00fd 27       		.uleb128 0x27
 931 00fe 19       		.uleb128 0x19
 932 00ff 11       		.uleb128 0x11
 933 0100 01       		.uleb128 0x1
 934 0101 12       		.uleb128 0x12
 935 0102 06       		.uleb128 0x6
 936 0103 40       		.uleb128 0x40
 937 0104 18       		.uleb128 0x18
 938 0105 9742     		.uleb128 0x2117
 939 0107 19       		.uleb128 0x19
 940 0108 01       		.uleb128 0x1
 941 0109 13       		.uleb128 0x13
 942 010a 00       		.byte	0
 943 010b 00       		.byte	0
 944 010c 16       		.uleb128 0x16
 945 010d 05       		.uleb128 0x5
 946 010e 00       		.byte	0
 947 010f 03       		.uleb128 0x3
 948 0110 08       		.uleb128 0x8
 949 0111 3A       		.uleb128 0x3a
 950 0112 0B       		.uleb128 0xb
 951 0113 3B       		.uleb128 0x3b
 952 0114 0B       		.uleb128 0xb
 953 0115 49       		.uleb128 0x49
 954 0116 13       		.uleb128 0x13
 955 0117 02       		.uleb128 0x2
 956 0118 17       		.uleb128 0x17
 957 0119 00       		.byte	0
 958 011a 00       		.byte	0
 959 011b 17       		.uleb128 0x17
 960 011c 34       		.uleb128 0x34
 961 011d 00       		.byte	0
 962 011e 03       		.uleb128 0x3
 963 011f 08       		.uleb128 0x8
 964 0120 3A       		.uleb128 0x3a
 965 0121 0B       		.uleb128 0xb
 966 0122 3B       		.uleb128 0x3b
 967 0123 0B       		.uleb128 0xb
ARM GAS  /tmp/ccgvpqhM.s 			page 18


 968 0124 49       		.uleb128 0x49
 969 0125 13       		.uleb128 0x13
 970 0126 02       		.uleb128 0x2
 971 0127 17       		.uleb128 0x17
 972 0128 00       		.byte	0
 973 0129 00       		.byte	0
 974 012a 18       		.uleb128 0x18
 975 012b 34       		.uleb128 0x34
 976 012c 00       		.byte	0
 977 012d 03       		.uleb128 0x3
 978 012e 0E       		.uleb128 0xe
 979 012f 49       		.uleb128 0x49
 980 0130 13       		.uleb128 0x13
 981 0131 34       		.uleb128 0x34
 982 0132 19       		.uleb128 0x19
 983 0133 00       		.byte	0
 984 0134 00       		.byte	0
 985 0135 19       		.uleb128 0x19
 986 0136 0B       		.uleb128 0xb
 987 0137 01       		.byte	0x1
 988 0138 11       		.uleb128 0x11
 989 0139 01       		.uleb128 0x1
 990 013a 12       		.uleb128 0x12
 991 013b 06       		.uleb128 0x6
 992 013c 00       		.byte	0
 993 013d 00       		.byte	0
 994 013e 1A       		.uleb128 0x1a
 995 013f 898201   		.uleb128 0x4109
 996 0142 00       		.byte	0
 997 0143 11       		.uleb128 0x11
 998 0144 01       		.uleb128 0x1
 999 0145 31       		.uleb128 0x31
 1000 0146 13       		.uleb128 0x13
 1001 0147 00       		.byte	0
 1002 0148 00       		.byte	0
 1003 0149 1B       		.uleb128 0x1b
 1004 014a 898201   		.uleb128 0x4109
 1005 014d 01       		.byte	0x1
 1006 014e 11       		.uleb128 0x11
 1007 014f 01       		.uleb128 0x1
 1008 0150 31       		.uleb128 0x31
 1009 0151 13       		.uleb128 0x13
 1010 0152 00       		.byte	0
 1011 0153 00       		.byte	0
 1012 0154 1C       		.uleb128 0x1c
 1013 0155 8A8201   		.uleb128 0x410a
 1014 0158 00       		.byte	0
 1015 0159 02       		.uleb128 0x2
 1016 015a 18       		.uleb128 0x18
 1017 015b 9142     		.uleb128 0x2111
 1018 015d 18       		.uleb128 0x18
 1019 015e 00       		.byte	0
 1020 015f 00       		.byte	0
 1021 0160 1D       		.uleb128 0x1d
 1022 0161 34       		.uleb128 0x34
 1023 0162 00       		.byte	0
 1024 0163 03       		.uleb128 0x3
ARM GAS  /tmp/ccgvpqhM.s 			page 19


 1025 0164 08       		.uleb128 0x8
 1026 0165 3A       		.uleb128 0x3a
 1027 0166 0B       		.uleb128 0xb
 1028 0167 3B       		.uleb128 0x3b
 1029 0168 05       		.uleb128 0x5
 1030 0169 49       		.uleb128 0x49
 1031 016a 13       		.uleb128 0x13
 1032 016b 3F       		.uleb128 0x3f
 1033 016c 19       		.uleb128 0x19
 1034 016d 3C       		.uleb128 0x3c
 1035 016e 19       		.uleb128 0x19
 1036 016f 00       		.byte	0
 1037 0170 00       		.byte	0
 1038 0171 1E       		.uleb128 0x1e
 1039 0172 2E       		.uleb128 0x2e
 1040 0173 01       		.byte	0x1
 1041 0174 3F       		.uleb128 0x3f
 1042 0175 19       		.uleb128 0x19
 1043 0176 03       		.uleb128 0x3
 1044 0177 0E       		.uleb128 0xe
 1045 0178 3A       		.uleb128 0x3a
 1046 0179 0B       		.uleb128 0xb
 1047 017a 3B       		.uleb128 0x3b
 1048 017b 05       		.uleb128 0x5
 1049 017c 27       		.uleb128 0x27
 1050 017d 19       		.uleb128 0x19
 1051 017e 49       		.uleb128 0x49
 1052 017f 13       		.uleb128 0x13
 1053 0180 3C       		.uleb128 0x3c
 1054 0181 19       		.uleb128 0x19
 1055 0182 00       		.byte	0
 1056 0183 00       		.byte	0
 1057 0184 1F       		.uleb128 0x1f
 1058 0185 05       		.uleb128 0x5
 1059 0186 00       		.byte	0
 1060 0187 49       		.uleb128 0x49
 1061 0188 13       		.uleb128 0x13
 1062 0189 00       		.byte	0
 1063 018a 00       		.byte	0
 1064 018b 00       		.byte	0
 1065              		.section	.debug_loc,"",%progbits
 1066              	.Ldebug_loc0:
 1067              	.LLST0:
 1068 0000 00000000 		.4byte	.LVL0
 1069 0004 08000000 		.4byte	.LVL1
 1070 0008 0100     		.2byte	0x1
 1071 000a 50       		.byte	0x50
 1072 000b 08000000 		.4byte	.LVL1
 1073 000f 0A000000 		.4byte	.LVL2
 1074 0013 0400     		.2byte	0x4
 1075 0015 F3       		.byte	0xf3
 1076 0016 01       		.uleb128 0x1
 1077 0017 50       		.byte	0x50
 1078 0018 9F       		.byte	0x9f
 1079 0019 0A000000 		.4byte	.LVL2
 1080 001d 24000000 		.4byte	.LVL6
 1081 0021 0100     		.2byte	0x1
ARM GAS  /tmp/ccgvpqhM.s 			page 20


 1082 0023 50       		.byte	0x50
 1083 0024 24000000 		.4byte	.LVL6
 1084 0028 30000000 		.4byte	.LFE75
 1085 002c 0400     		.2byte	0x4
 1086 002e F3       		.byte	0xf3
 1087 002f 01       		.uleb128 0x1
 1088 0030 50       		.byte	0x50
 1089 0031 9F       		.byte	0x9f
 1090 0032 00000000 		.4byte	0
 1091 0036 00000000 		.4byte	0
 1092              	.LLST1:
 1093 003a 00000000 		.4byte	.LVL0
 1094 003e 08000000 		.4byte	.LVL1
 1095 0042 0100     		.2byte	0x1
 1096 0044 51       		.byte	0x51
 1097 0045 08000000 		.4byte	.LVL1
 1098 0049 0A000000 		.4byte	.LVL2
 1099 004d 0400     		.2byte	0x4
 1100 004f F3       		.byte	0xf3
 1101 0050 01       		.uleb128 0x1
 1102 0051 51       		.byte	0x51
 1103 0052 9F       		.byte	0x9f
 1104 0053 0A000000 		.4byte	.LVL2
 1105 0057 27000000 		.4byte	.LVL7-1
 1106 005b 0100     		.2byte	0x1
 1107 005d 51       		.byte	0x51
 1108 005e 27000000 		.4byte	.LVL7-1
 1109 0062 30000000 		.4byte	.LFE75
 1110 0066 0400     		.2byte	0x4
 1111 0068 F3       		.byte	0xf3
 1112 0069 01       		.uleb128 0x1
 1113 006a 51       		.byte	0x51
 1114 006b 9F       		.byte	0x9f
 1115 006c 00000000 		.4byte	0
 1116 0070 00000000 		.4byte	0
 1117              	.LLST3:
 1118 0074 14000000 		.4byte	.LVL3
 1119 0078 1C000000 		.4byte	.LVL5
 1120 007c 0100     		.2byte	0x1
 1121 007e 53       		.byte	0x53
 1122 007f 00000000 		.4byte	0
 1123 0083 00000000 		.4byte	0
 1124              	.LLST4:
 1125 0087 00000000 		.4byte	.LVL8
 1126 008b 14000000 		.4byte	.LVL12
 1127 008f 0100     		.2byte	0x1
 1128 0091 50       		.byte	0x50
 1129 0092 14000000 		.4byte	.LVL12
 1130 0096 2C000000 		.4byte	.LVL17
 1131 009a 0100     		.2byte	0x1
 1132 009c 55       		.byte	0x55
 1133 009d 2C000000 		.4byte	.LVL17
 1134 00a1 34000000 		.4byte	.LFE76
 1135 00a5 0400     		.2byte	0x4
 1136 00a7 F3       		.byte	0xf3
 1137 00a8 01       		.uleb128 0x1
 1138 00a9 50       		.byte	0x50
ARM GAS  /tmp/ccgvpqhM.s 			page 21


 1139 00aa 9F       		.byte	0x9f
 1140 00ab 00000000 		.4byte	0
 1141 00af 00000000 		.4byte	0
 1142              	.LLST5:
 1143 00b3 00000000 		.4byte	.LVL8
 1144 00b7 14000000 		.4byte	.LVL12
 1145 00bb 0100     		.2byte	0x1
 1146 00bd 51       		.byte	0x51
 1147 00be 14000000 		.4byte	.LVL12
 1148 00c2 2C000000 		.4byte	.LVL17
 1149 00c6 0100     		.2byte	0x1
 1150 00c8 57       		.byte	0x57
 1151 00c9 2C000000 		.4byte	.LVL17
 1152 00cd 34000000 		.4byte	.LFE76
 1153 00d1 0400     		.2byte	0x4
 1154 00d3 F3       		.byte	0xf3
 1155 00d4 01       		.uleb128 0x1
 1156 00d5 51       		.byte	0x51
 1157 00d6 9F       		.byte	0x9f
 1158 00d7 00000000 		.4byte	0
 1159 00db 00000000 		.4byte	0
 1160              	.LLST7:
 1161 00df 12000000 		.4byte	.LVL11
 1162 00e3 2C000000 		.4byte	.LVL17
 1163 00e7 0100     		.2byte	0x1
 1164 00e9 54       		.byte	0x54
 1165 00ea 00000000 		.4byte	0
 1166 00ee 00000000 		.4byte	0
 1167              	.LLST8:
 1168 00f2 06000000 		.4byte	.LVL9
 1169 00f6 2C000000 		.4byte	.LVL18
 1170 00fa 0100     		.2byte	0x1
 1171 00fc 56       		.byte	0x56
 1172 00fd 00000000 		.4byte	0
 1173 0101 00000000 		.4byte	0
 1174              		.section	.debug_aranges,"",%progbits
 1175 0000 24000000 		.4byte	0x24
 1176 0004 0200     		.2byte	0x2
 1177 0006 00000000 		.4byte	.Ldebug_info0
 1178 000a 04       		.byte	0x4
 1179 000b 00       		.byte	0
 1180 000c 0000     		.2byte	0
 1181 000e 0000     		.2byte	0
 1182 0010 00000000 		.4byte	.LFB75
 1183 0014 30000000 		.4byte	.LFE75-.LFB75
 1184 0018 00000000 		.4byte	.LFB76
 1185 001c 34000000 		.4byte	.LFE76-.LFB76
 1186 0020 00000000 		.4byte	0
 1187 0024 00000000 		.4byte	0
 1188              		.section	.debug_ranges,"",%progbits
 1189              	.Ldebug_ranges0:
 1190 0000 00000000 		.4byte	.LFB75
 1191 0004 30000000 		.4byte	.LFE75
 1192 0008 00000000 		.4byte	.LFB76
 1193 000c 34000000 		.4byte	.LFE76
 1194 0010 00000000 		.4byte	0
 1195 0014 00000000 		.4byte	0
ARM GAS  /tmp/ccgvpqhM.s 			page 22


 1196              		.section	.debug_line,"",%progbits
 1197              	.Ldebug_line0:
 1198 0000 1D010000 		.section	.debug_str,"MS",%progbits,1
 1198      0200D600 
 1198      00000201 
 1198      FB0E0D00 
 1198      01010101 
 1199              	.LASF9:
 1200 0000 75696E74 		.ascii	"uint64_t\000"
 1200      36345F74 
 1200      00
 1201              	.LASF26:
 1202 0009 706F7274 		.ascii	"port_intctx\000"
 1202      5F696E74 
 1202      63747800 
 1203              	.LASF10:
 1204 0015 6C6F6E67 		.ascii	"long long unsigned int\000"
 1204      206C6F6E 
 1204      6720756E 
 1204      7369676E 
 1204      65642069 
 1205              	.LASF37:
 1206 002c 6E657874 		.ascii	"next\000"
 1206      00
 1207              	.LASF3:
 1208 0031 6C6F6E67 		.ascii	"long long int\000"
 1208      206C6F6E 
 1208      6720696E 
 1208      7400
 1209              	.LASF1:
 1210 003f 7369676E 		.ascii	"signed char\000"
 1210      65642063 
 1210      68617200 
 1211              	.LASF42:
 1212 004b 6F73616C 		.ascii	"osalThreadDequeueNextI\000"
 1212      54687265 
 1212      61644465 
 1212      71756575 
 1212      654E6578 
 1213              	.LASF27:
 1214 0062 696E7463 		.ascii	"intctx_t\000"
 1214      74785F74 
 1214      00
 1215              	.LASF13:
 1216 006b 73746174 		.ascii	"state\000"
 1216      6500
 1217              	.LASF17:
 1218 0071 74737461 		.ascii	"tstate_t\000"
 1218      74655F74 
 1218      00
 1219              	.LASF15:
 1220 007a 65706D61 		.ascii	"epmask\000"
 1220      736B00
 1221              	.LASF47:
 1222 0081 2F686F6D 		.ascii	"/home/bunnie/code/chibi-chibios/orchard\000"
 1222      652F6275 
 1222      6E6E6965 
ARM GAS  /tmp/ccgvpqhM.s 			page 23


 1222      2F636F64 
 1222      652F6368 
 1223              	.LASF45:
 1224 00a9 474E5520 		.ascii	"GNU C 4.9.2 -mcpu=cortex-m0 -mfloat-abi=soft -mfp16"
 1224      4320342E 
 1224      392E3220 
 1224      2D6D6370 
 1224      753D636F 
 1225 00dc 2D666F72 		.ascii	"-format=none -mno-thumb-interwork -mthumb -mfloat-a"
 1225      6D61743D 
 1225      6E6F6E65 
 1225      202D6D6E 
 1225      6F2D7468 
 1226 010f 62693D73 		.ascii	"bi=soft -mfpu=vfpv3-d16 -mtls-dialect=gnu -ggdb -O3"
 1226      6F667420 
 1226      2D6D6670 
 1226      753D7666 
 1226      7076332D 
 1227 0142 202D7374 		.ascii	" -std=gnu99 -fomit-frame-pointer -falign-functions="
 1227      643D676E 
 1227      75393920 
 1227      2D666F6D 
 1227      69742D66 
 1228 0175 3136202D 		.ascii	"16 -ffunction-sections -fdata-sections -fno-common\000"
 1228      6666756E 
 1228      6374696F 
 1228      6E2D7365 
 1228      6374696F 
 1229              	.LASF0:
 1230 01a8 756E7369 		.ascii	"unsigned int\000"
 1230      676E6564 
 1230      20696E74 
 1230      00
 1231              	.LASF46:
 1232 01b5 2E2E2F6F 		.ascii	"../os/hal/osal/nil/osal.c\000"
 1232      732F6861 
 1232      6C2F6F73 
 1232      616C2F6E 
 1232      696C2F6F 
 1233              	.LASF14:
 1234 01cf 74696D65 		.ascii	"timeout\000"
 1234      6F757400 
 1235              	.LASF25:
 1236 01d7 6E696C5F 		.ascii	"nil_thread\000"
 1236      74687265 
 1236      616400
 1237              	.LASF7:
 1238 01e2 73686F72 		.ascii	"short unsigned int\000"
 1238      7420756E 
 1238      7369676E 
 1238      65642069 
 1238      6E7400
 1239              	.LASF18:
 1240 01f5 6D73675F 		.ascii	"msg_t\000"
 1240      7400
 1241              	.LASF32:
 1242 01fb 73656D70 		.ascii	"semp\000"
ARM GAS  /tmp/ccgvpqhM.s 			page 24


 1242      00
 1243              	.LASF38:
 1244 0200 73797374 		.ascii	"systime\000"
 1244      696D6500 
 1245              	.LASF19:
 1246 0208 6576656E 		.ascii	"eventmask_t\000"
 1246      746D6173 
 1246      6B5F7400 
 1247              	.LASF24:
 1248 0214 73746B61 		.ascii	"stkalign_t\000"
 1248      6C69676E 
 1248      5F7400
 1249              	.LASF22:
 1250 021f 73697A65 		.ascii	"sizetype\000"
 1250      74797065 
 1250      00
 1251              	.LASF31:
 1252 0228 74687265 		.ascii	"thread_reference_t\000"
 1252      61645F72 
 1252      65666572 
 1252      656E6365 
 1252      5F7400
 1253              	.LASF20:
 1254 023b 636E745F 		.ascii	"cnt_t\000"
 1254      7400
 1255              	.LASF36:
 1256 0241 63757272 		.ascii	"current\000"
 1256      656E7400 
 1257              	.LASF12:
 1258 0249 63747870 		.ascii	"ctxp\000"
 1258      00
 1259              	.LASF16:
 1260 024e 73746B6C 		.ascii	"stklim\000"
 1260      696D00
 1261              	.LASF4:
 1262 0255 696E7433 		.ascii	"int32_t\000"
 1262      325F7400 
 1263              	.LASF6:
 1264 025d 756E7369 		.ascii	"unsigned char\000"
 1264      676E6564 
 1264      20636861 
 1264      7200
 1265              	.LASF40:
 1266 026b 6462675F 		.ascii	"dbg_panic_msg\000"
 1266      70616E69 
 1266      635F6D73 
 1266      6700
 1267              	.LASF29:
 1268 0279 6E696C5F 		.ascii	"nil_semaphore\000"
 1268      73656D61 
 1268      70686F72 
 1268      6500
 1269              	.LASF35:
 1270 0287 6E696C5F 		.ascii	"nil_system\000"
 1270      73797374 
 1270      656D00
 1271              	.LASF2:
ARM GAS  /tmp/ccgvpqhM.s 			page 25


 1272 0292 73686F72 		.ascii	"short int\000"
 1272      7420696E 
 1272      7400
 1273              	.LASF39:
 1274 029c 74687265 		.ascii	"threads\000"
 1274      61647300 
 1275              	.LASF33:
 1276 02a4 65776D61 		.ascii	"ewmask\000"
 1276      736B00
 1277              	.LASF44:
 1278 02ab 5F5F6675 		.ascii	"__func__\000"
 1278      6E635F5F 
 1278      00
 1279              	.LASF28:
 1280 02b4 73656D61 		.ascii	"semaphore_t\000"
 1280      70686F72 
 1280      655F7400 
 1281              	.LASF8:
 1282 02c0 75696E74 		.ascii	"uint32_t\000"
 1282      33325F74 
 1282      00
 1283              	.LASF23:
 1284 02c9 72656761 		.ascii	"regarm_t\000"
 1284      726D5F74 
 1284      00
 1285              	.LASF48:
 1286 02d2 63685363 		.ascii	"chSchReadyI\000"
 1286      68526561 
 1286      64794900 
 1287              	.LASF30:
 1288 02de 63686172 		.ascii	"char\000"
 1288      00
 1289              	.LASF11:
 1290 02e3 74687265 		.ascii	"thread_t\000"
 1290      61645F74 
 1290      00
 1291              	.LASF21:
 1292 02ec 73797374 		.ascii	"systime_t\000"
 1292      696D655F 
 1292      7400
 1293              	.LASF34:
 1294 02f6 6E696C5F 		.ascii	"nil_system_t\000"
 1294      73797374 
 1294      656D5F74 
 1294      00
 1295              	.LASF41:
 1296 0303 74687265 		.ascii	"threads_queue_t\000"
 1296      6164735F 
 1296      71756575 
 1296      655F7400 
 1297              	.LASF5:
 1298 0313 75696E74 		.ascii	"uint8_t\000"
 1298      385F7400 
 1299              	.LASF43:
 1300 031b 6F73616C 		.ascii	"osalThreadDequeueAllI\000"
 1300      54687265 
 1300      61644465 
ARM GAS  /tmp/ccgvpqhM.s 			page 26


 1300      71756575 
 1300      65416C6C 
 1301              		.ident	"GCC: (Debian 4.9.2-10) 4.9.2"
 1302              		.section	.note.GNU-stack,"",%progbits
ARM GAS  /tmp/ccgvpqhM.s 			page 27


DEFINED SYMBOLS
                            *ABS*:00000000 osal.c
     /tmp/ccgvpqhM.s:18     .text.osalThreadDequeueNextI:00000000 $t
     /tmp/ccgvpqhM.s:24     .text.osalThreadDequeueNextI:00000000 osalThreadDequeueNextI
     /tmp/ccgvpqhM.s:77     .text.osalThreadDequeueNextI:0000002c $d
     /tmp/ccgvpqhM.s:83     .text.osalThreadDequeueAllI:00000000 $t
     /tmp/ccgvpqhM.s:89     .text.osalThreadDequeueAllI:00000000 osalThreadDequeueAllI
     /tmp/ccgvpqhM.s:152    .text.osalThreadDequeueAllI:00000030 $d
                     .debug_frame:00000010 $d
     /tmp/ccgvpqhM.s:156    .text.osalThreadDequeueAllI:00000034 $t

UNDEFINED SYMBOLS
chSchReadyI
nil
