ARM GAS  /tmp/ccFLhkev.s 			page 1


   1              		.cpu cortex-m0
   2              		.fpu softvfp
   3              		.eabi_attribute 20, 1
   4              		.eabi_attribute 21, 1
   5              		.eabi_attribute 23, 3
   6              		.eabi_attribute 24, 1
   7              		.eabi_attribute 25, 1
   8              		.eabi_attribute 26, 2
   9              		.eabi_attribute 30, 2
  10              		.eabi_attribute 34, 0
  11              		.eabi_attribute 18, 4
  12              		.code	16
  13              		.file	"pal.c"
  14              		.text
  15              	.Ltext0:
  16              		.cfi_sections	.debug_frame
  17              		.section	.text.palReadBus,"ax",%progbits
  18              		.align	2
  19              		.p2align 4,,15
  20              		.global	palReadBus
  21              		.code	16
  22              		.thumb_func
  23              		.type	palReadBus, %function
  24              	palReadBus:
  25              	.LFB81:
  26              		.file 1 "../os/hal/src/pal.c"
  27              		.loc 1 65 0
  28              		.cfi_startproc
  29              	.LVL0:
  30              		.loc 1 70 0
  31 0000 0020     		mov	r0, #0
  32              	.LVL1:
  33              		@ sp needed
  34 0002 7047     		bx	lr
  35              		.cfi_endproc
  36              	.LFE81:
  37              		.size	palReadBus, .-palReadBus
  38 0004 C046C046 		.section	.text.palWriteBus,"ax",%progbits
  38      C046C046 
  38      C046C046 
  39              		.align	2
  40              		.p2align 4,,15
  41              		.global	palWriteBus
  42              		.code	16
  43              		.thumb_func
  44              		.type	palWriteBus, %function
  45              	palWriteBus:
  46              	.LFB82:
  47              		.loc 1 90 0
  48              		.cfi_startproc
  49              	.LVL2:
  50              		.loc 1 95 0
  51              		@ sp needed
  52 0000 7047     		bx	lr
  53              		.cfi_endproc
  54              	.LFE82:
  55              		.size	palWriteBus, .-palWriteBus
ARM GAS  /tmp/ccFLhkev.s 			page 2


  56 0002 C046C046 		.section	.text.palSetBusMode,"ax",%progbits
  56      C046C046 
  56      C046C046 
  56      C046
  57              		.align	2
  58              		.p2align 4,,15
  59              		.global	palSetBusMode
  60              		.code	16
  61              		.thumb_func
  62              		.type	palSetBusMode, %function
  63              	palSetBusMode:
  64              	.LFB83:
  65              		.loc 1 113 0
  66              		.cfi_startproc
  67              	.LVL3:
  68 0000 08B5     		push	{r3, lr}
  69              		.cfi_def_cfa_offset 8
  70              		.cfi_offset 3, -8
  71              		.cfi_offset 14, -4
  72              		.loc 1 113 0
  73 0002 031C     		mov	r3, r0
  74 0004 0A1C     		mov	r2, r1
  75              		.loc 1 117 0
  76 0006 197A     		ldrb	r1, [r3, #8]
  77              	.LVL4:
  78 0008 5B68     		ldr	r3, [r3, #4]
  79 000a 0068     		ldr	r0, [r0]
  80              	.LVL5:
  81 000c 8B40     		lsl	r3, r3, r1
  82 000e 191C     		mov	r1, r3
  83 0010 FFF7FEFF 		bl	_pal_lld_setgroupmode
  84              	.LVL6:
  85              		.loc 1 118 0
  86              		@ sp needed
  87 0014 08BD     		pop	{r3, pc}
  88              		.cfi_endproc
  89              	.LFE83:
  90              		.size	palSetBusMode, .-palSetBusMode
  91 0016 C046C046 		.text
  91      C046C046 
  91      C046
  92              	.Letext0:
  93              		.file 2 "/usr/include/stdint.h"
  94              		.file 3 "../os/nil/include/nil.h"
  95              		.file 4 "../os/nil/ports/ARMCMx/compilers/GCC/niltypes.h"
  96              		.file 5 "../os/ext/CMSIS/KINETIS/kl02x.h"
  97              		.file 6 "../os/nil/ports/ARMCMx/nilcore.h"
  98              		.file 7 "../os/nil/ports/ARMCMx/nilcore_v6m.h"
  99              		.file 8 "../os/hal/ports/KINETIS/KL02x/pal_lld.h"
 100              		.file 9 "../os/hal/include/pal.h"
 101              		.section	.debug_info,"",%progbits
 102              	.Ldebug_info0:
 103 0000 CF040000 		.4byte	0x4cf
 104 0004 0400     		.2byte	0x4
 105 0006 00000000 		.4byte	.Ldebug_abbrev0
 106 000a 04       		.byte	0x4
 107 000b 01       		.uleb128 0x1
ARM GAS  /tmp/ccFLhkev.s 			page 3


 108 000c 81000000 		.4byte	.LASF62
 109 0010 01       		.byte	0x1
 110 0011 66030000 		.4byte	.LASF63
 111 0015 1B030000 		.4byte	.LASF64
 112 0019 00000000 		.4byte	.Ldebug_ranges0+0
 113 001d 00000000 		.4byte	0
 114 0021 00000000 		.4byte	.Ldebug_line0
 115 0025 02       		.uleb128 0x2
 116 0026 04       		.byte	0x4
 117 0027 05       		.byte	0x5
 118 0028 696E7400 		.ascii	"int\000"
 119 002c 03       		.uleb128 0x3
 120 002d 04       		.byte	0x4
 121 002e 07       		.byte	0x7
 122 002f 5C020000 		.4byte	.LASF0
 123 0033 03       		.uleb128 0x3
 124 0034 01       		.byte	0x1
 125 0035 06       		.byte	0x6
 126 0036 23020000 		.4byte	.LASF1
 127 003a 03       		.uleb128 0x3
 128 003b 02       		.byte	0x2
 129 003c 05       		.byte	0x5
 130 003d 77000000 		.4byte	.LASF2
 131 0041 04       		.uleb128 0x4
 132 0042 A9020000 		.4byte	.LASF4
 133 0046 02       		.byte	0x2
 134 0047 26       		.byte	0x26
 135 0048 25000000 		.4byte	0x25
 136 004c 03       		.uleb128 0x3
 137 004d 08       		.byte	0x8
 138 004e 05       		.byte	0x5
 139 004f 4F000000 		.4byte	.LASF3
 140 0053 04       		.uleb128 0x4
 141 0054 92010000 		.4byte	.LASF5
 142 0058 02       		.byte	0x2
 143 0059 30       		.byte	0x30
 144 005a 5E000000 		.4byte	0x5e
 145 005e 03       		.uleb128 0x3
 146 005f 01       		.byte	0x1
 147 0060 08       		.byte	0x8
 148 0061 0E020000 		.4byte	.LASF6
 149 0065 03       		.uleb128 0x3
 150 0066 02       		.byte	0x2
 151 0067 07       		.byte	0x7
 152 0068 82020000 		.4byte	.LASF7
 153 006c 04       		.uleb128 0x4
 154 006d 53020000 		.4byte	.LASF8
 155 0071 02       		.byte	0x2
 156 0072 33       		.byte	0x33
 157 0073 2C000000 		.4byte	0x2c
 158 0077 04       		.uleb128 0x4
 159 0078 20000000 		.4byte	.LASF9
 160 007c 02       		.byte	0x2
 161 007d 3A       		.byte	0x3a
 162 007e 82000000 		.4byte	0x82
 163 0082 03       		.uleb128 0x3
 164 0083 08       		.byte	0x8
ARM GAS  /tmp/ccFLhkev.s 			page 4


 165 0084 07       		.byte	0x7
 166 0085 2F020000 		.4byte	.LASF10
 167 0089 04       		.uleb128 0x4
 168 008a 46020000 		.4byte	.LASF11
 169 008e 02       		.byte	0x2
 170 008f 67       		.byte	0x67
 171 0090 5E000000 		.4byte	0x5e
 172 0094 04       		.uleb128 0x4
 173 0095 00000000 		.4byte	.LASF12
 174 0099 03       		.byte	0x3
 175 009a 25       		.byte	0x25
 176 009b 9F000000 		.4byte	0x9f
 177 009f 05       		.uleb128 0x5
 178 00a0 44000000 		.4byte	.LASF33
 179 00a4 18       		.byte	0x18
 180 00a5 03       		.byte	0x3
 181 00a6 6201     		.2byte	0x162
 182 00a8 FA000000 		.4byte	0xfa
 183 00ac 06       		.uleb128 0x6
 184 00ad 95020000 		.4byte	.LASF13
 185 00b1 03       		.byte	0x3
 186 00b2 6301     		.2byte	0x163
 187 00b4 D7020000 		.4byte	0x2d7
 188 00b8 00       		.byte	0
 189 00b9 06       		.uleb128 0x6
 190 00ba 1A000000 		.4byte	.LASF14
 191 00be 03       		.byte	0x3
 192 00bf 6401     		.2byte	0x164
 193 00c1 FA000000 		.4byte	0xfa
 194 00c5 04       		.byte	0x4
 195 00c6 07       		.uleb128 0x7
 196 00c7 753100   		.ascii	"u1\000"
 197 00ca 03       		.byte	0x3
 198 00cb 6F01     		.2byte	0x16f
 199 00cd 87020000 		.4byte	0x287
 200 00d1 08       		.byte	0x8
 201 00d2 06       		.uleb128 0x6
 202 00d3 8D030000 		.4byte	.LASF15
 203 00d7 03       		.byte	0x3
 204 00d8 7001     		.2byte	0x170
 205 00da DD020000 		.4byte	0x2dd
 206 00de 0C       		.byte	0xc
 207 00df 06       		.uleb128 0x6
 208 00e0 0E000000 		.4byte	.LASF16
 209 00e4 03       		.byte	0x3
 210 00e5 7301     		.2byte	0x173
 211 00e7 10010000 		.4byte	0x110
 212 00eb 10       		.byte	0x10
 213 00ec 06       		.uleb128 0x6
 214 00ed 5F030000 		.4byte	.LASF17
 215 00f1 03       		.byte	0x3
 216 00f2 7601     		.2byte	0x176
 217 00f4 5D020000 		.4byte	0x25d
 218 00f8 14       		.byte	0x14
 219 00f9 00       		.byte	0
 220 00fa 04       		.uleb128 0x4
 221 00fb 12030000 		.4byte	.LASF18
ARM GAS  /tmp/ccFLhkev.s 			page 5


 222 00ff 04       		.byte	0x4
 223 0100 37       		.byte	0x37
 224 0101 53000000 		.4byte	0x53
 225 0105 04       		.uleb128 0x4
 226 0106 87030000 		.4byte	.LASF19
 227 010a 04       		.byte	0x4
 228 010b 38       		.byte	0x38
 229 010c 41000000 		.4byte	0x41
 230 0110 04       		.uleb128 0x4
 231 0111 5D000000 		.4byte	.LASF20
 232 0115 04       		.byte	0x4
 233 0116 39       		.byte	0x39
 234 0117 6C000000 		.4byte	0x6c
 235 011b 04       		.uleb128 0x4
 236 011c B1020000 		.4byte	.LASF21
 237 0120 04       		.byte	0x4
 238 0121 3A       		.byte	0x3a
 239 0122 41000000 		.4byte	0x41
 240 0126 04       		.uleb128 0x4
 241 0127 9A020000 		.4byte	.LASF22
 242 012b 04       		.byte	0x4
 243 012c 41       		.byte	0x41
 244 012d 6C000000 		.4byte	0x6c
 245 0131 03       		.uleb128 0x3
 246 0132 04       		.byte	0x4
 247 0133 07       		.byte	0x7
 248 0134 2E000000 		.4byte	.LASF23
 249 0138 08       		.uleb128 0x8
 250 0139 6C000000 		.4byte	0x6c
 251 013d 09       		.uleb128 0x9
 252 013e 18       		.byte	0x18
 253 013f 05       		.byte	0x5
 254 0140 F9       		.byte	0xf9
 255 0141 8F010000 		.4byte	0x18f
 256 0145 0A       		.uleb128 0xa
 257 0146 4C030000 		.4byte	.LASF24
 258 014a 05       		.byte	0x5
 259 014b FB       		.byte	0xfb
 260 014c 38010000 		.4byte	0x138
 261 0150 00       		.byte	0
 262 0151 0A       		.uleb128 0xa
 263 0152 69020000 		.4byte	.LASF25
 264 0156 05       		.byte	0x5
 265 0157 FC       		.byte	0xfc
 266 0158 38010000 		.4byte	0x138
 267 015c 04       		.byte	0x4
 268 015d 0A       		.uleb128 0xa
 269 015e 15000000 		.4byte	.LASF26
 270 0162 05       		.byte	0x5
 271 0163 FD       		.byte	0xfd
 272 0164 38010000 		.4byte	0x138
 273 0168 08       		.byte	0x8
 274 0169 0A       		.uleb128 0xa
 275 016a 29000000 		.4byte	.LASF27
 276 016e 05       		.byte	0x5
 277 016f FE       		.byte	0xfe
 278 0170 38010000 		.4byte	0x138
ARM GAS  /tmp/ccFLhkev.s 			page 6


 279 0174 0C       		.byte	0xc
 280 0175 0A       		.uleb128 0xa
 281 0176 E1010000 		.4byte	.LASF28
 282 017a 05       		.byte	0x5
 283 017b FF       		.byte	0xff
 284 017c 38010000 		.4byte	0x138
 285 0180 10       		.byte	0x10
 286 0181 06       		.uleb128 0x6
 287 0182 09000000 		.4byte	.LASF29
 288 0186 05       		.byte	0x5
 289 0187 0001     		.2byte	0x100
 290 0189 38010000 		.4byte	0x138
 291 018d 14       		.byte	0x14
 292 018e 00       		.byte	0
 293 018f 0B       		.uleb128 0xb
 294 0190 7A030000 		.4byte	.LASF30
 295 0194 05       		.byte	0x5
 296 0195 0101     		.2byte	0x101
 297 0197 3D010000 		.4byte	0x13d
 298 019b 04       		.uleb128 0x4
 299 019c 89010000 		.4byte	.LASF31
 300 01a0 06       		.byte	0x6
 301 01a1 65       		.byte	0x65
 302 01a2 A6010000 		.4byte	0x1a6
 303 01a6 0C       		.uleb128 0xc
 304 01a7 04       		.byte	0x4
 305 01a8 04       		.uleb128 0x4
 306 01a9 C2020000 		.4byte	.LASF32
 307 01ad 06       		.byte	0x6
 308 01ae 6D       		.byte	0x6d
 309 01af 77000000 		.4byte	0x77
 310 01b3 0D       		.uleb128 0xd
 311 01b4 E7020000 		.4byte	.LASF34
 312 01b8 24       		.byte	0x24
 313 01b9 07       		.byte	0x7
 314 01ba A4       		.byte	0xa4
 315 01bb 25020000 		.4byte	0x225
 316 01bf 0E       		.uleb128 0xe
 317 01c0 723800   		.ascii	"r8\000"
 318 01c3 07       		.byte	0x7
 319 01c4 A5       		.byte	0xa5
 320 01c5 9B010000 		.4byte	0x19b
 321 01c9 00       		.byte	0
 322 01ca 0E       		.uleb128 0xe
 323 01cb 723900   		.ascii	"r9\000"
 324 01ce 07       		.byte	0x7
 325 01cf A6       		.byte	0xa6
 326 01d0 9B010000 		.4byte	0x19b
 327 01d4 04       		.byte	0x4
 328 01d5 0E       		.uleb128 0xe
 329 01d6 72313000 		.ascii	"r10\000"
 330 01da 07       		.byte	0x7
 331 01db A7       		.byte	0xa7
 332 01dc 9B010000 		.4byte	0x19b
 333 01e0 08       		.byte	0x8
 334 01e1 0E       		.uleb128 0xe
 335 01e2 72313100 		.ascii	"r11\000"
ARM GAS  /tmp/ccFLhkev.s 			page 7


 336 01e6 07       		.byte	0x7
 337 01e7 A8       		.byte	0xa8
 338 01e8 9B010000 		.4byte	0x19b
 339 01ec 0C       		.byte	0xc
 340 01ed 0E       		.uleb128 0xe
 341 01ee 723400   		.ascii	"r4\000"
 342 01f1 07       		.byte	0x7
 343 01f2 A9       		.byte	0xa9
 344 01f3 9B010000 		.4byte	0x19b
 345 01f7 10       		.byte	0x10
 346 01f8 0E       		.uleb128 0xe
 347 01f9 723500   		.ascii	"r5\000"
 348 01fc 07       		.byte	0x7
 349 01fd AA       		.byte	0xaa
 350 01fe 9B010000 		.4byte	0x19b
 351 0202 14       		.byte	0x14
 352 0203 0E       		.uleb128 0xe
 353 0204 723600   		.ascii	"r6\000"
 354 0207 07       		.byte	0x7
 355 0208 AB       		.byte	0xab
 356 0209 9B010000 		.4byte	0x19b
 357 020d 18       		.byte	0x18
 358 020e 0E       		.uleb128 0xe
 359 020f 723700   		.ascii	"r7\000"
 360 0212 07       		.byte	0x7
 361 0213 AC       		.byte	0xac
 362 0214 9B010000 		.4byte	0x19b
 363 0218 1C       		.byte	0x1c
 364 0219 0E       		.uleb128 0xe
 365 021a 6C7200   		.ascii	"lr\000"
 366 021d 07       		.byte	0x7
 367 021e AD       		.byte	0xad
 368 021f 9B010000 		.4byte	0x19b
 369 0223 20       		.byte	0x20
 370 0224 00       		.byte	0
 371 0225 0B       		.uleb128 0xb
 372 0226 43030000 		.4byte	.LASF35
 373 022a 03       		.byte	0x3
 374 022b 3701     		.2byte	0x137
 375 022d B3010000 		.4byte	0x1b3
 376 0231 0B       		.uleb128 0xb
 377 0232 B2010000 		.4byte	.LASF36
 378 0236 03       		.byte	0x3
 379 0237 3C01     		.2byte	0x13c
 380 0239 3D020000 		.4byte	0x23d
 381 023d 05       		.uleb128 0x5
 382 023e CE010000 		.4byte	.LASF37
 383 0242 04       		.byte	0x4
 384 0243 03       		.byte	0x3
 385 0244 4101     		.2byte	0x141
 386 0246 58020000 		.4byte	0x258
 387 024a 07       		.uleb128 0x7
 388 024b 636E7400 		.ascii	"cnt\000"
 389 024f 03       		.byte	0x3
 390 0250 4201     		.2byte	0x142
 391 0252 58020000 		.4byte	0x258
 392 0256 00       		.byte	0
ARM GAS  /tmp/ccFLhkev.s 			page 8


 393 0257 00       		.byte	0
 394 0258 08       		.uleb128 0x8
 395 0259 1B010000 		.4byte	0x11b
 396 025d 0F       		.uleb128 0xf
 397 025e 04       		.byte	0x4
 398 025f A8010000 		.4byte	0x1a8
 399 0263 0F       		.uleb128 0xf
 400 0264 04       		.byte	0x4
 401 0265 69020000 		.4byte	0x269
 402 0269 10       		.uleb128 0x10
 403 026a 6E020000 		.4byte	0x26e
 404 026e 03       		.uleb128 0x3
 405 026f 01       		.byte	0x1
 406 0270 08       		.byte	0x8
 407 0271 A4020000 		.4byte	.LASF38
 408 0275 0B       		.uleb128 0xb
 409 0276 F8020000 		.4byte	.LASF39
 410 027a 03       		.byte	0x3
 411 027b 5D01     		.2byte	0x15d
 412 027d 81020000 		.4byte	0x281
 413 0281 0F       		.uleb128 0xf
 414 0282 04       		.byte	0x4
 415 0283 94000000 		.4byte	0x94
 416 0287 11       		.uleb128 0x11
 417 0288 04       		.byte	0x4
 418 0289 03       		.byte	0x3
 419 028a 6701     		.2byte	0x167
 420 028c CB020000 		.4byte	0x2cb
 421 0290 12       		.uleb128 0x12
 422 0291 6D736700 		.ascii	"msg\000"
 423 0295 03       		.byte	0x3
 424 0296 6801     		.2byte	0x168
 425 0298 05010000 		.4byte	0x105
 426 029c 12       		.uleb128 0x12
 427 029d 7000     		.ascii	"p\000"
 428 029f 03       		.byte	0x3
 429 02a0 6901     		.2byte	0x169
 430 02a2 A6010000 		.4byte	0x1a6
 431 02a6 12       		.uleb128 0x12
 432 02a7 74727000 		.ascii	"trp\000"
 433 02ab 03       		.byte	0x3
 434 02ac 6A01     		.2byte	0x16a
 435 02ae CB020000 		.4byte	0x2cb
 436 02b2 13       		.uleb128 0x13
 437 02b3 F3020000 		.4byte	.LASF40
 438 02b7 03       		.byte	0x3
 439 02b8 6B01     		.2byte	0x16b
 440 02ba D1020000 		.4byte	0x2d1
 441 02be 13       		.uleb128 0x13
 442 02bf 1C020000 		.4byte	.LASF41
 443 02c3 03       		.byte	0x3
 444 02c4 6D01     		.2byte	0x16d
 445 02c6 10010000 		.4byte	0x110
 446 02ca 00       		.byte	0
 447 02cb 0F       		.uleb128 0xf
 448 02cc 04       		.byte	0x4
 449 02cd 75020000 		.4byte	0x275
ARM GAS  /tmp/ccFLhkev.s 			page 9


 450 02d1 0F       		.uleb128 0xf
 451 02d2 04       		.byte	0x4
 452 02d3 31020000 		.4byte	0x231
 453 02d7 0F       		.uleb128 0xf
 454 02d8 04       		.byte	0x4
 455 02d9 25020000 		.4byte	0x225
 456 02dd 08       		.uleb128 0x8
 457 02de 26010000 		.4byte	0x126
 458 02e2 0B       		.uleb128 0xb
 459 02e3 37000000 		.4byte	.LASF42
 460 02e7 03       		.byte	0x3
 461 02e8 7F01     		.2byte	0x17f
 462 02ea EE020000 		.4byte	0x2ee
 463 02ee 05       		.uleb128 0x5
 464 02ef A7010000 		.4byte	.LASF43
 465 02f3 40       		.byte	0x40
 466 02f4 03       		.byte	0x3
 467 02f5 8601     		.2byte	0x186
 468 02f7 3D030000 		.4byte	0x33d
 469 02fb 06       		.uleb128 0x6
 470 02fc 6F000000 		.4byte	.LASF44
 471 0300 03       		.byte	0x3
 472 0301 8A01     		.2byte	0x18a
 473 0303 81020000 		.4byte	0x281
 474 0307 00       		.byte	0
 475 0308 06       		.uleb128 0x6
 476 0309 95030000 		.4byte	.LASF45
 477 030d 03       		.byte	0x3
 478 030e 9001     		.2byte	0x190
 479 0310 81020000 		.4byte	0x281
 480 0314 04       		.byte	0x4
 481 0315 06       		.uleb128 0x6
 482 0316 BE010000 		.4byte	.LASF46
 483 031a 03       		.byte	0x3
 484 031b 9501     		.2byte	0x195
 485 031d DD020000 		.4byte	0x2dd
 486 0321 08       		.byte	0x8
 487 0322 06       		.uleb128 0x6
 488 0323 C6010000 		.4byte	.LASF47
 489 0327 03       		.byte	0x3
 490 0328 A401     		.2byte	0x1a4
 491 032a 3D030000 		.4byte	0x33d
 492 032e 0C       		.byte	0xc
 493 032f 06       		.uleb128 0x6
 494 0330 51030000 		.4byte	.LASF48
 495 0334 03       		.byte	0x3
 496 0335 AD01     		.2byte	0x1ad
 497 0337 4D030000 		.4byte	0x34d
 498 033b 3C       		.byte	0x3c
 499 033c 00       		.byte	0
 500 033d 14       		.uleb128 0x14
 501 033e 94000000 		.4byte	0x94
 502 0342 4D030000 		.4byte	0x34d
 503 0346 15       		.uleb128 0x15
 504 0347 31010000 		.4byte	0x131
 505 034b 01       		.byte	0x1
 506 034c 00       		.byte	0
ARM GAS  /tmp/ccFLhkev.s 			page 10


 507 034d 08       		.uleb128 0x8
 508 034e 63020000 		.4byte	0x263
 509 0352 03       		.uleb128 0x3
 510 0353 01       		.byte	0x1
 511 0354 02       		.byte	0x2
 512 0355 BC020000 		.4byte	.LASF49
 513 0359 04       		.uleb128 0x4
 514 035a 9A010000 		.4byte	.LASF50
 515 035e 08       		.byte	0x8
 516 035f 36       		.byte	0x36
 517 0360 6C000000 		.4byte	0x6c
 518 0364 04       		.uleb128 0x4
 519 0365 80010000 		.4byte	.LASF51
 520 0369 08       		.byte	0x8
 521 036a 3B       		.byte	0x3b
 522 036b 53000000 		.4byte	0x53
 523 036f 04       		.uleb128 0x4
 524 0370 03020000 		.4byte	.LASF52
 525 0374 08       		.byte	0x8
 526 0375 43       		.byte	0x43
 527 0376 7A030000 		.4byte	0x37a
 528 037a 0F       		.uleb128 0xf
 529 037b 04       		.byte	0x4
 530 037c 8F010000 		.4byte	0x18f
 531 0380 09       		.uleb128 0x9
 532 0381 0C       		.byte	0xc
 533 0382 09       		.byte	0x9
 534 0383 7A       		.byte	0x7a
 535 0384 AD030000 		.4byte	0x3ad
 536 0388 0A       		.uleb128 0xa
 537 0389 0B030000 		.4byte	.LASF53
 538 038d 09       		.byte	0x9
 539 038e 7E       		.byte	0x7e
 540 038f 6F030000 		.4byte	0x36f
 541 0393 00       		.byte	0
 542 0394 0A       		.uleb128 0xa
 543 0395 9A030000 		.4byte	.LASF54
 544 0399 09       		.byte	0x9
 545 039a 84       		.byte	0x84
 546 039b 59030000 		.4byte	0x359
 547 039f 04       		.byte	0x4
 548 03a0 0A       		.uleb128 0xa
 549 03a1 FC010000 		.4byte	.LASF55
 550 03a5 09       		.byte	0x9
 551 03a6 88       		.byte	0x88
 552 03a7 89000000 		.4byte	0x89
 553 03ab 08       		.byte	0x8
 554 03ac 00       		.byte	0
 555 03ad 04       		.uleb128 0x4
 556 03ae 69000000 		.4byte	.LASF56
 557 03b2 09       		.byte	0x9
 558 03b3 89       		.byte	0x89
 559 03b4 80030000 		.4byte	0x380
 560 03b8 16       		.uleb128 0x16
 561 03b9 6E020000 		.4byte	.LASF65
 562 03bd 01       		.byte	0x1
 563 03be 41       		.byte	0x41
ARM GAS  /tmp/ccFLhkev.s 			page 11


 564 03bf 59030000 		.4byte	0x359
 565 03c3 00000000 		.4byte	.LFB81
 566 03c7 04000000 		.4byte	.LFE81-.LFB81
 567 03cb 01       		.uleb128 0x1
 568 03cc 9C       		.byte	0x9c
 569 03cd EA030000 		.4byte	0x3ea
 570 03d1 17       		.uleb128 0x17
 571 03d2 62757300 		.ascii	"bus\000"
 572 03d6 01       		.byte	0x1
 573 03d7 41       		.byte	0x41
 574 03d8 EA030000 		.4byte	0x3ea
 575 03dc 00000000 		.4byte	.LLST0
 576 03e0 18       		.uleb128 0x18
 577 03e1 79020000 		.4byte	.LASF58
 578 03e5 00040000 		.4byte	0x400
 579 03e9 00       		.byte	0
 580 03ea 0F       		.uleb128 0xf
 581 03eb 04       		.byte	0x4
 582 03ec AD030000 		.4byte	0x3ad
 583 03f0 14       		.uleb128 0x14
 584 03f1 6E020000 		.4byte	0x26e
 585 03f5 00040000 		.4byte	0x400
 586 03f9 15       		.uleb128 0x15
 587 03fa 31010000 		.4byte	0x131
 588 03fe 0A       		.byte	0xa
 589 03ff 00       		.byte	0
 590 0400 10       		.uleb128 0x10
 591 0401 F0030000 		.4byte	0x3f0
 592 0405 19       		.uleb128 0x19
 593 0406 DB020000 		.4byte	.LASF59
 594 040a 01       		.byte	0x1
 595 040b 5A       		.byte	0x5a
 596 040c 00000000 		.4byte	.LFB82
 597 0410 02000000 		.4byte	.LFE82-.LFB82
 598 0414 01       		.uleb128 0x1
 599 0415 9C       		.byte	0x9c
 600 0416 3E040000 		.4byte	0x43e
 601 041a 1A       		.uleb128 0x1a
 602 041b 62757300 		.ascii	"bus\000"
 603 041f 01       		.byte	0x1
 604 0420 5A       		.byte	0x5a
 605 0421 EA030000 		.4byte	0x3ea
 606 0425 01       		.uleb128 0x1
 607 0426 50       		.byte	0x50
 608 0427 1B       		.uleb128 0x1b
 609 0428 DC010000 		.4byte	.LASF57
 610 042c 01       		.byte	0x1
 611 042d 5A       		.byte	0x5a
 612 042e 59030000 		.4byte	0x359
 613 0432 01       		.uleb128 0x1
 614 0433 51       		.byte	0x51
 615 0434 18       		.uleb128 0x18
 616 0435 79020000 		.4byte	.LASF58
 617 0439 4E040000 		.4byte	0x44e
 618 043d 00       		.byte	0
 619 043e 14       		.uleb128 0x14
 620 043f 6E020000 		.4byte	0x26e
ARM GAS  /tmp/ccFLhkev.s 			page 12


 621 0443 4E040000 		.4byte	0x44e
 622 0447 15       		.uleb128 0x15
 623 0448 31010000 		.4byte	0x131
 624 044c 0B       		.byte	0xb
 625 044d 00       		.byte	0
 626 044e 10       		.uleb128 0x10
 627 044f 3E040000 		.4byte	0x43e
 628 0453 19       		.uleb128 0x19
 629 0454 CD020000 		.4byte	.LASF60
 630 0458 01       		.byte	0x1
 631 0459 71       		.byte	0x71
 632 045a 00000000 		.4byte	.LFB83
 633 045e 16000000 		.4byte	.LFE83-.LFB83
 634 0462 01       		.uleb128 0x1
 635 0463 9C       		.byte	0x9c
 636 0464 99040000 		.4byte	0x499
 637 0468 17       		.uleb128 0x17
 638 0469 62757300 		.ascii	"bus\000"
 639 046d 01       		.byte	0x1
 640 046e 71       		.byte	0x71
 641 046f EA030000 		.4byte	0x3ea
 642 0473 21000000 		.4byte	.LLST1
 643 0477 1C       		.uleb128 0x1c
 644 0478 B7020000 		.4byte	.LASF61
 645 047c 01       		.byte	0x1
 646 047d 71       		.byte	0x71
 647 047e 64030000 		.4byte	0x364
 648 0482 42000000 		.4byte	.LLST2
 649 0486 18       		.uleb128 0x18
 650 0487 79020000 		.4byte	.LASF58
 651 048b A9040000 		.4byte	0x4a9
 652 048f 1D       		.uleb128 0x1d
 653 0490 14000000 		.4byte	.LVL6
 654 0494 BA040000 		.4byte	0x4ba
 655 0498 00       		.byte	0
 656 0499 14       		.uleb128 0x14
 657 049a 6E020000 		.4byte	0x26e
 658 049e A9040000 		.4byte	0x4a9
 659 04a2 15       		.uleb128 0x15
 660 04a3 31010000 		.4byte	0x131
 661 04a7 0D       		.byte	0xd
 662 04a8 00       		.byte	0
 663 04a9 10       		.uleb128 0x10
 664 04aa 99040000 		.4byte	0x499
 665 04ae 1E       		.uleb128 0x1e
 666 04af 6E696C00 		.ascii	"nil\000"
 667 04b3 03       		.byte	0x3
 668 04b4 C203     		.2byte	0x3c2
 669 04b6 E2020000 		.4byte	0x2e2
 670 04ba 1F       		.uleb128 0x1f
 671 04bb E6010000 		.4byte	.LASF66
 672 04bf 08       		.byte	0x8
 673 04c0 3D01     		.2byte	0x13d
 674 04c2 20       		.uleb128 0x20
 675 04c3 6F030000 		.4byte	0x36f
 676 04c7 20       		.uleb128 0x20
 677 04c8 59030000 		.4byte	0x359
ARM GAS  /tmp/ccFLhkev.s 			page 13


 678 04cc 20       		.uleb128 0x20
 679 04cd 64030000 		.4byte	0x364
 680 04d1 00       		.byte	0
 681 04d2 00       		.byte	0
 682              		.section	.debug_abbrev,"",%progbits
 683              	.Ldebug_abbrev0:
 684 0000 01       		.uleb128 0x1
 685 0001 11       		.uleb128 0x11
 686 0002 01       		.byte	0x1
 687 0003 25       		.uleb128 0x25
 688 0004 0E       		.uleb128 0xe
 689 0005 13       		.uleb128 0x13
 690 0006 0B       		.uleb128 0xb
 691 0007 03       		.uleb128 0x3
 692 0008 0E       		.uleb128 0xe
 693 0009 1B       		.uleb128 0x1b
 694 000a 0E       		.uleb128 0xe
 695 000b 55       		.uleb128 0x55
 696 000c 17       		.uleb128 0x17
 697 000d 11       		.uleb128 0x11
 698 000e 01       		.uleb128 0x1
 699 000f 10       		.uleb128 0x10
 700 0010 17       		.uleb128 0x17
 701 0011 00       		.byte	0
 702 0012 00       		.byte	0
 703 0013 02       		.uleb128 0x2
 704 0014 24       		.uleb128 0x24
 705 0015 00       		.byte	0
 706 0016 0B       		.uleb128 0xb
 707 0017 0B       		.uleb128 0xb
 708 0018 3E       		.uleb128 0x3e
 709 0019 0B       		.uleb128 0xb
 710 001a 03       		.uleb128 0x3
 711 001b 08       		.uleb128 0x8
 712 001c 00       		.byte	0
 713 001d 00       		.byte	0
 714 001e 03       		.uleb128 0x3
 715 001f 24       		.uleb128 0x24
 716 0020 00       		.byte	0
 717 0021 0B       		.uleb128 0xb
 718 0022 0B       		.uleb128 0xb
 719 0023 3E       		.uleb128 0x3e
 720 0024 0B       		.uleb128 0xb
 721 0025 03       		.uleb128 0x3
 722 0026 0E       		.uleb128 0xe
 723 0027 00       		.byte	0
 724 0028 00       		.byte	0
 725 0029 04       		.uleb128 0x4
 726 002a 16       		.uleb128 0x16
 727 002b 00       		.byte	0
 728 002c 03       		.uleb128 0x3
 729 002d 0E       		.uleb128 0xe
 730 002e 3A       		.uleb128 0x3a
 731 002f 0B       		.uleb128 0xb
 732 0030 3B       		.uleb128 0x3b
 733 0031 0B       		.uleb128 0xb
 734 0032 49       		.uleb128 0x49
ARM GAS  /tmp/ccFLhkev.s 			page 14


 735 0033 13       		.uleb128 0x13
 736 0034 00       		.byte	0
 737 0035 00       		.byte	0
 738 0036 05       		.uleb128 0x5
 739 0037 13       		.uleb128 0x13
 740 0038 01       		.byte	0x1
 741 0039 03       		.uleb128 0x3
 742 003a 0E       		.uleb128 0xe
 743 003b 0B       		.uleb128 0xb
 744 003c 0B       		.uleb128 0xb
 745 003d 3A       		.uleb128 0x3a
 746 003e 0B       		.uleb128 0xb
 747 003f 3B       		.uleb128 0x3b
 748 0040 05       		.uleb128 0x5
 749 0041 01       		.uleb128 0x1
 750 0042 13       		.uleb128 0x13
 751 0043 00       		.byte	0
 752 0044 00       		.byte	0
 753 0045 06       		.uleb128 0x6
 754 0046 0D       		.uleb128 0xd
 755 0047 00       		.byte	0
 756 0048 03       		.uleb128 0x3
 757 0049 0E       		.uleb128 0xe
 758 004a 3A       		.uleb128 0x3a
 759 004b 0B       		.uleb128 0xb
 760 004c 3B       		.uleb128 0x3b
 761 004d 05       		.uleb128 0x5
 762 004e 49       		.uleb128 0x49
 763 004f 13       		.uleb128 0x13
 764 0050 38       		.uleb128 0x38
 765 0051 0B       		.uleb128 0xb
 766 0052 00       		.byte	0
 767 0053 00       		.byte	0
 768 0054 07       		.uleb128 0x7
 769 0055 0D       		.uleb128 0xd
 770 0056 00       		.byte	0
 771 0057 03       		.uleb128 0x3
 772 0058 08       		.uleb128 0x8
 773 0059 3A       		.uleb128 0x3a
 774 005a 0B       		.uleb128 0xb
 775 005b 3B       		.uleb128 0x3b
 776 005c 05       		.uleb128 0x5
 777 005d 49       		.uleb128 0x49
 778 005e 13       		.uleb128 0x13
 779 005f 38       		.uleb128 0x38
 780 0060 0B       		.uleb128 0xb
 781 0061 00       		.byte	0
 782 0062 00       		.byte	0
 783 0063 08       		.uleb128 0x8
 784 0064 35       		.uleb128 0x35
 785 0065 00       		.byte	0
 786 0066 49       		.uleb128 0x49
 787 0067 13       		.uleb128 0x13
 788 0068 00       		.byte	0
 789 0069 00       		.byte	0
 790 006a 09       		.uleb128 0x9
 791 006b 13       		.uleb128 0x13
ARM GAS  /tmp/ccFLhkev.s 			page 15


 792 006c 01       		.byte	0x1
 793 006d 0B       		.uleb128 0xb
 794 006e 0B       		.uleb128 0xb
 795 006f 3A       		.uleb128 0x3a
 796 0070 0B       		.uleb128 0xb
 797 0071 3B       		.uleb128 0x3b
 798 0072 0B       		.uleb128 0xb
 799 0073 01       		.uleb128 0x1
 800 0074 13       		.uleb128 0x13
 801 0075 00       		.byte	0
 802 0076 00       		.byte	0
 803 0077 0A       		.uleb128 0xa
 804 0078 0D       		.uleb128 0xd
 805 0079 00       		.byte	0
 806 007a 03       		.uleb128 0x3
 807 007b 0E       		.uleb128 0xe
 808 007c 3A       		.uleb128 0x3a
 809 007d 0B       		.uleb128 0xb
 810 007e 3B       		.uleb128 0x3b
 811 007f 0B       		.uleb128 0xb
 812 0080 49       		.uleb128 0x49
 813 0081 13       		.uleb128 0x13
 814 0082 38       		.uleb128 0x38
 815 0083 0B       		.uleb128 0xb
 816 0084 00       		.byte	0
 817 0085 00       		.byte	0
 818 0086 0B       		.uleb128 0xb
 819 0087 16       		.uleb128 0x16
 820 0088 00       		.byte	0
 821 0089 03       		.uleb128 0x3
 822 008a 0E       		.uleb128 0xe
 823 008b 3A       		.uleb128 0x3a
 824 008c 0B       		.uleb128 0xb
 825 008d 3B       		.uleb128 0x3b
 826 008e 05       		.uleb128 0x5
 827 008f 49       		.uleb128 0x49
 828 0090 13       		.uleb128 0x13
 829 0091 00       		.byte	0
 830 0092 00       		.byte	0
 831 0093 0C       		.uleb128 0xc
 832 0094 0F       		.uleb128 0xf
 833 0095 00       		.byte	0
 834 0096 0B       		.uleb128 0xb
 835 0097 0B       		.uleb128 0xb
 836 0098 00       		.byte	0
 837 0099 00       		.byte	0
 838 009a 0D       		.uleb128 0xd
 839 009b 13       		.uleb128 0x13
 840 009c 01       		.byte	0x1
 841 009d 03       		.uleb128 0x3
 842 009e 0E       		.uleb128 0xe
 843 009f 0B       		.uleb128 0xb
 844 00a0 0B       		.uleb128 0xb
 845 00a1 3A       		.uleb128 0x3a
 846 00a2 0B       		.uleb128 0xb
 847 00a3 3B       		.uleb128 0x3b
 848 00a4 0B       		.uleb128 0xb
ARM GAS  /tmp/ccFLhkev.s 			page 16


 849 00a5 01       		.uleb128 0x1
 850 00a6 13       		.uleb128 0x13
 851 00a7 00       		.byte	0
 852 00a8 00       		.byte	0
 853 00a9 0E       		.uleb128 0xe
 854 00aa 0D       		.uleb128 0xd
 855 00ab 00       		.byte	0
 856 00ac 03       		.uleb128 0x3
 857 00ad 08       		.uleb128 0x8
 858 00ae 3A       		.uleb128 0x3a
 859 00af 0B       		.uleb128 0xb
 860 00b0 3B       		.uleb128 0x3b
 861 00b1 0B       		.uleb128 0xb
 862 00b2 49       		.uleb128 0x49
 863 00b3 13       		.uleb128 0x13
 864 00b4 38       		.uleb128 0x38
 865 00b5 0B       		.uleb128 0xb
 866 00b6 00       		.byte	0
 867 00b7 00       		.byte	0
 868 00b8 0F       		.uleb128 0xf
 869 00b9 0F       		.uleb128 0xf
 870 00ba 00       		.byte	0
 871 00bb 0B       		.uleb128 0xb
 872 00bc 0B       		.uleb128 0xb
 873 00bd 49       		.uleb128 0x49
 874 00be 13       		.uleb128 0x13
 875 00bf 00       		.byte	0
 876 00c0 00       		.byte	0
 877 00c1 10       		.uleb128 0x10
 878 00c2 26       		.uleb128 0x26
 879 00c3 00       		.byte	0
 880 00c4 49       		.uleb128 0x49
 881 00c5 13       		.uleb128 0x13
 882 00c6 00       		.byte	0
 883 00c7 00       		.byte	0
 884 00c8 11       		.uleb128 0x11
 885 00c9 17       		.uleb128 0x17
 886 00ca 01       		.byte	0x1
 887 00cb 0B       		.uleb128 0xb
 888 00cc 0B       		.uleb128 0xb
 889 00cd 3A       		.uleb128 0x3a
 890 00ce 0B       		.uleb128 0xb
 891 00cf 3B       		.uleb128 0x3b
 892 00d0 05       		.uleb128 0x5
 893 00d1 01       		.uleb128 0x1
 894 00d2 13       		.uleb128 0x13
 895 00d3 00       		.byte	0
 896 00d4 00       		.byte	0
 897 00d5 12       		.uleb128 0x12
 898 00d6 0D       		.uleb128 0xd
 899 00d7 00       		.byte	0
 900 00d8 03       		.uleb128 0x3
 901 00d9 08       		.uleb128 0x8
 902 00da 3A       		.uleb128 0x3a
 903 00db 0B       		.uleb128 0xb
 904 00dc 3B       		.uleb128 0x3b
 905 00dd 05       		.uleb128 0x5
ARM GAS  /tmp/ccFLhkev.s 			page 17


 906 00de 49       		.uleb128 0x49
 907 00df 13       		.uleb128 0x13
 908 00e0 00       		.byte	0
 909 00e1 00       		.byte	0
 910 00e2 13       		.uleb128 0x13
 911 00e3 0D       		.uleb128 0xd
 912 00e4 00       		.byte	0
 913 00e5 03       		.uleb128 0x3
 914 00e6 0E       		.uleb128 0xe
 915 00e7 3A       		.uleb128 0x3a
 916 00e8 0B       		.uleb128 0xb
 917 00e9 3B       		.uleb128 0x3b
 918 00ea 05       		.uleb128 0x5
 919 00eb 49       		.uleb128 0x49
 920 00ec 13       		.uleb128 0x13
 921 00ed 00       		.byte	0
 922 00ee 00       		.byte	0
 923 00ef 14       		.uleb128 0x14
 924 00f0 01       		.uleb128 0x1
 925 00f1 01       		.byte	0x1
 926 00f2 49       		.uleb128 0x49
 927 00f3 13       		.uleb128 0x13
 928 00f4 01       		.uleb128 0x1
 929 00f5 13       		.uleb128 0x13
 930 00f6 00       		.byte	0
 931 00f7 00       		.byte	0
 932 00f8 15       		.uleb128 0x15
 933 00f9 21       		.uleb128 0x21
 934 00fa 00       		.byte	0
 935 00fb 49       		.uleb128 0x49
 936 00fc 13       		.uleb128 0x13
 937 00fd 2F       		.uleb128 0x2f
 938 00fe 0B       		.uleb128 0xb
 939 00ff 00       		.byte	0
 940 0100 00       		.byte	0
 941 0101 16       		.uleb128 0x16
 942 0102 2E       		.uleb128 0x2e
 943 0103 01       		.byte	0x1
 944 0104 3F       		.uleb128 0x3f
 945 0105 19       		.uleb128 0x19
 946 0106 03       		.uleb128 0x3
 947 0107 0E       		.uleb128 0xe
 948 0108 3A       		.uleb128 0x3a
 949 0109 0B       		.uleb128 0xb
 950 010a 3B       		.uleb128 0x3b
 951 010b 0B       		.uleb128 0xb
 952 010c 27       		.uleb128 0x27
 953 010d 19       		.uleb128 0x19
 954 010e 49       		.uleb128 0x49
 955 010f 13       		.uleb128 0x13
 956 0110 11       		.uleb128 0x11
 957 0111 01       		.uleb128 0x1
 958 0112 12       		.uleb128 0x12
 959 0113 06       		.uleb128 0x6
 960 0114 40       		.uleb128 0x40
 961 0115 18       		.uleb128 0x18
 962 0116 9742     		.uleb128 0x2117
ARM GAS  /tmp/ccFLhkev.s 			page 18


 963 0118 19       		.uleb128 0x19
 964 0119 01       		.uleb128 0x1
 965 011a 13       		.uleb128 0x13
 966 011b 00       		.byte	0
 967 011c 00       		.byte	0
 968 011d 17       		.uleb128 0x17
 969 011e 05       		.uleb128 0x5
 970 011f 00       		.byte	0
 971 0120 03       		.uleb128 0x3
 972 0121 08       		.uleb128 0x8
 973 0122 3A       		.uleb128 0x3a
 974 0123 0B       		.uleb128 0xb
 975 0124 3B       		.uleb128 0x3b
 976 0125 0B       		.uleb128 0xb
 977 0126 49       		.uleb128 0x49
 978 0127 13       		.uleb128 0x13
 979 0128 02       		.uleb128 0x2
 980 0129 17       		.uleb128 0x17
 981 012a 00       		.byte	0
 982 012b 00       		.byte	0
 983 012c 18       		.uleb128 0x18
 984 012d 34       		.uleb128 0x34
 985 012e 00       		.byte	0
 986 012f 03       		.uleb128 0x3
 987 0130 0E       		.uleb128 0xe
 988 0131 49       		.uleb128 0x49
 989 0132 13       		.uleb128 0x13
 990 0133 34       		.uleb128 0x34
 991 0134 19       		.uleb128 0x19
 992 0135 00       		.byte	0
 993 0136 00       		.byte	0
 994 0137 19       		.uleb128 0x19
 995 0138 2E       		.uleb128 0x2e
 996 0139 01       		.byte	0x1
 997 013a 3F       		.uleb128 0x3f
 998 013b 19       		.uleb128 0x19
 999 013c 03       		.uleb128 0x3
 1000 013d 0E       		.uleb128 0xe
 1001 013e 3A       		.uleb128 0x3a
 1002 013f 0B       		.uleb128 0xb
 1003 0140 3B       		.uleb128 0x3b
 1004 0141 0B       		.uleb128 0xb
 1005 0142 27       		.uleb128 0x27
 1006 0143 19       		.uleb128 0x19
 1007 0144 11       		.uleb128 0x11
 1008 0145 01       		.uleb128 0x1
 1009 0146 12       		.uleb128 0x12
 1010 0147 06       		.uleb128 0x6
 1011 0148 40       		.uleb128 0x40
 1012 0149 18       		.uleb128 0x18
 1013 014a 9742     		.uleb128 0x2117
 1014 014c 19       		.uleb128 0x19
 1015 014d 01       		.uleb128 0x1
 1016 014e 13       		.uleb128 0x13
 1017 014f 00       		.byte	0
 1018 0150 00       		.byte	0
 1019 0151 1A       		.uleb128 0x1a
ARM GAS  /tmp/ccFLhkev.s 			page 19


 1020 0152 05       		.uleb128 0x5
 1021 0153 00       		.byte	0
 1022 0154 03       		.uleb128 0x3
 1023 0155 08       		.uleb128 0x8
 1024 0156 3A       		.uleb128 0x3a
 1025 0157 0B       		.uleb128 0xb
 1026 0158 3B       		.uleb128 0x3b
 1027 0159 0B       		.uleb128 0xb
 1028 015a 49       		.uleb128 0x49
 1029 015b 13       		.uleb128 0x13
 1030 015c 02       		.uleb128 0x2
 1031 015d 18       		.uleb128 0x18
 1032 015e 00       		.byte	0
 1033 015f 00       		.byte	0
 1034 0160 1B       		.uleb128 0x1b
 1035 0161 05       		.uleb128 0x5
 1036 0162 00       		.byte	0
 1037 0163 03       		.uleb128 0x3
 1038 0164 0E       		.uleb128 0xe
 1039 0165 3A       		.uleb128 0x3a
 1040 0166 0B       		.uleb128 0xb
 1041 0167 3B       		.uleb128 0x3b
 1042 0168 0B       		.uleb128 0xb
 1043 0169 49       		.uleb128 0x49
 1044 016a 13       		.uleb128 0x13
 1045 016b 02       		.uleb128 0x2
 1046 016c 18       		.uleb128 0x18
 1047 016d 00       		.byte	0
 1048 016e 00       		.byte	0
 1049 016f 1C       		.uleb128 0x1c
 1050 0170 05       		.uleb128 0x5
 1051 0171 00       		.byte	0
 1052 0172 03       		.uleb128 0x3
 1053 0173 0E       		.uleb128 0xe
 1054 0174 3A       		.uleb128 0x3a
 1055 0175 0B       		.uleb128 0xb
 1056 0176 3B       		.uleb128 0x3b
 1057 0177 0B       		.uleb128 0xb
 1058 0178 49       		.uleb128 0x49
 1059 0179 13       		.uleb128 0x13
 1060 017a 02       		.uleb128 0x2
 1061 017b 17       		.uleb128 0x17
 1062 017c 00       		.byte	0
 1063 017d 00       		.byte	0
 1064 017e 1D       		.uleb128 0x1d
 1065 017f 898201   		.uleb128 0x4109
 1066 0182 00       		.byte	0
 1067 0183 11       		.uleb128 0x11
 1068 0184 01       		.uleb128 0x1
 1069 0185 31       		.uleb128 0x31
 1070 0186 13       		.uleb128 0x13
 1071 0187 00       		.byte	0
 1072 0188 00       		.byte	0
 1073 0189 1E       		.uleb128 0x1e
 1074 018a 34       		.uleb128 0x34
 1075 018b 00       		.byte	0
 1076 018c 03       		.uleb128 0x3
ARM GAS  /tmp/ccFLhkev.s 			page 20


 1077 018d 08       		.uleb128 0x8
 1078 018e 3A       		.uleb128 0x3a
 1079 018f 0B       		.uleb128 0xb
 1080 0190 3B       		.uleb128 0x3b
 1081 0191 05       		.uleb128 0x5
 1082 0192 49       		.uleb128 0x49
 1083 0193 13       		.uleb128 0x13
 1084 0194 3F       		.uleb128 0x3f
 1085 0195 19       		.uleb128 0x19
 1086 0196 3C       		.uleb128 0x3c
 1087 0197 19       		.uleb128 0x19
 1088 0198 00       		.byte	0
 1089 0199 00       		.byte	0
 1090 019a 1F       		.uleb128 0x1f
 1091 019b 2E       		.uleb128 0x2e
 1092 019c 01       		.byte	0x1
 1093 019d 3F       		.uleb128 0x3f
 1094 019e 19       		.uleb128 0x19
 1095 019f 03       		.uleb128 0x3
 1096 01a0 0E       		.uleb128 0xe
 1097 01a1 3A       		.uleb128 0x3a
 1098 01a2 0B       		.uleb128 0xb
 1099 01a3 3B       		.uleb128 0x3b
 1100 01a4 05       		.uleb128 0x5
 1101 01a5 27       		.uleb128 0x27
 1102 01a6 19       		.uleb128 0x19
 1103 01a7 3C       		.uleb128 0x3c
 1104 01a8 19       		.uleb128 0x19
 1105 01a9 00       		.byte	0
 1106 01aa 00       		.byte	0
 1107 01ab 20       		.uleb128 0x20
 1108 01ac 05       		.uleb128 0x5
 1109 01ad 00       		.byte	0
 1110 01ae 49       		.uleb128 0x49
 1111 01af 13       		.uleb128 0x13
 1112 01b0 00       		.byte	0
 1113 01b1 00       		.byte	0
 1114 01b2 00       		.byte	0
 1115              		.section	.debug_loc,"",%progbits
 1116              	.Ldebug_loc0:
 1117              	.LLST0:
 1118 0000 00000000 		.4byte	.LVL0
 1119 0004 02000000 		.4byte	.LVL1
 1120 0008 0100     		.2byte	0x1
 1121 000a 50       		.byte	0x50
 1122 000b 02000000 		.4byte	.LVL1
 1123 000f 04000000 		.4byte	.LFE81
 1124 0013 0400     		.2byte	0x4
 1125 0015 F3       		.byte	0xf3
 1126 0016 01       		.uleb128 0x1
 1127 0017 50       		.byte	0x50
 1128 0018 9F       		.byte	0x9f
 1129 0019 00000000 		.4byte	0
 1130 001d 00000000 		.4byte	0
 1131              	.LLST1:
 1132 0021 00000000 		.4byte	.LVL3
 1133 0025 0C000000 		.4byte	.LVL5
ARM GAS  /tmp/ccFLhkev.s 			page 21


 1134 0029 0100     		.2byte	0x1
 1135 002b 50       		.byte	0x50
 1136 002c 0C000000 		.4byte	.LVL5
 1137 0030 16000000 		.4byte	.LFE83
 1138 0034 0400     		.2byte	0x4
 1139 0036 F3       		.byte	0xf3
 1140 0037 01       		.uleb128 0x1
 1141 0038 50       		.byte	0x50
 1142 0039 9F       		.byte	0x9f
 1143 003a 00000000 		.4byte	0
 1144 003e 00000000 		.4byte	0
 1145              	.LLST2:
 1146 0042 00000000 		.4byte	.LVL3
 1147 0046 08000000 		.4byte	.LVL4
 1148 004a 0100     		.2byte	0x1
 1149 004c 51       		.byte	0x51
 1150 004d 08000000 		.4byte	.LVL4
 1151 0051 16000000 		.4byte	.LFE83
 1152 0055 0400     		.2byte	0x4
 1153 0057 F3       		.byte	0xf3
 1154 0058 01       		.uleb128 0x1
 1155 0059 51       		.byte	0x51
 1156 005a 9F       		.byte	0x9f
 1157 005b 00000000 		.4byte	0
 1158 005f 00000000 		.4byte	0
 1159              		.section	.debug_aranges,"",%progbits
 1160 0000 2C000000 		.4byte	0x2c
 1161 0004 0200     		.2byte	0x2
 1162 0006 00000000 		.4byte	.Ldebug_info0
 1163 000a 04       		.byte	0x4
 1164 000b 00       		.byte	0
 1165 000c 0000     		.2byte	0
 1166 000e 0000     		.2byte	0
 1167 0010 00000000 		.4byte	.LFB81
 1168 0014 04000000 		.4byte	.LFE81-.LFB81
 1169 0018 00000000 		.4byte	.LFB82
 1170 001c 02000000 		.4byte	.LFE82-.LFB82
 1171 0020 00000000 		.4byte	.LFB83
 1172 0024 16000000 		.4byte	.LFE83-.LFB83
 1173 0028 00000000 		.4byte	0
 1174 002c 00000000 		.4byte	0
 1175              		.section	.debug_ranges,"",%progbits
 1176              	.Ldebug_ranges0:
 1177 0000 00000000 		.4byte	.LFB81
 1178 0004 04000000 		.4byte	.LFE81
 1179 0008 00000000 		.4byte	.LFB82
 1180 000c 02000000 		.4byte	.LFE82
 1181 0010 00000000 		.4byte	.LFB83
 1182 0014 16000000 		.4byte	.LFE83
 1183 0018 00000000 		.4byte	0
 1184 001c 00000000 		.4byte	0
 1185              		.section	.debug_line,"",%progbits
 1186              	.Ldebug_line0:
 1187 0000 6A010000 		.section	.debug_str,"MS",%progbits,1
 1187      02002F01 
 1187      00000201 
 1187      FB0E0D00 
ARM GAS  /tmp/ccFLhkev.s 			page 22


 1187      01010101 
 1188              	.LASF12:
 1189 0000 74687265 		.ascii	"thread_t\000"
 1189      61645F74 
 1189      00
 1190              	.LASF29:
 1191 0009 50444452 		.ascii	"PDDR\000"
 1191      00
 1192              	.LASF16:
 1193 000e 65706D61 		.ascii	"epmask\000"
 1193      736B00
 1194              	.LASF26:
 1195 0015 50434F52 		.ascii	"PCOR\000"
 1195      00
 1196              	.LASF14:
 1197 001a 73746174 		.ascii	"state\000"
 1197      6500
 1198              	.LASF9:
 1199 0020 75696E74 		.ascii	"uint64_t\000"
 1199      36345F74 
 1199      00
 1200              	.LASF27:
 1201 0029 50544F52 		.ascii	"PTOR\000"
 1201      00
 1202              	.LASF23:
 1203 002e 73697A65 		.ascii	"sizetype\000"
 1203      74797065 
 1203      00
 1204              	.LASF42:
 1205 0037 6E696C5F 		.ascii	"nil_system_t\000"
 1205      73797374 
 1205      656D5F74 
 1205      00
 1206              	.LASF33:
 1207 0044 6E696C5F 		.ascii	"nil_thread\000"
 1207      74687265 
 1207      616400
 1208              	.LASF3:
 1209 004f 6C6F6E67 		.ascii	"long long int\000"
 1209      206C6F6E 
 1209      6720696E 
 1209      7400
 1210              	.LASF20:
 1211 005d 6576656E 		.ascii	"eventmask_t\000"
 1211      746D6173 
 1211      6B5F7400 
 1212              	.LASF56:
 1213 0069 494F4275 		.ascii	"IOBus\000"
 1213      7300
 1214              	.LASF44:
 1215 006f 63757272 		.ascii	"current\000"
 1215      656E7400 
 1216              	.LASF2:
 1217 0077 73686F72 		.ascii	"short int\000"
 1217      7420696E 
 1217      7400
 1218              	.LASF62:
ARM GAS  /tmp/ccFLhkev.s 			page 23


 1219 0081 474E5520 		.ascii	"GNU C 4.9.2 -mcpu=cortex-m0 -mfloat-abi=soft -mfp16"
 1219      4320342E 
 1219      392E3220 
 1219      2D6D6370 
 1219      753D636F 
 1220 00b4 2D666F72 		.ascii	"-format=none -mno-thumb-interwork -mthumb -mfloat-a"
 1220      6D61743D 
 1220      6E6F6E65 
 1220      202D6D6E 
 1220      6F2D7468 
 1221 00e7 62693D73 		.ascii	"bi=soft -mfpu=vfpv3-d16 -mtls-dialect=gnu -ggdb -O3"
 1221      6F667420 
 1221      2D6D6670 
 1221      753D7666 
 1221      7076332D 
 1222 011a 202D7374 		.ascii	" -std=gnu99 -fomit-frame-pointer -falign-functions="
 1222      643D676E 
 1222      75393920 
 1222      2D666F6D 
 1222      69742D66 
 1223 014d 3136202D 		.ascii	"16 -ffunction-sections -fdata-sections -fno-common\000"
 1223      6666756E 
 1223      6374696F 
 1223      6E2D7365 
 1223      6374696F 
 1224              	.LASF51:
 1225 0180 696F6D6F 		.ascii	"iomode_t\000"
 1225      64655F74 
 1225      00
 1226              	.LASF31:
 1227 0189 72656761 		.ascii	"regarm_t\000"
 1227      726D5F74 
 1227      00
 1228              	.LASF5:
 1229 0192 75696E74 		.ascii	"uint8_t\000"
 1229      385F7400 
 1230              	.LASF50:
 1231 019a 696F706F 		.ascii	"ioportmask_t\000"
 1231      72746D61 
 1231      736B5F74 
 1231      00
 1232              	.LASF43:
 1233 01a7 6E696C5F 		.ascii	"nil_system\000"
 1233      73797374 
 1233      656D00
 1234              	.LASF36:
 1235 01b2 73656D61 		.ascii	"semaphore_t\000"
 1235      70686F72 
 1235      655F7400 
 1236              	.LASF46:
 1237 01be 73797374 		.ascii	"systime\000"
 1237      696D6500 
 1238              	.LASF47:
 1239 01c6 74687265 		.ascii	"threads\000"
 1239      61647300 
 1240              	.LASF37:
 1241 01ce 6E696C5F 		.ascii	"nil_semaphore\000"
ARM GAS  /tmp/ccFLhkev.s 			page 24


 1241      73656D61 
 1241      70686F72 
 1241      6500
 1242              	.LASF57:
 1243 01dc 62697473 		.ascii	"bits\000"
 1243      00
 1244              	.LASF28:
 1245 01e1 50444952 		.ascii	"PDIR\000"
 1245      00
 1246              	.LASF66:
 1247 01e6 5F70616C 		.ascii	"_pal_lld_setgroupmode\000"
 1247      5F6C6C64 
 1247      5F736574 
 1247      67726F75 
 1247      706D6F64 
 1248              	.LASF55:
 1249 01fc 6F666673 		.ascii	"offset\000"
 1249      657400
 1250              	.LASF52:
 1251 0203 696F706F 		.ascii	"ioportid_t\000"
 1251      72746964 
 1251      5F7400
 1252              	.LASF6:
 1253 020e 756E7369 		.ascii	"unsigned char\000"
 1253      676E6564 
 1253      20636861 
 1253      7200
 1254              	.LASF41:
 1255 021c 65776D61 		.ascii	"ewmask\000"
 1255      736B00
 1256              	.LASF1:
 1257 0223 7369676E 		.ascii	"signed char\000"
 1257      65642063 
 1257      68617200 
 1258              	.LASF10:
 1259 022f 6C6F6E67 		.ascii	"long long unsigned int\000"
 1259      206C6F6E 
 1259      6720756E 
 1259      7369676E 
 1259      65642069 
 1260              	.LASF11:
 1261 0246 75696E74 		.ascii	"uint_fast8_t\000"
 1261      5F666173 
 1261      74385F74 
 1261      00
 1262              	.LASF8:
 1263 0253 75696E74 		.ascii	"uint32_t\000"
 1263      33325F74 
 1263      00
 1264              	.LASF0:
 1265 025c 756E7369 		.ascii	"unsigned int\000"
 1265      676E6564 
 1265      20696E74 
 1265      00
 1266              	.LASF25:
 1267 0269 50534F52 		.ascii	"PSOR\000"
 1267      00
ARM GAS  /tmp/ccFLhkev.s 			page 25


 1268              	.LASF65:
 1269 026e 70616C52 		.ascii	"palReadBus\000"
 1269      65616442 
 1269      757300
 1270              	.LASF58:
 1271 0279 5F5F6675 		.ascii	"__func__\000"
 1271      6E635F5F 
 1271      00
 1272              	.LASF7:
 1273 0282 73686F72 		.ascii	"short unsigned int\000"
 1273      7420756E 
 1273      7369676E 
 1273      65642069 
 1273      6E7400
 1274              	.LASF13:
 1275 0295 63747870 		.ascii	"ctxp\000"
 1275      00
 1276              	.LASF22:
 1277 029a 73797374 		.ascii	"systime_t\000"
 1277      696D655F 
 1277      7400
 1278              	.LASF38:
 1279 02a4 63686172 		.ascii	"char\000"
 1279      00
 1280              	.LASF4:
 1281 02a9 696E7433 		.ascii	"int32_t\000"
 1281      325F7400 
 1282              	.LASF21:
 1283 02b1 636E745F 		.ascii	"cnt_t\000"
 1283      7400
 1284              	.LASF61:
 1285 02b7 6D6F6465 		.ascii	"mode\000"
 1285      00
 1286              	.LASF49:
 1287 02bc 5F426F6F 		.ascii	"_Bool\000"
 1287      6C00
 1288              	.LASF32:
 1289 02c2 73746B61 		.ascii	"stkalign_t\000"
 1289      6C69676E 
 1289      5F7400
 1290              	.LASF60:
 1291 02cd 70616C53 		.ascii	"palSetBusMode\000"
 1291      65744275 
 1291      734D6F64 
 1291      6500
 1292              	.LASF59:
 1293 02db 70616C57 		.ascii	"palWriteBus\000"
 1293      72697465 
 1293      42757300 
 1294              	.LASF34:
 1295 02e7 706F7274 		.ascii	"port_intctx\000"
 1295      5F696E74 
 1295      63747800 
 1296              	.LASF40:
 1297 02f3 73656D70 		.ascii	"semp\000"
 1297      00
 1298              	.LASF39:
ARM GAS  /tmp/ccFLhkev.s 			page 26


 1299 02f8 74687265 		.ascii	"thread_reference_t\000"
 1299      61645F72 
 1299      65666572 
 1299      656E6365 
 1299      5F7400
 1300              	.LASF53:
 1301 030b 706F7274 		.ascii	"portid\000"
 1301      696400
 1302              	.LASF18:
 1303 0312 74737461 		.ascii	"tstate_t\000"
 1303      74655F74 
 1303      00
 1304              	.LASF64:
 1305 031b 2F686F6D 		.ascii	"/home/bunnie/code/chibi-chibios/orchard\000"
 1305      652F6275 
 1305      6E6E6965 
 1305      2F636F64 
 1305      652F6368 
 1306              	.LASF35:
 1307 0343 696E7463 		.ascii	"intctx_t\000"
 1307      74785F74 
 1307      00
 1308              	.LASF24:
 1309 034c 50444F52 		.ascii	"PDOR\000"
 1309      00
 1310              	.LASF48:
 1311 0351 6462675F 		.ascii	"dbg_panic_msg\000"
 1311      70616E69 
 1311      635F6D73 
 1311      6700
 1312              	.LASF17:
 1313 035f 73746B6C 		.ascii	"stklim\000"
 1313      696D00
 1314              	.LASF63:
 1315 0366 2E2E2F6F 		.ascii	"../os/hal/src/pal.c\000"
 1315      732F6861 
 1315      6C2F7372 
 1315      632F7061 
 1315      6C2E6300 
 1316              	.LASF30:
 1317 037a 4750494F 		.ascii	"GPIO_TypeDef\000"
 1317      5F547970 
 1317      65446566 
 1317      00
 1318              	.LASF19:
 1319 0387 6D73675F 		.ascii	"msg_t\000"
 1319      7400
 1320              	.LASF15:
 1321 038d 74696D65 		.ascii	"timeout\000"
 1321      6F757400 
 1322              	.LASF45:
 1323 0395 6E657874 		.ascii	"next\000"
 1323      00
 1324              	.LASF54:
 1325 039a 6D61736B 		.ascii	"mask\000"
 1325      00
 1326              		.ident	"GCC: (Debian 4.9.2-10) 4.9.2"
ARM GAS  /tmp/ccFLhkev.s 			page 27


 1327              		.section	.note.GNU-stack,"",%progbits
ARM GAS  /tmp/ccFLhkev.s 			page 28


DEFINED SYMBOLS
                            *ABS*:00000000 pal.c
     /tmp/ccFLhkev.s:18     .text.palReadBus:00000000 $t
     /tmp/ccFLhkev.s:24     .text.palReadBus:00000000 palReadBus
     /tmp/ccFLhkev.s:39     .text.palWriteBus:00000000 $t
     /tmp/ccFLhkev.s:45     .text.palWriteBus:00000000 palWriteBus
     /tmp/ccFLhkev.s:57     .text.palSetBusMode:00000000 $t
     /tmp/ccFLhkev.s:63     .text.palSetBusMode:00000000 palSetBusMode
                     .debug_frame:00000010 $d

UNDEFINED SYMBOLS
_pal_lld_setgroupmode
