ARM GAS  /tmp/ccp02p1j.s 			page 1


   1              		.cpu cortex-m0
   2              		.fpu softvfp
   3              		.eabi_attribute 20, 1
   4              		.eabi_attribute 21, 1
   5              		.eabi_attribute 23, 3
   6              		.eabi_attribute 24, 1
   7              		.eabi_attribute 25, 1
   8              		.eabi_attribute 26, 2
   9              		.eabi_attribute 30, 2
  10              		.eabi_attribute 34, 0
  11              		.eabi_attribute 18, 4
  12              		.code	16
  13              		.file	"PFlashSetProtection.c"
  14              		.text
  15              	.Ltext0:
  16              		.cfi_sections	.debug_frame
  17              		.section	.text.PFlashSetProtection,"ax",%progbits
  18              		.align	2
  19              		.p2align 4,,-1
  20              		.global	PFlashSetProtection
  21              		.code	16
  22              		.thumb_func
  23              		.type	PFlashSetProtection, %function
  24              	PFlashSetProtection:
  25              	.LFB10:
  26              		.file 1 "../ext/C90TFS/source/PFlashSetProtection.c"
  27              		.loc 1 66 0
  28              		.cfi_startproc
  29              	.LVL0:
  30 0000 F0B5     		push	{r4, r5, r6, r7, lr}
  31              		.cfi_def_cfa_offset 20
  32              		.cfi_offset 4, -20
  33              		.cfi_offset 5, -16
  34              		.cfi_offset 6, -12
  35              		.cfi_offset 7, -8
  36              		.cfi_offset 14, -4
  37 0002 4746     		mov	r7, r8
  38 0004 80B4     		push	{r7}
  39              		.cfi_def_cfa_offset 24
  40              		.cfi_offset 8, -24
  41              		.loc 1 77 0
  42 0006 0268     		ldr	r2, [r0]
  43              		.loc 1 72 0
  44 0008 0C0E     		lsr	r4, r1, #24
  45 000a E3B2     		uxtb	r3, r4
  46              	.LVL1:
  47              		.loc 1 78 0
  48 000c D374     		strb	r3, [r2, #19]
  49              		.loc 1 79 0
  50 000e D27C     		ldrb	r2, [r2, #19]
  51              		.loc 1 80 0
  52 0010 0368     		ldr	r3, [r0]
  53              	.LVL2:
  54              		.loc 1 79 0
  55 0012 9046     		mov	r8, r2
  56              		.loc 1 73 0
  57 0014 0D0C     		lsr	r5, r1, #16
ARM GAS  /tmp/ccp02p1j.s 			page 2


  58 0016 EEB2     		uxtb	r6, r5
  59              	.LVL3:
  60              		.loc 1 81 0
  61 0018 9E74     		strb	r6, [r3, #18]
  62              		.loc 1 83 0
  63 001a 0268     		ldr	r2, [r0]
  64              		.loc 1 74 0
  65 001c 0E0A     		lsr	r6, r1, #8
  66              	.LVL4:
  67 001e F7B2     		uxtb	r7, r6
  68              	.LVL5:
  69              		.loc 1 82 0
  70 0020 9B7C     		ldrb	r3, [r3, #18]
  71              	.LVL6:
  72              		.loc 1 84 0
  73 0022 5774     		strb	r7, [r2, #17]
  74              		.loc 1 86 0
  75 0024 0068     		ldr	r0, [r0]
  76              	.LVL7:
  77              		.loc 1 75 0
  78 0026 CFB2     		uxtb	r7, r1
  79              	.LVL8:
  80              		.loc 1 85 0
  81 0028 527C     		ldrb	r2, [r2, #17]
  82              	.LVL9:
  83              		.loc 1 87 0
  84 002a 0774     		strb	r7, [r0, #16]
  85              		.loc 1 88 0
  86 002c 007C     		ldrb	r0, [r0, #16]
  87              		.loc 1 82 0
  88 002e DBB2     		uxtb	r3, r3
  89              	.LVL10:
  90              		.loc 1 85 0
  91 0030 D2B2     		uxtb	r2, r2
  92              	.LVL11:
  93              		.loc 1 88 0
  94 0032 C0B2     		uxtb	r0, r0
  95              	.LVL12:
  96              		.loc 1 91 0
  97 0034 4445     		cmp	r4, r8
  98 0036 04D0     		beq	.L8
  99              	.LVL13:
 100              	.L5:
 101              		.loc 1 93 0
 102 0038 8020     		mov	r0, #128
 103              	.LVL14:
 104 003a 4000     		lsl	r0, r0, #1
 105              	.LVL15:
 106              	.L2:
 107              		.loc 1 105 0
 108              		@ sp needed
 109              	.LVL16:
 110              	.LVL17:
 111 003c 04BC     		pop	{r2}
 112 003e 9046     		mov	r8, r2
 113 0040 F0BD     		pop	{r4, r5, r6, r7, pc}
 114              	.LVL18:
ARM GAS  /tmp/ccp02p1j.s 			page 3


 115              	.L8:
 116              		.loc 1 91 0 discriminator 1
 117 0042 FF24     		mov	r4, #255
 118              	.LVL19:
 119 0044 2540     		and	r5, r4
 120              	.LVL20:
 121 0046 9D42     		cmp	r5, r3
 122 0048 F6D1     		bne	.L5
 123              		.loc 1 91 0 is_stmt 0 discriminator 2
 124 004a 2640     		and	r6, r4
 125              	.LVL21:
 126 004c 9642     		cmp	r6, r2
 127 004e F3D1     		bne	.L5
 128              		.loc 1 91 0 discriminator 3
 129 0050 2140     		and	r1, r4
 130              	.LVL22:
 131              		.loc 1 67 0 is_stmt 1 discriminator 3
 132 0052 081A     		sub	r0, r1, r0
 133              	.LVL23:
 134 0054 411E     		sub	r1, r0, #1
 135 0056 8841     		sbc	r0, r0, r1
 136 0058 0002     		lsl	r0, r0, #8
 137 005a EFE7     		b	.L2
 138              		.cfi_endproc
 139              	.LFE10:
 140              		.size	PFlashSetProtection, .-PFlashSetProtection
 141 005c C046C046 		.text
 142              	.Letext0:
 143              		.file 2 "/usr/include/stdint.h"
 144              		.file 3 "../ext/C90TFS/include/SSD_Types.h"
 983              		.section	.note.GNU-stack,"",%progbits
ARM GAS  /tmp/ccp02p1j.s 			page 21

