ARM GAS  /tmp/cce3BzsE.s 			page 1


   1              		.cpu cortex-m0
   2              		.fpu softvfp
   3              		.eabi_attribute 20, 1
   4              		.eabi_attribute 21, 1
   5              		.eabi_attribute 23, 3
   6              		.eabi_attribute 24, 1
   7              		.eabi_attribute 25, 1
   8              		.eabi_attribute 26, 2
   9              		.eabi_attribute 30, 2
  10              		.eabi_attribute 34, 0
  11              		.eabi_attribute 18, 4
  12              		.code	16
  13              		.file	"printf.c"
  14              		.text
  15              	.Ltext0:
  16              		.cfi_sections	.debug_frame
  17              		.global	__aeabi_uidiv
  18              		.global	__aeabi_uidivmod
  19              		.section	.text.tfp_format,"ax",%progbits
  20              		.align	2
  21              		.p2align 4,,15
  22              		.global	tfp_format
  23              		.code	16
  24              		.thumb_func
  25              		.type	tfp_format, %function
  26              	tfp_format:
  27              	.LFB51:
  28              		.file 1 "printf.c"
  29              		.loc 1 127 0
  30              		.cfi_startproc
  31              	.LVL0:
  32 0000 F0B5     		push	{r4, r5, r6, r7, lr}
  33              		.cfi_def_cfa_offset 20
  34              		.cfi_offset 4, -20
  35              		.cfi_offset 5, -16
  36              		.cfi_offset 6, -12
  37              		.cfi_offset 7, -8
  38              		.cfi_offset 14, -4
  39 0002 5F46     		mov	r7, fp
  40 0004 5646     		mov	r6, r10
  41 0006 4D46     		mov	r5, r9
  42 0008 4446     		mov	r4, r8
  43 000a 9346     		mov	fp, r2
  44 000c F0B4     		push	{r4, r5, r6, r7}
  45              		.cfi_def_cfa_offset 36
  46              		.cfi_offset 8, -36
  47              		.cfi_offset 9, -32
  48              		.cfi_offset 10, -28
  49              		.cfi_offset 11, -24
  50 000e 1D1C     		mov	r5, r3
  51 0010 061C     		mov	r6, r0
  52 0012 0F1C     		mov	r7, r1
  53 0014 8BB0     		sub	sp, sp, #44
  54              		.cfi_def_cfa_offset 80
  55              	.LVL1:
  56              	.L2:
  57              		.loc 1 133 0
ARM GAS  /tmp/cce3BzsE.s 			page 2


  58 0016 5B46     		mov	r3, fp
  59              	.LVL2:
  60 0018 1978     		ldrb	r1, [r3]
  61              	.LVL3:
  62 001a 0029     		cmp	r1, #0
  63 001c 0AD0     		beq	.L1
  64              	.LVL4:
  65              	.L87:
  66              		.loc 1 134 0
  67 001e 2529     		cmp	r1, #37
  68 0020 0FD0     		beq	.L3
  69              		.loc 1 133 0
  70 0022 0123     		mov	r3, #1
  71 0024 9C46     		mov	ip, r3
  72              		.loc 1 135 0
  73 0026 301C     		mov	r0, r6
  74              		.loc 1 133 0
  75 0028 E344     		add	fp, fp, ip
  76              		.loc 1 135 0
  77 002a B847     		blx	r7
  78              	.LVL5:
  79              		.loc 1 133 0
  80 002c 5B46     		mov	r3, fp
  81 002e 1978     		ldrb	r1, [r3]
  82              	.LVL6:
  83 0030 0029     		cmp	r1, #0
  84 0032 F4D1     		bne	.L87
  85              	.LVL7:
  86              	.L1:
  87              		.loc 1 202 0
  88 0034 0BB0     		add	sp, sp, #44
  89              		@ sp needed
  90              	.LVL8:
  91              	.LVL9:
  92 0036 3CBC     		pop	{r2, r3, r4, r5}
  93 0038 9046     		mov	r8, r2
  94 003a 9946     		mov	r9, r3
  95 003c A246     		mov	r10, r4
  96 003e AB46     		mov	fp, r5
  97 0040 F0BD     		pop	{r4, r5, r6, r7, pc}
  98              	.LVL10:
  99              	.L3:
 100              	.LBB34:
 101              		.loc 1 142 0
 102 0042 5B46     		mov	r3, fp
 103 0044 5B78     		ldrb	r3, [r3, #1]
 104 0046 9946     		mov	r9, r3
 105              	.LVL11:
 106              		.loc 1 143 0
 107 0048 302B     		cmp	r3, #48
 108 004a 00D1     		bne	.LCB97
 109 004c C0E0     		b	.L5	@long jump
 110              	.LCB97:
 111              		.loc 1 142 0
 112 004e 0223     		mov	r3, #2
 113              	.LVL12:
 114 0050 9C46     		mov	ip, r3
ARM GAS  /tmp/cce3BzsE.s 			page 3


 115              		.loc 1 137 0
 116 0052 0023     		mov	r3, #0
 117              		.loc 1 142 0
 118 0054 E344     		add	fp, fp, ip
 119              	.LVL13:
 120              		.loc 1 137 0
 121 0056 0193     		str	r3, [sp, #4]
 122              	.LVL14:
 123              	.L6:
 124              		.loc 1 147 0
 125 0058 4B46     		mov	r3, r9
 126 005a 303B     		sub	r3, r3, #48
 127 005c DAB2     		uxtb	r2, r3
 128              		.loc 1 141 0
 129 005e 0024     		mov	r4, #0
 130              		.loc 1 147 0
 131 0060 092A     		cmp	r2, #9
 132 0062 00D8     		bhi	.LCB118
 133 0064 8CE0     		b	.L174	@long jump
 134              	.LCB118:
 135              	.LVL15:
 136              		.loc 1 156 0
 137 0066 4B46     		mov	r3, r9
 138 0068 632B     		cmp	r3, #99
 139 006a 00D1     		bne	.LCB124
 140 006c 9EE0     		b	.L13	@long jump
 141              	.LCB124:
 142              	.L181:
 143 006e 632B     		cmp	r3, #99
 144 0070 7CD9     		bls	.L175
 145 0072 4B46     		mov	r3, r9
 146 0074 732B     		cmp	r3, #115
 147 0076 00D1     		bne	.LCB133
 148 0078 02E1     		b	.L18	@long jump
 149              	.LCB133:
 150 007a 00D8     		bhi	.LCB135
 151 007c B1E0     		b	.L176	@long jump
 152              	.LCB135:
 153 007e 4B46     		mov	r3, r9
 154 0080 752B     		cmp	r3, #117
 155 0082 00D0     		beq	.LCB138
 156 0084 2BE1     		b	.L177	@long jump
 157              	.LCB138:
 158              		.loc 1 165 0
 159 0086 2B1D     		add	r3, r5, #4
 160 0088 0393     		str	r3, [sp, #12]
 161 008a 2B68     		ldr	r3, [r5]
 162              	.LBB35:
 163              	.LBB36:
 164              		.loc 1 64 0
 165 008c 0125     		mov	r5, #1
 166              	.LBE36:
 167              	.LBE35:
 168              		.loc 1 165 0
 169 008e 9946     		mov	r9, r3
 170              	.LVL16:
 171              	.LBB41:
ARM GAS  /tmp/cce3BzsE.s 			page 4


 172              	.LBB39:
 173              		.loc 1 64 0
 174 0090 092B     		cmp	r3, #9
 175 0092 0FD9     		bls	.L22
 176 0094 A046     		mov	r8, r4
 177 0096 1C1C     		mov	r4, r3
 178              	.LVL17:
 179              	.L23:
 180              		.loc 1 65 0
 181 0098 AB00     		lsl	r3, r5, #2
 182 009a 5D19     		add	r5, r3, r5
 183              	.LVL18:
 184 009c 6D00     		lsl	r5, r5, #1
 185              	.LVL19:
 186              		.loc 1 64 0
 187 009e 201C     		mov	r0, r4
 188 00a0 291C     		mov	r1, r5
 189 00a2 FFF7FEFF 		bl	__aeabi_uidiv
 190              	.LVL20:
 191 00a6 0928     		cmp	r0, #9
 192 00a8 F6D8     		bhi	.L23
 193 00aa A146     		mov	r9, r4
 194 00ac 4446     		mov	r4, r8
 195              	.LVL21:
 196              		.loc 1 66 0
 197 00ae 002D     		cmp	r5, #0
 198 00b0 00D1     		bne	.LCB187
 199 00b2 32E2     		b	.L166	@long jump
 200              	.LCB187:
 201              	.LVL22:
 202              	.L22:
 203              	.LBB37:
 204              		.loc 1 70 0
 205 00b4 0022     		mov	r2, #0
 206 00b6 07AB     		add	r3, sp, #28
 207              	.LVL23:
 208 00b8 9246     		mov	r10, r2
 209 00ba 0293     		str	r3, [sp, #8]
 210 00bc 321C     		mov	r2, r6
 211 00be 9846     		mov	r8, r3
 212 00c0 3B1C     		mov	r3, r7
 213              	.LVL24:
 214 00c2 4E46     		mov	r6, r9
 215              	.LVL25:
 216 00c4 5746     		mov	r7, r10
 217              	.LVL26:
 218 00c6 9146     		mov	r9, r2
 219              	.LVL27:
 220 00c8 9A46     		mov	r10, r3
 221 00ca 0494     		str	r4, [sp, #16]
 222              	.LVL28:
 223              	.L25:
 224              		.loc 1 67 0
 225 00cc 291C     		mov	r1, r5
 226 00ce 301C     		mov	r0, r6
 227 00d0 FFF7FEFF 		bl	__aeabi_uidiv
 228              	.LVL29:
ARM GAS  /tmp/cce3BzsE.s 			page 5


 229              		.loc 1 68 0
 230 00d4 291C     		mov	r1, r5
 231              		.loc 1 67 0
 232 00d6 041C     		mov	r4, r0
 233              	.LVL30:
 234              		.loc 1 68 0
 235 00d8 301C     		mov	r0, r6
 236              	.LVL31:
 237 00da FFF7FEFF 		bl	__aeabi_uidivmod
 238              	.LVL32:
 239              		.loc 1 69 0
 240 00de 281C     		mov	r0, r5
 241              		.loc 1 68 0
 242 00e0 0E1C     		mov	r6, r1
 243              	.LVL33:
 244              		.loc 1 69 0
 245 00e2 0A21     		mov	r1, #10
 246              	.LVL34:
 247 00e4 FFF7FEFF 		bl	__aeabi_uidiv
 248              	.LVL35:
 249 00e8 051C     		mov	r5, r0
 250              	.LVL36:
 251              		.loc 1 70 0
 252 00ea 002F     		cmp	r7, #0
 253 00ec 01D1     		bne	.L26
 254              	.LVL37:
 255 00ee 002C     		cmp	r4, #0
 256 00f0 0CDD     		ble	.L178
 257              	.LVL38:
 258              	.L26:
 259              		.loc 1 71 0
 260 00f2 4346     		mov	r3, r8
 261 00f4 5A1C     		add	r2, r3, #1
 262              	.LVL39:
 263 00f6 5723     		mov	r3, #87
 264 00f8 092C     		cmp	r4, #9
 265 00fa 0BDD     		ble	.L88
 266 00fc 1C19     		add	r4, r3, r4
 267              	.LVL40:
 268 00fe 4346     		mov	r3, r8
 269              		.loc 1 72 0
 270 0100 0137     		add	r7, r7, #1
 271              	.LVL41:
 272              		.loc 1 71 0
 273 0102 1C70     		strb	r4, [r3]
 274              	.LBE37:
 275              		.loc 1 66 0
 276 0104 002D     		cmp	r5, #0
 277 0106 0CD0     		beq	.L179
 278              	.LVL42:
 279              	.L28:
 280              	.LBB38:
 281              		.loc 1 70 0
 282 0108 9046     		mov	r8, r2
 283 010a DFE7     		b	.L25
 284              	.LVL43:
 285              	.L178:
ARM GAS  /tmp/cce3BzsE.s 			page 6


 286 010c 4246     		mov	r2, r8
 287 010e 0028     		cmp	r0, #0
 288 0110 FAD1     		bne	.L28
 289              	.LVL44:
 290              		.loc 1 71 0
 291 0112 0132     		add	r2, r2, #1
 292              	.LVL45:
 293              	.L88:
 294 0114 3023     		mov	r3, #48
 295 0116 1C19     		add	r4, r3, r4
 296              	.LVL46:
 297 0118 4346     		mov	r3, r8
 298              		.loc 1 72 0
 299 011a 0137     		add	r7, r7, #1
 300              	.LVL47:
 301              		.loc 1 71 0
 302 011c 1C70     		strb	r4, [r3]
 303              	.LBE38:
 304              		.loc 1 66 0
 305 011e 002D     		cmp	r5, #0
 306 0120 F2D1     		bne	.L28
 307              	.L179:
 308 0122 4E46     		mov	r6, r9
 309              	.LVL48:
 310 0124 5746     		mov	r7, r10
 311              	.LVL49:
 312 0126 049C     		ldr	r4, [sp, #16]
 313              	.LVL50:
 314              	.L24:
 315              		.loc 1 75 0
 316 0128 0023     		mov	r3, #0
 317 012a 1370     		strb	r3, [r2]
 318              	.LVL51:
 319              	.LBE39:
 320              	.LBE41:
 321              	.LBB42:
 322              	.LBB43:
 323              		.loc 1 115 0
 324 012c 3023     		mov	r3, #48
 325 012e 9846     		mov	r8, r3
 326 0130 019B     		ldr	r3, [sp, #4]
 327 0132 002B     		cmp	r3, #0
 328 0134 01D1     		bne	.L30
 329 0136 2023     		mov	r3, #32
 330 0138 9846     		mov	r8, r3
 331              	.L30:
 332              	.LVL52:
 333              		.loc 1 118 0
 334 013a 029B     		ldr	r3, [sp, #8]
 335 013c 1D78     		ldrb	r5, [r3]
 336              	.LVL53:
 337 013e 002D     		cmp	r5, #0
 338 0140 06D1     		bne	.L159
 339 0142 03E2     		b	.L180
 340              	.LVL54:
 341              	.L119:
 342 0144 5A78     		ldrb	r2, [r3, #1]
ARM GAS  /tmp/cce3BzsE.s 			page 7


 343              		.loc 1 119 0
 344 0146 013C     		sub	r4, r4, #1
 345              	.LVL55:
 346              		.loc 1 118 0
 347 0148 002A     		cmp	r2, #0
 348 014a 00D1     		bne	.LCB395
 349 014c CCE1     		b	.L34	@long jump
 350              	.LCB395:
 351 014e 0133     		add	r3, r3, #1
 352              	.LVL56:
 353              	.L159:
 354 0150 002C     		cmp	r4, #0
 355 0152 F7D1     		bne	.L119
 356              	.LVL57:
 357              	.L33:
 358 0154 291C     		mov	r1, r5
 359 0156 06AB     		add	r3, sp, #24
 360 0158 5C1D     		add	r4, r3, #5
 361              	.LVL58:
 362              	.L38:
 363              		.loc 1 123 0
 364 015a 301C     		mov	r0, r6
 365 015c 0134     		add	r4, r4, #1
 366              	.LVL59:
 367 015e B847     		blx	r7
 368              	.LVL60:
 369 0160 631E     		sub	r3, r4, #1
 370              		.loc 1 122 0
 371 0162 1978     		ldrb	r1, [r3]
 372              	.LVL61:
 373 0164 0029     		cmp	r1, #0
 374 0166 F8D1     		bne	.L38
 375              	.LBE43:
 376              	.LBE42:
 377              		.loc 1 185 0
 378 0168 039D     		ldr	r5, [sp, #12]
 379 016a 54E7     		b	.L2
 380              	.LVL62:
 381              	.L175:
 382              		.loc 1 156 0
 383 016c 252B     		cmp	r3, #37
 384 016e 00D1     		bne	.LCB455
 385 0170 FBE0     		b	.L15	@long jump
 386              	.LCB455:
 387 0172 582B     		cmp	r3, #88
 388 0174 00D1     		bne	.LCB457
 389 0176 B5E0     		b	.L16	@long jump
 390              	.LCB457:
 391 0178 002B     		cmp	r3, #0
 392 017a 00D1     		bne	.LCB459
 393 017c 5AE7     		b	.L1	@long jump
 394              	.LCB459:
 395 017e 4AE7     		b	.L2
 396              	.LVL63:
 397              	.L174:
 398 0180 5946     		mov	r1, fp
 399 0182 4A46     		mov	r2, r9
ARM GAS  /tmp/cce3BzsE.s 			page 8


 400 0184 AC46     		mov	ip, r5
 401              	.L8:
 402              	.LBB46:
 403              	.LBB47:
 404              	.LBB48:
 405              	.LBB49:
 406              		.loc 1 89 0
 407 0186 D8B2     		uxtb	r0, r3
 408 0188 0D1C     		mov	r5, r1
 409              	.LVL64:
 410 018a 0928     		cmp	r0, #9
 411 018c 17D9     		bls	.L10
 412              		.loc 1 91 0
 413 018e 131C     		mov	r3, r2
 414 0190 613B     		sub	r3, r3, #97
 415 0192 052B     		cmp	r3, #5
 416 0194 10D9     		bls	.L164
 417              		.loc 1 93 0
 418 0196 131C     		mov	r3, r2
 419 0198 413B     		sub	r3, r3, #65
 420 019a 052B     		cmp	r3, #5
 421 019c 0CD9     		bls	.L164
 422              	.L17:
 423              	.L144:
 424 019e 9146     		mov	r9, r2
 425              	.LVL65:
 426              	.LBE49:
 427              	.LBE48:
 428              	.LBE47:
 429              	.LBE46:
 430              		.loc 1 156 0
 431 01a0 4B46     		mov	r3, r9
 432 01a2 AB46     		mov	fp, r5
 433              	.LVL66:
 434 01a4 6546     		mov	r5, ip
 435              	.LVL67:
 436 01a6 632B     		cmp	r3, #99
 437 01a8 00D0     		beq	.LCB510
 438 01aa 60E7     		b	.L181	@long jump
 439              	.LCB510:
 440              	.LVL68:
 441              	.L13:
 442              		.loc 1 189 0
 443 01ac 2978     		ldrb	r1, [r5]
 444 01ae 2C1D     		add	r4, r5, #4
 445              	.LVL69:
 446 01b0 301C     		mov	r0, r6
 447 01b2 B847     		blx	r7
 448              	.LVL70:
 449 01b4 251C     		mov	r5, r4
 450              		.loc 1 190 0
 451 01b6 2EE7     		b	.L2
 452              	.LVL71:
 453              	.L164:
 454              	.LBB53:
 455              	.LBB52:
 456              	.LBB51:
ARM GAS  /tmp/cce3BzsE.s 			page 9


 457              	.LBB50:
 458              		.loc 1 94 0
 459 01b8 0A33     		add	r3, r3, #10
 460              	.LBE50:
 461              	.LBE51:
 462              		.loc 1 104 0
 463 01ba 0A2B     		cmp	r3, #10
 464 01bc EFDC     		bgt	.L144
 465              	.L10:
 466              		.loc 1 105 0
 467 01be A200     		lsl	r2, r4, #2
 468              	.LVL72:
 469 01c0 1419     		add	r4, r2, r4
 470              	.LVL73:
 471              		.loc 1 106 0
 472 01c2 0A78     		ldrb	r2, [r1]
 473              		.loc 1 105 0
 474 01c4 6400     		lsl	r4, r4, #1
 475 01c6 1C19     		add	r4, r3, r4
 476              	.LVL74:
 477 01c8 131C     		mov	r3, r2
 478 01ca 0131     		add	r1, r1, #1
 479              	.LVL75:
 480 01cc 303B     		sub	r3, r3, #48
 481 01ce DAE7     		b	.L8
 482              	.LVL76:
 483              	.L5:
 484              	.LBE52:
 485              	.LBE53:
 486              		.loc 1 144 0
 487 01d0 5B46     		mov	r3, fp
 488              	.LVL77:
 489 01d2 9B78     		ldrb	r3, [r3, #2]
 490 01d4 9946     		mov	r9, r3
 491              	.LVL78:
 492 01d6 0323     		mov	r3, #3
 493 01d8 9C46     		mov	ip, r3
 494              		.loc 1 145 0
 495 01da 0123     		mov	r3, #1
 496              		.loc 1 144 0
 497 01dc E344     		add	fp, fp, ip
 498              	.LVL79:
 499              		.loc 1 145 0
 500 01de 0193     		str	r3, [sp, #4]
 501 01e0 3AE7     		b	.L6
 502              	.LVL80:
 503              	.L176:
 504              		.loc 1 156 0
 505 01e2 642B     		cmp	r3, #100
 506 01e4 00D0     		beq	.LCB601
 507 01e6 16E7     		b	.L2	@long jump
 508              	.LCB601:
 509              		.loc 1 175 0
 510 01e8 2B1D     		add	r3, r5, #4
 511 01ea 0393     		str	r3, [sp, #12]
 512 01ec 2B68     		ldr	r3, [r5]
 513 01ee 9846     		mov	r8, r3
ARM GAS  /tmp/cce3BzsE.s 			page 10


 514              	.LVL81:
 515              	.LBB54:
 516              	.LBB55:
 517              		.loc 1 80 0
 518 01f0 002B     		cmp	r3, #0
 519 01f2 00DA     		bge	.LCB611
 520 01f4 0AE1     		b	.L182	@long jump
 521              	.LCB611:
 522 01f6 07AB     		add	r3, sp, #28
 523              	.LVL82:
 524 01f8 0293     		str	r3, [sp, #8]
 525 01fa 0493     		str	r3, [sp, #16]
 526              	.LVL83:
 527              	.L39:
 528              	.LBB56:
 529              	.LBB57:
 530              		.loc 1 64 0
 531 01fc 4346     		mov	r3, r8
 532              	.LBE57:
 533              	.LBE56:
 534              		.loc 1 84 0
 535 01fe C146     		mov	r9, r8
 536              	.LVL84:
 537              	.LBB65:
 538              	.LBB61:
 539              		.loc 1 64 0
 540 0200 0125     		mov	r5, #1
 541 0202 092B     		cmp	r3, #9
 542 0204 0FDD     		ble	.L40
 543 0206 231C     		mov	r3, r4
 544 0208 4446     		mov	r4, r8
 545              	.LVL85:
 546 020a 9846     		mov	r8, r3
 547              	.LVL86:
 548              	.L41:
 549              		.loc 1 65 0
 550 020c AB00     		lsl	r3, r5, #2
 551 020e 5D19     		add	r5, r3, r5
 552              	.LVL87:
 553 0210 6D00     		lsl	r5, r5, #1
 554              	.LVL88:
 555              		.loc 1 64 0
 556 0212 201C     		mov	r0, r4
 557 0214 291C     		mov	r1, r5
 558 0216 FFF7FEFF 		bl	__aeabi_uidiv
 559              	.LVL89:
 560 021a 0928     		cmp	r0, #9
 561 021c F6D8     		bhi	.L41
 562 021e 4446     		mov	r4, r8
 563              	.LVL90:
 564              		.loc 1 66 0
 565 0220 002D     		cmp	r5, #0
 566 0222 00D1     		bne	.LCB668
 567 0224 84E1     		b	.L169	@long jump
 568              	.LCB668:
 569              	.LVL91:
 570              	.L40:
ARM GAS  /tmp/cce3BzsE.s 			page 11


 571              	.LBB58:
 572              		.loc 1 70 0
 573 0226 0023     		mov	r3, #0
 574 0228 9A46     		mov	r10, r3
 575 022a 049B     		ldr	r3, [sp, #16]
 576 022c 321C     		mov	r2, r6
 577 022e 9846     		mov	r8, r3
 578 0230 3B1C     		mov	r3, r7
 579 0232 4E46     		mov	r6, r9
 580              	.LVL92:
 581 0234 5746     		mov	r7, r10
 582              	.LVL93:
 583 0236 9146     		mov	r9, r2
 584 0238 9A46     		mov	r10, r3
 585 023a 0594     		str	r4, [sp, #20]
 586              	.LVL94:
 587              	.L43:
 588              		.loc 1 67 0
 589 023c 291C     		mov	r1, r5
 590 023e 301C     		mov	r0, r6
 591 0240 FFF7FEFF 		bl	__aeabi_uidiv
 592              	.LVL95:
 593              		.loc 1 68 0
 594 0244 291C     		mov	r1, r5
 595              		.loc 1 67 0
 596 0246 041C     		mov	r4, r0
 597              	.LVL96:
 598              		.loc 1 68 0
 599 0248 301C     		mov	r0, r6
 600              	.LVL97:
 601 024a FFF7FEFF 		bl	__aeabi_uidivmod
 602              	.LVL98:
 603              		.loc 1 69 0
 604 024e 281C     		mov	r0, r5
 605              		.loc 1 68 0
 606 0250 0E1C     		mov	r6, r1
 607              	.LVL99:
 608              		.loc 1 69 0
 609 0252 0A21     		mov	r1, #10
 610              	.LVL100:
 611 0254 FFF7FEFF 		bl	__aeabi_uidiv
 612              	.LVL101:
 613 0258 051C     		mov	r5, r0
 614              	.LVL102:
 615              		.loc 1 70 0
 616 025a 002F     		cmp	r7, #0
 617 025c 02D1     		bne	.L44
 618              	.LVL103:
 619 025e 002C     		cmp	r4, #0
 620 0260 00DC     		bgt	.LCB741
 621 0262 DEE0     		b	.L183	@long jump
 622              	.LCB741:
 623              	.LVL104:
 624              	.L44:
 625              		.loc 1 71 0
 626 0264 4346     		mov	r3, r8
 627 0266 5A1C     		add	r2, r3, #1
ARM GAS  /tmp/cce3BzsE.s 			page 12


 628              	.LVL105:
 629 0268 5723     		mov	r3, #87
 630 026a 092C     		cmp	r4, #9
 631 026c 00DC     		bgt	.LCB749
 632 026e DDE0     		b	.L89	@long jump
 633              	.LCB749:
 634              	.L47:
 635 0270 1C19     		add	r4, r3, r4
 636              	.LVL106:
 637 0272 4346     		mov	r3, r8
 638              		.loc 1 72 0
 639 0274 0137     		add	r7, r7, #1
 640              	.LVL107:
 641              		.loc 1 71 0
 642 0276 1C70     		strb	r4, [r3]
 643              	.LBE58:
 644              		.loc 1 66 0
 645 0278 002D     		cmp	r5, #0
 646 027a 7AD0     		beq	.L184
 647              	.LVL108:
 648              	.L46:
 649              	.LBB59:
 650              		.loc 1 70 0
 651 027c 9046     		mov	r8, r2
 652 027e DDE7     		b	.L43
 653              	.LVL109:
 654              	.L18:
 655              	.LBE59:
 656              	.LBE61:
 657              	.LBE65:
 658              	.LBE55:
 659              	.LBE54:
 660              		.loc 1 192 0
 661 0280 2B1D     		add	r3, r5, #4
 662 0282 9946     		mov	r9, r3
 663              	.LVL110:
 664 0284 2B68     		ldr	r3, [r5]
 665 0286 9A46     		mov	r10, r3
 666              	.LVL111:
 667              	.LBB72:
 668              	.LBB73:
 669              		.loc 1 118 0
 670 0288 0123     		mov	r3, #1
 671              	.LVL112:
 672 028a 5344     		add	r3, r3, r10
 673 028c 9846     		mov	r8, r3
 674              	.LVL113:
 675 028e 5346     		mov	r3, r10
 676              	.LVL114:
 677 0290 1978     		ldrb	r1, [r3]
 678 0292 0029     		cmp	r1, #0
 679 0294 00D1     		bne	.LCB818
 680 0296 53E1     		b	.L81	@long jump
 681              	.LCB818:
 682 0298 002C     		cmp	r4, #0
 683 029a 16D0     		beq	.L82
 684 029c 4346     		mov	r3, r8
ARM GAS  /tmp/cce3BzsE.s 			page 13


 685 029e 02E0     		b	.L84
 686              	.LVL115:
 687              	.L185:
 688 02a0 0133     		add	r3, r3, #1
 689              	.LVL116:
 690 02a2 002C     		cmp	r4, #0
 691 02a4 11D0     		beq	.L82
 692              	.LVL117:
 693              	.L84:
 694 02a6 1A78     		ldrb	r2, [r3]
 695              		.loc 1 119 0
 696 02a8 013C     		sub	r4, r4, #1
 697              	.LVL118:
 698              		.loc 1 118 0
 699 02aa 002A     		cmp	r2, #0
 700 02ac F8D1     		bne	.L185
 701              		.loc 1 120 0
 702 02ae 651E     		sub	r5, r4, #1
 703              	.LVL119:
 704 02b0 002C     		cmp	r4, #0
 705 02b2 0AD0     		beq	.L82
 706              	.LVL120:
 707              	.L85:
 708              		.loc 1 121 0
 709 02b4 301C     		mov	r0, r6
 710 02b6 2021     		mov	r1, #32
 711              		.loc 1 120 0
 712 02b8 013D     		sub	r5, r5, #1
 713              	.LVL121:
 714              		.loc 1 121 0
 715 02ba B847     		blx	r7
 716              	.LVL122:
 717 02bc 6B1C     		add	r3, r5, #1
 718              		.loc 1 120 0
 719 02be 002B     		cmp	r3, #0
 720 02c0 F8DC     		bgt	.L85
 721 02c2 5346     		mov	r3, r10
 722 02c4 1978     		ldrb	r1, [r3]
 723              	.LVL123:
 724              		.loc 1 122 0
 725 02c6 0029     		cmp	r1, #0
 726 02c8 07D0     		beq	.L110
 727              	.LVL124:
 728              	.L82:
 729 02ca 4546     		mov	r5, r8
 730              	.LVL125:
 731              	.L86:
 732              		.loc 1 123 0
 733 02cc 301C     		mov	r0, r6
 734 02ce 0135     		add	r5, r5, #1
 735              	.LVL126:
 736 02d0 B847     		blx	r7
 737              	.LVL127:
 738 02d2 6B1E     		sub	r3, r5, #1
 739              		.loc 1 122 0
 740 02d4 1978     		ldrb	r1, [r3]
 741              	.LVL128:
ARM GAS  /tmp/cce3BzsE.s 			page 14


 742 02d6 0029     		cmp	r1, #0
 743 02d8 F8D1     		bne	.L86
 744              	.L110:
 745              	.LBE73:
 746              	.LBE72:
 747              		.loc 1 192 0
 748 02da 4D46     		mov	r5, r9
 749 02dc 9BE6     		b	.L2
 750              	.LVL129:
 751              	.L177:
 752              		.loc 1 156 0
 753 02de 782B     		cmp	r3, #120
 754 02e0 00D0     		beq	.LCB930
 755 02e2 98E6     		b	.L2	@long jump
 756              	.LCB930:
 757              	.L16:
 758              		.loc 1 185 0
 759 02e4 2B1D     		add	r3, r5, #4
 760 02e6 0393     		str	r3, [sp, #12]
 761 02e8 2B68     		ldr	r3, [r5]
 762              	.LBB75:
 763              	.LBB76:
 764              		.loc 1 64 0
 765 02ea 0125     		mov	r5, #1
 766              	.LBE76:
 767              	.LBE75:
 768              		.loc 1 185 0
 769 02ec 9846     		mov	r8, r3
 770              	.LVL130:
 771              	.LBB89:
 772              	.LBB83:
 773              		.loc 1 64 0
 774 02ee 0F2B     		cmp	r3, #15
 775 02f0 0FD9     		bls	.L57
 776 02f2 231C     		mov	r3, r4
 777              	.LVL131:
 778 02f4 4446     		mov	r4, r8
 779              	.LVL132:
 780 02f6 9846     		mov	r8, r3
 781              	.LVL133:
 782              	.L58:
 783              		.loc 1 65 0
 784 02f8 2D01     		lsl	r5, r5, #4
 785              	.LVL134:
 786              		.loc 1 64 0
 787 02fa 201C     		mov	r0, r4
 788 02fc 291C     		mov	r1, r5
 789 02fe FFF7FEFF 		bl	__aeabi_uidiv
 790              	.LVL135:
 791 0302 0F28     		cmp	r0, #15
 792 0304 F8D8     		bhi	.L58
 793 0306 4346     		mov	r3, r8
 794 0308 A046     		mov	r8, r4
 795              	.LVL136:
 796 030a 1C1C     		mov	r4, r3
 797              	.LVL137:
 798              		.loc 1 66 0
ARM GAS  /tmp/cce3BzsE.s 			page 15


 799 030c 002D     		cmp	r5, #0
 800 030e 00D1     		bne	.LCB989
 801 0310 07E1     		b	.L172	@long jump
 802              	.LCB989:
 803              	.LVL138:
 804              	.L57:
 805 0312 4B46     		mov	r3, r9
 806 0314 582B     		cmp	r3, #88
 807 0316 51D0     		beq	.L186
 808              		.loc 1 63 0
 809 0318 07AB     		add	r3, sp, #28
 810              	.LVL139:
 811 031a 321C     		mov	r2, r6
 812 031c 0293     		str	r3, [sp, #8]
 813 031e 9A46     		mov	r10, r3
 814 0320 0023     		mov	r3, #0
 815              	.LVL140:
 816 0322 4646     		mov	r6, r8
 817              	.LVL141:
 818 0324 B946     		mov	r9, r7
 819              	.LVL142:
 820 0326 9046     		mov	r8, r2
 821              	.LVL143:
 822 0328 1F1C     		mov	r7, r3
 823              	.LVL144:
 824 032a 0494     		str	r4, [sp, #16]
 825              	.LVL145:
 826              	.L67:
 827              	.LBB77:
 828              		.loc 1 67 0
 829 032c 291C     		mov	r1, r5
 830 032e 301C     		mov	r0, r6
 831 0330 FFF7FEFF 		bl	__aeabi_uidiv
 832              	.LVL146:
 833              		.loc 1 68 0
 834 0334 291C     		mov	r1, r5
 835              		.loc 1 67 0
 836 0336 041C     		mov	r4, r0
 837              	.LVL147:
 838              		.loc 1 68 0
 839 0338 301C     		mov	r0, r6
 840              	.LVL148:
 841 033a FFF7FEFF 		bl	__aeabi_uidivmod
 842              	.LVL149:
 843              		.loc 1 69 0
 844 033e 2D09     		lsr	r5, r5, #4
 845              		.loc 1 68 0
 846 0340 0E1C     		mov	r6, r1
 847              		.loc 1 70 0
 848 0342 002F     		cmp	r7, #0
 849 0344 02D1     		bne	.L66
 850              	.LVL150:
 851 0346 002C     		cmp	r4, #0
 852 0348 00DC     		bgt	.LCB1059
 853 034a 9EE0     		b	.L187	@long jump
 854              	.LCB1059:
 855              	.LVL151:
ARM GAS  /tmp/cce3BzsE.s 			page 16


 856              	.L66:
 857              		.loc 1 71 0
 858 034c 5346     		mov	r3, r10
 859 034e 3022     		mov	r2, #48
 860 0350 0133     		add	r3, r3, #1
 861              	.LVL152:
 862 0352 092C     		cmp	r4, #9
 863 0354 00DD     		ble	.L63
 864 0356 5722     		mov	r2, #87
 865              	.L63:
 866 0358 1419     		add	r4, r2, r4
 867              	.LVL153:
 868 035a 5246     		mov	r2, r10
 869              		.loc 1 72 0
 870 035c 0137     		add	r7, r7, #1
 871              	.LVL154:
 872              		.loc 1 71 0
 873 035e 1470     		strb	r4, [r2]
 874              	.LBE77:
 875              		.loc 1 66 0
 876 0360 002D     		cmp	r5, #0
 877 0362 00D1     		bne	.LCB1082
 878 0364 E0E0     		b	.L161	@long jump
 879              	.LCB1082:
 880              		.loc 1 63 0
 881 0366 9A46     		mov	r10, r3
 882 0368 E0E7     		b	.L67
 883              	.LVL155:
 884              	.L15:
 885              	.LBE83:
 886              	.LBE89:
 887              		.loc 1 195 0
 888 036a 301C     		mov	r0, r6
 889 036c 2521     		mov	r1, #37
 890 036e B847     		blx	r7
 891              	.LVL156:
 892 0370 51E6     		b	.L2
 893              	.LVL157:
 894              	.L184:
 895 0372 4E46     		mov	r6, r9
 896              	.LVL158:
 897 0374 5746     		mov	r7, r10
 898              	.LVL159:
 899 0376 059C     		ldr	r4, [sp, #20]
 900              	.LVL160:
 901              	.L42:
 902              	.LBB90:
 903              	.LBB69:
 904              	.LBB66:
 905              	.LBB62:
 906              		.loc 1 75 0
 907 0378 0023     		mov	r3, #0
 908 037a 1370     		strb	r3, [r2]
 909              	.LVL161:
 910              	.LBE62:
 911              	.LBE66:
 912              	.LBE69:
ARM GAS  /tmp/cce3BzsE.s 			page 17


 913              	.LBE90:
 914              	.LBB91:
 915              	.LBB92:
 916              		.loc 1 115 0
 917 037c 3023     		mov	r3, #48
 918 037e 9846     		mov	r8, r3
 919 0380 019B     		ldr	r3, [sp, #4]
 920 0382 002B     		cmp	r3, #0
 921 0384 01D1     		bne	.L48
 922 0386 2023     		mov	r3, #32
 923 0388 9846     		mov	r8, r3
 924              	.L48:
 925              	.LVL162:
 926              		.loc 1 118 0
 927 038a 029B     		ldr	r3, [sp, #8]
 928 038c 1D78     		ldrb	r5, [r3]
 929              	.LVL163:
 930 038e 002D     		cmp	r5, #0
 931 0390 06D1     		bne	.L160
 932 0392 E1E0     		b	.L188
 933              	.LVL164:
 934              	.L121:
 935 0394 5A78     		ldrb	r2, [r3, #1]
 936              		.loc 1 119 0
 937 0396 013C     		sub	r4, r4, #1
 938              	.LVL165:
 939              		.loc 1 118 0
 940 0398 002A     		cmp	r2, #0
 941 039a 00D1     		bne	.LCB1191
 942 039c 8EE0     		b	.L52	@long jump
 943              	.LCB1191:
 944 039e 0133     		add	r3, r3, #1
 945              	.LVL166:
 946              	.L160:
 947 03a0 002C     		cmp	r4, #0
 948 03a2 F7D1     		bne	.L121
 949              	.LVL167:
 950              	.L51:
 951 03a4 291C     		mov	r1, r5
 952 03a6 06AB     		add	r3, sp, #24
 953 03a8 5C1D     		add	r4, r3, #5
 954              	.LVL168:
 955              	.L56:
 956              		.loc 1 123 0
 957 03aa 301C     		mov	r0, r6
 958 03ac 0134     		add	r4, r4, #1
 959              	.LVL169:
 960 03ae B847     		blx	r7
 961              	.LVL170:
 962 03b0 631E     		sub	r3, r4, #1
 963              		.loc 1 122 0
 964 03b2 1978     		ldrb	r1, [r3]
 965              	.LVL171:
 966 03b4 0029     		cmp	r1, #0
 967 03b6 F8D1     		bne	.L56
 968              	.LBE92:
 969              	.LBE91:
ARM GAS  /tmp/cce3BzsE.s 			page 18


 970              		.loc 1 185 0
 971 03b8 039D     		ldr	r5, [sp, #12]
 972 03ba 2CE6     		b	.L2
 973              	.LVL172:
 974              	.L186:
 975              	.LBB95:
 976              	.LBB84:
 977              	.LBB78:
 978              		.loc 1 70 0
 979 03bc 07AB     		add	r3, sp, #28
 980              	.LVL173:
 981 03be 321C     		mov	r2, r6
 982 03c0 0293     		str	r3, [sp, #8]
 983 03c2 9A46     		mov	r10, r3
 984 03c4 0023     		mov	r3, #0
 985              	.LVL174:
 986 03c6 4646     		mov	r6, r8
 987              	.LVL175:
 988 03c8 B946     		mov	r9, r7
 989              	.LVL176:
 990 03ca 9046     		mov	r8, r2
 991              	.LVL177:
 992 03cc 1F1C     		mov	r7, r3
 993              	.LVL178:
 994 03ce 0494     		str	r4, [sp, #16]
 995              	.LVL179:
 996              	.L61:
 997              		.loc 1 67 0
 998 03d0 291C     		mov	r1, r5
 999 03d2 301C     		mov	r0, r6
 1000 03d4 FFF7FEFF 		bl	__aeabi_uidiv
 1001              	.LVL180:
 1002              		.loc 1 68 0
 1003 03d8 291C     		mov	r1, r5
 1004              		.loc 1 67 0
 1005 03da 041C     		mov	r4, r0
 1006              	.LVL181:
 1007              		.loc 1 68 0
 1008 03dc 301C     		mov	r0, r6
 1009              	.LVL182:
 1010 03de FFF7FEFF 		bl	__aeabi_uidivmod
 1011              	.LVL183:
 1012              		.loc 1 69 0
 1013 03e2 2D09     		lsr	r5, r5, #4
 1014              		.loc 1 68 0
 1015 03e4 0E1C     		mov	r6, r1
 1016              		.loc 1 70 0
 1017 03e6 002F     		cmp	r7, #0
 1018 03e8 01D1     		bne	.L68
 1019              	.LVL184:
 1020 03ea 002C     		cmp	r4, #0
 1021 03ec 20DD     		ble	.L189
 1022              	.LVL185:
 1023              	.L68:
 1024              		.loc 1 71 0
 1025 03ee 5346     		mov	r3, r10
 1026 03f0 3022     		mov	r2, #48
ARM GAS  /tmp/cce3BzsE.s 			page 19


 1027 03f2 0133     		add	r3, r3, #1
 1028              	.LVL186:
 1029 03f4 092C     		cmp	r4, #9
 1030 03f6 00DD     		ble	.L71
 1031 03f8 3722     		mov	r2, #55
 1032              	.L71:
 1033 03fa 1419     		add	r4, r2, r4
 1034              	.LVL187:
 1035 03fc 5246     		mov	r2, r10
 1036              		.loc 1 72 0
 1037 03fe 0137     		add	r7, r7, #1
 1038              	.LVL188:
 1039              		.loc 1 71 0
 1040 0400 1470     		strb	r4, [r2]
 1041              	.LBE78:
 1042              		.loc 1 66 0
 1043 0402 002D     		cmp	r5, #0
 1044 0404 00D1     		bne	.LCB1339
 1045 0406 8FE0     		b	.L161	@long jump
 1046              	.LCB1339:
 1047              	.LBB79:
 1048              		.loc 1 70 0
 1049 0408 9A46     		mov	r10, r3
 1050 040a E1E7     		b	.L61
 1051              	.LVL189:
 1052              	.L182:
 1053              	.LBE79:
 1054              	.LBE84:
 1055              	.LBE95:
 1056              	.LBB96:
 1057              	.LBB70:
 1058              		.loc 1 81 0
 1059 040c 5B42     		neg	r3, r3
 1060 040e 9846     		mov	r8, r3
 1061              	.LVL190:
 1062              		.loc 1 82 0
 1063 0410 07AB     		add	r3, sp, #28
 1064 0412 1A1C     		mov	r2, r3
 1065 0414 0293     		str	r3, [sp, #8]
 1066 0416 2D23     		mov	r3, #45
 1067 0418 1370     		strb	r3, [r2]
 1068 041a 06AB     		add	r3, sp, #24
 1069 041c 0533     		add	r3, r3, #5
 1070 041e 0493     		str	r3, [sp, #16]
 1071 0420 ECE6     		b	.L39
 1072              	.LVL191:
 1073              	.L183:
 1074              	.LBB67:
 1075              	.LBB63:
 1076              	.LBB60:
 1077              		.loc 1 70 0
 1078 0422 4246     		mov	r2, r8
 1079 0424 0028     		cmp	r0, #0
 1080 0426 00D0     		beq	.LCB1402
 1081 0428 28E7     		b	.L46	@long jump
 1082              	.LCB1402:
 1083              	.LVL192:
ARM GAS  /tmp/cce3BzsE.s 			page 20


 1084              		.loc 1 71 0
 1085 042a 0132     		add	r2, r2, #1
 1086              	.LVL193:
 1087              	.L89:
 1088 042c 3023     		mov	r3, #48
 1089 042e 1FE7     		b	.L47
 1090              	.LVL194:
 1091              	.L189:
 1092              	.LBE60:
 1093              	.LBE63:
 1094              	.LBE67:
 1095              	.LBE70:
 1096              	.LBE96:
 1097              	.LBB97:
 1098              	.LBB85:
 1099              	.LBB80:
 1100              		.loc 1 70 0
 1101 0430 002D     		cmp	r5, #0
 1102 0432 6FD1     		bne	.L190
 1103              	.L69:
 1104 0434 4F46     		mov	r7, r9
 1105 0436 A146     		mov	r9, r4
 1106              	.LVL195:
 1107              		.loc 1 71 0
 1108 0438 4A46     		mov	r2, r9
 1109 043a 5346     		mov	r3, r10
 1110 043c 5146     		mov	r1, r10
 1111 043e 4646     		mov	r6, r8
 1112 0440 3032     		add	r2, r2, #48
 1113 0442 049C     		ldr	r4, [sp, #16]
 1114              	.LVL196:
 1115 0444 0133     		add	r3, r3, #1
 1116              	.LVL197:
 1117 0446 0A70     		strb	r2, [r1]
 1118              	.LVL198:
 1119              	.L59:
 1120              	.LBE80:
 1121              		.loc 1 75 0
 1122 0448 0022     		mov	r2, #0
 1123 044a 1A70     		strb	r2, [r3]
 1124              	.LVL199:
 1125              	.LBE85:
 1126              	.LBE97:
 1127              	.LBB98:
 1128              	.LBB99:
 1129              		.loc 1 115 0
 1130 044c 3023     		mov	r3, #48
 1131              	.LVL200:
 1132 044e 9846     		mov	r8, r3
 1133 0450 019B     		ldr	r3, [sp, #4]
 1134 0452 002B     		cmp	r3, #0
 1135 0454 01D1     		bne	.L72
 1136 0456 2023     		mov	r3, #32
 1137 0458 9846     		mov	r8, r3
 1138              	.L72:
 1139              	.LVL201:
 1140              		.loc 1 118 0
ARM GAS  /tmp/cce3BzsE.s 			page 21


 1141 045a 029B     		ldr	r3, [sp, #8]
 1142 045c 1D78     		ldrb	r5, [r3]
 1143 045e 002D     		cmp	r5, #0
 1144 0460 05D1     		bne	.L162
 1145 0462 67E0     		b	.L191
 1146              	.LVL202:
 1147              	.L120:
 1148 0464 5A78     		ldrb	r2, [r3, #1]
 1149              		.loc 1 119 0
 1150 0466 013C     		sub	r4, r4, #1
 1151              	.LVL203:
 1152              		.loc 1 118 0
 1153 0468 002A     		cmp	r2, #0
 1154 046a 13D0     		beq	.L76
 1155 046c 0133     		add	r3, r3, #1
 1156              	.LVL204:
 1157              	.L162:
 1158 046e 002C     		cmp	r4, #0
 1159 0470 F8D1     		bne	.L120
 1160              	.LVL205:
 1161              	.L75:
 1162 0472 291C     		mov	r1, r5
 1163 0474 06AB     		add	r3, sp, #24
 1164 0476 5C1D     		add	r4, r3, #5
 1165              	.LVL206:
 1166              	.L80:
 1167              		.loc 1 123 0
 1168 0478 301C     		mov	r0, r6
 1169 047a 0134     		add	r4, r4, #1
 1170              	.LVL207:
 1171 047c B847     		blx	r7
 1172              	.LVL208:
 1173 047e 631E     		sub	r3, r4, #1
 1174              		.loc 1 122 0
 1175 0480 1978     		ldrb	r1, [r3]
 1176              	.LVL209:
 1177 0482 0029     		cmp	r1, #0
 1178 0484 F8D1     		bne	.L80
 1179              	.LBE99:
 1180              	.LBE98:
 1181              		.loc 1 185 0
 1182 0486 039D     		ldr	r5, [sp, #12]
 1183 0488 C5E5     		b	.L2
 1184              	.LVL210:
 1185              	.L187:
 1186              	.LBB102:
 1187              	.LBB86:
 1188              	.LBB81:
 1189              		.loc 1 70 0
 1190 048a 002D     		cmp	r5, #0
 1191 048c D2D0     		beq	.L69
 1192 048e 5346     		mov	r3, r10
 1193              	.LBE81:
 1194              		.loc 1 63 0
 1195 0490 9A46     		mov	r10, r3
 1196              	.LVL211:
 1197 0492 4BE7     		b	.L67
ARM GAS  /tmp/cce3BzsE.s 			page 22


 1198              	.LVL212:
 1199              	.L76:
 1200              	.LBE86:
 1201              	.LBE102:
 1202              	.LBB103:
 1203              	.LBB100:
 1204              		.loc 1 120 0
 1205 0494 631E     		sub	r3, r4, #1
 1206              	.LVL213:
 1207 0496 9946     		mov	r9, r3
 1208              	.LVL214:
 1209 0498 002C     		cmp	r4, #0
 1210 049a EAD0     		beq	.L75
 1211              	.L153:
 1212 049c 2B1C     		mov	r3, r5
 1213              	.LVL215:
 1214 049e 4C46     		mov	r4, r9
 1215 04a0 4546     		mov	r5, r8
 1216 04a2 9846     		mov	r8, r3
 1217              	.LVL216:
 1218              	.L78:
 1219              		.loc 1 121 0
 1220 04a4 301C     		mov	r0, r6
 1221 04a6 291C     		mov	r1, r5
 1222              		.loc 1 120 0
 1223 04a8 013C     		sub	r4, r4, #1
 1224              	.LVL217:
 1225              		.loc 1 121 0
 1226 04aa B847     		blx	r7
 1227              	.LVL218:
 1228 04ac 631C     		add	r3, r4, #1
 1229              		.loc 1 120 0
 1230 04ae 002B     		cmp	r3, #0
 1231 04b0 F8DC     		bgt	.L78
 1232 04b2 4546     		mov	r5, r8
 1233              	.LVL219:
 1234              		.loc 1 122 0
 1235 04b4 002D     		cmp	r5, #0
 1236 04b6 DCD1     		bne	.L75
 1237              	.LBE100:
 1238              	.LBE103:
 1239              		.loc 1 185 0
 1240 04b8 039D     		ldr	r5, [sp, #12]
 1241              	.LVL220:
 1242 04ba ACE5     		b	.L2
 1243              	.LVL221:
 1244              	.L52:
 1245              	.LBB104:
 1246              	.LBB93:
 1247              		.loc 1 120 0
 1248 04bc 631E     		sub	r3, r4, #1
 1249              	.LVL222:
 1250 04be 9946     		mov	r9, r3
 1251              	.LVL223:
 1252 04c0 002C     		cmp	r4, #0
 1253 04c2 00D1     		bne	.LCB1704
 1254 04c4 6EE7     		b	.L51	@long jump
ARM GAS  /tmp/cce3BzsE.s 			page 23


 1255              	.LCB1704:
 1256              	.L151:
 1257 04c6 2B1C     		mov	r3, r5
 1258              	.LVL224:
 1259 04c8 4C46     		mov	r4, r9
 1260 04ca 4546     		mov	r5, r8
 1261 04cc 9846     		mov	r8, r3
 1262              	.LVL225:
 1263              	.L54:
 1264              		.loc 1 121 0
 1265 04ce 301C     		mov	r0, r6
 1266 04d0 291C     		mov	r1, r5
 1267              		.loc 1 120 0
 1268 04d2 013C     		sub	r4, r4, #1
 1269              	.LVL226:
 1270              		.loc 1 121 0
 1271 04d4 B847     		blx	r7
 1272              	.LVL227:
 1273 04d6 631C     		add	r3, r4, #1
 1274              		.loc 1 120 0
 1275 04d8 002B     		cmp	r3, #0
 1276 04da F8DC     		bgt	.L54
 1277 04dc 4546     		mov	r5, r8
 1278              	.LVL228:
 1279              		.loc 1 122 0
 1280 04de 002D     		cmp	r5, #0
 1281 04e0 00D0     		beq	.LCB1736
 1282 04e2 5FE7     		b	.L51	@long jump
 1283              	.LCB1736:
 1284              	.LBE93:
 1285              	.LBE104:
 1286              		.loc 1 185 0
 1287 04e4 039D     		ldr	r5, [sp, #12]
 1288              	.LVL229:
 1289 04e6 96E5     		b	.L2
 1290              	.LVL230:
 1291              	.L34:
 1292              	.LBB105:
 1293              	.LBB44:
 1294              		.loc 1 120 0
 1295 04e8 631E     		sub	r3, r4, #1
 1296              	.LVL231:
 1297 04ea 9946     		mov	r9, r3
 1298              	.LVL232:
 1299 04ec 002C     		cmp	r4, #0
 1300 04ee 00D1     		bne	.LCB1779
 1301 04f0 30E6     		b	.L33	@long jump
 1302              	.LCB1779:
 1303              	.L149:
 1304 04f2 2B1C     		mov	r3, r5
 1305              	.LVL233:
 1306 04f4 4C46     		mov	r4, r9
 1307 04f6 4546     		mov	r5, r8
 1308 04f8 9846     		mov	r8, r3
 1309              	.LVL234:
 1310              	.L36:
 1311              		.loc 1 121 0
ARM GAS  /tmp/cce3BzsE.s 			page 24


 1312 04fa 301C     		mov	r0, r6
 1313 04fc 291C     		mov	r1, r5
 1314              		.loc 1 120 0
 1315 04fe 013C     		sub	r4, r4, #1
 1316              	.LVL235:
 1317              		.loc 1 121 0
 1318 0500 B847     		blx	r7
 1319              	.LVL236:
 1320 0502 631C     		add	r3, r4, #1
 1321              		.loc 1 120 0
 1322 0504 002B     		cmp	r3, #0
 1323 0506 F8DC     		bgt	.L36
 1324 0508 4546     		mov	r5, r8
 1325              	.LVL237:
 1326              		.loc 1 122 0
 1327 050a 002D     		cmp	r5, #0
 1328 050c 00D0     		beq	.LCB1811
 1329 050e 21E6     		b	.L33	@long jump
 1330              	.LCB1811:
 1331              	.LBE44:
 1332              	.LBE105:
 1333              		.loc 1 185 0
 1334 0510 039D     		ldr	r5, [sp, #12]
 1335              	.LVL238:
 1336 0512 80E5     		b	.L2
 1337              	.LVL239:
 1338              	.L190:
 1339              	.LBB106:
 1340              	.LBB87:
 1341              	.LBB82:
 1342              		.loc 1 70 0
 1343 0514 5346     		mov	r3, r10
 1344 0516 9A46     		mov	r10, r3
 1345              	.LVL240:
 1346 0518 5AE7     		b	.L61
 1347              	.LVL241:
 1348              	.L166:
 1349              	.LBE82:
 1350              	.LBE87:
 1351              	.LBE106:
 1352              	.LBB107:
 1353              	.LBB40:
 1354              		.loc 1 66 0
 1355 051a 07AB     		add	r3, sp, #28
 1356              	.LVL242:
 1357 051c 0293     		str	r3, [sp, #8]
 1358 051e 1A1C     		mov	r2, r3
 1359 0520 02E6     		b	.L24
 1360              	.LVL243:
 1361              	.L172:
 1362              	.LBE40:
 1363              	.LBE107:
 1364              	.LBB108:
 1365              	.LBB88:
 1366 0522 07AB     		add	r3, sp, #28
 1367              	.LVL244:
 1368 0524 0293     		str	r3, [sp, #8]
ARM GAS  /tmp/cce3BzsE.s 			page 25


 1369 0526 8FE7     		b	.L59
 1370              	.LVL245:
 1371              	.L161:
 1372 0528 049C     		ldr	r4, [sp, #16]
 1373 052a 4646     		mov	r6, r8
 1374 052c 4F46     		mov	r7, r9
 1375              	.LVL246:
 1376 052e 8BE7     		b	.L59
 1377              	.LVL247:
 1378              	.L169:
 1379              	.LBE88:
 1380              	.LBE108:
 1381              	.LBB109:
 1382              	.LBB71:
 1383              	.LBB68:
 1384              	.LBB64:
 1385 0530 049A     		ldr	r2, [sp, #16]
 1386 0532 21E7     		b	.L42
 1387              	.LVL248:
 1388              	.L191:
 1389              	.LBE64:
 1390              	.LBE68:
 1391              	.LBE71:
 1392              	.LBE109:
 1393              	.LBB110:
 1394              	.LBB101:
 1395              		.loc 1 120 0
 1396 0534 631E     		sub	r3, r4, #1
 1397 0536 9946     		mov	r9, r3
 1398              	.LVL249:
 1399 0538 002C     		cmp	r4, #0
 1400 053a AFD1     		bne	.L153
 1401              	.LBE101:
 1402              	.LBE110:
 1403              		.loc 1 185 0
 1404 053c 039D     		ldr	r5, [sp, #12]
 1405 053e 6AE5     		b	.L2
 1406              	.LVL250:
 1407              	.L81:
 1408              	.LBB111:
 1409              	.LBB74:
 1410              		.loc 1 120 0
 1411 0540 651E     		sub	r5, r4, #1
 1412              	.LVL251:
 1413 0542 002C     		cmp	r4, #0
 1414 0544 00D0     		beq	.LCB2033
 1415 0546 B5E6     		b	.L85	@long jump
 1416              	.LCB2033:
 1417              	.LBE74:
 1418              	.LBE111:
 1419              		.loc 1 192 0
 1420 0548 4D46     		mov	r5, r9
 1421              	.LVL252:
 1422 054a 64E5     		b	.L2
 1423              	.LVL253:
 1424              	.L180:
 1425              	.LBB112:
ARM GAS  /tmp/cce3BzsE.s 			page 26


 1426              	.LBB45:
 1427              		.loc 1 120 0
 1428 054c 631E     		sub	r3, r4, #1
 1429 054e 9946     		mov	r9, r3
 1430              	.LVL254:
 1431 0550 002C     		cmp	r4, #0
 1432 0552 CED1     		bne	.L149
 1433              	.LBE45:
 1434              	.LBE112:
 1435              		.loc 1 185 0
 1436 0554 039D     		ldr	r5, [sp, #12]
 1437 0556 5EE5     		b	.L2
 1438              	.LVL255:
 1439              	.L188:
 1440              	.LBB113:
 1441              	.LBB94:
 1442              		.loc 1 120 0
 1443 0558 631E     		sub	r3, r4, #1
 1444 055a 9946     		mov	r9, r3
 1445              	.LVL256:
 1446 055c 002C     		cmp	r4, #0
 1447 055e B2D1     		bne	.L151
 1448              	.LBE94:
 1449              	.LBE113:
 1450              		.loc 1 185 0
 1451 0560 039D     		ldr	r5, [sp, #12]
 1452 0562 58E5     		b	.L2
 1453              	.LBE34:
 1454              		.cfi_endproc
 1455              	.LFE51:
 1456              		.size	tfp_format, .-tfp_format
 1457 0564 C046C046 		.section	.text.init_printf,"ax",%progbits
 1457      C046C046 
 1457      C046C046 
 1458              		.align	2
 1459              		.p2align 4,,15
 1460              		.global	init_printf
 1461              		.code	16
 1462              		.thumb_func
 1463              		.type	init_printf, %function
 1464              	init_printf:
 1465              	.LFB52:
 1466              		.loc 1 206 0
 1467              		.cfi_startproc
 1468              	.LVL257:
 1469              		.loc 1 207 0
 1470 0000 024B     		ldr	r3, .L193
 1471              		.loc 1 209 0
 1472              		@ sp needed
 1473              		.loc 1 207 0
 1474 0002 1960     		str	r1, [r3]
 1475              		.loc 1 208 0
 1476 0004 024B     		ldr	r3, .L193+4
 1477 0006 1860     		str	r0, [r3]
 1478              		.loc 1 209 0
 1479 0008 7047     		bx	lr
 1480              	.L194:
ARM GAS  /tmp/cce3BzsE.s 			page 27


 1481 000a C046     		.align	2
 1482              	.L193:
 1483 000c 00000000 		.word	.LANCHOR0
 1484 0010 00000000 		.word	.LANCHOR1
 1485              		.cfi_endproc
 1486              	.LFE52:
 1487              		.size	init_printf, .-init_printf
 1488 0014 C046C046 		.section	.text.tfp_printf,"ax",%progbits
 1488      C046C046 
 1488      C046C046 
 1489              		.align	2
 1490              		.p2align 4,,15
 1491              		.global	tfp_printf
 1492              		.code	16
 1493              		.thumb_func
 1494              		.type	tfp_printf, %function
 1495              	tfp_printf:
 1496              	.LFB53:
 1497              		.loc 1 212 0
 1498              		.cfi_startproc
 1499              	.LVL258:
 1500 0000 0FB4     		push	{r0, r1, r2, r3}
 1501              		.cfi_def_cfa_offset 16
 1502 0002 00B5     		push	{lr}
 1503              		.cfi_def_cfa_offset 20
 1504              		.cfi_offset 14, -20
 1505              		.loc 1 215 0
 1506 0004 0649     		ldr	r1, .L196
 1507              		.loc 1 212 0
 1508 0006 83B0     		sub	sp, sp, #12
 1509              		.cfi_def_cfa_offset 32
 1510              		.loc 1 212 0
 1511 0008 04AB     		add	r3, sp, #16
 1512              		.loc 1 215 0
 1513 000a 0868     		ldr	r0, [r1]
 1514 000c 0549     		ldr	r1, .L196+4
 1515              		.loc 1 212 0
 1516 000e 04CB     		ldmia	r3!, {r2}
 1517              		.loc 1 215 0
 1518 0010 0968     		ldr	r1, [r1]
 1519              		.loc 1 214 0
 1520 0012 0193     		str	r3, [sp, #4]
 1521              		.loc 1 215 0
 1522 0014 FFF7FEFF 		bl	tfp_format
 1523              	.LVL259:
 1524              		.loc 1 217 0
 1525 0018 03B0     		add	sp, sp, #12
 1526              		@ sp needed
 1527 001a 08BC     		pop	{r3}
 1528 001c 04B0     		add	sp, sp, #16
 1529 001e 1847     		bx	r3
 1530              	.L197:
 1531              		.align	2
 1532              	.L196:
 1533 0020 00000000 		.word	.LANCHOR1
 1534 0024 00000000 		.word	.LANCHOR0
 1535              		.cfi_endproc
ARM GAS  /tmp/cce3BzsE.s 			page 28


 1536              	.LFE53:
 1537              		.size	tfp_printf, .-tfp_printf
 1538 0028 C046C046 		.section	.text.tfp_sprintf,"ax",%progbits
 1538      C046C046 
 1539              		.align	2
 1540              		.p2align 4,,15
 1541              		.global	tfp_sprintf
 1542              		.code	16
 1543              		.thumb_func
 1544              		.type	tfp_sprintf, %function
 1545              	tfp_sprintf:
 1546              	.LFB55:
 1547              		.loc 1 227 0
 1548              		.cfi_startproc
 1549              	.LVL260:
 1550 0000 0EB4     		push	{r1, r2, r3}
 1551              		.cfi_def_cfa_offset 12
 1552 0002 F0B5     		push	{r4, r5, r6, r7, lr}
 1553              		.cfi_def_cfa_offset 32
 1554              		.cfi_offset 4, -32
 1555              		.cfi_offset 5, -28
 1556              		.cfi_offset 6, -24
 1557              		.cfi_offset 7, -20
 1558              		.cfi_offset 14, -16
 1559 0004 5F46     		mov	r7, fp
 1560 0006 4D46     		mov	r5, r9
 1561 0008 5646     		mov	r6, r10
 1562 000a 4446     		mov	r4, r8
 1563 000c F0B4     		push	{r4, r5, r6, r7}
 1564              		.cfi_def_cfa_offset 48
 1565              		.cfi_offset 8, -48
 1566              		.cfi_offset 9, -44
 1567              		.cfi_offset 10, -40
 1568              		.cfi_offset 11, -36
 1569 000e 88B0     		sub	sp, sp, #32
 1570              		.cfi_def_cfa_offset 80
 1571              		.loc 1 227 0
 1572 0010 11AA     		add	r2, sp, #68
 1573 0012 08CA     		ldmia	r2!, {r3}
 1574 0014 051C     		mov	r5, r0
 1575 0016 1F1C     		mov	r7, r3
 1576              		.loc 1 229 0
 1577 0018 0492     		str	r2, [sp, #16]
 1578              	.LVL261:
 1579              	.L199:
 1580              	.LBB164:
 1581              	.LBB165:
 1582              		.loc 1 133 0
 1583 001a 3B78     		ldrb	r3, [r7]
 1584              	.LVL262:
 1585 001c 002B     		cmp	r3, #0
 1586 001e 07D0     		beq	.L214
 1587              	.LVL263:
 1588              	.L275:
 1589              		.loc 1 134 0
 1590 0020 252B     		cmp	r3, #37
 1591 0022 11D0     		beq	.L200
ARM GAS  /tmp/cce3BzsE.s 			page 29


 1592              	.LBB166:
 1593              	.LBB167:
 1594              		.loc 1 221 0
 1595 0024 2B70     		strb	r3, [r5]
 1596              	.LBE167:
 1597              	.LBE166:
 1598              		.loc 1 133 0
 1599 0026 0137     		add	r7, r7, #1
 1600              	.LVL264:
 1601 0028 3B78     		ldrb	r3, [r7]
 1602              	.LVL265:
 1603              	.LBB169:
 1604              	.LBB168:
 1605              		.loc 1 221 0
 1606 002a 0135     		add	r5, r5, #1
 1607              	.LVL266:
 1608              	.LBE168:
 1609              	.LBE169:
 1610              		.loc 1 133 0
 1611 002c 002B     		cmp	r3, #0
 1612 002e F7D1     		bne	.L275
 1613              	.LVL267:
 1614              	.L214:
 1615              	.LBE165:
 1616              	.LBE164:
 1617              	.LBB265:
 1618              	.LBB266:
 1619              		.loc 1 221 0
 1620 0030 0023     		mov	r3, #0
 1621 0032 2B70     		strb	r3, [r5]
 1622              	.LBE266:
 1623              	.LBE265:
 1624              		.loc 1 233 0
 1625 0034 08B0     		add	sp, sp, #32
 1626              		@ sp needed
 1627              	.LVL268:
 1628 0036 3CBC     		pop	{r2, r3, r4, r5}
 1629 0038 9046     		mov	r8, r2
 1630 003a 9946     		mov	r9, r3
 1631 003c A246     		mov	r10, r4
 1632 003e AB46     		mov	fp, r5
 1633 0040 F0BC     		pop	{r4, r5, r6, r7}
 1634 0042 08BC     		pop	{r3}
 1635 0044 03B0     		add	sp, sp, #12
 1636 0046 1847     		bx	r3
 1637              	.LVL269:
 1638              	.L200:
 1639              	.LBB267:
 1640              	.LBB264:
 1641              	.LBB170:
 1642              		.loc 1 142 0
 1643 0048 7B78     		ldrb	r3, [r7, #1]
 1644              	.LVL270:
 1645 004a 9946     		mov	r9, r3
 1646              	.LVL271:
 1647              		.loc 1 143 0
 1648 004c 302B     		cmp	r3, #48
ARM GAS  /tmp/cce3BzsE.s 			page 30


 1649 004e 00D1     		bne	.LCB2312
 1650 0050 B8E0     		b	.L202	@long jump
 1651              	.LCB2312:
 1652              		.loc 1 137 0
 1653 0052 0023     		mov	r3, #0
 1654              	.LVL272:
 1655              		.loc 1 142 0
 1656 0054 0237     		add	r7, r7, #2
 1657              	.LVL273:
 1658              		.loc 1 137 0
 1659 0056 0193     		str	r3, [sp, #4]
 1660              	.LVL274:
 1661              	.L203:
 1662              		.loc 1 147 0
 1663 0058 4B46     		mov	r3, r9
 1664 005a 303B     		sub	r3, r3, #48
 1665 005c D9B2     		uxtb	r1, r3
 1666              		.loc 1 141 0
 1667 005e 0024     		mov	r4, #0
 1668              		.loc 1 147 0
 1669 0060 0929     		cmp	r1, #9
 1670 0062 00D8     		bhi	.LCB2331
 1671 0064 8AE0     		b	.L353	@long jump
 1672              	.LCB2331:
 1673              	.LVL275:
 1674              		.loc 1 156 0
 1675 0066 4B46     		mov	r3, r9
 1676 0068 632B     		cmp	r3, #99
 1677 006a 00D1     		bne	.LCB2337
 1678 006c A5E0     		b	.L210	@long jump
 1679              	.LCB2337:
 1680              	.L359:
 1681 006e 632B     		cmp	r3, #99
 1682 0070 7AD9     		bls	.L354
 1683 0072 4B46     		mov	r3, r9
 1684 0074 732B     		cmp	r3, #115
 1685 0076 00D1     		bne	.LCB2347
 1686 0078 F7E0     		b	.L215	@long jump
 1687              	.LCB2347:
 1688 007a 00D8     		bhi	.LCB2349
 1689 007c A8E0     		b	.L355	@long jump
 1690              	.LCB2349:
 1691 007e 4B46     		mov	r3, r9
 1692 0080 752B     		cmp	r3, #117
 1693 0082 00D0     		beq	.LCB2352
 1694 0084 21E1     		b	.L356	@long jump
 1695              	.LCB2352:
 1696              		.loc 1 165 0
 1697 0086 131D     		add	r3, r2, #4
 1698 0088 0393     		str	r3, [sp, #12]
 1699              	.LVL276:
 1700 008a 1368     		ldr	r3, [r2]
 1701              	.LVL277:
 1702              	.LBB171:
 1703              	.LBB172:
 1704              		.loc 1 64 0
 1705 008c 0126     		mov	r6, #1
ARM GAS  /tmp/cce3BzsE.s 			page 31


 1706              	.LBE172:
 1707              	.LBE171:
 1708              		.loc 1 165 0
 1709 008e 9946     		mov	r9, r3
 1710              	.LVL278:
 1711              	.LBB177:
 1712              	.LBB175:
 1713              		.loc 1 64 0
 1714 0090 092B     		cmp	r3, #9
 1715 0092 0FD9     		bls	.L219
 1716 0094 A046     		mov	r8, r4
 1717 0096 1C1C     		mov	r4, r3
 1718              	.LVL279:
 1719              	.L220:
 1720              		.loc 1 65 0
 1721 0098 B300     		lsl	r3, r6, #2
 1722 009a 9E19     		add	r6, r3, r6
 1723              	.LVL280:
 1724 009c 7600     		lsl	r6, r6, #1
 1725              	.LVL281:
 1726              		.loc 1 64 0
 1727 009e 201C     		mov	r0, r4
 1728 00a0 311C     		mov	r1, r6
 1729 00a2 FFF7FEFF 		bl	__aeabi_uidiv
 1730              	.LVL282:
 1731 00a6 0928     		cmp	r0, #9
 1732 00a8 F6D8     		bhi	.L220
 1733 00aa A146     		mov	r9, r4
 1734 00ac 4446     		mov	r4, r8
 1735              	.LVL283:
 1736              		.loc 1 66 0
 1737 00ae 002E     		cmp	r6, #0
 1738 00b0 00D1     		bne	.LCB2404
 1739 00b2 0EE2     		b	.L348	@long jump
 1740              	.LCB2404:
 1741              	.LVL284:
 1742              	.L219:
 1743              	.LBB173:
 1744              		.loc 1 70 0
 1745 00b4 05AB     		add	r3, sp, #20
 1746              	.LVL285:
 1747 00b6 0293     		str	r3, [sp, #8]
 1748 00b8 9B46     		mov	fp, r3
 1749 00ba 0023     		mov	r3, #0
 1750              	.LVL286:
 1751 00bc 2A1C     		mov	r2, r5
 1752 00be 1197     		str	r7, [sp, #68]
 1753 00c0 1F1C     		mov	r7, r3
 1754              	.LVL287:
 1755 00c2 119B     		ldr	r3, [sp, #68]
 1756 00c4 4D46     		mov	r5, r9
 1757              	.LVL288:
 1758 00c6 A046     		mov	r8, r4
 1759 00c8 9A46     		mov	r10, r3
 1760 00ca 9146     		mov	r9, r2
 1761              	.LVL289:
 1762              	.L222:
ARM GAS  /tmp/cce3BzsE.s 			page 32


 1763              		.loc 1 67 0
 1764 00cc 311C     		mov	r1, r6
 1765 00ce 281C     		mov	r0, r5
 1766 00d0 FFF7FEFF 		bl	__aeabi_uidiv
 1767              	.LVL290:
 1768              		.loc 1 68 0
 1769 00d4 311C     		mov	r1, r6
 1770              		.loc 1 67 0
 1771 00d6 041C     		mov	r4, r0
 1772              	.LVL291:
 1773              		.loc 1 68 0
 1774 00d8 281C     		mov	r0, r5
 1775              	.LVL292:
 1776 00da FFF7FEFF 		bl	__aeabi_uidivmod
 1777              	.LVL293:
 1778              		.loc 1 69 0
 1779 00de 301C     		mov	r0, r6
 1780              		.loc 1 68 0
 1781 00e0 0D1C     		mov	r5, r1
 1782              	.LVL294:
 1783              		.loc 1 69 0
 1784 00e2 0A21     		mov	r1, #10
 1785              	.LVL295:
 1786 00e4 FFF7FEFF 		bl	__aeabi_uidiv
 1787              	.LVL296:
 1788 00e8 061C     		mov	r6, r0
 1789              	.LVL297:
 1790              		.loc 1 70 0
 1791 00ea 002F     		cmp	r7, #0
 1792 00ec 01D1     		bne	.L223
 1793              	.LVL298:
 1794 00ee 002C     		cmp	r4, #0
 1795 00f0 0CDD     		ble	.L357
 1796              	.LVL299:
 1797              	.L223:
 1798              		.loc 1 71 0
 1799 00f2 5B46     		mov	r3, fp
 1800 00f4 5A1C     		add	r2, r3, #1
 1801              	.LVL300:
 1802 00f6 5723     		mov	r3, #87
 1803 00f8 092C     		cmp	r4, #9
 1804 00fa 0BDD     		ble	.L276
 1805 00fc 1C19     		add	r4, r3, r4
 1806              	.LVL301:
 1807 00fe 5B46     		mov	r3, fp
 1808              		.loc 1 72 0
 1809 0100 0137     		add	r7, r7, #1
 1810              	.LVL302:
 1811              		.loc 1 71 0
 1812 0102 1C70     		strb	r4, [r3]
 1813              	.LBE173:
 1814              		.loc 1 66 0
 1815 0104 002E     		cmp	r6, #0
 1816 0106 0CD0     		beq	.L358
 1817              	.LVL303:
 1818              	.L225:
 1819              	.LBB174:
ARM GAS  /tmp/cce3BzsE.s 			page 33


 1820              		.loc 1 70 0
 1821 0108 9346     		mov	fp, r2
 1822 010a DFE7     		b	.L222
 1823              	.LVL304:
 1824              	.L357:
 1825 010c 5A46     		mov	r2, fp
 1826 010e 0028     		cmp	r0, #0
 1827 0110 FAD1     		bne	.L225
 1828              	.LVL305:
 1829              		.loc 1 71 0
 1830 0112 0132     		add	r2, r2, #1
 1831              	.LVL306:
 1832              	.L276:
 1833 0114 3023     		mov	r3, #48
 1834 0116 1C19     		add	r4, r3, r4
 1835              	.LVL307:
 1836 0118 5B46     		mov	r3, fp
 1837              		.loc 1 72 0
 1838 011a 0137     		add	r7, r7, #1
 1839              	.LVL308:
 1840              		.loc 1 71 0
 1841 011c 1C70     		strb	r4, [r3]
 1842              	.LBE174:
 1843              		.loc 1 66 0
 1844 011e 002E     		cmp	r6, #0
 1845 0120 F2D1     		bne	.L225
 1846              	.L358:
 1847 0122 4446     		mov	r4, r8
 1848 0124 4D46     		mov	r5, r9
 1849              	.LVL309:
 1850 0126 5746     		mov	r7, r10
 1851              	.LVL310:
 1852              	.L221:
 1853              		.loc 1 75 0
 1854 0128 0023     		mov	r3, #0
 1855 012a 1370     		strb	r3, [r2]
 1856              	.LVL311:
 1857              	.LBE175:
 1858              	.LBE177:
 1859              	.LBB178:
 1860              	.LBB179:
 1861              		.loc 1 115 0
 1862 012c 019B     		ldr	r3, [sp, #4]
 1863 012e 3021     		mov	r1, #48
 1864 0130 002B     		cmp	r3, #0
 1865 0132 00D1     		bne	.L227
 1866 0134 2021     		mov	r1, #32
 1867              	.L227:
 1868              	.LVL312:
 1869              		.loc 1 118 0
 1870 0136 029B     		ldr	r3, [sp, #8]
 1871 0138 1E78     		ldrb	r6, [r3]
 1872              	.LVL313:
 1873 013a 002E     		cmp	r6, #0
 1874 013c 06D1     		bne	.L342
 1875 013e D3E1     		b	.L264
 1876              	.LVL314:
ARM GAS  /tmp/cce3BzsE.s 			page 34


 1877              	.L231:
 1878 0140 5A78     		ldrb	r2, [r3, #1]
 1879              		.loc 1 119 0
 1880 0142 013C     		sub	r4, r4, #1
 1881              	.LVL315:
 1882              		.loc 1 118 0
 1883 0144 002A     		cmp	r2, #0
 1884 0146 00D1     		bne	.LCB2609
 1885 0148 B2E1     		b	.L230	@long jump
 1886              	.LCB2609:
 1887 014a 0133     		add	r3, r3, #1
 1888              	.LVL316:
 1889              	.L342:
 1890 014c 002C     		cmp	r4, #0
 1891 014e F7D1     		bne	.L231
 1892              	.LVL317:
 1893              	.L229:
 1894 0150 04AB     		add	r3, sp, #16
 1895 0152 0533     		add	r3, r3, #5
 1896              	.LVL318:
 1897              	.L232:
 1898              	.LBB180:
 1899              	.LBB181:
 1900              		.loc 1 221 0
 1901 0154 0135     		add	r5, r5, #1
 1902              	.LVL319:
 1903 0156 6A1E     		sub	r2, r5, #1
 1904 0158 0133     		add	r3, r3, #1
 1905 015a 1670     		strb	r6, [r2]
 1906 015c 5A1E     		sub	r2, r3, #1
 1907              	.LVL320:
 1908              	.LBE181:
 1909              	.LBE180:
 1910              		.loc 1 122 0
 1911 015e 1678     		ldrb	r6, [r2]
 1912              	.LVL321:
 1913 0160 002E     		cmp	r6, #0
 1914 0162 F7D1     		bne	.L232
 1915              	.LVL322:
 1916              	.L346:
 1917              	.LBE179:
 1918              	.LBE178:
 1919              		.loc 1 185 0
 1920 0164 039A     		ldr	r2, [sp, #12]
 1921 0166 58E7     		b	.L199
 1922              	.LVL323:
 1923              	.L354:
 1924              		.loc 1 156 0
 1925 0168 252B     		cmp	r3, #37
 1926 016a 00D1     		bne	.LCB2696
 1927 016c F4E0     		b	.L212	@long jump
 1928              	.LCB2696:
 1929 016e 582B     		cmp	r3, #88
 1930 0170 00D1     		bne	.LCB2698
 1931 0172 ADE0     		b	.L213	@long jump
 1932              	.LCB2698:
 1933 0174 002B     		cmp	r3, #0
ARM GAS  /tmp/cce3BzsE.s 			page 35


 1934 0176 00D1     		bne	.LCB2700
 1935 0178 5AE7     		b	.L214	@long jump
 1936              	.LCB2700:
 1937 017a 4EE7     		b	.L199
 1938              	.LVL324:
 1939              	.L353:
 1940 017c 381C     		mov	r0, r7
 1941 017e 4946     		mov	r1, r9
 1942              	.LVL325:
 1943              	.L205:
 1944              	.LBB185:
 1945              	.LBB186:
 1946              	.LBB187:
 1947              	.LBB188:
 1948              		.loc 1 89 0
 1949 0180 DEB2     		uxtb	r6, r3
 1950 0182 071C     		mov	r7, r0
 1951              	.LVL326:
 1952 0184 092E     		cmp	r6, #9
 1953 0186 0AD9     		bls	.L207
 1954              		.loc 1 91 0
 1955 0188 0B1C     		mov	r3, r1
 1956 018a 613B     		sub	r3, r3, #97
 1957 018c 052B     		cmp	r3, #5
 1958 018e 03D9     		bls	.L347
 1959              		.loc 1 93 0
 1960 0190 0B1C     		mov	r3, r1
 1961 0192 413B     		sub	r3, r3, #65
 1962 0194 052B     		cmp	r3, #5
 1963 0196 0BD8     		bhi	.L341
 1964              	.L347:
 1965              		.loc 1 94 0
 1966 0198 0A33     		add	r3, r3, #10
 1967              	.LBE188:
 1968              	.LBE187:
 1969              		.loc 1 104 0
 1970 019a 0A2B     		cmp	r3, #10
 1971 019c 08DC     		bgt	.L341
 1972              	.L207:
 1973              		.loc 1 105 0
 1974 019e A100     		lsl	r1, r4, #2
 1975              	.LVL327:
 1976 01a0 0C19     		add	r4, r1, r4
 1977              	.LVL328:
 1978              		.loc 1 106 0
 1979 01a2 0178     		ldrb	r1, [r0]
 1980              		.loc 1 105 0
 1981 01a4 6400     		lsl	r4, r4, #1
 1982 01a6 1C19     		add	r4, r3, r4
 1983              	.LVL329:
 1984 01a8 0B1C     		mov	r3, r1
 1985 01aa 0130     		add	r0, r0, #1
 1986              	.LVL330:
 1987 01ac 303B     		sub	r3, r3, #48
 1988 01ae E7E7     		b	.L205
 1989              	.LVL331:
 1990              	.L341:
ARM GAS  /tmp/cce3BzsE.s 			page 36


 1991 01b0 8946     		mov	r9, r1
 1992              	.LVL332:
 1993              	.LBE186:
 1994              	.LBE185:
 1995              		.loc 1 156 0
 1996 01b2 4B46     		mov	r3, r9
 1997 01b4 632B     		cmp	r3, #99
 1998 01b6 00D0     		beq	.LCB2776
 1999 01b8 59E7     		b	.L359	@long jump
 2000              	.LCB2776:
 2001              	.LVL333:
 2002              	.L210:
 2003              		.loc 1 189 0
 2004 01ba 1378     		ldrb	r3, [r2]
 2005 01bc 0432     		add	r2, r2, #4
 2006              	.LVL334:
 2007 01be 2B70     		strb	r3, [r5]
 2008              	.LVL335:
 2009              	.LBB189:
 2010              	.LBB190:
 2011              		.loc 1 221 0
 2012 01c0 0135     		add	r5, r5, #1
 2013              	.LVL336:
 2014 01c2 2AE7     		b	.L199
 2015              	.LVL337:
 2016              	.L202:
 2017              	.LBE190:
 2018              	.LBE189:
 2019              		.loc 1 144 0
 2020 01c4 BB78     		ldrb	r3, [r7, #2]
 2021              	.LVL338:
 2022 01c6 0337     		add	r7, r7, #3
 2023              	.LVL339:
 2024 01c8 9946     		mov	r9, r3
 2025              	.LVL340:
 2026              		.loc 1 145 0
 2027 01ca 0123     		mov	r3, #1
 2028 01cc 0193     		str	r3, [sp, #4]
 2029 01ce 43E7     		b	.L203
 2030              	.LVL341:
 2031              	.L355:
 2032              		.loc 1 156 0
 2033 01d0 642B     		cmp	r3, #100
 2034 01d2 00D0     		beq	.LCB2839
 2035 01d4 21E7     		b	.L199	@long jump
 2036              	.LCB2839:
 2037              		.loc 1 175 0
 2038 01d6 131D     		add	r3, r2, #4
 2039 01d8 0393     		str	r3, [sp, #12]
 2040              	.LVL342:
 2041 01da 1368     		ldr	r3, [r2]
 2042              	.LVL343:
 2043 01dc 9846     		mov	r8, r3
 2044              	.LVL344:
 2045              	.LBB191:
 2046              	.LBB192:
 2047              		.loc 1 80 0
ARM GAS  /tmp/cce3BzsE.s 			page 37


 2048 01de 002B     		cmp	r3, #0
 2049 01e0 00DA     		bge	.LCB2851
 2050 01e2 08E1     		b	.L360	@long jump
 2051              	.LCB2851:
 2052 01e4 05AB     		add	r3, sp, #20
 2053              	.LVL345:
 2054 01e6 9B46     		mov	fp, r3
 2055 01e8 0293     		str	r3, [sp, #8]
 2056              	.LVL346:
 2057              	.L233:
 2058              	.LBB193:
 2059              	.LBB194:
 2060              		.loc 1 64 0
 2061 01ea 4346     		mov	r3, r8
 2062              	.LBE194:
 2063              	.LBE193:
 2064              		.loc 1 84 0
 2065 01ec C146     		mov	r9, r8
 2066              	.LVL347:
 2067              	.LBB202:
 2068              	.LBB198:
 2069              		.loc 1 64 0
 2070 01ee 0126     		mov	r6, #1
 2071 01f0 092B     		cmp	r3, #9
 2072 01f2 0FDD     		ble	.L234
 2073 01f4 231C     		mov	r3, r4
 2074 01f6 4446     		mov	r4, r8
 2075              	.LVL348:
 2076 01f8 9846     		mov	r8, r3
 2077              	.LVL349:
 2078              	.L235:
 2079              		.loc 1 65 0
 2080 01fa B300     		lsl	r3, r6, #2
 2081 01fc 9E19     		add	r6, r3, r6
 2082              	.LVL350:
 2083 01fe 7600     		lsl	r6, r6, #1
 2084              	.LVL351:
 2085              		.loc 1 64 0
 2086 0200 201C     		mov	r0, r4
 2087 0202 311C     		mov	r1, r6
 2088 0204 FFF7FEFF 		bl	__aeabi_uidiv
 2089              	.LVL352:
 2090 0208 0928     		cmp	r0, #9
 2091 020a F6D8     		bhi	.L235
 2092 020c 4446     		mov	r4, r8
 2093              	.LVL353:
 2094              		.loc 1 66 0
 2095 020e 002E     		cmp	r6, #0
 2096 0210 00D1     		bne	.LCB2909
 2097 0212 79E1     		b	.L350	@long jump
 2098              	.LCB2909:
 2099              	.LVL354:
 2100              	.L234:
 2101              	.LBB195:
 2102              		.loc 1 70 0
 2103 0214 0023     		mov	r3, #0
 2104 0216 2A1C     		mov	r2, r5
ARM GAS  /tmp/cce3BzsE.s 			page 38


 2105 0218 1197     		str	r7, [sp, #68]
 2106 021a 1F1C     		mov	r7, r3
 2107              	.LVL355:
 2108 021c 119B     		ldr	r3, [sp, #68]
 2109 021e 4D46     		mov	r5, r9
 2110              	.LVL356:
 2111 0220 A046     		mov	r8, r4
 2112 0222 9A46     		mov	r10, r3
 2113 0224 9146     		mov	r9, r2
 2114              	.LVL357:
 2115              	.L237:
 2116              		.loc 1 67 0
 2117 0226 311C     		mov	r1, r6
 2118 0228 281C     		mov	r0, r5
 2119 022a FFF7FEFF 		bl	__aeabi_uidiv
 2120              	.LVL358:
 2121              		.loc 1 68 0
 2122 022e 311C     		mov	r1, r6
 2123              		.loc 1 67 0
 2124 0230 041C     		mov	r4, r0
 2125              	.LVL359:
 2126              		.loc 1 68 0
 2127 0232 281C     		mov	r0, r5
 2128              	.LVL360:
 2129 0234 FFF7FEFF 		bl	__aeabi_uidivmod
 2130              	.LVL361:
 2131              		.loc 1 69 0
 2132 0238 301C     		mov	r0, r6
 2133              		.loc 1 68 0
 2134 023a 0D1C     		mov	r5, r1
 2135              	.LVL362:
 2136              		.loc 1 69 0
 2137 023c 0A21     		mov	r1, #10
 2138              	.LVL363:
 2139 023e FFF7FEFF 		bl	__aeabi_uidiv
 2140              	.LVL364:
 2141 0242 061C     		mov	r6, r0
 2142              	.LVL365:
 2143              		.loc 1 70 0
 2144 0244 002F     		cmp	r7, #0
 2145 0246 02D1     		bne	.L238
 2146              	.LVL366:
 2147 0248 002C     		cmp	r4, #0
 2148 024a 00DC     		bgt	.LCB2981
 2149 024c DEE0     		b	.L361	@long jump
 2150              	.LCB2981:
 2151              	.LVL367:
 2152              	.L238:
 2153              		.loc 1 71 0
 2154 024e 5B46     		mov	r3, fp
 2155 0250 5A1C     		add	r2, r3, #1
 2156              	.LVL368:
 2157 0252 5723     		mov	r3, #87
 2158 0254 092C     		cmp	r4, #9
 2159 0256 00DC     		bgt	.LCB2989
 2160 0258 DDE0     		b	.L277	@long jump
 2161              	.LCB2989:
ARM GAS  /tmp/cce3BzsE.s 			page 39


 2162              	.L241:
 2163 025a 1C19     		add	r4, r3, r4
 2164              	.LVL369:
 2165 025c 5B46     		mov	r3, fp
 2166              		.loc 1 72 0
 2167 025e 0137     		add	r7, r7, #1
 2168              	.LVL370:
 2169              		.loc 1 71 0
 2170 0260 1C70     		strb	r4, [r3]
 2171              	.LBE195:
 2172              		.loc 1 66 0
 2173 0262 002E     		cmp	r6, #0
 2174 0264 7CD0     		beq	.L362
 2175              	.LVL371:
 2176              	.L240:
 2177              	.LBB196:
 2178              		.loc 1 70 0
 2179 0266 9346     		mov	fp, r2
 2180 0268 DDE7     		b	.L237
 2181              	.LVL372:
 2182              	.L215:
 2183              	.LBE196:
 2184              	.LBE198:
 2185              	.LBE202:
 2186              	.LBE192:
 2187              	.LBE191:
 2188              		.loc 1 192 0
 2189 026a 131D     		add	r3, r2, #4
 2190 026c 9846     		mov	r8, r3
 2191              	.LVL373:
 2192 026e 1368     		ldr	r3, [r2]
 2193              	.LVL374:
 2194 0270 9946     		mov	r9, r3
 2195              	.LVL375:
 2196              	.LBB209:
 2197              	.LBB210:
 2198              		.loc 1 118 0
 2199 0272 5E1C     		add	r6, r3, #1
 2200              	.LVL376:
 2201 0274 1B78     		ldrb	r3, [r3]
 2202              	.LVL377:
 2203 0276 002B     		cmp	r3, #0
 2204 0278 00D1     		bne	.LCB3054
 2205 027a 47E1     		b	.L269	@long jump
 2206              	.LCB3054:
 2207 027c 002C     		cmp	r4, #0
 2208 027e 19D0     		beq	.L270
 2209 0280 321C     		mov	r2, r6
 2210 0282 02E0     		b	.L272
 2211              	.LVL378:
 2212              	.L363:
 2213 0284 0132     		add	r2, r2, #1
 2214              	.LVL379:
 2215 0286 002C     		cmp	r4, #0
 2216 0288 14D0     		beq	.L270
 2217              	.LVL380:
 2218              	.L272:
ARM GAS  /tmp/cce3BzsE.s 			page 40


 2219 028a 1178     		ldrb	r1, [r2]
 2220              		.loc 1 119 0
 2221 028c 013C     		sub	r4, r4, #1
 2222              	.LVL381:
 2223              		.loc 1 118 0
 2224 028e 0029     		cmp	r1, #0
 2225 0290 F8D1     		bne	.L363
 2226              		.loc 1 120 0
 2227 0292 621E     		sub	r2, r4, #1
 2228              	.LVL382:
 2229 0294 002C     		cmp	r4, #0
 2230 0296 0DD0     		beq	.L270
 2231              	.L284:
 2232              	.LBB211:
 2233              	.LBB212:
 2234              		.loc 1 221 0
 2235 0298 D443     		mvn	r4, r2
 2236 029a E417     		asr	r4, r4, #31
 2237 029c 1440     		and	r4, r2
 2238 029e 0134     		add	r4, r4, #1
 2239 02a0 281C     		mov	r0, r5
 2240 02a2 2021     		mov	r1, #32
 2241 02a4 221C     		mov	r2, r4
 2242              	.LVL383:
 2243 02a6 FFF7FEFF 		bl	memset
 2244              	.LVL384:
 2245 02aa 4B46     		mov	r3, r9
 2246 02ac 1B78     		ldrb	r3, [r3]
 2247 02ae 2D19     		add	r5, r5, r4
 2248              	.LVL385:
 2249              	.LBE212:
 2250              	.LBE211:
 2251              		.loc 1 122 0
 2252 02b0 002B     		cmp	r3, #0
 2253 02b2 08D0     		beq	.L307
 2254              	.LVL386:
 2255              	.L270:
 2256 02b4 321C     		mov	r2, r6
 2257              	.LVL387:
 2258              	.L274:
 2259              	.LBB213:
 2260              	.LBB214:
 2261              		.loc 1 221 0
 2262 02b6 0135     		add	r5, r5, #1
 2263              	.LVL388:
 2264 02b8 691E     		sub	r1, r5, #1
 2265 02ba 0132     		add	r2, r2, #1
 2266 02bc 0B70     		strb	r3, [r1]
 2267 02be 531E     		sub	r3, r2, #1
 2268              	.LVL389:
 2269              	.LBE214:
 2270              	.LBE213:
 2271              		.loc 1 122 0
 2272 02c0 1B78     		ldrb	r3, [r3]
 2273              	.LVL390:
 2274 02c2 002B     		cmp	r3, #0
 2275 02c4 F7D1     		bne	.L274
ARM GAS  /tmp/cce3BzsE.s 			page 41


 2276              	.LVL391:
 2277              	.L307:
 2278              	.LBE210:
 2279              	.LBE209:
 2280              		.loc 1 192 0
 2281 02c6 4246     		mov	r2, r8
 2282 02c8 A7E6     		b	.L199
 2283              	.LVL392:
 2284              	.L356:
 2285              		.loc 1 156 0
 2286 02ca 782B     		cmp	r3, #120
 2287 02cc 00D0     		beq	.LCB3184
 2288 02ce A4E6     		b	.L199	@long jump
 2289              	.LCB3184:
 2290              	.L213:
 2291              		.loc 1 185 0
 2292 02d0 131D     		add	r3, r2, #4
 2293 02d2 0393     		str	r3, [sp, #12]
 2294              	.LVL393:
 2295 02d4 1368     		ldr	r3, [r2]
 2296              	.LVL394:
 2297              	.LBB216:
 2298              	.LBB217:
 2299              		.loc 1 64 0
 2300 02d6 0126     		mov	r6, #1
 2301              	.LBE217:
 2302              	.LBE216:
 2303              		.loc 1 185 0
 2304 02d8 9846     		mov	r8, r3
 2305              	.LVL395:
 2306              	.LBB230:
 2307              	.LBB224:
 2308              		.loc 1 64 0
 2309 02da 0F2B     		cmp	r3, #15
 2310 02dc 0FD9     		bls	.L248
 2311 02de 231C     		mov	r3, r4
 2312              	.LVL396:
 2313 02e0 4446     		mov	r4, r8
 2314              	.LVL397:
 2315 02e2 9846     		mov	r8, r3
 2316              	.LVL398:
 2317              	.L249:
 2318              		.loc 1 65 0
 2319 02e4 3601     		lsl	r6, r6, #4
 2320              	.LVL399:
 2321              		.loc 1 64 0
 2322 02e6 201C     		mov	r0, r4
 2323 02e8 311C     		mov	r1, r6
 2324 02ea FFF7FEFF 		bl	__aeabi_uidiv
 2325              	.LVL400:
 2326 02ee 0F28     		cmp	r0, #15
 2327 02f0 F8D8     		bhi	.L249
 2328 02f2 4346     		mov	r3, r8
 2329 02f4 A046     		mov	r8, r4
 2330              	.LVL401:
 2331 02f6 1C1C     		mov	r4, r3
 2332              	.LVL402:
ARM GAS  /tmp/cce3BzsE.s 			page 42


 2333              		.loc 1 66 0
 2334 02f8 002E     		cmp	r6, #0
 2335 02fa 00D1     		bne	.LCB3245
 2336 02fc EDE0     		b	.L352	@long jump
 2337              	.LCB3245:
 2338              	.LVL403:
 2339              	.L248:
 2340 02fe 4B46     		mov	r3, r9
 2341 0300 582B     		cmp	r3, #88
 2342 0302 50D0     		beq	.L364
 2343              		.loc 1 63 0
 2344 0304 05AB     		add	r3, sp, #20
 2345              	.LVL404:
 2346 0306 0293     		str	r3, [sp, #8]
 2347 0308 9A46     		mov	r10, r3
 2348 030a 0023     		mov	r3, #0
 2349              	.LVL405:
 2350 030c 1197     		str	r7, [sp, #68]
 2351 030e 1F1C     		mov	r7, r3
 2352              	.LVL406:
 2353 0310 119B     		ldr	r3, [sp, #68]
 2354 0312 A946     		mov	r9, r5
 2355              	.LVL407:
 2356 0314 9B46     		mov	fp, r3
 2357 0316 4546     		mov	r5, r8
 2358              	.LVL408:
 2359 0318 A046     		mov	r8, r4
 2360              	.LVL409:
 2361              	.L258:
 2362              	.LBB218:
 2363              		.loc 1 67 0
 2364 031a 311C     		mov	r1, r6
 2365 031c 281C     		mov	r0, r5
 2366 031e FFF7FEFF 		bl	__aeabi_uidiv
 2367              	.LVL410:
 2368              		.loc 1 68 0
 2369 0322 311C     		mov	r1, r6
 2370              		.loc 1 67 0
 2371 0324 041C     		mov	r4, r0
 2372              	.LVL411:
 2373              		.loc 1 68 0
 2374 0326 281C     		mov	r0, r5
 2375              	.LVL412:
 2376 0328 FFF7FEFF 		bl	__aeabi_uidivmod
 2377              	.LVL413:
 2378              		.loc 1 69 0
 2379 032c 3609     		lsr	r6, r6, #4
 2380              		.loc 1 68 0
 2381 032e 0D1C     		mov	r5, r1
 2382              		.loc 1 70 0
 2383 0330 002F     		cmp	r7, #0
 2384 0332 02D1     		bne	.L257
 2385              	.LVL414:
 2386 0334 002C     		cmp	r4, #0
 2387 0336 00DC     		bgt	.LCB3314
 2388 0338 9AE0     		b	.L365	@long jump
 2389              	.LCB3314:
ARM GAS  /tmp/cce3BzsE.s 			page 43


 2390              	.LVL415:
 2391              	.L257:
 2392              		.loc 1 71 0
 2393 033a 5346     		mov	r3, r10
 2394 033c 3022     		mov	r2, #48
 2395 033e 0133     		add	r3, r3, #1
 2396              	.LVL416:
 2397 0340 092C     		cmp	r4, #9
 2398 0342 00DD     		ble	.L254
 2399 0344 5722     		mov	r2, #87
 2400              	.L254:
 2401 0346 1419     		add	r4, r2, r4
 2402              	.LVL417:
 2403 0348 5246     		mov	r2, r10
 2404              		.loc 1 72 0
 2405 034a 0137     		add	r7, r7, #1
 2406              	.LVL418:
 2407              		.loc 1 71 0
 2408 034c 1470     		strb	r4, [r2]
 2409              	.LBE218:
 2410              		.loc 1 66 0
 2411 034e 002E     		cmp	r6, #0
 2412 0350 00D1     		bne	.LCB3337
 2413 0352 C5E0     		b	.L344	@long jump
 2414              	.LCB3337:
 2415              		.loc 1 63 0
 2416 0354 9A46     		mov	r10, r3
 2417 0356 E0E7     		b	.L258
 2418              	.LVL419:
 2419              	.L212:
 2420              	.LBE224:
 2421              	.LBE230:
 2422              	.LBB231:
 2423              	.LBB232:
 2424              		.loc 1 221 0
 2425 0358 4B46     		mov	r3, r9
 2426 035a 2B70     		strb	r3, [r5]
 2427 035c 0135     		add	r5, r5, #1
 2428              	.LVL420:
 2429 035e 5CE6     		b	.L199
 2430              	.LVL421:
 2431              	.L362:
 2432 0360 4446     		mov	r4, r8
 2433 0362 4D46     		mov	r5, r9
 2434              	.LVL422:
 2435 0364 5746     		mov	r7, r10
 2436              	.LVL423:
 2437              	.L236:
 2438              	.LBE232:
 2439              	.LBE231:
 2440              	.LBB233:
 2441              	.LBB206:
 2442              	.LBB203:
 2443              	.LBB199:
 2444              		.loc 1 75 0
 2445 0366 0023     		mov	r3, #0
 2446 0368 1370     		strb	r3, [r2]
ARM GAS  /tmp/cce3BzsE.s 			page 44


 2447              	.LVL424:
 2448              	.LBE199:
 2449              	.LBE203:
 2450              	.LBE206:
 2451              	.LBE233:
 2452              	.LBB234:
 2453              	.LBB235:
 2454              		.loc 1 115 0
 2455 036a 019B     		ldr	r3, [sp, #4]
 2456 036c 3021     		mov	r1, #48
 2457 036e 002B     		cmp	r3, #0
 2458 0370 00D1     		bne	.L242
 2459 0372 2021     		mov	r1, #32
 2460              	.L242:
 2461              	.LVL425:
 2462              		.loc 1 118 0
 2463 0374 029B     		ldr	r3, [sp, #8]
 2464 0376 1E78     		ldrb	r6, [r3]
 2465              	.LVL426:
 2466 0378 002E     		cmp	r6, #0
 2467 037a 06D1     		bne	.L343
 2468 037c B4E0     		b	.L264
 2469              	.LVL427:
 2470              	.L246:
 2471 037e 5A78     		ldrb	r2, [r3, #1]
 2472              		.loc 1 119 0
 2473 0380 013C     		sub	r4, r4, #1
 2474              	.LVL428:
 2475              		.loc 1 118 0
 2476 0382 002A     		cmp	r2, #0
 2477 0384 00D1     		bne	.LCB3459
 2478 0386 85E0     		b	.L245	@long jump
 2479              	.LCB3459:
 2480 0388 0133     		add	r3, r3, #1
 2481              	.LVL429:
 2482              	.L343:
 2483 038a 002C     		cmp	r4, #0
 2484 038c F7D1     		bne	.L246
 2485              	.LVL430:
 2486              	.L244:
 2487 038e 04AB     		add	r3, sp, #16
 2488 0390 0533     		add	r3, r3, #5
 2489              	.LVL431:
 2490              	.L247:
 2491              	.LBB236:
 2492              	.LBB237:
 2493              		.loc 1 221 0
 2494 0392 0135     		add	r5, r5, #1
 2495              	.LVL432:
 2496 0394 6A1E     		sub	r2, r5, #1
 2497 0396 0133     		add	r3, r3, #1
 2498 0398 1670     		strb	r6, [r2]
 2499 039a 5A1E     		sub	r2, r3, #1
 2500              	.LVL433:
 2501              	.LBE237:
 2502              	.LBE236:
 2503              		.loc 1 122 0
ARM GAS  /tmp/cce3BzsE.s 			page 45


 2504 039c 1678     		ldrb	r6, [r2]
 2505              	.LVL434:
 2506 039e 002E     		cmp	r6, #0
 2507 03a0 F7D1     		bne	.L247
 2508              	.LVL435:
 2509              	.LBE235:
 2510              	.LBE234:
 2511              		.loc 1 185 0
 2512 03a2 039A     		ldr	r2, [sp, #12]
 2513              	.LVL436:
 2514 03a4 39E6     		b	.L199
 2515              	.LVL437:
 2516              	.L364:
 2517              	.LBB241:
 2518              	.LBB225:
 2519              	.LBB219:
 2520              		.loc 1 70 0
 2521 03a6 05AB     		add	r3, sp, #20
 2522              	.LVL438:
 2523 03a8 0293     		str	r3, [sp, #8]
 2524 03aa 9A46     		mov	r10, r3
 2525 03ac 0023     		mov	r3, #0
 2526              	.LVL439:
 2527 03ae 1197     		str	r7, [sp, #68]
 2528 03b0 1F1C     		mov	r7, r3
 2529              	.LVL440:
 2530 03b2 119B     		ldr	r3, [sp, #68]
 2531 03b4 A946     		mov	r9, r5
 2532              	.LVL441:
 2533 03b6 9B46     		mov	fp, r3
 2534 03b8 4546     		mov	r5, r8
 2535              	.LVL442:
 2536 03ba A046     		mov	r8, r4
 2537              	.LVL443:
 2538              	.L252:
 2539              		.loc 1 67 0
 2540 03bc 311C     		mov	r1, r6
 2541 03be 281C     		mov	r0, r5
 2542 03c0 FFF7FEFF 		bl	__aeabi_uidiv
 2543              	.LVL444:
 2544              		.loc 1 68 0
 2545 03c4 311C     		mov	r1, r6
 2546              		.loc 1 67 0
 2547 03c6 041C     		mov	r4, r0
 2548              	.LVL445:
 2549              		.loc 1 68 0
 2550 03c8 281C     		mov	r0, r5
 2551              	.LVL446:
 2552 03ca FFF7FEFF 		bl	__aeabi_uidivmod
 2553              	.LVL447:
 2554              		.loc 1 69 0
 2555 03ce 3609     		lsr	r6, r6, #4
 2556              		.loc 1 68 0
 2557 03d0 0D1C     		mov	r5, r1
 2558              		.loc 1 70 0
 2559 03d2 002F     		cmp	r7, #0
 2560 03d4 01D1     		bne	.L259
ARM GAS  /tmp/cce3BzsE.s 			page 46


 2561              	.LVL448:
 2562 03d6 002C     		cmp	r4, #0
 2563 03d8 1FDD     		ble	.L366
 2564              	.LVL449:
 2565              	.L259:
 2566              		.loc 1 71 0
 2567 03da 5346     		mov	r3, r10
 2568 03dc 3022     		mov	r2, #48
 2569 03de 0133     		add	r3, r3, #1
 2570              	.LVL450:
 2571 03e0 092C     		cmp	r4, #9
 2572 03e2 00DD     		ble	.L262
 2573 03e4 3722     		mov	r2, #55
 2574              	.L262:
 2575 03e6 1419     		add	r4, r2, r4
 2576              	.LVL451:
 2577 03e8 5246     		mov	r2, r10
 2578              		.loc 1 72 0
 2579 03ea 0137     		add	r7, r7, #1
 2580              	.LVL452:
 2581              		.loc 1 71 0
 2582 03ec 1470     		strb	r4, [r2]
 2583              	.LBE219:
 2584              		.loc 1 66 0
 2585 03ee 002E     		cmp	r6, #0
 2586 03f0 76D0     		beq	.L344
 2587              	.LBB220:
 2588              		.loc 1 70 0
 2589 03f2 9A46     		mov	r10, r3
 2590 03f4 E2E7     		b	.L252
 2591              	.LVL453:
 2592              	.L360:
 2593              	.LBE220:
 2594              	.LBE225:
 2595              	.LBE241:
 2596              	.LBB242:
 2597              	.LBB207:
 2598              		.loc 1 81 0
 2599 03f6 5B42     		neg	r3, r3
 2600 03f8 9846     		mov	r8, r3
 2601              	.LVL454:
 2602              		.loc 1 82 0
 2603 03fa 05AB     		add	r3, sp, #20
 2604 03fc 1A1C     		mov	r2, r3
 2605 03fe 0293     		str	r3, [sp, #8]
 2606 0400 2D23     		mov	r3, #45
 2607 0402 1370     		strb	r3, [r2]
 2608 0404 04AB     		add	r3, sp, #16
 2609 0406 0533     		add	r3, r3, #5
 2610 0408 9B46     		mov	fp, r3
 2611 040a EEE6     		b	.L233
 2612              	.LVL455:
 2613              	.L361:
 2614              	.LBB204:
 2615              	.LBB200:
 2616              	.LBB197:
 2617              		.loc 1 70 0
ARM GAS  /tmp/cce3BzsE.s 			page 47


 2618 040c 5A46     		mov	r2, fp
 2619 040e 0028     		cmp	r0, #0
 2620 0410 00D0     		beq	.LCB3688
 2621 0412 28E7     		b	.L240	@long jump
 2622              	.LCB3688:
 2623              	.LVL456:
 2624              		.loc 1 71 0
 2625 0414 0132     		add	r2, r2, #1
 2626              	.LVL457:
 2627              	.L277:
 2628 0416 3023     		mov	r3, #48
 2629 0418 1FE7     		b	.L241
 2630              	.LVL458:
 2631              	.L366:
 2632              	.LBE197:
 2633              	.LBE200:
 2634              	.LBE204:
 2635              	.LBE207:
 2636              	.LBE242:
 2637              	.LBB243:
 2638              	.LBB226:
 2639              	.LBB221:
 2640              		.loc 1 70 0
 2641 041a 002E     		cmp	r6, #0
 2642 041c 56D1     		bne	.L367
 2643              	.L260:
 2644 041e 4D46     		mov	r5, r9
 2645 0420 A146     		mov	r9, r4
 2646              	.LVL459:
 2647              		.loc 1 71 0
 2648 0422 4A46     		mov	r2, r9
 2649 0424 5346     		mov	r3, r10
 2650 0426 5146     		mov	r1, r10
 2651 0428 5F46     		mov	r7, fp
 2652 042a 4446     		mov	r4, r8
 2653              	.LVL460:
 2654 042c 3032     		add	r2, r2, #48
 2655              	.LVL461:
 2656 042e 0133     		add	r3, r3, #1
 2657              	.LVL462:
 2658 0430 0A70     		strb	r2, [r1]
 2659              	.LVL463:
 2660              	.L250:
 2661              	.LBE221:
 2662              		.loc 1 75 0
 2663 0432 0022     		mov	r2, #0
 2664 0434 1A70     		strb	r2, [r3]
 2665              	.LVL464:
 2666              	.LBE226:
 2667              	.LBE243:
 2668              	.LBB244:
 2669              	.LBB245:
 2670              		.loc 1 115 0
 2671 0436 019B     		ldr	r3, [sp, #4]
 2672              	.LVL465:
 2673 0438 3021     		mov	r1, #48
 2674 043a 002B     		cmp	r3, #0
ARM GAS  /tmp/cce3BzsE.s 			page 48


 2675 043c 00D1     		bne	.L263
 2676 043e 2021     		mov	r1, #32
 2677              	.L263:
 2678              	.LVL466:
 2679              		.loc 1 118 0
 2680 0440 029B     		ldr	r3, [sp, #8]
 2681 0442 1E78     		ldrb	r6, [r3]
 2682 0444 002E     		cmp	r6, #0
 2683 0446 05D1     		bne	.L345
 2684 0448 4EE0     		b	.L264
 2685              	.LVL467:
 2686              	.L267:
 2687 044a 5A78     		ldrb	r2, [r3, #1]
 2688              		.loc 1 119 0
 2689 044c 013C     		sub	r4, r4, #1
 2690              	.LVL468:
 2691              		.loc 1 118 0
 2692 044e 002A     		cmp	r2, #0
 2693 0450 13D0     		beq	.L266
 2694 0452 0133     		add	r3, r3, #1
 2695              	.LVL469:
 2696              	.L345:
 2697 0454 002C     		cmp	r4, #0
 2698 0456 F8D1     		bne	.L267
 2699              	.LVL470:
 2700              	.L265:
 2701 0458 04AB     		add	r3, sp, #16
 2702 045a 0533     		add	r3, r3, #5
 2703              	.LVL471:
 2704              	.L268:
 2705              	.LBB246:
 2706              	.LBB247:
 2707              		.loc 1 221 0
 2708 045c 0135     		add	r5, r5, #1
 2709              	.LVL472:
 2710 045e 6A1E     		sub	r2, r5, #1
 2711 0460 0133     		add	r3, r3, #1
 2712 0462 1670     		strb	r6, [r2]
 2713 0464 5A1E     		sub	r2, r3, #1
 2714              	.LVL473:
 2715              	.LBE247:
 2716              	.LBE246:
 2717              		.loc 1 122 0
 2718 0466 1678     		ldrb	r6, [r2]
 2719              	.LVL474:
 2720 0468 002E     		cmp	r6, #0
 2721 046a F7D1     		bne	.L268
 2722              	.LBE245:
 2723              	.LBE244:
 2724              		.loc 1 185 0
 2725 046c 039A     		ldr	r2, [sp, #12]
 2726 046e D4E5     		b	.L199
 2727              	.LVL475:
 2728              	.L365:
 2729              	.LBB254:
 2730              	.LBB227:
 2731              	.LBB222:
ARM GAS  /tmp/cce3BzsE.s 			page 49


 2732              		.loc 1 70 0
 2733 0470 002E     		cmp	r6, #0
 2734 0472 D4D0     		beq	.L260
 2735 0474 5346     		mov	r3, r10
 2736              	.LBE222:
 2737              		.loc 1 63 0
 2738 0476 9A46     		mov	r10, r3
 2739              	.LVL476:
 2740 0478 4FE7     		b	.L258
 2741              	.LVL477:
 2742              	.L266:
 2743              	.LBE227:
 2744              	.LBE254:
 2745              	.LBB255:
 2746              	.LBB252:
 2747              		.loc 1 120 0
 2748 047a 631E     		sub	r3, r4, #1
 2749              	.LVL478:
 2750 047c 002C     		cmp	r4, #0
 2751 047e EBD0     		beq	.L265
 2752              	.LBB248:
 2753              	.LBB249:
 2754              		.loc 1 221 0
 2755 0480 DC43     		mvn	r4, r3
 2756 0482 E417     		asr	r4, r4, #31
 2757 0484 1C40     		and	r4, r3
 2758 0486 0134     		add	r4, r4, #1
 2759 0488 281C     		mov	r0, r5
 2760 048a 221C     		mov	r2, r4
 2761 048c FFF7FEFF 		bl	memset
 2762              	.LVL479:
 2763 0490 2D19     		add	r5, r5, r4
 2764              	.LVL480:
 2765 0492 E1E7     		b	.L265
 2766              	.LVL481:
 2767              	.L245:
 2768              	.LBE249:
 2769              	.LBE248:
 2770              	.LBE252:
 2771              	.LBE255:
 2772              	.LBB256:
 2773              	.LBB240:
 2774              		.loc 1 120 0
 2775 0494 631E     		sub	r3, r4, #1
 2776              	.LVL482:
 2777 0496 002C     		cmp	r4, #0
 2778 0498 00D1     		bne	.LCB3994
 2779 049a 78E7     		b	.L244	@long jump
 2780              	.LCB3994:
 2781              	.LBB238:
 2782              	.LBB239:
 2783              		.loc 1 221 0
 2784 049c DC43     		mvn	r4, r3
 2785 049e E417     		asr	r4, r4, #31
 2786 04a0 1C40     		and	r4, r3
 2787 04a2 0134     		add	r4, r4, #1
 2788 04a4 281C     		mov	r0, r5
ARM GAS  /tmp/cce3BzsE.s 			page 50


 2789 04a6 221C     		mov	r2, r4
 2790 04a8 FFF7FEFF 		bl	memset
 2791              	.LVL483:
 2792 04ac 2D19     		add	r5, r5, r4
 2793              	.LVL484:
 2794 04ae 6EE7     		b	.L244
 2795              	.LVL485:
 2796              	.L230:
 2797              	.LBE239:
 2798              	.LBE238:
 2799              	.LBE240:
 2800              	.LBE256:
 2801              	.LBB257:
 2802              	.LBB184:
 2803              		.loc 1 120 0
 2804 04b0 631E     		sub	r3, r4, #1
 2805              	.LVL486:
 2806 04b2 002C     		cmp	r4, #0
 2807 04b4 00D1     		bne	.LCB4056
 2808 04b6 4BE6     		b	.L229	@long jump
 2809              	.LCB4056:
 2810              	.LBB182:
 2811              	.LBB183:
 2812              		.loc 1 221 0
 2813 04b8 DC43     		mvn	r4, r3
 2814 04ba E417     		asr	r4, r4, #31
 2815 04bc 1C40     		and	r4, r3
 2816 04be 0134     		add	r4, r4, #1
 2817 04c0 281C     		mov	r0, r5
 2818 04c2 221C     		mov	r2, r4
 2819 04c4 FFF7FEFF 		bl	memset
 2820              	.LVL487:
 2821 04c8 2D19     		add	r5, r5, r4
 2822              	.LVL488:
 2823 04ca 41E6     		b	.L229
 2824              	.LVL489:
 2825              	.L367:
 2826              	.LBE183:
 2827              	.LBE182:
 2828              	.LBE184:
 2829              	.LBE257:
 2830              	.LBB258:
 2831              	.LBB228:
 2832              	.LBB223:
 2833              		.loc 1 70 0
 2834 04cc 5346     		mov	r3, r10
 2835 04ce 9A46     		mov	r10, r3
 2836              	.LVL490:
 2837 04d0 74E7     		b	.L252
 2838              	.LVL491:
 2839              	.L348:
 2840              	.LBE223:
 2841              	.LBE228:
 2842              	.LBE258:
 2843              	.LBB259:
 2844              	.LBB176:
 2845              		.loc 1 66 0
ARM GAS  /tmp/cce3BzsE.s 			page 51


 2846 04d2 05AB     		add	r3, sp, #20
 2847              	.LVL492:
 2848 04d4 0293     		str	r3, [sp, #8]
 2849 04d6 1A1C     		mov	r2, r3
 2850 04d8 26E6     		b	.L221
 2851              	.LVL493:
 2852              	.L352:
 2853              	.LBE176:
 2854              	.LBE259:
 2855              	.LBB260:
 2856              	.LBB229:
 2857 04da 05AB     		add	r3, sp, #20
 2858              	.LVL494:
 2859 04dc 0293     		str	r3, [sp, #8]
 2860 04de A8E7     		b	.L250
 2861              	.LVL495:
 2862              	.L344:
 2863 04e0 4446     		mov	r4, r8
 2864 04e2 4D46     		mov	r5, r9
 2865 04e4 5F46     		mov	r7, fp
 2866              	.LVL496:
 2867 04e6 A4E7     		b	.L250
 2868              	.LVL497:
 2869              	.L264:
 2870              	.LBE229:
 2871              	.LBE260:
 2872              	.LBB261:
 2873              	.LBB253:
 2874              		.loc 1 120 0
 2875 04e8 621E     		sub	r2, r4, #1
 2876              	.LVL498:
 2877 04ea 002C     		cmp	r4, #0
 2878 04ec 00D1     		bne	.LCB4214
 2879 04ee 39E6     		b	.L346	@long jump
 2880              	.LCB4214:
 2881              	.LBB251:
 2882              	.LBB250:
 2883              		.loc 1 221 0
 2884 04f0 D343     		mvn	r3, r2
 2885 04f2 DB17     		asr	r3, r3, #31
 2886 04f4 1A40     		and	r2, r3
 2887              	.LVL499:
 2888 04f6 141C     		mov	r4, r2
 2889              	.LVL500:
 2890 04f8 0134     		add	r4, r4, #1
 2891 04fa 281C     		mov	r0, r5
 2892 04fc 221C     		mov	r2, r4
 2893 04fe FFF7FEFF 		bl	memset
 2894              	.LVL501:
 2895 0502 2D19     		add	r5, r5, r4
 2896              	.LVL502:
 2897              	.LBE250:
 2898              	.LBE251:
 2899              	.LBE253:
 2900              	.LBE261:
 2901              		.loc 1 185 0
 2902 0504 039A     		ldr	r2, [sp, #12]
ARM GAS  /tmp/cce3BzsE.s 			page 52


 2903 0506 88E5     		b	.L199
 2904              	.LVL503:
 2905              	.L350:
 2906              	.LBB262:
 2907              	.LBB208:
 2908              	.LBB205:
 2909              	.LBB201:
 2910              		.loc 1 66 0
 2911 0508 5A46     		mov	r2, fp
 2912 050a 2CE7     		b	.L236
 2913              	.LVL504:
 2914              	.L269:
 2915              	.LBE201:
 2916              	.LBE205:
 2917              	.LBE208:
 2918              	.LBE262:
 2919              	.LBB263:
 2920              	.LBB215:
 2921              		.loc 1 120 0
 2922 050c 621E     		sub	r2, r4, #1
 2923              	.LVL505:
 2924 050e 002C     		cmp	r4, #0
 2925 0510 00D0     		beq	.LCB4300
 2926 0512 C1E6     		b	.L284	@long jump
 2927              	.LCB4300:
 2928              	.LBE215:
 2929              	.LBE263:
 2930              		.loc 1 192 0
 2931 0514 4246     		mov	r2, r8
 2932              	.LVL506:
 2933 0516 80E5     		b	.L199
 2934              	.LBE170:
 2935              	.LBE264:
 2936              	.LBE267:
 2937              		.cfi_endproc
 2938              	.LFE55:
 2939              		.size	tfp_sprintf, .-tfp_sprintf
 2940 0518 C046C046 		.section	.bss.stdout_putf,"aw",%nobits
 2940      C046C046 
 2941              		.align	2
 2942              	.LANCHOR0 = . + 0
 2943              		.type	stdout_putf, %object
 2944              		.size	stdout_putf, 4
 2945              	stdout_putf:
 2946 0000 00000000 		.space	4
 2947              		.section	.bss.stdout_putp,"aw",%nobits
 2948              		.align	2
 2949              	.LANCHOR1 = . + 0
 2950              		.type	stdout_putp, %object
 2951              		.size	stdout_putp, 4
 2952              	stdout_putp:
 2953 0000 00000000 		.space	4
 2954              		.text
 2955              	.Letext0:
 2956              		.file 2 "/usr/lib/gcc/arm-linux-gnueabihf/4.9/include/stdarg.h"
 2957              		.file 3 "<built-in>"
 9781              		.section	.note.GNU-stack,"",%progbits
ARM GAS  /tmp/cce3BzsE.s 			page 175

