ARM GAS  /tmp/cce3BzsE.s 			page 1


   1              		.cpu cortex-m0
   2              		.fpu softvfp
   3              		.eabi_attribute 20, 1
   4              		.eabi_attribute 21, 1
   5              		.eabi_attribute 23, 3
   6              		.eabi_attribute 24, 1
   7              		.eabi_attribute 25, 1
   8              		.eabi_attribute 26, 2
   9              		.eabi_attribute 30, 2
  10              		.eabi_attribute 34, 0
  11              		.eabi_attribute 18, 4
  12              		.code	16
  13              		.file	"printf.c"
  14              		.text
  15              	.Ltext0:
  16              		.cfi_sections	.debug_frame
  17              		.global	__aeabi_uidiv
  18              		.global	__aeabi_uidivmod
  19              		.section	.text.tfp_format,"ax",%progbits
  20              		.align	2
  21              		.p2align 4,,15
  22              		.global	tfp_format
  23              		.code	16
  24              		.thumb_func
  25              		.type	tfp_format, %function
  26              	tfp_format:
  27              	.LFB51:
  28              		.file 1 "printf.c"
  29              		.loc 1 127 0
  30              		.cfi_startproc
  31              	.LVL0:
  32 0000 F0B5     		push	{r4, r5, r6, r7, lr}
  33              		.cfi_def_cfa_offset 20
  34              		.cfi_offset 4, -20
  35              		.cfi_offset 5, -16
  36              		.cfi_offset 6, -12
  37              		.cfi_offset 7, -8
  38              		.cfi_offset 14, -4
  39 0002 5F46     		mov	r7, fp
  40 0004 5646     		mov	r6, r10
  41 0006 4D46     		mov	r5, r9
  42 0008 4446     		mov	r4, r8
  43 000a 9346     		mov	fp, r2
  44 000c F0B4     		push	{r4, r5, r6, r7}
  45              		.cfi_def_cfa_offset 36
  46              		.cfi_offset 8, -36
  47              		.cfi_offset 9, -32
  48              		.cfi_offset 10, -28
  49              		.cfi_offset 11, -24
  50 000e 1D1C     		mov	r5, r3
  51 0010 061C     		mov	r6, r0
  52 0012 0F1C     		mov	r7, r1
  53 0014 8BB0     		sub	sp, sp, #44
  54              		.cfi_def_cfa_offset 80
  55              	.LVL1:
  56              	.L2:
  57              		.loc 1 133 0
ARM GAS  /tmp/cce3BzsE.s 			page 2


  58 0016 5B46     		mov	r3, fp
  59              	.LVL2:
  60 0018 1978     		ldrb	r1, [r3]
  61              	.LVL3:
  62 001a 0029     		cmp	r1, #0
  63 001c 0AD0     		beq	.L1
  64              	.LVL4:
  65              	.L87:
  66              		.loc 1 134 0
  67 001e 2529     		cmp	r1, #37
  68 0020 0FD0     		beq	.L3
  69              		.loc 1 133 0
  70 0022 0123     		mov	r3, #1
  71 0024 9C46     		mov	ip, r3
  72              		.loc 1 135 0
  73 0026 301C     		mov	r0, r6
  74              		.loc 1 133 0
  75 0028 E344     		add	fp, fp, ip
  76              		.loc 1 135 0
  77 002a B847     		blx	r7
  78              	.LVL5:
  79              		.loc 1 133 0
  80 002c 5B46     		mov	r3, fp
  81 002e 1978     		ldrb	r1, [r3]
  82              	.LVL6:
  83 0030 0029     		cmp	r1, #0
  84 0032 F4D1     		bne	.L87
  85              	.LVL7:
  86              	.L1:
  87              		.loc 1 202 0
  88 0034 0BB0     		add	sp, sp, #44
  89              		@ sp needed
  90              	.LVL8:
  91              	.LVL9:
  92 0036 3CBC     		pop	{r2, r3, r4, r5}
  93 0038 9046     		mov	r8, r2
  94 003a 9946     		mov	r9, r3
  95 003c A246     		mov	r10, r4
  96 003e AB46     		mov	fp, r5
  97 0040 F0BD     		pop	{r4, r5, r6, r7, pc}
  98              	.LVL10:
  99              	.L3:
 100              	.LBB34:
 101              		.loc 1 142 0
 102 0042 5B46     		mov	r3, fp
 103 0044 5B78     		ldrb	r3, [r3, #1]
 104 0046 9946     		mov	r9, r3
 105              	.LVL11:
 106              		.loc 1 143 0
 107 0048 302B     		cmp	r3, #48
 108 004a 00D1     		bne	.LCB97
 109 004c C0E0     		b	.L5	@long jump
 110              	.LCB97:
 111              		.loc 1 142 0
 112 004e 0223     		mov	r3, #2
 113              	.LVL12:
 114 0050 9C46     		mov	ip, r3
ARM GAS  /tmp/cce3BzsE.s 			page 3


 115              		.loc 1 137 0
 116 0052 0023     		mov	r3, #0
 117              		.loc 1 142 0
 118 0054 E344     		add	fp, fp, ip
 119              	.LVL13:
 120              		.loc 1 137 0
 121 0056 0193     		str	r3, [sp, #4]
 122              	.LVL14:
 123              	.L6:
 124              		.loc 1 147 0
 125 0058 4B46     		mov	r3, r9
 126 005a 303B     		sub	r3, r3, #48
 127 005c DAB2     		uxtb	r2, r3
 128              		.loc 1 141 0
 129 005e 0024     		mov	r4, #0
 130              		.loc 1 147 0
 131 0060 092A     		cmp	r2, #9
 132 0062 00D8     		bhi	.LCB118
 133 0064 8CE0     		b	.L174	@long jump
 134              	.LCB118:
 135              	.LVL15:
 136              		.loc 1 156 0
 137 0066 4B46     		mov	r3, r9
 138 0068 632B     		cmp	r3, #99
 139 006a 00D1     		bne	.LCB124
 140 006c 9EE0     		b	.L13	@long jump
 141              	.LCB124:
 142              	.L181:
 143 006e 632B     		cmp	r3, #99
 144 0070 7CD9     		bls	.L175
 145 0072 4B46     		mov	r3, r9
 146 0074 732B     		cmp	r3, #115
 147 0076 00D1     		bne	.LCB133
 148 0078 02E1     		b	.L18	@long jump
 149              	.LCB133:
 150 007a 00D8     		bhi	.LCB135
 151 007c B1E0     		b	.L176	@long jump
 152              	.LCB135:
 153 007e 4B46     		mov	r3, r9
 154 0080 752B     		cmp	r3, #117
 155 0082 00D0     		beq	.LCB138
 156 0084 2BE1     		b	.L177	@long jump
 157              	.LCB138:
 158              		.loc 1 165 0
 159 0086 2B1D     		add	r3, r5, #4
 160 0088 0393     		str	r3, [sp, #12]
 161 008a 2B68     		ldr	r3, [r5]
 162              	.LBB35:
 163              	.LBB36:
 164              		.loc 1 64 0
 165 008c 0125     		mov	r5, #1
 166              	.LBE36:
 167              	.LBE35:
 168              		.loc 1 165 0
 169 008e 9946     		mov	r9, r3
 170              	.LVL16:
 171              	.LBB41:
ARM GAS  /tmp/cce3BzsE.s 			page 4


 172              	.LBB39:
 173              		.loc 1 64 0
 174 0090 092B     		cmp	r3, #9
 175 0092 0FD9     		bls	.L22
 176 0094 A046     		mov	r8, r4
 177 0096 1C1C     		mov	r4, r3
 178              	.LVL17:
 179              	.L23:
 180              		.loc 1 65 0
 181 0098 AB00     		lsl	r3, r5, #2
 182 009a 5D19     		add	r5, r3, r5
 183              	.LVL18:
 184 009c 6D00     		lsl	r5, r5, #1
 185              	.LVL19:
 186              		.loc 1 64 0
 187 009e 201C     		mov	r0, r4
 188 00a0 291C     		mov	r1, r5
 189 00a2 FFF7FEFF 		bl	__aeabi_uidiv
 190              	.LVL20:
 191 00a6 0928     		cmp	r0, #9
 192 00a8 F6D8     		bhi	.L23
 193 00aa A146     		mov	r9, r4
 194 00ac 4446     		mov	r4, r8
 195              	.LVL21:
 196              		.loc 1 66 0
 197 00ae 002D     		cmp	r5, #0
 198 00b0 00D1     		bne	.LCB187
 199 00b2 32E2     		b	.L166	@long jump
 200              	.LCB187:
 201              	.LVL22:
 202              	.L22:
 203              	.LBB37:
 204              		.loc 1 70 0
 205 00b4 0022     		mov	r2, #0
 206 00b6 07AB     		add	r3, sp, #28
 207              	.LVL23:
 208 00b8 9246     		mov	r10, r2
 209 00ba 0293     		str	r3, [sp, #8]
 210 00bc 321C     		mov	r2, r6
 211 00be 9846     		mov	r8, r3
 212 00c0 3B1C     		mov	r3, r7
 213              	.LVL24:
 214 00c2 4E46     		mov	r6, r9
 215              	.LVL25:
 216 00c4 5746     		mov	r7, r10
 217              	.LVL26:
 218 00c6 9146     		mov	r9, r2
 219              	.LVL27:
 220 00c8 9A46     		mov	r10, r3
 221 00ca 0494     		str	r4, [sp, #16]
 222              	.LVL28:
 223              	.L25:
 224              		.loc 1 67 0
 225 00cc 291C     		mov	r1, r5
 226 00ce 301C     		mov	r0, r6
 227 00d0 FFF7FEFF 		bl	__aeabi_uidiv
 228              	.LVL29:
ARM GAS  /tmp/cce3BzsE.s 			page 5


 229              		.loc 1 68 0
 230 00d4 291C     		mov	r1, r5
 231              		.loc 1 67 0
 232 00d6 041C     		mov	r4, r0
 233              	.LVL30:
 234              		.loc 1 68 0
 235 00d8 301C     		mov	r0, r6
 236              	.LVL31:
 237 00da FFF7FEFF 		bl	__aeabi_uidivmod
 238              	.LVL32:
 239              		.loc 1 69 0
 240 00de 281C     		mov	r0, r5
 241              		.loc 1 68 0
 242 00e0 0E1C     		mov	r6, r1
 243              	.LVL33:
 244              		.loc 1 69 0
 245 00e2 0A21     		mov	r1, #10
 246              	.LVL34:
 247 00e4 FFF7FEFF 		bl	__aeabi_uidiv
 248              	.LVL35:
 249 00e8 051C     		mov	r5, r0
 250              	.LVL36:
 251              		.loc 1 70 0
 252 00ea 002F     		cmp	r7, #0
 253 00ec 01D1     		bne	.L26
 254              	.LVL37:
 255 00ee 002C     		cmp	r4, #0
 256 00f0 0CDD     		ble	.L178
 257              	.LVL38:
 258              	.L26:
 259              		.loc 1 71 0
 260 00f2 4346     		mov	r3, r8
 261 00f4 5A1C     		add	r2, r3, #1
 262              	.LVL39:
 263 00f6 5723     		mov	r3, #87
 264 00f8 092C     		cmp	r4, #9
 265 00fa 0BDD     		ble	.L88
 266 00fc 1C19     		add	r4, r3, r4
 267              	.LVL40:
 268 00fe 4346     		mov	r3, r8
 269              		.loc 1 72 0
 270 0100 0137     		add	r7, r7, #1
 271              	.LVL41:
 272              		.loc 1 71 0
 273 0102 1C70     		strb	r4, [r3]
 274              	.LBE37:
 275              		.loc 1 66 0
 276 0104 002D     		cmp	r5, #0
 277 0106 0CD0     		beq	.L179
 278              	.LVL42:
 279              	.L28:
 280              	.LBB38:
 281              		.loc 1 70 0
 282 0108 9046     		mov	r8, r2
 283 010a DFE7     		b	.L25
 284              	.LVL43:
 285              	.L178:
ARM GAS  /tmp/cce3BzsE.s 			page 6


 286 010c 4246     		mov	r2, r8
 287 010e 0028     		cmp	r0, #0
 288 0110 FAD1     		bne	.L28
 289              	.LVL44:
 290              		.loc 1 71 0
 291 0112 0132     		add	r2, r2, #1
 292              	.LVL45:
 293              	.L88:
 294 0114 3023     		mov	r3, #48
 295 0116 1C19     		add	r4, r3, r4
 296              	.LVL46:
 297 0118 4346     		mov	r3, r8
 298              		.loc 1 72 0
 299 011a 0137     		add	r7, r7, #1
 300              	.LVL47:
 301              		.loc 1 71 0
 302 011c 1C70     		strb	r4, [r3]
 303              	.LBE38:
 304              		.loc 1 66 0
 305 011e 002D     		cmp	r5, #0
 306 0120 F2D1     		bne	.L28
 307              	.L179:
 308 0122 4E46     		mov	r6, r9
 309              	.LVL48:
 310 0124 5746     		mov	r7, r10
 311              	.LVL49:
 312 0126 049C     		ldr	r4, [sp, #16]
 313              	.LVL50:
 314              	.L24:
 315              		.loc 1 75 0
 316 0128 0023     		mov	r3, #0
 317 012a 1370     		strb	r3, [r2]
 318              	.LVL51:
 319              	.LBE39:
 320              	.LBE41:
 321              	.LBB42:
 322              	.LBB43:
 323              		.loc 1 115 0
 324 012c 3023     		mov	r3, #48
 325 012e 9846     		mov	r8, r3
 326 0130 019B     		ldr	r3, [sp, #4]
 327 0132 002B     		cmp	r3, #0
 328 0134 01D1     		bne	.L30
 329 0136 2023     		mov	r3, #32
 330 0138 9846     		mov	r8, r3
 331              	.L30:
 332              	.LVL52:
 333              		.loc 1 118 0
 334 013a 029B     		ldr	r3, [sp, #8]
 335 013c 1D78     		ldrb	r5, [r3]
 336              	.LVL53:
 337 013e 002D     		cmp	r5, #0
 338 0140 06D1     		bne	.L159
 339 0142 03E2     		b	.L180
 340              	.LVL54:
 341              	.L119:
 342 0144 5A78     		ldrb	r2, [r3, #1]
ARM GAS  /tmp/cce3BzsE.s 			page 7


 343              		.loc 1 119 0
 344 0146 013C     		sub	r4, r4, #1
 345              	.LVL55:
 346              		.loc 1 118 0
 347 0148 002A     		cmp	r2, #0
 348 014a 00D1     		bne	.LCB395
 349 014c CCE1     		b	.L34	@long jump
 350              	.LCB395:
 351 014e 0133     		add	r3, r3, #1
 352              	.LVL56:
 353              	.L159:
 354 0150 002C     		cmp	r4, #0
 355 0152 F7D1     		bne	.L119
 356              	.LVL57:
 357              	.L33:
 358 0154 291C     		mov	r1, r5
 359 0156 06AB     		add	r3, sp, #24
 360 0158 5C1D     		add	r4, r3, #5
 361              	.LVL58:
 362              	.L38:
 363              		.loc 1 123 0
 364 015a 301C     		mov	r0, r6
 365 015c 0134     		add	r4, r4, #1
 366              	.LVL59:
 367 015e B847     		blx	r7
 368              	.LVL60:
 369 0160 631E     		sub	r3, r4, #1
 370              		.loc 1 122 0
 371 0162 1978     		ldrb	r1, [r3]
 372              	.LVL61:
 373 0164 0029     		cmp	r1, #0
 374 0166 F8D1     		bne	.L38
 375              	.LBE43:
 376              	.LBE42:
 377              		.loc 1 185 0
 378 0168 039D     		ldr	r5, [sp, #12]
 379 016a 54E7     		b	.L2
 380              	.LVL62:
 381              	.L175:
 382              		.loc 1 156 0
 383 016c 252B     		cmp	r3, #37
 384 016e 00D1     		bne	.LCB455
 385 0170 FBE0     		b	.L15	@long jump
 386              	.LCB455:
 387 0172 582B     		cmp	r3, #88
 388 0174 00D1     		bne	.LCB457
 389 0176 B5E0     		b	.L16	@long jump
 390              	.LCB457:
 391 0178 002B     		cmp	r3, #0
 392 017a 00D1     		bne	.LCB459
 393 017c 5AE7     		b	.L1	@long jump
 394              	.LCB459:
 395 017e 4AE7     		b	.L2
 396              	.LVL63:
 397              	.L174:
 398 0180 5946     		mov	r1, fp
 399 0182 4A46     		mov	r2, r9
ARM GAS  /tmp/cce3BzsE.s 			page 8


 400 0184 AC46     		mov	ip, r5
 401              	.L8:
 402              	.LBB46:
 403              	.LBB47:
 404              	.LBB48:
 405              	.LBB49:
 406              		.loc 1 89 0
 407 0186 D8B2     		uxtb	r0, r3
 408 0188 0D1C     		mov	r5, r1
 409              	.LVL64:
 410 018a 0928     		cmp	r0, #9
 411 018c 17D9     		bls	.L10
 412              		.loc 1 91 0
 413 018e 131C     		mov	r3, r2
 414 0190 613B     		sub	r3, r3, #97
 415 0192 052B     		cmp	r3, #5
 416 0194 10D9     		bls	.L164
 417              		.loc 1 93 0
 418 0196 131C     		mov	r3, r2
 419 0198 413B     		sub	r3, r3, #65
 420 019a 052B     		cmp	r3, #5
 421 019c 0CD9     		bls	.L164
 422              	.L17:
 423              	.L144:
 424 019e 9146     		mov	r9, r2
 425              	.LVL65:
 426              	.LBE49:
 427              	.LBE48:
 428              	.LBE47:
 429              	.LBE46:
 430              		.loc 1 156 0
 431 01a0 4B46     		mov	r3, r9
 432 01a2 AB46     		mov	fp, r5
 433              	.LVL66:
 434 01a4 6546     		mov	r5, ip
 435              	.LVL67:
 436 01a6 632B     		cmp	r3, #99
 437 01a8 00D0     		beq	.LCB510
 438 01aa 60E7     		b	.L181	@long jump
 439              	.LCB510:
 440              	.LVL68:
 441              	.L13:
 442              		.loc 1 189 0
 443 01ac 2978     		ldrb	r1, [r5]
 444 01ae 2C1D     		add	r4, r5, #4
 445              	.LVL69:
 446 01b0 301C     		mov	r0, r6
 447 01b2 B847     		blx	r7
 448              	.LVL70:
 449 01b4 251C     		mov	r5, r4
 450              		.loc 1 190 0
 451 01b6 2EE7     		b	.L2
 452              	.LVL71:
 453              	.L164:
 454              	.LBB53:
 455              	.LBB52:
 456              	.LBB51:
ARM GAS  /tmp/cce3BzsE.s 			page 9


 457              	.LBB50:
 458              		.loc 1 94 0
 459 01b8 0A33     		add	r3, r3, #10
 460              	.LBE50:
 461              	.LBE51:
 462              		.loc 1 104 0
 463 01ba 0A2B     		cmp	r3, #10
 464 01bc EFDC     		bgt	.L144
 465              	.L10:
 466              		.loc 1 105 0
 467 01be A200     		lsl	r2, r4, #2
 468              	.LVL72:
 469 01c0 1419     		add	r4, r2, r4
 470              	.LVL73:
 471              		.loc 1 106 0
 472 01c2 0A78     		ldrb	r2, [r1]
 473              		.loc 1 105 0
 474 01c4 6400     		lsl	r4, r4, #1
 475 01c6 1C19     		add	r4, r3, r4
 476              	.LVL74:
 477 01c8 131C     		mov	r3, r2
 478 01ca 0131     		add	r1, r1, #1
 479              	.LVL75:
 480 01cc 303B     		sub	r3, r3, #48
 481 01ce DAE7     		b	.L8
 482              	.LVL76:
 483              	.L5:
 484              	.LBE52:
 485              	.LBE53:
 486              		.loc 1 144 0
 487 01d0 5B46     		mov	r3, fp
 488              	.LVL77:
 489 01d2 9B78     		ldrb	r3, [r3, #2]
 490 01d4 9946     		mov	r9, r3
 491              	.LVL78:
 492 01d6 0323     		mov	r3, #3
 493 01d8 9C46     		mov	ip, r3
 494              		.loc 1 145 0
 495 01da 0123     		mov	r3, #1
 496              		.loc 1 144 0
 497 01dc E344     		add	fp, fp, ip
 498              	.LVL79:
 499              		.loc 1 145 0
 500 01de 0193     		str	r3, [sp, #4]
 501 01e0 3AE7     		b	.L6
 502              	.LVL80:
 503              	.L176:
 504              		.loc 1 156 0
 505 01e2 642B     		cmp	r3, #100
 506 01e4 00D0     		beq	.LCB601
 507 01e6 16E7     		b	.L2	@long jump
 508              	.LCB601:
 509              		.loc 1 175 0
 510 01e8 2B1D     		add	r3, r5, #4
 511 01ea 0393     		str	r3, [sp, #12]
 512 01ec 2B68     		ldr	r3, [r5]
 513 01ee 9846     		mov	r8, r3
ARM GAS  /tmp/cce3BzsE.s 			page 10


 514              	.LVL81:
 515              	.LBB54:
 516              	.LBB55:
 517              		.loc 1 80 0
 518 01f0 002B     		cmp	r3, #0
 519 01f2 00DA     		bge	.LCB611
 520 01f4 0AE1     		b	.L182	@long jump
 521              	.LCB611:
 522 01f6 07AB     		add	r3, sp, #28
 523              	.LVL82:
 524 01f8 0293     		str	r3, [sp, #8]
 525 01fa 0493     		str	r3, [sp, #16]
 526              	.LVL83:
 527              	.L39:
 528              	.LBB56:
 529              	.LBB57:
 530              		.loc 1 64 0
 531 01fc 4346     		mov	r3, r8
 532              	.LBE57:
 533              	.LBE56:
 534              		.loc 1 84 0
 535 01fe C146     		mov	r9, r8
 536              	.LVL84:
 537              	.LBB65:
 538              	.LBB61:
 539              		.loc 1 64 0
 540 0200 0125     		mov	r5, #1
 541 0202 092B     		cmp	r3, #9
 542 0204 0FDD     		ble	.L40
 543 0206 231C     		mov	r3, r4
 544 0208 4446     		mov	r4, r8
 545              	.LVL85:
 546 020a 9846     		mov	r8, r3
 547              	.LVL86:
 548              	.L41:
 549              		.loc 1 65 0
 550 020c AB00     		lsl	r3, r5, #2
 551 020e 5D19     		add	r5, r3, r5
 552              	.LVL87:
 553 0210 6D00     		lsl	r5, r5, #1
 554              	.LVL88:
 555              		.loc 1 64 0
 556 0212 201C     		mov	r0, r4
 557 0214 291C     		mov	r1, r5
 558 0216 FFF7FEFF 		bl	__aeabi_uidiv
 559              	.LVL89:
 560 021a 0928     		cmp	r0, #9
 561 021c F6D8     		bhi	.L41
 562 021e 4446     		mov	r4, r8
 563              	.LVL90:
 564              		.loc 1 66 0
 565 0220 002D     		cmp	r5, #0
 566 0222 00D1     		bne	.LCB668
 567 0224 84E1     		b	.L169	@long jump
 568              	.LCB668:
 569              	.LVL91:
 570              	.L40:
ARM GAS  /tmp/cce3BzsE.s 			page 11


 571              	.LBB58:
 572              		.loc 1 70 0
 573 0226 0023     		mov	r3, #0
 574 0228 9A46     		mov	r10, r3
 575 022a 049B     		ldr	r3, [sp, #16]
 576 022c 321C     		mov	r2, r6
 577 022e 9846     		mov	r8, r3
 578 0230 3B1C     		mov	r3, r7
 579 0232 4E46     		mov	r6, r9
 580              	.LVL92:
 581 0234 5746     		mov	r7, r10
 582              	.LVL93:
 583 0236 9146     		mov	r9, r2
 584 0238 9A46     		mov	r10, r3
 585 023a 0594     		str	r4, [sp, #20]
 586              	.LVL94:
 587              	.L43:
 588              		.loc 1 67 0
 589 023c 291C     		mov	r1, r5
 590 023e 301C     		mov	r0, r6
 591 0240 FFF7FEFF 		bl	__aeabi_uidiv
 592              	.LVL95:
 593              		.loc 1 68 0
 594 0244 291C     		mov	r1, r5
 595              		.loc 1 67 0
 596 0246 041C     		mov	r4, r0
 597              	.LVL96:
 598              		.loc 1 68 0
 599 0248 301C     		mov	r0, r6
 600              	.LVL97:
 601 024a FFF7FEFF 		bl	__aeabi_uidivmod
 602              	.LVL98:
 603              		.loc 1 69 0
 604 024e 281C     		mov	r0, r5
 605              		.loc 1 68 0
 606 0250 0E1C     		mov	r6, r1
 607              	.LVL99:
 608              		.loc 1 69 0
 609 0252 0A21     		mov	r1, #10
 610              	.LVL100:
 611 0254 FFF7FEFF 		bl	__aeabi_uidiv
 612              	.LVL101:
 613 0258 051C     		mov	r5, r0
 614              	.LVL102:
 615              		.loc 1 70 0
 616 025a 002F     		cmp	r7, #0
 617 025c 02D1     		bne	.L44
 618              	.LVL103:
 619 025e 002C     		cmp	r4, #0
 620 0260 00DC     		bgt	.LCB741
 621 0262 DEE0     		b	.L183	@long jump
 622              	.LCB741:
 623              	.LVL104:
 624              	.L44:
 625              		.loc 1 71 0
 626 0264 4346     		mov	r3, r8
 627 0266 5A1C     		add	r2, r3, #1
ARM GAS  /tmp/cce3BzsE.s 			page 12


 628              	.LVL105:
 629 0268 5723     		mov	r3, #87
 630 026a 092C     		cmp	r4, #9
 631 026c 00DC     		bgt	.LCB749
 632 026e DDE0     		b	.L89	@long jump
 633              	.LCB749:
 634              	.L47:
 635 0270 1C19     		add	r4, r3, r4
 636              	.LVL106:
 637 0272 4346     		mov	r3, r8
 638              		.loc 1 72 0
 639 0274 0137     		add	r7, r7, #1
 640              	.LVL107:
 641              		.loc 1 71 0
 642 0276 1C70     		strb	r4, [r3]
 643              	.LBE58:
 644              		.loc 1 66 0
 645 0278 002D     		cmp	r5, #0
 646 027a 7AD0     		beq	.L184
 647              	.LVL108:
 648              	.L46:
 649              	.LBB59:
 650              		.loc 1 70 0
 651 027c 9046     		mov	r8, r2
 652 027e DDE7     		b	.L43
 653              	.LVL109:
 654              	.L18:
 655              	.LBE59:
 656              	.LBE61:
 657              	.LBE65:
 658              	.LBE55:
 659              	.LBE54:
 660              		.loc 1 192 0
 661 0280 2B1D     		add	r3, r5, #4
 662 0282 9946     		mov	r9, r3
 663              	.LVL110:
 664 0284 2B68     		ldr	r3, [r5]
 665 0286 9A46     		mov	r10, r3
 666              	.LVL111:
 667              	.LBB72:
 668              	.LBB73:
 669              		.loc 1 118 0
 670 0288 0123     		mov	r3, #1
 671              	.LVL112:
 672 028a 5344     		add	r3, r3, r10
 673 028c 9846     		mov	r8, r3
 674              	.LVL113:
 675 028e 5346     		mov	r3, r10
 676              	.LVL114:
 677 0290 1978     		ldrb	r1, [r3]
 678 0292 0029     		cmp	r1, #0
 679 0294 00D1     		bne	.LCB818
 680 0296 53E1     		b	.L81	@long jump
 681              	.LCB818:
 682 0298 002C     		cmp	r4, #0
 683 029a 16D0     		beq	.L82
 684 029c 4346     		mov	r3, r8
ARM GAS  /tmp/cce3BzsE.s 			page 13


 685 029e 02E0     		b	.L84
 686              	.LVL115:
 687              	.L185:
 688 02a0 0133     		add	r3, r3, #1
 689              	.LVL116:
 690 02a2 002C     		cmp	r4, #0
 691 02a4 11D0     		beq	.L82
 692              	.LVL117:
 693              	.L84:
 694 02a6 1A78     		ldrb	r2, [r3]
 695              		.loc 1 119 0
 696 02a8 013C     		sub	r4, r4, #1
 697              	.LVL118:
 698              		.loc 1 118 0
 699 02aa 002A     		cmp	r2, #0
 700 02ac F8D1     		bne	.L185
 701              		.loc 1 120 0
 702 02ae 651E     		sub	r5, r4, #1
 703              	.LVL119:
 704 02b0 002C     		cmp	r4, #0
 705 02b2 0AD0     		beq	.L82
 706              	.LVL120:
 707              	.L85:
 708              		.loc 1 121 0
 709 02b4 301C     		mov	r0, r6
 710 02b6 2021     		mov	r1, #32
 711              		.loc 1 120 0
 712 02b8 013D     		sub	r5, r5, #1
 713              	.LVL121:
 714              		.loc 1 121 0
 715 02ba B847     		blx	r7
 716              	.LVL122:
 717 02bc 6B1C     		add	r3, r5, #1
 718              		.loc 1 120 0
 719 02be 002B     		cmp	r3, #0
 720 02c0 F8DC     		bgt	.L85
 721 02c2 5346     		mov	r3, r10
 722 02c4 1978     		ldrb	r1, [r3]
 723              	.LVL123:
 724              		.loc 1 122 0
 725 02c6 0029     		cmp	r1, #0
 726 02c8 07D0     		beq	.L110
 727              	.LVL124:
 728              	.L82:
 729 02ca 4546     		mov	r5, r8
 730              	.LVL125:
 731              	.L86:
 732              		.loc 1 123 0
 733 02cc 301C     		mov	r0, r6
 734 02ce 0135     		add	r5, r5, #1
 735              	.LVL126:
 736 02d0 B847     		blx	r7
 737              	.LVL127:
 738 02d2 6B1E     		sub	r3, r5, #1
 739              		.loc 1 122 0
 740 02d4 1978     		ldrb	r1, [r3]
 741              	.LVL128:
ARM GAS  /tmp/cce3BzsE.s 			page 14


 742 02d6 0029     		cmp	r1, #0
 743 02d8 F8D1     		bne	.L86
 744              	.L110:
 745              	.LBE73:
 746              	.LBE72:
 747              		.loc 1 192 0
 748 02da 4D46     		mov	r5, r9
 749 02dc 9BE6     		b	.L2
 750              	.LVL129:
 751              	.L177:
 752              		.loc 1 156 0
 753 02de 782B     		cmp	r3, #120
 754 02e0 00D0     		beq	.LCB930
 755 02e2 98E6     		b	.L2	@long jump
 756              	.LCB930:
 757              	.L16:
 758              		.loc 1 185 0
 759 02e4 2B1D     		add	r3, r5, #4
 760 02e6 0393     		str	r3, [sp, #12]
 761 02e8 2B68     		ldr	r3, [r5]
 762              	.LBB75:
 763              	.LBB76:
 764              		.loc 1 64 0
 765 02ea 0125     		mov	r5, #1
 766              	.LBE76:
 767              	.LBE75:
 768              		.loc 1 185 0
 769 02ec 9846     		mov	r8, r3
 770              	.LVL130:
 771              	.LBB89:
 772              	.LBB83:
 773              		.loc 1 64 0
 774 02ee 0F2B     		cmp	r3, #15
 775 02f0 0FD9     		bls	.L57
 776 02f2 231C     		mov	r3, r4
 777              	.LVL131:
 778 02f4 4446     		mov	r4, r8
 779              	.LVL132:
 780 02f6 9846     		mov	r8, r3
 781              	.LVL133:
 782              	.L58:
 783              		.loc 1 65 0
 784 02f8 2D01     		lsl	r5, r5, #4
 785              	.LVL134:
 786              		.loc 1 64 0
 787 02fa 201C     		mov	r0, r4
 788 02fc 291C     		mov	r1, r5
 789 02fe FFF7FEFF 		bl	__aeabi_uidiv
 790              	.LVL135:
 791 0302 0F28     		cmp	r0, #15
 792 0304 F8D8     		bhi	.L58
 793 0306 4346     		mov	r3, r8
 794 0308 A046     		mov	r8, r4
 795              	.LVL136:
 796 030a 1C1C     		mov	r4, r3
 797              	.LVL137:
 798              		.loc 1 66 0
ARM GAS  /tmp/cce3BzsE.s 			page 15


 799 030c 002D     		cmp	r5, #0
 800 030e 00D1     		bne	.LCB989
 801 0310 07E1     		b	.L172	@long jump
 802              	.LCB989:
 803              	.LVL138:
 804              	.L57:
 805 0312 4B46     		mov	r3, r9
 806 0314 582B     		cmp	r3, #88
 807 0316 51D0     		beq	.L186
 808              		.loc 1 63 0
 809 0318 07AB     		add	r3, sp, #28
 810              	.LVL139:
 811 031a 321C     		mov	r2, r6
 812 031c 0293     		str	r3, [sp, #8]
 813 031e 9A46     		mov	r10, r3
 814 0320 0023     		mov	r3, #0
 815              	.LVL140:
 816 0322 4646     		mov	r6, r8
 817              	.LVL141:
 818 0324 B946     		mov	r9, r7
 819              	.LVL142:
 820 0326 9046     		mov	r8, r2
 821              	.LVL143:
 822 0328 1F1C     		mov	r7, r3
 823              	.LVL144:
 824 032a 0494     		str	r4, [sp, #16]
 825              	.LVL145:
 826              	.L67:
 827              	.LBB77:
 828              		.loc 1 67 0
 829 032c 291C     		mov	r1, r5
 830 032e 301C     		mov	r0, r6
 831 0330 FFF7FEFF 		bl	__aeabi_uidiv
 832              	.LVL146:
 833              		.loc 1 68 0
 834 0334 291C     		mov	r1, r5
 835              		.loc 1 67 0
 836 0336 041C     		mov	r4, r0
 837              	.LVL147:
 838              		.loc 1 68 0
 839 0338 301C     		mov	r0, r6
 840              	.LVL148:
 841 033a FFF7FEFF 		bl	__aeabi_uidivmod
 842              	.LVL149:
 843              		.loc 1 69 0
 844 033e 2D09     		lsr	r5, r5, #4
 845              		.loc 1 68 0
 846 0340 0E1C     		mov	r6, r1
 847              		.loc 1 70 0
 848 0342 002F     		cmp	r7, #0
 849 0344 02D1     		bne	.L66
 850              	.LVL150:
 851 0346 002C     		cmp	r4, #0
 852 0348 00DC     		bgt	.LCB1059
 853 034a 9EE0     		b	.L187	@long jump
 854              	.LCB1059:
 855              	.LVL151:
ARM GAS  /tmp/cce3BzsE.s 			page 16


 856              	.L66:
 857              		.loc 1 71 0
 858 034c 5346     		mov	r3, r10
 859 034e 3022     		mov	r2, #48
 860 0350 0133     		add	r3, r3, #1
 861              	.LVL152:
 862 0352 092C     		cmp	r4, #9
 863 0354 00DD     		ble	.L63
 864 0356 5722     		mov	r2, #87
 865              	.L63:
 866 0358 1419     		add	r4, r2, r4
 867              	.LVL153:
 868 035a 5246     		mov	r2, r10
 869              		.loc 1 72 0
 870 035c 0137     		add	r7, r7, #1
 871              	.LVL154:
 872              		.loc 1 71 0
 873 035e 1470     		strb	r4, [r2]
 874              	.LBE77:
 875              		.loc 1 66 0
 876 0360 002D     		cmp	r5, #0
 877 0362 00D1     		bne	.LCB1082
 878 0364 E0E0     		b	.L161	@long jump
 879              	.LCB1082:
 880              		.loc 1 63 0
 881 0366 9A46     		mov	r10, r3
 882 0368 E0E7     		b	.L67
 883              	.LVL155:
 884              	.L15:
 885              	.LBE83:
 886              	.LBE89:
 887              		.loc 1 195 0
 888 036a 301C     		mov	r0, r6
 889 036c 2521     		mov	r1, #37
 890 036e B847     		blx	r7
 891              	.LVL156:
 892 0370 51E6     		b	.L2
 893              	.LVL157:
 894              	.L184:
 895 0372 4E46     		mov	r6, r9
 896              	.LVL158:
 897 0374 5746     		mov	r7, r10
 898              	.LVL159:
 899 0376 059C     		ldr	r4, [sp, #20]
 900              	.LVL160:
 901              	.L42:
 902              	.LBB90:
 903              	.LBB69:
 904              	.LBB66:
 905              	.LBB62:
 906              		.loc 1 75 0
 907 0378 0023     		mov	r3, #0
 908 037a 1370     		strb	r3, [r2]
 909              	.LVL161:
 910              	.LBE62:
 911              	.LBE66:
 912              	.LBE69:
ARM GAS  /tmp/cce3BzsE.s 			page 17


 913              	.LBE90:
 914              	.LBB91:
 915              	.LBB92:
 916              		.loc 1 115 0
 917 037c 3023     		mov	r3, #48
 918 037e 9846     		mov	r8, r3
 919 0380 019B     		ldr	r3, [sp, #4]
 920 0382 002B     		cmp	r3, #0
 921 0384 01D1     		bne	.L48
 922 0386 2023     		mov	r3, #32
 923 0388 9846     		mov	r8, r3
 924              	.L48:
 925              	.LVL162:
 926              		.loc 1 118 0
 927 038a 029B     		ldr	r3, [sp, #8]
 928 038c 1D78     		ldrb	r5, [r3]
 929              	.LVL163:
 930 038e 002D     		cmp	r5, #0
 931 0390 06D1     		bne	.L160
 932 0392 E1E0     		b	.L188
 933              	.LVL164:
 934              	.L121:
 935 0394 5A78     		ldrb	r2, [r3, #1]
 936              		.loc 1 119 0
 937 0396 013C     		sub	r4, r4, #1
 938              	.LVL165:
 939              		.loc 1 118 0
 940 0398 002A     		cmp	r2, #0
 941 039a 00D1     		bne	.LCB1191
 942 039c 8EE0     		b	.L52	@long jump
 943              	.LCB1191:
 944 039e 0133     		add	r3, r3, #1
 945              	.LVL166:
 946              	.L160:
 947 03a0 002C     		cmp	r4, #0
 948 03a2 F7D1     		bne	.L121
 949              	.LVL167:
 950              	.L51:
 951 03a4 291C     		mov	r1, r5
 952 03a6 06AB     		add	r3, sp, #24
 953 03a8 5C1D     		add	r4, r3, #5
 954              	.LVL168:
 955              	.L56:
 956              		.loc 1 123 0
 957 03aa 301C     		mov	r0, r6
 958 03ac 0134     		add	r4, r4, #1
 959              	.LVL169:
 960 03ae B847     		blx	r7
 961              	.LVL170:
 962 03b0 631E     		sub	r3, r4, #1
 963              		.loc 1 122 0
 964 03b2 1978     		ldrb	r1, [r3]
 965              	.LVL171:
 966 03b4 0029     		cmp	r1, #0
 967 03b6 F8D1     		bne	.L56
 968              	.LBE92:
 969              	.LBE91:
ARM GAS  /tmp/cce3BzsE.s 			page 18


 970              		.loc 1 185 0
 971 03b8 039D     		ldr	r5, [sp, #12]
 972 03ba 2CE6     		b	.L2
 973              	.LVL172:
 974              	.L186:
 975              	.LBB95:
 976              	.LBB84:
 977              	.LBB78:
 978              		.loc 1 70 0
 979 03bc 07AB     		add	r3, sp, #28
 980              	.LVL173:
 981 03be 321C     		mov	r2, r6
 982 03c0 0293     		str	r3, [sp, #8]
 983 03c2 9A46     		mov	r10, r3
 984 03c4 0023     		mov	r3, #0
 985              	.LVL174:
 986 03c6 4646     		mov	r6, r8
 987              	.LVL175:
 988 03c8 B946     		mov	r9, r7
 989              	.LVL176:
 990 03ca 9046     		mov	r8, r2
 991              	.LVL177:
 992 03cc 1F1C     		mov	r7, r3
 993              	.LVL178:
 994 03ce 0494     		str	r4, [sp, #16]
 995              	.LVL179:
 996              	.L61:
 997              		.loc 1 67 0
 998 03d0 291C     		mov	r1, r5
 999 03d2 301C     		mov	r0, r6
 1000 03d4 FFF7FEFF 		bl	__aeabi_uidiv
 1001              	.LVL180:
 1002              		.loc 1 68 0
 1003 03d8 291C     		mov	r1, r5
 1004              		.loc 1 67 0
 1005 03da 041C     		mov	r4, r0
 1006              	.LVL181:
 1007              		.loc 1 68 0
 1008 03dc 301C     		mov	r0, r6
 1009              	.LVL182:
 1010 03de FFF7FEFF 		bl	__aeabi_uidivmod
 1011              	.LVL183:
 1012              		.loc 1 69 0
 1013 03e2 2D09     		lsr	r5, r5, #4
 1014              		.loc 1 68 0
 1015 03e4 0E1C     		mov	r6, r1
 1016              		.loc 1 70 0
 1017 03e6 002F     		cmp	r7, #0
 1018 03e8 01D1     		bne	.L68
 1019              	.LVL184:
 1020 03ea 002C     		cmp	r4, #0
 1021 03ec 20DD     		ble	.L189
 1022              	.LVL185:
 1023              	.L68:
 1024              		.loc 1 71 0
 1025 03ee 5346     		mov	r3, r10
 1026 03f0 3022     		mov	r2, #48
ARM GAS  /tmp/cce3BzsE.s 			page 19


 1027 03f2 0133     		add	r3, r3, #1
 1028              	.LVL186:
 1029 03f4 092C     		cmp	r4, #9
 1030 03f6 00DD     		ble	.L71
 1031 03f8 3722     		mov	r2, #55
 1032              	.L71:
 1033 03fa 1419     		add	r4, r2, r4
 1034              	.LVL187:
 1035 03fc 5246     		mov	r2, r10
 1036              		.loc 1 72 0
 1037 03fe 0137     		add	r7, r7, #1
 1038              	.LVL188:
 1039              		.loc 1 71 0
 1040 0400 1470     		strb	r4, [r2]
 1041              	.LBE78:
 1042              		.loc 1 66 0
 1043 0402 002D     		cmp	r5, #0
 1044 0404 00D1     		bne	.LCB1339
 1045 0406 8FE0     		b	.L161	@long jump
 1046              	.LCB1339:
 1047              	.LBB79:
 1048              		.loc 1 70 0
 1049 0408 9A46     		mov	r10, r3
 1050 040a E1E7     		b	.L61
 1051              	.LVL189:
 1052              	.L182:
 1053              	.LBE79:
 1054              	.LBE84:
 1055              	.LBE95:
 1056              	.LBB96:
 1057              	.LBB70:
 1058              		.loc 1 81 0
 1059 040c 5B42     		neg	r3, r3
 1060 040e 9846     		mov	r8, r3
 1061              	.LVL190:
 1062              		.loc 1 82 0
 1063 0410 07AB     		add	r3, sp, #28
 1064 0412 1A1C     		mov	r2, r3
 1065 0414 0293     		str	r3, [sp, #8]
 1066 0416 2D23     		mov	r3, #45
 1067 0418 1370     		strb	r3, [r2]
 1068 041a 06AB     		add	r3, sp, #24
 1069 041c 0533     		add	r3, r3, #5
 1070 041e 0493     		str	r3, [sp, #16]
 1071 0420 ECE6     		b	.L39
 1072              	.LVL191:
 1073              	.L183:
 1074              	.LBB67:
 1075              	.LBB63:
 1076              	.LBB60:
 1077              		.loc 1 70 0
 1078 0422 4246     		mov	r2, r8
 1079 0424 0028     		cmp	r0, #0
 1080 0426 00D0     		beq	.LCB1402
 1081 0428 28E7     		b	.L46	@long jump
 1082              	.LCB1402:
 1083              	.LVL192:
ARM GAS  /tmp/cce3BzsE.s 			page 20


 1084              		.loc 1 71 0
 1085 042a 0132     		add	r2, r2, #1
 1086              	.LVL193:
 1087              	.L89:
 1088 042c 3023     		mov	r3, #48
 1089 042e 1FE7     		b	.L47
 1090              	.LVL194:
 1091              	.L189:
 1092              	.LBE60:
 1093              	.LBE63:
 1094              	.LBE67:
 1095              	.LBE70:
 1096              	.LBE96:
 1097              	.LBB97:
 1098              	.LBB85:
 1099              	.LBB80:
 1100              		.loc 1 70 0
 1101 0430 002D     		cmp	r5, #0
 1102 0432 6FD1     		bne	.L190
 1103              	.L69:
 1104 0434 4F46     		mov	r7, r9
 1105 0436 A146     		mov	r9, r4
 1106              	.LVL195:
 1107              		.loc 1 71 0
 1108 0438 4A46     		mov	r2, r9
 1109 043a 5346     		mov	r3, r10
 1110 043c 5146     		mov	r1, r10
 1111 043e 4646     		mov	r6, r8
 1112 0440 3032     		add	r2, r2, #48
 1113 0442 049C     		ldr	r4, [sp, #16]
 1114              	.LVL196:
 1115 0444 0133     		add	r3, r3, #1
 1116              	.LVL197:
 1117 0446 0A70     		strb	r2, [r1]
 1118              	.LVL198:
 1119              	.L59:
 1120              	.LBE80:
 1121              		.loc 1 75 0
 1122 0448 0022     		mov	r2, #0
 1123 044a 1A70     		strb	r2, [r3]
 1124              	.LVL199:
 1125              	.LBE85:
 1126              	.LBE97:
 1127              	.LBB98:
 1128              	.LBB99:
 1129              		.loc 1 115 0
 1130 044c 3023     		mov	r3, #48
 1131              	.LVL200:
 1132 044e 9846     		mov	r8, r3
 1133 0450 019B     		ldr	r3, [sp, #4]
 1134 0452 002B     		cmp	r3, #0
 1135 0454 01D1     		bne	.L72
 1136 0456 2023     		mov	r3, #32
 1137 0458 9846     		mov	r8, r3
 1138              	.L72:
 1139              	.LVL201:
 1140              		.loc 1 118 0
ARM GAS  /tmp/cce3BzsE.s 			page 21


 1141 045a 029B     		ldr	r3, [sp, #8]
 1142 045c 1D78     		ldrb	r5, [r3]
 1143 045e 002D     		cmp	r5, #0
 1144 0460 05D1     		bne	.L162
 1145 0462 67E0     		b	.L191
 1146              	.LVL202:
 1147              	.L120:
 1148 0464 5A78     		ldrb	r2, [r3, #1]
 1149              		.loc 1 119 0
 1150 0466 013C     		sub	r4, r4, #1
 1151              	.LVL203:
 1152              		.loc 1 118 0
 1153 0468 002A     		cmp	r2, #0
 1154 046a 13D0     		beq	.L76
 1155 046c 0133     		add	r3, r3, #1
 1156              	.LVL204:
 1157              	.L162:
 1158 046e 002C     		cmp	r4, #0
 1159 0470 F8D1     		bne	.L120
 1160              	.LVL205:
 1161              	.L75:
 1162 0472 291C     		mov	r1, r5
 1163 0474 06AB     		add	r3, sp, #24
 1164 0476 5C1D     		add	r4, r3, #5
 1165              	.LVL206:
 1166              	.L80:
 1167              		.loc 1 123 0
 1168 0478 301C     		mov	r0, r6
 1169 047a 0134     		add	r4, r4, #1
 1170              	.LVL207:
 1171 047c B847     		blx	r7
 1172              	.LVL208:
 1173 047e 631E     		sub	r3, r4, #1
 1174              		.loc 1 122 0
 1175 0480 1978     		ldrb	r1, [r3]
 1176              	.LVL209:
 1177 0482 0029     		cmp	r1, #0
 1178 0484 F8D1     		bne	.L80
 1179              	.LBE99:
 1180              	.LBE98:
 1181              		.loc 1 185 0
 1182 0486 039D     		ldr	r5, [sp, #12]
 1183 0488 C5E5     		b	.L2
 1184              	.LVL210:
 1185              	.L187:
 1186              	.LBB102:
 1187              	.LBB86:
 1188              	.LBB81:
 1189              		.loc 1 70 0
 1190 048a 002D     		cmp	r5, #0
 1191 048c D2D0     		beq	.L69
 1192 048e 5346     		mov	r3, r10
 1193              	.LBE81:
 1194              		.loc 1 63 0
 1195 0490 9A46     		mov	r10, r3
 1196              	.LVL211:
 1197 0492 4BE7     		b	.L67
ARM GAS  /tmp/cce3BzsE.s 			page 22


 1198              	.LVL212:
 1199              	.L76:
 1200              	.LBE86:
 1201              	.LBE102:
 1202              	.LBB103:
 1203              	.LBB100:
 1204              		.loc 1 120 0
 1205 0494 631E     		sub	r3, r4, #1
 1206              	.LVL213:
 1207 0496 9946     		mov	r9, r3
 1208              	.LVL214:
 1209 0498 002C     		cmp	r4, #0
 1210 049a EAD0     		beq	.L75
 1211              	.L153:
 1212 049c 2B1C     		mov	r3, r5
 1213              	.LVL215:
 1214 049e 4C46     		mov	r4, r9
 1215 04a0 4546     		mov	r5, r8
 1216 04a2 9846     		mov	r8, r3
 1217              	.LVL216:
 1218              	.L78:
 1219              		.loc 1 121 0
 1220 04a4 301C     		mov	r0, r6
 1221 04a6 291C     		mov	r1, r5
 1222              		.loc 1 120 0
 1223 04a8 013C     		sub	r4, r4, #1
 1224              	.LVL217:
 1225              		.loc 1 121 0
 1226 04aa B847     		blx	r7
 1227              	.LVL218:
 1228 04ac 631C     		add	r3, r4, #1
 1229              		.loc 1 120 0
 1230 04ae 002B     		cmp	r3, #0
 1231 04b0 F8DC     		bgt	.L78
 1232 04b2 4546     		mov	r5, r8
 1233              	.LVL219:
 1234              		.loc 1 122 0
 1235 04b4 002D     		cmp	r5, #0
 1236 04b6 DCD1     		bne	.L75
 1237              	.LBE100:
 1238              	.LBE103:
 1239              		.loc 1 185 0
 1240 04b8 039D     		ldr	r5, [sp, #12]
 1241              	.LVL220:
 1242 04ba ACE5     		b	.L2
 1243              	.LVL221:
 1244              	.L52:
 1245              	.LBB104:
 1246              	.LBB93:
 1247              		.loc 1 120 0
 1248 04bc 631E     		sub	r3, r4, #1
 1249              	.LVL222:
 1250 04be 9946     		mov	r9, r3
 1251              	.LVL223:
 1252 04c0 002C     		cmp	r4, #0
 1253 04c2 00D1     		bne	.LCB1704
 1254 04c4 6EE7     		b	.L51	@long jump
ARM GAS  /tmp/cce3BzsE.s 			page 23


 1255              	.LCB1704:
 1256              	.L151:
 1257 04c6 2B1C     		mov	r3, r5
 1258              	.LVL224:
 1259 04c8 4C46     		mov	r4, r9
 1260 04ca 4546     		mov	r5, r8
 1261 04cc 9846     		mov	r8, r3
 1262              	.LVL225:
 1263              	.L54:
 1264              		.loc 1 121 0
 1265 04ce 301C     		mov	r0, r6
 1266 04d0 291C     		mov	r1, r5
 1267              		.loc 1 120 0
 1268 04d2 013C     		sub	r4, r4, #1
 1269              	.LVL226:
 1270              		.loc 1 121 0
 1271 04d4 B847     		blx	r7
 1272              	.LVL227:
 1273 04d6 631C     		add	r3, r4, #1
 1274              		.loc 1 120 0
 1275 04d8 002B     		cmp	r3, #0
 1276 04da F8DC     		bgt	.L54
 1277 04dc 4546     		mov	r5, r8
 1278              	.LVL228:
 1279              		.loc 1 122 0
 1280 04de 002D     		cmp	r5, #0
 1281 04e0 00D0     		beq	.LCB1736
 1282 04e2 5FE7     		b	.L51	@long jump
 1283              	.LCB1736:
 1284              	.LBE93:
 1285              	.LBE104:
 1286              		.loc 1 185 0
 1287 04e4 039D     		ldr	r5, [sp, #12]
 1288              	.LVL229:
 1289 04e6 96E5     		b	.L2
 1290              	.LVL230:
 1291              	.L34:
 1292              	.LBB105:
 1293              	.LBB44:
 1294              		.loc 1 120 0
 1295 04e8 631E     		sub	r3, r4, #1
 1296              	.LVL231:
 1297 04ea 9946     		mov	r9, r3
 1298              	.LVL232:
 1299 04ec 002C     		cmp	r4, #0
 1300 04ee 00D1     		bne	.LCB1779
 1301 04f0 30E6     		b	.L33	@long jump
 1302              	.LCB1779:
 1303              	.L149:
 1304 04f2 2B1C     		mov	r3, r5
 1305              	.LVL233:
 1306 04f4 4C46     		mov	r4, r9
 1307 04f6 4546     		mov	r5, r8
 1308 04f8 9846     		mov	r8, r3
 1309              	.LVL234:
 1310              	.L36:
 1311              		.loc 1 121 0
ARM GAS  /tmp/cce3BzsE.s 			page 24


 1312 04fa 301C     		mov	r0, r6
 1313 04fc 291C     		mov	r1, r5
 1314              		.loc 1 120 0
 1315 04fe 013C     		sub	r4, r4, #1
 1316              	.LVL235:
 1317              		.loc 1 121 0
 1318 0500 B847     		blx	r7
 1319              	.LVL236:
 1320 0502 631C     		add	r3, r4, #1
 1321              		.loc 1 120 0
 1322 0504 002B     		cmp	r3, #0
 1323 0506 F8DC     		bgt	.L36
 1324 0508 4546     		mov	r5, r8
 1325              	.LVL237:
 1326              		.loc 1 122 0
 1327 050a 002D     		cmp	r5, #0
 1328 050c 00D0     		beq	.LCB1811
 1329 050e 21E6     		b	.L33	@long jump
 1330              	.LCB1811:
 1331              	.LBE44:
 1332              	.LBE105:
 1333              		.loc 1 185 0
 1334 0510 039D     		ldr	r5, [sp, #12]
 1335              	.LVL238:
 1336 0512 80E5     		b	.L2
 1337              	.LVL239:
 1338              	.L190:
 1339              	.LBB106:
 1340              	.LBB87:
 1341              	.LBB82:
 1342              		.loc 1 70 0
 1343 0514 5346     		mov	r3, r10
 1344 0516 9A46     		mov	r10, r3
 1345              	.LVL240:
 1346 0518 5AE7     		b	.L61
 1347              	.LVL241:
 1348              	.L166:
 1349              	.LBE82:
 1350              	.LBE87:
 1351              	.LBE106:
 1352              	.LBB107:
 1353              	.LBB40:
 1354              		.loc 1 66 0
 1355 051a 07AB     		add	r3, sp, #28
 1356              	.LVL242:
 1357 051c 0293     		str	r3, [sp, #8]
 1358 051e 1A1C     		mov	r2, r3
 1359 0520 02E6     		b	.L24
 1360              	.LVL243:
 1361              	.L172:
 1362              	.LBE40:
 1363              	.LBE107:
 1364              	.LBB108:
 1365              	.LBB88:
 1366 0522 07AB     		add	r3, sp, #28
 1367              	.LVL244:
 1368 0524 0293     		str	r3, [sp, #8]
ARM GAS  /tmp/cce3BzsE.s 			page 25


 1369 0526 8FE7     		b	.L59
 1370              	.LVL245:
 1371              	.L161:
 1372 0528 049C     		ldr	r4, [sp, #16]
 1373 052a 4646     		mov	r6, r8
 1374 052c 4F46     		mov	r7, r9
 1375              	.LVL246:
 1376 052e 8BE7     		b	.L59
 1377              	.LVL247:
 1378              	.L169:
 1379              	.LBE88:
 1380              	.LBE108:
 1381              	.LBB109:
 1382              	.LBB71:
 1383              	.LBB68:
 1384              	.LBB64:
 1385 0530 049A     		ldr	r2, [sp, #16]
 1386 0532 21E7     		b	.L42
 1387              	.LVL248:
 1388              	.L191:
 1389              	.LBE64:
 1390              	.LBE68:
 1391              	.LBE71:
 1392              	.LBE109:
 1393              	.LBB110:
 1394              	.LBB101:
 1395              		.loc 1 120 0
 1396 0534 631E     		sub	r3, r4, #1
 1397 0536 9946     		mov	r9, r3
 1398              	.LVL249:
 1399 0538 002C     		cmp	r4, #0
 1400 053a AFD1     		bne	.L153
 1401              	.LBE101:
 1402              	.LBE110:
 1403              		.loc 1 185 0
 1404 053c 039D     		ldr	r5, [sp, #12]
 1405 053e 6AE5     		b	.L2
 1406              	.LVL250:
 1407              	.L81:
 1408              	.LBB111:
 1409              	.LBB74:
 1410              		.loc 1 120 0
 1411 0540 651E     		sub	r5, r4, #1
 1412              	.LVL251:
 1413 0542 002C     		cmp	r4, #0
 1414 0544 00D0     		beq	.LCB2033
 1415 0546 B5E6     		b	.L85	@long jump
 1416              	.LCB2033:
 1417              	.LBE74:
 1418              	.LBE111:
 1419              		.loc 1 192 0
 1420 0548 4D46     		mov	r5, r9
 1421              	.LVL252:
 1422 054a 64E5     		b	.L2
 1423              	.LVL253:
 1424              	.L180:
 1425              	.LBB112:
ARM GAS  /tmp/cce3BzsE.s 			page 26


 1426              	.LBB45:
 1427              		.loc 1 120 0
 1428 054c 631E     		sub	r3, r4, #1
 1429 054e 9946     		mov	r9, r3
 1430              	.LVL254:
 1431 0550 002C     		cmp	r4, #0
 1432 0552 CED1     		bne	.L149
 1433              	.LBE45:
 1434              	.LBE112:
 1435              		.loc 1 185 0
 1436 0554 039D     		ldr	r5, [sp, #12]
 1437 0556 5EE5     		b	.L2
 1438              	.LVL255:
 1439              	.L188:
 1440              	.LBB113:
 1441              	.LBB94:
 1442              		.loc 1 120 0
 1443 0558 631E     		sub	r3, r4, #1
 1444 055a 9946     		mov	r9, r3
 1445              	.LVL256:
 1446 055c 002C     		cmp	r4, #0
 1447 055e B2D1     		bne	.L151
 1448              	.LBE94:
 1449              	.LBE113:
 1450              		.loc 1 185 0
 1451 0560 039D     		ldr	r5, [sp, #12]
 1452 0562 58E5     		b	.L2
 1453              	.LBE34:
 1454              		.cfi_endproc
 1455              	.LFE51:
 1456              		.size	tfp_format, .-tfp_format
 1457 0564 C046C046 		.section	.text.init_printf,"ax",%progbits
 1457      C046C046 
 1457      C046C046 
 1458              		.align	2
 1459              		.p2align 4,,15
 1460              		.global	init_printf
 1461              		.code	16
 1462              		.thumb_func
 1463              		.type	init_printf, %function
 1464              	init_printf:
 1465              	.LFB52:
 1466              		.loc 1 206 0
 1467              		.cfi_startproc
 1468              	.LVL257:
 1469              		.loc 1 207 0
 1470 0000 024B     		ldr	r3, .L193
 1471              		.loc 1 209 0
 1472              		@ sp needed
 1473              		.loc 1 207 0
 1474 0002 1960     		str	r1, [r3]
 1475              		.loc 1 208 0
 1476 0004 024B     		ldr	r3, .L193+4
 1477 0006 1860     		str	r0, [r3]
 1478              		.loc 1 209 0
 1479 0008 7047     		bx	lr
 1480              	.L194:
ARM GAS  /tmp/cce3BzsE.s 			page 27


 1481 000a C046     		.align	2
 1482              	.L193:
 1483 000c 00000000 		.word	.LANCHOR0
 1484 0010 00000000 		.word	.LANCHOR1
 1485              		.cfi_endproc
 1486              	.LFE52:
 1487              		.size	init_printf, .-init_printf
 1488 0014 C046C046 		.section	.text.tfp_printf,"ax",%progbits
 1488      C046C046 
 1488      C046C046 
 1489              		.align	2
 1490              		.p2align 4,,15
 1491              		.global	tfp_printf
 1492              		.code	16
 1493              		.thumb_func
 1494              		.type	tfp_printf, %function
 1495              	tfp_printf:
 1496              	.LFB53:
 1497              		.loc 1 212 0
 1498              		.cfi_startproc
 1499              	.LVL258:
 1500 0000 0FB4     		push	{r0, r1, r2, r3}
 1501              		.cfi_def_cfa_offset 16
 1502 0002 00B5     		push	{lr}
 1503              		.cfi_def_cfa_offset 20
 1504              		.cfi_offset 14, -20
 1505              		.loc 1 215 0
 1506 0004 0649     		ldr	r1, .L196
 1507              		.loc 1 212 0
 1508 0006 83B0     		sub	sp, sp, #12
 1509              		.cfi_def_cfa_offset 32
 1510              		.loc 1 212 0
 1511 0008 04AB     		add	r3, sp, #16
 1512              		.loc 1 215 0
 1513 000a 0868     		ldr	r0, [r1]
 1514 000c 0549     		ldr	r1, .L196+4
 1515              		.loc 1 212 0
 1516 000e 04CB     		ldmia	r3!, {r2}
 1517              		.loc 1 215 0
 1518 0010 0968     		ldr	r1, [r1]
 1519              		.loc 1 214 0
 1520 0012 0193     		str	r3, [sp, #4]
 1521              		.loc 1 215 0
 1522 0014 FFF7FEFF 		bl	tfp_format
 1523              	.LVL259:
 1524              		.loc 1 217 0
 1525 0018 03B0     		add	sp, sp, #12
 1526              		@ sp needed
 1527 001a 08BC     		pop	{r3}
 1528 001c 04B0     		add	sp, sp, #16
 1529 001e 1847     		bx	r3
 1530              	.L197:
 1531              		.align	2
 1532              	.L196:
 1533 0020 00000000 		.word	.LANCHOR1
 1534 0024 00000000 		.word	.LANCHOR0
 1535              		.cfi_endproc
ARM GAS  /tmp/cce3BzsE.s 			page 28


 1536              	.LFE53:
 1537              		.size	tfp_printf, .-tfp_printf
 1538 0028 C046C046 		.section	.text.tfp_sprintf,"ax",%progbits
 1538      C046C046 
 1539              		.align	2
 1540              		.p2align 4,,15
 1541              		.global	tfp_sprintf
 1542              		.code	16
 1543              		.thumb_func
 1544              		.type	tfp_sprintf, %function
 1545              	tfp_sprintf:
 1546              	.LFB55:
 1547              		.loc 1 227 0
 1548              		.cfi_startproc
 1549              	.LVL260:
 1550 0000 0EB4     		push	{r1, r2, r3}
 1551              		.cfi_def_cfa_offset 12
 1552 0002 F0B5     		push	{r4, r5, r6, r7, lr}
 1553              		.cfi_def_cfa_offset 32
 1554              		.cfi_offset 4, -32
 1555              		.cfi_offset 5, -28
 1556              		.cfi_offset 6, -24
 1557              		.cfi_offset 7, -20
 1558              		.cfi_offset 14, -16
 1559 0004 5F46     		mov	r7, fp
 1560 0006 4D46     		mov	r5, r9
 1561 0008 5646     		mov	r6, r10
 1562 000a 4446     		mov	r4, r8
 1563 000c F0B4     		push	{r4, r5, r6, r7}
 1564              		.cfi_def_cfa_offset 48
 1565              		.cfi_offset 8, -48
 1566              		.cfi_offset 9, -44
 1567              		.cfi_offset 10, -40
 1568              		.cfi_offset 11, -36
 1569 000e 88B0     		sub	sp, sp, #32
 1570              		.cfi_def_cfa_offset 80
 1571              		.loc 1 227 0
 1572 0010 11AA     		add	r2, sp, #68
 1573 0012 08CA     		ldmia	r2!, {r3}
 1574 0014 051C     		mov	r5, r0
 1575 0016 1F1C     		mov	r7, r3
 1576              		.loc 1 229 0
 1577 0018 0492     		str	r2, [sp, #16]
 1578              	.LVL261:
 1579              	.L199:
 1580              	.LBB164:
 1581              	.LBB165:
 1582              		.loc 1 133 0
 1583 001a 3B78     		ldrb	r3, [r7]
 1584              	.LVL262:
 1585 001c 002B     		cmp	r3, #0
 1586 001e 07D0     		beq	.L214
 1587              	.LVL263:
 1588              	.L275:
 1589              		.loc 1 134 0
 1590 0020 252B     		cmp	r3, #37
 1591 0022 11D0     		beq	.L200
ARM GAS  /tmp/cce3BzsE.s 			page 29


 1592              	.LBB166:
 1593              	.LBB167:
 1594              		.loc 1 221 0
 1595 0024 2B70     		strb	r3, [r5]
 1596              	.LBE167:
 1597              	.LBE166:
 1598              		.loc 1 133 0
 1599 0026 0137     		add	r7, r7, #1
 1600              	.LVL264:
 1601 0028 3B78     		ldrb	r3, [r7]
 1602              	.LVL265:
 1603              	.LBB169:
 1604              	.LBB168:
 1605              		.loc 1 221 0
 1606 002a 0135     		add	r5, r5, #1
 1607              	.LVL266:
 1608              	.LBE168:
 1609              	.LBE169:
 1610              		.loc 1 133 0
 1611 002c 002B     		cmp	r3, #0
 1612 002e F7D1     		bne	.L275
 1613              	.LVL267:
 1614              	.L214:
 1615              	.LBE165:
 1616              	.LBE164:
 1617              	.LBB265:
 1618              	.LBB266:
 1619              		.loc 1 221 0
 1620 0030 0023     		mov	r3, #0
 1621 0032 2B70     		strb	r3, [r5]
 1622              	.LBE266:
 1623              	.LBE265:
 1624              		.loc 1 233 0
 1625 0034 08B0     		add	sp, sp, #32
 1626              		@ sp needed
 1627              	.LVL268:
 1628 0036 3CBC     		pop	{r2, r3, r4, r5}
 1629 0038 9046     		mov	r8, r2
 1630 003a 9946     		mov	r9, r3
 1631 003c A246     		mov	r10, r4
 1632 003e AB46     		mov	fp, r5
 1633 0040 F0BC     		pop	{r4, r5, r6, r7}
 1634 0042 08BC     		pop	{r3}
 1635 0044 03B0     		add	sp, sp, #12
 1636 0046 1847     		bx	r3
 1637              	.LVL269:
 1638              	.L200:
 1639              	.LBB267:
 1640              	.LBB264:
 1641              	.LBB170:
 1642              		.loc 1 142 0
 1643 0048 7B78     		ldrb	r3, [r7, #1]
 1644              	.LVL270:
 1645 004a 9946     		mov	r9, r3
 1646              	.LVL271:
 1647              		.loc 1 143 0
 1648 004c 302B     		cmp	r3, #48
ARM GAS  /tmp/cce3BzsE.s 			page 30


 1649 004e 00D1     		bne	.LCB2312
 1650 0050 B8E0     		b	.L202	@long jump
 1651              	.LCB2312:
 1652              		.loc 1 137 0
 1653 0052 0023     		mov	r3, #0
 1654              	.LVL272:
 1655              		.loc 1 142 0
 1656 0054 0237     		add	r7, r7, #2
 1657              	.LVL273:
 1658              		.loc 1 137 0
 1659 0056 0193     		str	r3, [sp, #4]
 1660              	.LVL274:
 1661              	.L203:
 1662              		.loc 1 147 0
 1663 0058 4B46     		mov	r3, r9
 1664 005a 303B     		sub	r3, r3, #48
 1665 005c D9B2     		uxtb	r1, r3
 1666              		.loc 1 141 0
 1667 005e 0024     		mov	r4, #0
 1668              		.loc 1 147 0
 1669 0060 0929     		cmp	r1, #9
 1670 0062 00D8     		bhi	.LCB2331
 1671 0064 8AE0     		b	.L353	@long jump
 1672              	.LCB2331:
 1673              	.LVL275:
 1674              		.loc 1 156 0
 1675 0066 4B46     		mov	r3, r9
 1676 0068 632B     		cmp	r3, #99
 1677 006a 00D1     		bne	.LCB2337
 1678 006c A5E0     		b	.L210	@long jump
 1679              	.LCB2337:
 1680              	.L359:
 1681 006e 632B     		cmp	r3, #99
 1682 0070 7AD9     		bls	.L354
 1683 0072 4B46     		mov	r3, r9
 1684 0074 732B     		cmp	r3, #115
 1685 0076 00D1     		bne	.LCB2347
 1686 0078 F7E0     		b	.L215	@long jump
 1687              	.LCB2347:
 1688 007a 00D8     		bhi	.LCB2349
 1689 007c A8E0     		b	.L355	@long jump
 1690              	.LCB2349:
 1691 007e 4B46     		mov	r3, r9
 1692 0080 752B     		cmp	r3, #117
 1693 0082 00D0     		beq	.LCB2352
 1694 0084 21E1     		b	.L356	@long jump
 1695              	.LCB2352:
 1696              		.loc 1 165 0
 1697 0086 131D     		add	r3, r2, #4
 1698 0088 0393     		str	r3, [sp, #12]
 1699              	.LVL276:
 1700 008a 1368     		ldr	r3, [r2]
 1701              	.LVL277:
 1702              	.LBB171:
 1703              	.LBB172:
 1704              		.loc 1 64 0
 1705 008c 0126     		mov	r6, #1
ARM GAS  /tmp/cce3BzsE.s 			page 31


 1706              	.LBE172:
 1707              	.LBE171:
 1708              		.loc 1 165 0
 1709 008e 9946     		mov	r9, r3
 1710              	.LVL278:
 1711              	.LBB177:
 1712              	.LBB175:
 1713              		.loc 1 64 0
 1714 0090 092B     		cmp	r3, #9
 1715 0092 0FD9     		bls	.L219
 1716 0094 A046     		mov	r8, r4
 1717 0096 1C1C     		mov	r4, r3
 1718              	.LVL279:
 1719              	.L220:
 1720              		.loc 1 65 0
 1721 0098 B300     		lsl	r3, r6, #2
 1722 009a 9E19     		add	r6, r3, r6
 1723              	.LVL280:
 1724 009c 7600     		lsl	r6, r6, #1
 1725              	.LVL281:
 1726              		.loc 1 64 0
 1727 009e 201C     		mov	r0, r4
 1728 00a0 311C     		mov	r1, r6
 1729 00a2 FFF7FEFF 		bl	__aeabi_uidiv
 1730              	.LVL282:
 1731 00a6 0928     		cmp	r0, #9
 1732 00a8 F6D8     		bhi	.L220
 1733 00aa A146     		mov	r9, r4
 1734 00ac 4446     		mov	r4, r8
 1735              	.LVL283:
 1736              		.loc 1 66 0
 1737 00ae 002E     		cmp	r6, #0
 1738 00b0 00D1     		bne	.LCB2404
 1739 00b2 0EE2     		b	.L348	@long jump
 1740              	.LCB2404:
 1741              	.LVL284:
 1742              	.L219:
 1743              	.LBB173:
 1744              		.loc 1 70 0
 1745 00b4 05AB     		add	r3, sp, #20
 1746              	.LVL285:
 1747 00b6 0293     		str	r3, [sp, #8]
 1748 00b8 9B46     		mov	fp, r3
 1749 00ba 0023     		mov	r3, #0
 1750              	.LVL286:
 1751 00bc 2A1C     		mov	r2, r5
 1752 00be 1197     		str	r7, [sp, #68]
 1753 00c0 1F1C     		mov	r7, r3
 1754              	.LVL287:
 1755 00c2 119B     		ldr	r3, [sp, #68]
 1756 00c4 4D46     		mov	r5, r9
 1757              	.LVL288:
 1758 00c6 A046     		mov	r8, r4
 1759 00c8 9A46     		mov	r10, r3
 1760 00ca 9146     		mov	r9, r2
 1761              	.LVL289:
 1762              	.L222:
ARM GAS  /tmp/cce3BzsE.s 			page 32


 1763              		.loc 1 67 0
 1764 00cc 311C     		mov	r1, r6
 1765 00ce 281C     		mov	r0, r5
 1766 00d0 FFF7FEFF 		bl	__aeabi_uidiv
 1767              	.LVL290:
 1768              		.loc 1 68 0
 1769 00d4 311C     		mov	r1, r6
 1770              		.loc 1 67 0
 1771 00d6 041C     		mov	r4, r0
 1772              	.LVL291:
 1773              		.loc 1 68 0
 1774 00d8 281C     		mov	r0, r5
 1775              	.LVL292:
 1776 00da FFF7FEFF 		bl	__aeabi_uidivmod
 1777              	.LVL293:
 1778              		.loc 1 69 0
 1779 00de 301C     		mov	r0, r6
 1780              		.loc 1 68 0
 1781 00e0 0D1C     		mov	r5, r1
 1782              	.LVL294:
 1783              		.loc 1 69 0
 1784 00e2 0A21     		mov	r1, #10
 1785              	.LVL295:
 1786 00e4 FFF7FEFF 		bl	__aeabi_uidiv
 1787              	.LVL296:
 1788 00e8 061C     		mov	r6, r0
 1789              	.LVL297:
 1790              		.loc 1 70 0
 1791 00ea 002F     		cmp	r7, #0
 1792 00ec 01D1     		bne	.L223
 1793              	.LVL298:
 1794 00ee 002C     		cmp	r4, #0
 1795 00f0 0CDD     		ble	.L357
 1796              	.LVL299:
 1797              	.L223:
 1798              		.loc 1 71 0
 1799 00f2 5B46     		mov	r3, fp
 1800 00f4 5A1C     		add	r2, r3, #1
 1801              	.LVL300:
 1802 00f6 5723     		mov	r3, #87
 1803 00f8 092C     		cmp	r4, #9
 1804 00fa 0BDD     		ble	.L276
 1805 00fc 1C19     		add	r4, r3, r4
 1806              	.LVL301:
 1807 00fe 5B46     		mov	r3, fp
 1808              		.loc 1 72 0
 1809 0100 0137     		add	r7, r7, #1
 1810              	.LVL302:
 1811              		.loc 1 71 0
 1812 0102 1C70     		strb	r4, [r3]
 1813              	.LBE173:
 1814              		.loc 1 66 0
 1815 0104 002E     		cmp	r6, #0
 1816 0106 0CD0     		beq	.L358
 1817              	.LVL303:
 1818              	.L225:
 1819              	.LBB174:
ARM GAS  /tmp/cce3BzsE.s 			page 33


 1820              		.loc 1 70 0
 1821 0108 9346     		mov	fp, r2
 1822 010a DFE7     		b	.L222
 1823              	.LVL304:
 1824              	.L357:
 1825 010c 5A46     		mov	r2, fp
 1826 010e 0028     		cmp	r0, #0
 1827 0110 FAD1     		bne	.L225
 1828              	.LVL305:
 1829              		.loc 1 71 0
 1830 0112 0132     		add	r2, r2, #1
 1831              	.LVL306:
 1832              	.L276:
 1833 0114 3023     		mov	r3, #48
 1834 0116 1C19     		add	r4, r3, r4
 1835              	.LVL307:
 1836 0118 5B46     		mov	r3, fp
 1837              		.loc 1 72 0
 1838 011a 0137     		add	r7, r7, #1
 1839              	.LVL308:
 1840              		.loc 1 71 0
 1841 011c 1C70     		strb	r4, [r3]
 1842              	.LBE174:
 1843              		.loc 1 66 0
 1844 011e 002E     		cmp	r6, #0
 1845 0120 F2D1     		bne	.L225
 1846              	.L358:
 1847 0122 4446     		mov	r4, r8
 1848 0124 4D46     		mov	r5, r9
 1849              	.LVL309:
 1850 0126 5746     		mov	r7, r10
 1851              	.LVL310:
 1852              	.L221:
 1853              		.loc 1 75 0
 1854 0128 0023     		mov	r3, #0
 1855 012a 1370     		strb	r3, [r2]
 1856              	.LVL311:
 1857              	.LBE175:
 1858              	.LBE177:
 1859              	.LBB178:
 1860              	.LBB179:
 1861              		.loc 1 115 0
 1862 012c 019B     		ldr	r3, [sp, #4]
 1863 012e 3021     		mov	r1, #48
 1864 0130 002B     		cmp	r3, #0
 1865 0132 00D1     		bne	.L227
 1866 0134 2021     		mov	r1, #32
 1867              	.L227:
 1868              	.LVL312:
 1869              		.loc 1 118 0
 1870 0136 029B     		ldr	r3, [sp, #8]
 1871 0138 1E78     		ldrb	r6, [r3]
 1872              	.LVL313:
 1873 013a 002E     		cmp	r6, #0
 1874 013c 06D1     		bne	.L342
 1875 013e D3E1     		b	.L264
 1876              	.LVL314:
ARM GAS  /tmp/cce3BzsE.s 			page 34


 1877              	.L231:
 1878 0140 5A78     		ldrb	r2, [r3, #1]
 1879              		.loc 1 119 0
 1880 0142 013C     		sub	r4, r4, #1
 1881              	.LVL315:
 1882              		.loc 1 118 0
 1883 0144 002A     		cmp	r2, #0
 1884 0146 00D1     		bne	.LCB2609
 1885 0148 B2E1     		b	.L230	@long jump
 1886              	.LCB2609:
 1887 014a 0133     		add	r3, r3, #1
 1888              	.LVL316:
 1889              	.L342:
 1890 014c 002C     		cmp	r4, #0
 1891 014e F7D1     		bne	.L231
 1892              	.LVL317:
 1893              	.L229:
 1894 0150 04AB     		add	r3, sp, #16
 1895 0152 0533     		add	r3, r3, #5
 1896              	.LVL318:
 1897              	.L232:
 1898              	.LBB180:
 1899              	.LBB181:
 1900              		.loc 1 221 0
 1901 0154 0135     		add	r5, r5, #1
 1902              	.LVL319:
 1903 0156 6A1E     		sub	r2, r5, #1
 1904 0158 0133     		add	r3, r3, #1
 1905 015a 1670     		strb	r6, [r2]
 1906 015c 5A1E     		sub	r2, r3, #1
 1907              	.LVL320:
 1908              	.LBE181:
 1909              	.LBE180:
 1910              		.loc 1 122 0
 1911 015e 1678     		ldrb	r6, [r2]
 1912              	.LVL321:
 1913 0160 002E     		cmp	r6, #0
 1914 0162 F7D1     		bne	.L232
 1915              	.LVL322:
 1916              	.L346:
 1917              	.LBE179:
 1918              	.LBE178:
 1919              		.loc 1 185 0
 1920 0164 039A     		ldr	r2, [sp, #12]
 1921 0166 58E7     		b	.L199
 1922              	.LVL323:
 1923              	.L354:
 1924              		.loc 1 156 0
 1925 0168 252B     		cmp	r3, #37
 1926 016a 00D1     		bne	.LCB2696
 1927 016c F4E0     		b	.L212	@long jump
 1928              	.LCB2696:
 1929 016e 582B     		cmp	r3, #88
 1930 0170 00D1     		bne	.LCB2698
 1931 0172 ADE0     		b	.L213	@long jump
 1932              	.LCB2698:
 1933 0174 002B     		cmp	r3, #0
ARM GAS  /tmp/cce3BzsE.s 			page 35


 1934 0176 00D1     		bne	.LCB2700
 1935 0178 5AE7     		b	.L214	@long jump
 1936              	.LCB2700:
 1937 017a 4EE7     		b	.L199
 1938              	.LVL324:
 1939              	.L353:
 1940 017c 381C     		mov	r0, r7
 1941 017e 4946     		mov	r1, r9
 1942              	.LVL325:
 1943              	.L205:
 1944              	.LBB185:
 1945              	.LBB186:
 1946              	.LBB187:
 1947              	.LBB188:
 1948              		.loc 1 89 0
 1949 0180 DEB2     		uxtb	r6, r3
 1950 0182 071C     		mov	r7, r0
 1951              	.LVL326:
 1952 0184 092E     		cmp	r6, #9
 1953 0186 0AD9     		bls	.L207
 1954              		.loc 1 91 0
 1955 0188 0B1C     		mov	r3, r1
 1956 018a 613B     		sub	r3, r3, #97
 1957 018c 052B     		cmp	r3, #5
 1958 018e 03D9     		bls	.L347
 1959              		.loc 1 93 0
 1960 0190 0B1C     		mov	r3, r1
 1961 0192 413B     		sub	r3, r3, #65
 1962 0194 052B     		cmp	r3, #5
 1963 0196 0BD8     		bhi	.L341
 1964              	.L347:
 1965              		.loc 1 94 0
 1966 0198 0A33     		add	r3, r3, #10
 1967              	.LBE188:
 1968              	.LBE187:
 1969              		.loc 1 104 0
 1970 019a 0A2B     		cmp	r3, #10
 1971 019c 08DC     		bgt	.L341
 1972              	.L207:
 1973              		.loc 1 105 0
 1974 019e A100     		lsl	r1, r4, #2
 1975              	.LVL327:
 1976 01a0 0C19     		add	r4, r1, r4
 1977              	.LVL328:
 1978              		.loc 1 106 0
 1979 01a2 0178     		ldrb	r1, [r0]
 1980              		.loc 1 105 0
 1981 01a4 6400     		lsl	r4, r4, #1
 1982 01a6 1C19     		add	r4, r3, r4
 1983              	.LVL329:
 1984 01a8 0B1C     		mov	r3, r1
 1985 01aa 0130     		add	r0, r0, #1
 1986              	.LVL330:
 1987 01ac 303B     		sub	r3, r3, #48
 1988 01ae E7E7     		b	.L205
 1989              	.LVL331:
 1990              	.L341:
ARM GAS  /tmp/cce3BzsE.s 			page 36


 1991 01b0 8946     		mov	r9, r1
 1992              	.LVL332:
 1993              	.LBE186:
 1994              	.LBE185:
 1995              		.loc 1 156 0
 1996 01b2 4B46     		mov	r3, r9
 1997 01b4 632B     		cmp	r3, #99
 1998 01b6 00D0     		beq	.LCB2776
 1999 01b8 59E7     		b	.L359	@long jump
 2000              	.LCB2776:
 2001              	.LVL333:
 2002              	.L210:
 2003              		.loc 1 189 0
 2004 01ba 1378     		ldrb	r3, [r2]
 2005 01bc 0432     		add	r2, r2, #4
 2006              	.LVL334:
 2007 01be 2B70     		strb	r3, [r5]
 2008              	.LVL335:
 2009              	.LBB189:
 2010              	.LBB190:
 2011              		.loc 1 221 0
 2012 01c0 0135     		add	r5, r5, #1
 2013              	.LVL336:
 2014 01c2 2AE7     		b	.L199
 2015              	.LVL337:
 2016              	.L202:
 2017              	.LBE190:
 2018              	.LBE189:
 2019              		.loc 1 144 0
 2020 01c4 BB78     		ldrb	r3, [r7, #2]
 2021              	.LVL338:
 2022 01c6 0337     		add	r7, r7, #3
 2023              	.LVL339:
 2024 01c8 9946     		mov	r9, r3
 2025              	.LVL340:
 2026              		.loc 1 145 0
 2027 01ca 0123     		mov	r3, #1
 2028 01cc 0193     		str	r3, [sp, #4]
 2029 01ce 43E7     		b	.L203
 2030              	.LVL341:
 2031              	.L355:
 2032              		.loc 1 156 0
 2033 01d0 642B     		cmp	r3, #100
 2034 01d2 00D0     		beq	.LCB2839
 2035 01d4 21E7     		b	.L199	@long jump
 2036              	.LCB2839:
 2037              		.loc 1 175 0
 2038 01d6 131D     		add	r3, r2, #4
 2039 01d8 0393     		str	r3, [sp, #12]
 2040              	.LVL342:
 2041 01da 1368     		ldr	r3, [r2]
 2042              	.LVL343:
 2043 01dc 9846     		mov	r8, r3
 2044              	.LVL344:
 2045              	.LBB191:
 2046              	.LBB192:
 2047              		.loc 1 80 0
ARM GAS  /tmp/cce3BzsE.s 			page 37


 2048 01de 002B     		cmp	r3, #0
 2049 01e0 00DA     		bge	.LCB2851
 2050 01e2 08E1     		b	.L360	@long jump
 2051              	.LCB2851:
 2052 01e4 05AB     		add	r3, sp, #20
 2053              	.LVL345:
 2054 01e6 9B46     		mov	fp, r3
 2055 01e8 0293     		str	r3, [sp, #8]
 2056              	.LVL346:
 2057              	.L233:
 2058              	.LBB193:
 2059              	.LBB194:
 2060              		.loc 1 64 0
 2061 01ea 4346     		mov	r3, r8
 2062              	.LBE194:
 2063              	.LBE193:
 2064              		.loc 1 84 0
 2065 01ec C146     		mov	r9, r8
 2066              	.LVL347:
 2067              	.LBB202:
 2068              	.LBB198:
 2069              		.loc 1 64 0
 2070 01ee 0126     		mov	r6, #1
 2071 01f0 092B     		cmp	r3, #9
 2072 01f2 0FDD     		ble	.L234
 2073 01f4 231C     		mov	r3, r4
 2074 01f6 4446     		mov	r4, r8
 2075              	.LVL348:
 2076 01f8 9846     		mov	r8, r3
 2077              	.LVL349:
 2078              	.L235:
 2079              		.loc 1 65 0
 2080 01fa B300     		lsl	r3, r6, #2
 2081 01fc 9E19     		add	r6, r3, r6
 2082              	.LVL350:
 2083 01fe 7600     		lsl	r6, r6, #1
 2084              	.LVL351:
 2085              		.loc 1 64 0
 2086 0200 201C     		mov	r0, r4
 2087 0202 311C     		mov	r1, r6
 2088 0204 FFF7FEFF 		bl	__aeabi_uidiv
 2089              	.LVL352:
 2090 0208 0928     		cmp	r0, #9
 2091 020a F6D8     		bhi	.L235
 2092 020c 4446     		mov	r4, r8
 2093              	.LVL353:
 2094              		.loc 1 66 0
 2095 020e 002E     		cmp	r6, #0
 2096 0210 00D1     		bne	.LCB2909
 2097 0212 79E1     		b	.L350	@long jump
 2098              	.LCB2909:
 2099              	.LVL354:
 2100              	.L234:
 2101              	.LBB195:
 2102              		.loc 1 70 0
 2103 0214 0023     		mov	r3, #0
 2104 0216 2A1C     		mov	r2, r5
ARM GAS  /tmp/cce3BzsE.s 			page 38


 2105 0218 1197     		str	r7, [sp, #68]
 2106 021a 1F1C     		mov	r7, r3
 2107              	.LVL355:
 2108 021c 119B     		ldr	r3, [sp, #68]
 2109 021e 4D46     		mov	r5, r9
 2110              	.LVL356:
 2111 0220 A046     		mov	r8, r4
 2112 0222 9A46     		mov	r10, r3
 2113 0224 9146     		mov	r9, r2
 2114              	.LVL357:
 2115              	.L237:
 2116              		.loc 1 67 0
 2117 0226 311C     		mov	r1, r6
 2118 0228 281C     		mov	r0, r5
 2119 022a FFF7FEFF 		bl	__aeabi_uidiv
 2120              	.LVL358:
 2121              		.loc 1 68 0
 2122 022e 311C     		mov	r1, r6
 2123              		.loc 1 67 0
 2124 0230 041C     		mov	r4, r0
 2125              	.LVL359:
 2126              		.loc 1 68 0
 2127 0232 281C     		mov	r0, r5
 2128              	.LVL360:
 2129 0234 FFF7FEFF 		bl	__aeabi_uidivmod
 2130              	.LVL361:
 2131              		.loc 1 69 0
 2132 0238 301C     		mov	r0, r6
 2133              		.loc 1 68 0
 2134 023a 0D1C     		mov	r5, r1
 2135              	.LVL362:
 2136              		.loc 1 69 0
 2137 023c 0A21     		mov	r1, #10
 2138              	.LVL363:
 2139 023e FFF7FEFF 		bl	__aeabi_uidiv
 2140              	.LVL364:
 2141 0242 061C     		mov	r6, r0
 2142              	.LVL365:
 2143              		.loc 1 70 0
 2144 0244 002F     		cmp	r7, #0
 2145 0246 02D1     		bne	.L238
 2146              	.LVL366:
 2147 0248 002C     		cmp	r4, #0
 2148 024a 00DC     		bgt	.LCB2981
 2149 024c DEE0     		b	.L361	@long jump
 2150              	.LCB2981:
 2151              	.LVL367:
 2152              	.L238:
 2153              		.loc 1 71 0
 2154 024e 5B46     		mov	r3, fp
 2155 0250 5A1C     		add	r2, r3, #1
 2156              	.LVL368:
 2157 0252 5723     		mov	r3, #87
 2158 0254 092C     		cmp	r4, #9
 2159 0256 00DC     		bgt	.LCB2989
 2160 0258 DDE0     		b	.L277	@long jump
 2161              	.LCB2989:
ARM GAS  /tmp/cce3BzsE.s 			page 39


 2162              	.L241:
 2163 025a 1C19     		add	r4, r3, r4
 2164              	.LVL369:
 2165 025c 5B46     		mov	r3, fp
 2166              		.loc 1 72 0
 2167 025e 0137     		add	r7, r7, #1
 2168              	.LVL370:
 2169              		.loc 1 71 0
 2170 0260 1C70     		strb	r4, [r3]
 2171              	.LBE195:
 2172              		.loc 1 66 0
 2173 0262 002E     		cmp	r6, #0
 2174 0264 7CD0     		beq	.L362
 2175              	.LVL371:
 2176              	.L240:
 2177              	.LBB196:
 2178              		.loc 1 70 0
 2179 0266 9346     		mov	fp, r2
 2180 0268 DDE7     		b	.L237
 2181              	.LVL372:
 2182              	.L215:
 2183              	.LBE196:
 2184              	.LBE198:
 2185              	.LBE202:
 2186              	.LBE192:
 2187              	.LBE191:
 2188              		.loc 1 192 0
 2189 026a 131D     		add	r3, r2, #4
 2190 026c 9846     		mov	r8, r3
 2191              	.LVL373:
 2192 026e 1368     		ldr	r3, [r2]
 2193              	.LVL374:
 2194 0270 9946     		mov	r9, r3
 2195              	.LVL375:
 2196              	.LBB209:
 2197              	.LBB210:
 2198              		.loc 1 118 0
 2199 0272 5E1C     		add	r6, r3, #1
 2200              	.LVL376:
 2201 0274 1B78     		ldrb	r3, [r3]
 2202              	.LVL377:
 2203 0276 002B     		cmp	r3, #0
 2204 0278 00D1     		bne	.LCB3054
 2205 027a 47E1     		b	.L269	@long jump
 2206              	.LCB3054:
 2207 027c 002C     		cmp	r4, #0
 2208 027e 19D0     		beq	.L270
 2209 0280 321C     		mov	r2, r6
 2210 0282 02E0     		b	.L272
 2211              	.LVL378:
 2212              	.L363:
 2213 0284 0132     		add	r2, r2, #1
 2214              	.LVL379:
 2215 0286 002C     		cmp	r4, #0
 2216 0288 14D0     		beq	.L270
 2217              	.LVL380:
 2218              	.L272:
ARM GAS  /tmp/cce3BzsE.s 			page 40


 2219 028a 1178     		ldrb	r1, [r2]
 2220              		.loc 1 119 0
 2221 028c 013C     		sub	r4, r4, #1
 2222              	.LVL381:
 2223              		.loc 1 118 0
 2224 028e 0029     		cmp	r1, #0
 2225 0290 F8D1     		bne	.L363
 2226              		.loc 1 120 0
 2227 0292 621E     		sub	r2, r4, #1
 2228              	.LVL382:
 2229 0294 002C     		cmp	r4, #0
 2230 0296 0DD0     		beq	.L270
 2231              	.L284:
 2232              	.LBB211:
 2233              	.LBB212:
 2234              		.loc 1 221 0
 2235 0298 D443     		mvn	r4, r2
 2236 029a E417     		asr	r4, r4, #31
 2237 029c 1440     		and	r4, r2
 2238 029e 0134     		add	r4, r4, #1
 2239 02a0 281C     		mov	r0, r5
 2240 02a2 2021     		mov	r1, #32
 2241 02a4 221C     		mov	r2, r4
 2242              	.LVL383:
 2243 02a6 FFF7FEFF 		bl	memset
 2244              	.LVL384:
 2245 02aa 4B46     		mov	r3, r9
 2246 02ac 1B78     		ldrb	r3, [r3]
 2247 02ae 2D19     		add	r5, r5, r4
 2248              	.LVL385:
 2249              	.LBE212:
 2250              	.LBE211:
 2251              		.loc 1 122 0
 2252 02b0 002B     		cmp	r3, #0
 2253 02b2 08D0     		beq	.L307
 2254              	.LVL386:
 2255              	.L270:
 2256 02b4 321C     		mov	r2, r6
 2257              	.LVL387:
 2258              	.L274:
 2259              	.LBB213:
 2260              	.LBB214:
 2261              		.loc 1 221 0
 2262 02b6 0135     		add	r5, r5, #1
 2263              	.LVL388:
 2264 02b8 691E     		sub	r1, r5, #1
 2265 02ba 0132     		add	r2, r2, #1
 2266 02bc 0B70     		strb	r3, [r1]
 2267 02be 531E     		sub	r3, r2, #1
 2268              	.LVL389:
 2269              	.LBE214:
 2270              	.LBE213:
 2271              		.loc 1 122 0
 2272 02c0 1B78     		ldrb	r3, [r3]
 2273              	.LVL390:
 2274 02c2 002B     		cmp	r3, #0
 2275 02c4 F7D1     		bne	.L274
ARM GAS  /tmp/cce3BzsE.s 			page 41


 2276              	.LVL391:
 2277              	.L307:
 2278              	.LBE210:
 2279              	.LBE209:
 2280              		.loc 1 192 0
 2281 02c6 4246     		mov	r2, r8
 2282 02c8 A7E6     		b	.L199
 2283              	.LVL392:
 2284              	.L356:
 2285              		.loc 1 156 0
 2286 02ca 782B     		cmp	r3, #120
 2287 02cc 00D0     		beq	.LCB3184
 2288 02ce A4E6     		b	.L199	@long jump
 2289              	.LCB3184:
 2290              	.L213:
 2291              		.loc 1 185 0
 2292 02d0 131D     		add	r3, r2, #4
 2293 02d2 0393     		str	r3, [sp, #12]
 2294              	.LVL393:
 2295 02d4 1368     		ldr	r3, [r2]
 2296              	.LVL394:
 2297              	.LBB216:
 2298              	.LBB217:
 2299              		.loc 1 64 0
 2300 02d6 0126     		mov	r6, #1
 2301              	.LBE217:
 2302              	.LBE216:
 2303              		.loc 1 185 0
 2304 02d8 9846     		mov	r8, r3
 2305              	.LVL395:
 2306              	.LBB230:
 2307              	.LBB224:
 2308              		.loc 1 64 0
 2309 02da 0F2B     		cmp	r3, #15
 2310 02dc 0FD9     		bls	.L248
 2311 02de 231C     		mov	r3, r4
 2312              	.LVL396:
 2313 02e0 4446     		mov	r4, r8
 2314              	.LVL397:
 2315 02e2 9846     		mov	r8, r3
 2316              	.LVL398:
 2317              	.L249:
 2318              		.loc 1 65 0
 2319 02e4 3601     		lsl	r6, r6, #4
 2320              	.LVL399:
 2321              		.loc 1 64 0
 2322 02e6 201C     		mov	r0, r4
 2323 02e8 311C     		mov	r1, r6
 2324 02ea FFF7FEFF 		bl	__aeabi_uidiv
 2325              	.LVL400:
 2326 02ee 0F28     		cmp	r0, #15
 2327 02f0 F8D8     		bhi	.L249
 2328 02f2 4346     		mov	r3, r8
 2329 02f4 A046     		mov	r8, r4
 2330              	.LVL401:
 2331 02f6 1C1C     		mov	r4, r3
 2332              	.LVL402:
ARM GAS  /tmp/cce3BzsE.s 			page 42


 2333              		.loc 1 66 0
 2334 02f8 002E     		cmp	r6, #0
 2335 02fa 00D1     		bne	.LCB3245
 2336 02fc EDE0     		b	.L352	@long jump
 2337              	.LCB3245:
 2338              	.LVL403:
 2339              	.L248:
 2340 02fe 4B46     		mov	r3, r9
 2341 0300 582B     		cmp	r3, #88
 2342 0302 50D0     		beq	.L364
 2343              		.loc 1 63 0
 2344 0304 05AB     		add	r3, sp, #20
 2345              	.LVL404:
 2346 0306 0293     		str	r3, [sp, #8]
 2347 0308 9A46     		mov	r10, r3
 2348 030a 0023     		mov	r3, #0
 2349              	.LVL405:
 2350 030c 1197     		str	r7, [sp, #68]
 2351 030e 1F1C     		mov	r7, r3
 2352              	.LVL406:
 2353 0310 119B     		ldr	r3, [sp, #68]
 2354 0312 A946     		mov	r9, r5
 2355              	.LVL407:
 2356 0314 9B46     		mov	fp, r3
 2357 0316 4546     		mov	r5, r8
 2358              	.LVL408:
 2359 0318 A046     		mov	r8, r4
 2360              	.LVL409:
 2361              	.L258:
 2362              	.LBB218:
 2363              		.loc 1 67 0
 2364 031a 311C     		mov	r1, r6
 2365 031c 281C     		mov	r0, r5
 2366 031e FFF7FEFF 		bl	__aeabi_uidiv
 2367              	.LVL410:
 2368              		.loc 1 68 0
 2369 0322 311C     		mov	r1, r6
 2370              		.loc 1 67 0
 2371 0324 041C     		mov	r4, r0
 2372              	.LVL411:
 2373              		.loc 1 68 0
 2374 0326 281C     		mov	r0, r5
 2375              	.LVL412:
 2376 0328 FFF7FEFF 		bl	__aeabi_uidivmod
 2377              	.LVL413:
 2378              		.loc 1 69 0
 2379 032c 3609     		lsr	r6, r6, #4
 2380              		.loc 1 68 0
 2381 032e 0D1C     		mov	r5, r1
 2382              		.loc 1 70 0
 2383 0330 002F     		cmp	r7, #0
 2384 0332 02D1     		bne	.L257
 2385              	.LVL414:
 2386 0334 002C     		cmp	r4, #0
 2387 0336 00DC     		bgt	.LCB3314
 2388 0338 9AE0     		b	.L365	@long jump
 2389              	.LCB3314:
ARM GAS  /tmp/cce3BzsE.s 			page 43


 2390              	.LVL415:
 2391              	.L257:
 2392              		.loc 1 71 0
 2393 033a 5346     		mov	r3, r10
 2394 033c 3022     		mov	r2, #48
 2395 033e 0133     		add	r3, r3, #1
 2396              	.LVL416:
 2397 0340 092C     		cmp	r4, #9
 2398 0342 00DD     		ble	.L254
 2399 0344 5722     		mov	r2, #87
 2400              	.L254:
 2401 0346 1419     		add	r4, r2, r4
 2402              	.LVL417:
 2403 0348 5246     		mov	r2, r10
 2404              		.loc 1 72 0
 2405 034a 0137     		add	r7, r7, #1
 2406              	.LVL418:
 2407              		.loc 1 71 0
 2408 034c 1470     		strb	r4, [r2]
 2409              	.LBE218:
 2410              		.loc 1 66 0
 2411 034e 002E     		cmp	r6, #0
 2412 0350 00D1     		bne	.LCB3337
 2413 0352 C5E0     		b	.L344	@long jump
 2414              	.LCB3337:
 2415              		.loc 1 63 0
 2416 0354 9A46     		mov	r10, r3
 2417 0356 E0E7     		b	.L258
 2418              	.LVL419:
 2419              	.L212:
 2420              	.LBE224:
 2421              	.LBE230:
 2422              	.LBB231:
 2423              	.LBB232:
 2424              		.loc 1 221 0
 2425 0358 4B46     		mov	r3, r9
 2426 035a 2B70     		strb	r3, [r5]
 2427 035c 0135     		add	r5, r5, #1
 2428              	.LVL420:
 2429 035e 5CE6     		b	.L199
 2430              	.LVL421:
 2431              	.L362:
 2432 0360 4446     		mov	r4, r8
 2433 0362 4D46     		mov	r5, r9
 2434              	.LVL422:
 2435 0364 5746     		mov	r7, r10
 2436              	.LVL423:
 2437              	.L236:
 2438              	.LBE232:
 2439              	.LBE231:
 2440              	.LBB233:
 2441              	.LBB206:
 2442              	.LBB203:
 2443              	.LBB199:
 2444              		.loc 1 75 0
 2445 0366 0023     		mov	r3, #0
 2446 0368 1370     		strb	r3, [r2]
ARM GAS  /tmp/cce3BzsE.s 			page 44


 2447              	.LVL424:
 2448              	.LBE199:
 2449              	.LBE203:
 2450              	.LBE206:
 2451              	.LBE233:
 2452              	.LBB234:
 2453              	.LBB235:
 2454              		.loc 1 115 0
 2455 036a 019B     		ldr	r3, [sp, #4]
 2456 036c 3021     		mov	r1, #48
 2457 036e 002B     		cmp	r3, #0
 2458 0370 00D1     		bne	.L242
 2459 0372 2021     		mov	r1, #32
 2460              	.L242:
 2461              	.LVL425:
 2462              		.loc 1 118 0
 2463 0374 029B     		ldr	r3, [sp, #8]
 2464 0376 1E78     		ldrb	r6, [r3]
 2465              	.LVL426:
 2466 0378 002E     		cmp	r6, #0
 2467 037a 06D1     		bne	.L343
 2468 037c B4E0     		b	.L264
 2469              	.LVL427:
 2470              	.L246:
 2471 037e 5A78     		ldrb	r2, [r3, #1]
 2472              		.loc 1 119 0
 2473 0380 013C     		sub	r4, r4, #1
 2474              	.LVL428:
 2475              		.loc 1 118 0
 2476 0382 002A     		cmp	r2, #0
 2477 0384 00D1     		bne	.LCB3459
 2478 0386 85E0     		b	.L245	@long jump
 2479              	.LCB3459:
 2480 0388 0133     		add	r3, r3, #1
 2481              	.LVL429:
 2482              	.L343:
 2483 038a 002C     		cmp	r4, #0
 2484 038c F7D1     		bne	.L246
 2485              	.LVL430:
 2486              	.L244:
 2487 038e 04AB     		add	r3, sp, #16
 2488 0390 0533     		add	r3, r3, #5
 2489              	.LVL431:
 2490              	.L247:
 2491              	.LBB236:
 2492              	.LBB237:
 2493              		.loc 1 221 0
 2494 0392 0135     		add	r5, r5, #1
 2495              	.LVL432:
 2496 0394 6A1E     		sub	r2, r5, #1
 2497 0396 0133     		add	r3, r3, #1
 2498 0398 1670     		strb	r6, [r2]
 2499 039a 5A1E     		sub	r2, r3, #1
 2500              	.LVL433:
 2501              	.LBE237:
 2502              	.LBE236:
 2503              		.loc 1 122 0
ARM GAS  /tmp/cce3BzsE.s 			page 45


 2504 039c 1678     		ldrb	r6, [r2]
 2505              	.LVL434:
 2506 039e 002E     		cmp	r6, #0
 2507 03a0 F7D1     		bne	.L247
 2508              	.LVL435:
 2509              	.LBE235:
 2510              	.LBE234:
 2511              		.loc 1 185 0
 2512 03a2 039A     		ldr	r2, [sp, #12]
 2513              	.LVL436:
 2514 03a4 39E6     		b	.L199
 2515              	.LVL437:
 2516              	.L364:
 2517              	.LBB241:
 2518              	.LBB225:
 2519              	.LBB219:
 2520              		.loc 1 70 0
 2521 03a6 05AB     		add	r3, sp, #20
 2522              	.LVL438:
 2523 03a8 0293     		str	r3, [sp, #8]
 2524 03aa 9A46     		mov	r10, r3
 2525 03ac 0023     		mov	r3, #0
 2526              	.LVL439:
 2527 03ae 1197     		str	r7, [sp, #68]
 2528 03b0 1F1C     		mov	r7, r3
 2529              	.LVL440:
 2530 03b2 119B     		ldr	r3, [sp, #68]
 2531 03b4 A946     		mov	r9, r5
 2532              	.LVL441:
 2533 03b6 9B46     		mov	fp, r3
 2534 03b8 4546     		mov	r5, r8
 2535              	.LVL442:
 2536 03ba A046     		mov	r8, r4
 2537              	.LVL443:
 2538              	.L252:
 2539              		.loc 1 67 0
 2540 03bc 311C     		mov	r1, r6
 2541 03be 281C     		mov	r0, r5
 2542 03c0 FFF7FEFF 		bl	__aeabi_uidiv
 2543              	.LVL444:
 2544              		.loc 1 68 0
 2545 03c4 311C     		mov	r1, r6
 2546              		.loc 1 67 0
 2547 03c6 041C     		mov	r4, r0
 2548              	.LVL445:
 2549              		.loc 1 68 0
 2550 03c8 281C     		mov	r0, r5
 2551              	.LVL446:
 2552 03ca FFF7FEFF 		bl	__aeabi_uidivmod
 2553              	.LVL447:
 2554              		.loc 1 69 0
 2555 03ce 3609     		lsr	r6, r6, #4
 2556              		.loc 1 68 0
 2557 03d0 0D1C     		mov	r5, r1
 2558              		.loc 1 70 0
 2559 03d2 002F     		cmp	r7, #0
 2560 03d4 01D1     		bne	.L259
ARM GAS  /tmp/cce3BzsE.s 			page 46


 2561              	.LVL448:
 2562 03d6 002C     		cmp	r4, #0
 2563 03d8 1FDD     		ble	.L366
 2564              	.LVL449:
 2565              	.L259:
 2566              		.loc 1 71 0
 2567 03da 5346     		mov	r3, r10
 2568 03dc 3022     		mov	r2, #48
 2569 03de 0133     		add	r3, r3, #1
 2570              	.LVL450:
 2571 03e0 092C     		cmp	r4, #9
 2572 03e2 00DD     		ble	.L262
 2573 03e4 3722     		mov	r2, #55
 2574              	.L262:
 2575 03e6 1419     		add	r4, r2, r4
 2576              	.LVL451:
 2577 03e8 5246     		mov	r2, r10
 2578              		.loc 1 72 0
 2579 03ea 0137     		add	r7, r7, #1
 2580              	.LVL452:
 2581              		.loc 1 71 0
 2582 03ec 1470     		strb	r4, [r2]
 2583              	.LBE219:
 2584              		.loc 1 66 0
 2585 03ee 002E     		cmp	r6, #0
 2586 03f0 76D0     		beq	.L344
 2587              	.LBB220:
 2588              		.loc 1 70 0
 2589 03f2 9A46     		mov	r10, r3
 2590 03f4 E2E7     		b	.L252
 2591              	.LVL453:
 2592              	.L360:
 2593              	.LBE220:
 2594              	.LBE225:
 2595              	.LBE241:
 2596              	.LBB242:
 2597              	.LBB207:
 2598              		.loc 1 81 0
 2599 03f6 5B42     		neg	r3, r3
 2600 03f8 9846     		mov	r8, r3
 2601              	.LVL454:
 2602              		.loc 1 82 0
 2603 03fa 05AB     		add	r3, sp, #20
 2604 03fc 1A1C     		mov	r2, r3
 2605 03fe 0293     		str	r3, [sp, #8]
 2606 0400 2D23     		mov	r3, #45
 2607 0402 1370     		strb	r3, [r2]
 2608 0404 04AB     		add	r3, sp, #16
 2609 0406 0533     		add	r3, r3, #5
 2610 0408 9B46     		mov	fp, r3
 2611 040a EEE6     		b	.L233
 2612              	.LVL455:
 2613              	.L361:
 2614              	.LBB204:
 2615              	.LBB200:
 2616              	.LBB197:
 2617              		.loc 1 70 0
ARM GAS  /tmp/cce3BzsE.s 			page 47


 2618 040c 5A46     		mov	r2, fp
 2619 040e 0028     		cmp	r0, #0
 2620 0410 00D0     		beq	.LCB3688
 2621 0412 28E7     		b	.L240	@long jump
 2622              	.LCB3688:
 2623              	.LVL456:
 2624              		.loc 1 71 0
 2625 0414 0132     		add	r2, r2, #1
 2626              	.LVL457:
 2627              	.L277:
 2628 0416 3023     		mov	r3, #48
 2629 0418 1FE7     		b	.L241
 2630              	.LVL458:
 2631              	.L366:
 2632              	.LBE197:
 2633              	.LBE200:
 2634              	.LBE204:
 2635              	.LBE207:
 2636              	.LBE242:
 2637              	.LBB243:
 2638              	.LBB226:
 2639              	.LBB221:
 2640              		.loc 1 70 0
 2641 041a 002E     		cmp	r6, #0
 2642 041c 56D1     		bne	.L367
 2643              	.L260:
 2644 041e 4D46     		mov	r5, r9
 2645 0420 A146     		mov	r9, r4
 2646              	.LVL459:
 2647              		.loc 1 71 0
 2648 0422 4A46     		mov	r2, r9
 2649 0424 5346     		mov	r3, r10
 2650 0426 5146     		mov	r1, r10
 2651 0428 5F46     		mov	r7, fp
 2652 042a 4446     		mov	r4, r8
 2653              	.LVL460:
 2654 042c 3032     		add	r2, r2, #48
 2655              	.LVL461:
 2656 042e 0133     		add	r3, r3, #1
 2657              	.LVL462:
 2658 0430 0A70     		strb	r2, [r1]
 2659              	.LVL463:
 2660              	.L250:
 2661              	.LBE221:
 2662              		.loc 1 75 0
 2663 0432 0022     		mov	r2, #0
 2664 0434 1A70     		strb	r2, [r3]
 2665              	.LVL464:
 2666              	.LBE226:
 2667              	.LBE243:
 2668              	.LBB244:
 2669              	.LBB245:
 2670              		.loc 1 115 0
 2671 0436 019B     		ldr	r3, [sp, #4]
 2672              	.LVL465:
 2673 0438 3021     		mov	r1, #48
 2674 043a 002B     		cmp	r3, #0
ARM GAS  /tmp/cce3BzsE.s 			page 48


 2675 043c 00D1     		bne	.L263
 2676 043e 2021     		mov	r1, #32
 2677              	.L263:
 2678              	.LVL466:
 2679              		.loc 1 118 0
 2680 0440 029B     		ldr	r3, [sp, #8]
 2681 0442 1E78     		ldrb	r6, [r3]
 2682 0444 002E     		cmp	r6, #0
 2683 0446 05D1     		bne	.L345
 2684 0448 4EE0     		b	.L264
 2685              	.LVL467:
 2686              	.L267:
 2687 044a 5A78     		ldrb	r2, [r3, #1]
 2688              		.loc 1 119 0
 2689 044c 013C     		sub	r4, r4, #1
 2690              	.LVL468:
 2691              		.loc 1 118 0
 2692 044e 002A     		cmp	r2, #0
 2693 0450 13D0     		beq	.L266
 2694 0452 0133     		add	r3, r3, #1
 2695              	.LVL469:
 2696              	.L345:
 2697 0454 002C     		cmp	r4, #0
 2698 0456 F8D1     		bne	.L267
 2699              	.LVL470:
 2700              	.L265:
 2701 0458 04AB     		add	r3, sp, #16
 2702 045a 0533     		add	r3, r3, #5
 2703              	.LVL471:
 2704              	.L268:
 2705              	.LBB246:
 2706              	.LBB247:
 2707              		.loc 1 221 0
 2708 045c 0135     		add	r5, r5, #1
 2709              	.LVL472:
 2710 045e 6A1E     		sub	r2, r5, #1
 2711 0460 0133     		add	r3, r3, #1
 2712 0462 1670     		strb	r6, [r2]
 2713 0464 5A1E     		sub	r2, r3, #1
 2714              	.LVL473:
 2715              	.LBE247:
 2716              	.LBE246:
 2717              		.loc 1 122 0
 2718 0466 1678     		ldrb	r6, [r2]
 2719              	.LVL474:
 2720 0468 002E     		cmp	r6, #0
 2721 046a F7D1     		bne	.L268
 2722              	.LBE245:
 2723              	.LBE244:
 2724              		.loc 1 185 0
 2725 046c 039A     		ldr	r2, [sp, #12]
 2726 046e D4E5     		b	.L199
 2727              	.LVL475:
 2728              	.L365:
 2729              	.LBB254:
 2730              	.LBB227:
 2731              	.LBB222:
ARM GAS  /tmp/cce3BzsE.s 			page 49


 2732              		.loc 1 70 0
 2733 0470 002E     		cmp	r6, #0
 2734 0472 D4D0     		beq	.L260
 2735 0474 5346     		mov	r3, r10
 2736              	.LBE222:
 2737              		.loc 1 63 0
 2738 0476 9A46     		mov	r10, r3
 2739              	.LVL476:
 2740 0478 4FE7     		b	.L258
 2741              	.LVL477:
 2742              	.L266:
 2743              	.LBE227:
 2744              	.LBE254:
 2745              	.LBB255:
 2746              	.LBB252:
 2747              		.loc 1 120 0
 2748 047a 631E     		sub	r3, r4, #1
 2749              	.LVL478:
 2750 047c 002C     		cmp	r4, #0
 2751 047e EBD0     		beq	.L265
 2752              	.LBB248:
 2753              	.LBB249:
 2754              		.loc 1 221 0
 2755 0480 DC43     		mvn	r4, r3
 2756 0482 E417     		asr	r4, r4, #31
 2757 0484 1C40     		and	r4, r3
 2758 0486 0134     		add	r4, r4, #1
 2759 0488 281C     		mov	r0, r5
 2760 048a 221C     		mov	r2, r4
 2761 048c FFF7FEFF 		bl	memset
 2762              	.LVL479:
 2763 0490 2D19     		add	r5, r5, r4
 2764              	.LVL480:
 2765 0492 E1E7     		b	.L265
 2766              	.LVL481:
 2767              	.L245:
 2768              	.LBE249:
 2769              	.LBE248:
 2770              	.LBE252:
 2771              	.LBE255:
 2772              	.LBB256:
 2773              	.LBB240:
 2774              		.loc 1 120 0
 2775 0494 631E     		sub	r3, r4, #1
 2776              	.LVL482:
 2777 0496 002C     		cmp	r4, #0
 2778 0498 00D1     		bne	.LCB3994
 2779 049a 78E7     		b	.L244	@long jump
 2780              	.LCB3994:
 2781              	.LBB238:
 2782              	.LBB239:
 2783              		.loc 1 221 0
 2784 049c DC43     		mvn	r4, r3
 2785 049e E417     		asr	r4, r4, #31
 2786 04a0 1C40     		and	r4, r3
 2787 04a2 0134     		add	r4, r4, #1
 2788 04a4 281C     		mov	r0, r5
ARM GAS  /tmp/cce3BzsE.s 			page 50


 2789 04a6 221C     		mov	r2, r4
 2790 04a8 FFF7FEFF 		bl	memset
 2791              	.LVL483:
 2792 04ac 2D19     		add	r5, r5, r4
 2793              	.LVL484:
 2794 04ae 6EE7     		b	.L244
 2795              	.LVL485:
 2796              	.L230:
 2797              	.LBE239:
 2798              	.LBE238:
 2799              	.LBE240:
 2800              	.LBE256:
 2801              	.LBB257:
 2802              	.LBB184:
 2803              		.loc 1 120 0
 2804 04b0 631E     		sub	r3, r4, #1
 2805              	.LVL486:
 2806 04b2 002C     		cmp	r4, #0
 2807 04b4 00D1     		bne	.LCB4056
 2808 04b6 4BE6     		b	.L229	@long jump
 2809              	.LCB4056:
 2810              	.LBB182:
 2811              	.LBB183:
 2812              		.loc 1 221 0
 2813 04b8 DC43     		mvn	r4, r3
 2814 04ba E417     		asr	r4, r4, #31
 2815 04bc 1C40     		and	r4, r3
 2816 04be 0134     		add	r4, r4, #1
 2817 04c0 281C     		mov	r0, r5
 2818 04c2 221C     		mov	r2, r4
 2819 04c4 FFF7FEFF 		bl	memset
 2820              	.LVL487:
 2821 04c8 2D19     		add	r5, r5, r4
 2822              	.LVL488:
 2823 04ca 41E6     		b	.L229
 2824              	.LVL489:
 2825              	.L367:
 2826              	.LBE183:
 2827              	.LBE182:
 2828              	.LBE184:
 2829              	.LBE257:
 2830              	.LBB258:
 2831              	.LBB228:
 2832              	.LBB223:
 2833              		.loc 1 70 0
 2834 04cc 5346     		mov	r3, r10
 2835 04ce 9A46     		mov	r10, r3
 2836              	.LVL490:
 2837 04d0 74E7     		b	.L252
 2838              	.LVL491:
 2839              	.L348:
 2840              	.LBE223:
 2841              	.LBE228:
 2842              	.LBE258:
 2843              	.LBB259:
 2844              	.LBB176:
 2845              		.loc 1 66 0
ARM GAS  /tmp/cce3BzsE.s 			page 51


 2846 04d2 05AB     		add	r3, sp, #20
 2847              	.LVL492:
 2848 04d4 0293     		str	r3, [sp, #8]
 2849 04d6 1A1C     		mov	r2, r3
 2850 04d8 26E6     		b	.L221
 2851              	.LVL493:
 2852              	.L352:
 2853              	.LBE176:
 2854              	.LBE259:
 2855              	.LBB260:
 2856              	.LBB229:
 2857 04da 05AB     		add	r3, sp, #20
 2858              	.LVL494:
 2859 04dc 0293     		str	r3, [sp, #8]
 2860 04de A8E7     		b	.L250
 2861              	.LVL495:
 2862              	.L344:
 2863 04e0 4446     		mov	r4, r8
 2864 04e2 4D46     		mov	r5, r9
 2865 04e4 5F46     		mov	r7, fp
 2866              	.LVL496:
 2867 04e6 A4E7     		b	.L250
 2868              	.LVL497:
 2869              	.L264:
 2870              	.LBE229:
 2871              	.LBE260:
 2872              	.LBB261:
 2873              	.LBB253:
 2874              		.loc 1 120 0
 2875 04e8 621E     		sub	r2, r4, #1
 2876              	.LVL498:
 2877 04ea 002C     		cmp	r4, #0
 2878 04ec 00D1     		bne	.LCB4214
 2879 04ee 39E6     		b	.L346	@long jump
 2880              	.LCB4214:
 2881              	.LBB251:
 2882              	.LBB250:
 2883              		.loc 1 221 0
 2884 04f0 D343     		mvn	r3, r2
 2885 04f2 DB17     		asr	r3, r3, #31
 2886 04f4 1A40     		and	r2, r3
 2887              	.LVL499:
 2888 04f6 141C     		mov	r4, r2
 2889              	.LVL500:
 2890 04f8 0134     		add	r4, r4, #1
 2891 04fa 281C     		mov	r0, r5
 2892 04fc 221C     		mov	r2, r4
 2893 04fe FFF7FEFF 		bl	memset
 2894              	.LVL501:
 2895 0502 2D19     		add	r5, r5, r4
 2896              	.LVL502:
 2897              	.LBE250:
 2898              	.LBE251:
 2899              	.LBE253:
 2900              	.LBE261:
 2901              		.loc 1 185 0
 2902 0504 039A     		ldr	r2, [sp, #12]
ARM GAS  /tmp/cce3BzsE.s 			page 52


 2903 0506 88E5     		b	.L199
 2904              	.LVL503:
 2905              	.L350:
 2906              	.LBB262:
 2907              	.LBB208:
 2908              	.LBB205:
 2909              	.LBB201:
 2910              		.loc 1 66 0
 2911 0508 5A46     		mov	r2, fp
 2912 050a 2CE7     		b	.L236
 2913              	.LVL504:
 2914              	.L269:
 2915              	.LBE201:
 2916              	.LBE205:
 2917              	.LBE208:
 2918              	.LBE262:
 2919              	.LBB263:
 2920              	.LBB215:
 2921              		.loc 1 120 0
 2922 050c 621E     		sub	r2, r4, #1
 2923              	.LVL505:
 2924 050e 002C     		cmp	r4, #0
 2925 0510 00D0     		beq	.LCB4300
 2926 0512 C1E6     		b	.L284	@long jump
 2927              	.LCB4300:
 2928              	.LBE215:
 2929              	.LBE263:
 2930              		.loc 1 192 0
 2931 0514 4246     		mov	r2, r8
 2932              	.LVL506:
 2933 0516 80E5     		b	.L199
 2934              	.LBE170:
 2935              	.LBE264:
 2936              	.LBE267:
 2937              		.cfi_endproc
 2938              	.LFE55:
 2939              		.size	tfp_sprintf, .-tfp_sprintf
 2940 0518 C046C046 		.section	.bss.stdout_putf,"aw",%nobits
 2940      C046C046 
 2941              		.align	2
 2942              	.LANCHOR0 = . + 0
 2943              		.type	stdout_putf, %object
 2944              		.size	stdout_putf, 4
 2945              	stdout_putf:
 2946 0000 00000000 		.space	4
 2947              		.section	.bss.stdout_putp,"aw",%nobits
 2948              		.align	2
 2949              	.LANCHOR1 = . + 0
 2950              		.type	stdout_putp, %object
 2951              		.size	stdout_putp, 4
 2952              	stdout_putp:
 2953 0000 00000000 		.space	4
 2954              		.text
 2955              	.Letext0:
 2956              		.file 2 "/usr/lib/gcc/arm-linux-gnueabihf/4.9/include/stdarg.h"
 2957              		.file 3 "<built-in>"
 2958              		.section	.debug_info,"",%progbits
ARM GAS  /tmp/cce3BzsE.s 			page 53


 2959              	.Ldebug_info0:
 2960 0000 9D0D0000 		.4byte	0xd9d
 2961 0004 0400     		.2byte	0x4
 2962 0006 00000000 		.4byte	.Ldebug_abbrev0
 2963 000a 04       		.byte	0x4
 2964 000b 01       		.uleb128 0x1
 2965 000c C8000000 		.4byte	.LASF25
 2966 0010 01       		.byte	0x1
 2967 0011 69000000 		.4byte	.LASF26
 2968 0015 3B020000 		.4byte	.LASF27
 2969 0019 A8030000 		.4byte	.Ldebug_ranges0+0x3a8
 2970 001d 00000000 		.4byte	0
 2971 0021 00000000 		.4byte	.Ldebug_line0
 2972 0025 02       		.uleb128 0x2
 2973 0026 04       		.byte	0x4
 2974 0027 05       		.byte	0x5
 2975 0028 696E7400 		.ascii	"int\000"
 2976 002c 03       		.uleb128 0x3
 2977 002d 04       		.byte	0x4
 2978 002e 07       		.byte	0x7
 2979 002f 99000000 		.4byte	.LASF0
 2980 0033 03       		.uleb128 0x3
 2981 0034 01       		.byte	0x1
 2982 0035 06       		.byte	0x6
 2983 0036 1E020000 		.4byte	.LASF1
 2984 003a 03       		.uleb128 0x3
 2985 003b 02       		.byte	0x2
 2986 003c 05       		.byte	0x5
 2987 003d 02020000 		.4byte	.LASF2
 2988 0041 03       		.uleb128 0x3
 2989 0042 08       		.byte	0x8
 2990 0043 05       		.byte	0x5
 2991 0044 E5010000 		.4byte	.LASF3
 2992 0048 03       		.uleb128 0x3
 2993 0049 01       		.byte	0x1
 2994 004a 08       		.byte	0x8
 2995 004b 19000000 		.4byte	.LASF4
 2996 004f 03       		.uleb128 0x3
 2997 0050 02       		.byte	0x2
 2998 0051 07       		.byte	0x7
 2999 0052 3D000000 		.4byte	.LASF5
 3000 0056 03       		.uleb128 0x3
 3001 0057 08       		.byte	0x8
 3002 0058 07       		.byte	0x7
 3003 0059 AC000000 		.4byte	.LASF6
 3004 005d 03       		.uleb128 0x3
 3005 005e 04       		.byte	0x4
 3006 005f 07       		.byte	0x7
 3007 0060 D2010000 		.4byte	.LASF7
 3008 0064 04       		.uleb128 0x4
 3009 0065 04       		.byte	0x4
 3010 0066 03       		.uleb128 0x3
 3011 0067 01       		.byte	0x1
 3012 0068 08       		.byte	0x8
 3013 0069 F3010000 		.4byte	.LASF8
 3014 006d 05       		.uleb128 0x5
 3015 006e 7E000000 		.4byte	.LASF9
ARM GAS  /tmp/cce3BzsE.s 			page 54


 3016 0072 02       		.byte	0x2
 3017 0073 28       		.byte	0x28
 3018 0074 78000000 		.4byte	0x78
 3019 0078 06       		.uleb128 0x6
 3020 0079 DB010000 		.4byte	.LASF28
 3021 007d 04       		.byte	0x4
 3022 007e 03       		.byte	0x3
 3023 007f 00       		.byte	0
 3024 0080 8F000000 		.4byte	0x8f
 3025 0084 07       		.uleb128 0x7
 3026 0085 C3000000 		.4byte	.LASF29
 3027 0089 64000000 		.4byte	0x64
 3028 008d 00       		.byte	0
 3029 008e 00       		.byte	0
 3030 008f 05       		.uleb128 0x5
 3031 0090 0B000000 		.4byte	.LASF10
 3032 0094 02       		.byte	0x2
 3033 0095 62       		.byte	0x62
 3034 0096 6D000000 		.4byte	0x6d
 3035 009a 05       		.uleb128 0x5
 3036 009b 13000000 		.4byte	.LASF11
 3037 009f 01       		.byte	0x1
 3038 00a0 19       		.byte	0x19
 3039 00a1 A5000000 		.4byte	0xa5
 3040 00a5 08       		.uleb128 0x8
 3041 00a6 04       		.byte	0x4
 3042 00a7 AB000000 		.4byte	0xab
 3043 00ab 09       		.uleb128 0x9
 3044 00ac BB000000 		.4byte	0xbb
 3045 00b0 0A       		.uleb128 0xa
 3046 00b1 64000000 		.4byte	0x64
 3047 00b5 0A       		.uleb128 0xa
 3048 00b6 66000000 		.4byte	0x66
 3049 00ba 00       		.byte	0
 3050 00bb 0B       		.uleb128 0xb
 3051 00bc 61326400 		.ascii	"a2d\000"
 3052 00c0 01       		.byte	0x1
 3053 00c1 57       		.byte	0x57
 3054 00c2 25000000 		.4byte	0x25
 3055 00c6 01       		.byte	0x1
 3056 00c7 D6000000 		.4byte	0xd6
 3057 00cb 0C       		.uleb128 0xc
 3058 00cc 636800   		.ascii	"ch\000"
 3059 00cf 01       		.byte	0x1
 3060 00d0 57       		.byte	0x57
 3061 00d1 66000000 		.4byte	0x66
 3062 00d5 00       		.byte	0
 3063 00d6 0D       		.uleb128 0xd
 3064 00d7 50000000 		.4byte	.LASF12
 3065 00db 01       		.byte	0x1
 3066 00dc DB       		.byte	0xdb
 3067 00dd 01       		.byte	0x1
 3068 00de F5000000 		.4byte	0xf5
 3069 00e2 0C       		.uleb128 0xc
 3070 00e3 7000     		.ascii	"p\000"
 3071 00e5 01       		.byte	0x1
 3072 00e6 DB       		.byte	0xdb
ARM GAS  /tmp/cce3BzsE.s 			page 55


 3073 00e7 64000000 		.4byte	0x64
 3074 00eb 0C       		.uleb128 0xc
 3075 00ec 6300     		.ascii	"c\000"
 3076 00ee 01       		.byte	0x1
 3077 00ef DB       		.byte	0xdb
 3078 00f0 66000000 		.4byte	0x66
 3079 00f4 00       		.byte	0
 3080 00f5 0D       		.uleb128 0xd
 3081 00f6 36020000 		.4byte	.LASF13
 3082 00fa 01       		.byte	0x1
 3083 00fb 3C       		.byte	0x3c
 3084 00fc 01       		.byte	0x1
 3085 00fd 4B010000 		.4byte	0x14b
 3086 0101 0C       		.uleb128 0xc
 3087 0102 6E756D00 		.ascii	"num\000"
 3088 0106 01       		.byte	0x1
 3089 0107 3C       		.byte	0x3c
 3090 0108 2C000000 		.4byte	0x2c
 3091 010c 0E       		.uleb128 0xe
 3092 010d 38000000 		.4byte	.LASF14
 3093 0111 01       		.byte	0x1
 3094 0112 3C       		.byte	0x3c
 3095 0113 2C000000 		.4byte	0x2c
 3096 0117 0C       		.uleb128 0xc
 3097 0118 756300   		.ascii	"uc\000"
 3098 011b 01       		.byte	0x1
 3099 011c 3C       		.byte	0x3c
 3100 011d 25000000 		.4byte	0x25
 3101 0121 0C       		.uleb128 0xc
 3102 0122 626600   		.ascii	"bf\000"
 3103 0125 01       		.byte	0x1
 3104 0126 3C       		.byte	0x3c
 3105 0127 4B010000 		.4byte	0x14b
 3106 012b 0F       		.uleb128 0xf
 3107 012c 6E00     		.ascii	"n\000"
 3108 012e 01       		.byte	0x1
 3109 012f 3E       		.byte	0x3e
 3110 0130 25000000 		.4byte	0x25
 3111 0134 0F       		.uleb128 0xf
 3112 0135 6400     		.ascii	"d\000"
 3113 0137 01       		.byte	0x1
 3114 0138 3F       		.byte	0x3f
 3115 0139 2C000000 		.4byte	0x2c
 3116 013d 10       		.uleb128 0x10
 3117 013e 0F       		.uleb128 0xf
 3118 013f 64677400 		.ascii	"dgt\000"
 3119 0143 01       		.byte	0x1
 3120 0144 43       		.byte	0x43
 3121 0145 25000000 		.4byte	0x25
 3122 0149 00       		.byte	0
 3123 014a 00       		.byte	0
 3124 014b 08       		.uleb128 0x8
 3125 014c 04       		.byte	0x4
 3126 014d 66000000 		.4byte	0x66
 3127 0151 0B       		.uleb128 0xb
 3128 0152 61326900 		.ascii	"a2i\000"
 3129 0156 01       		.byte	0x1
ARM GAS  /tmp/cce3BzsE.s 			page 56


 3130 0157 62       		.byte	0x62
 3131 0158 66000000 		.4byte	0x66
 3132 015c 01       		.byte	0x1
 3133 015d AC010000 		.4byte	0x1ac
 3134 0161 0C       		.uleb128 0xc
 3135 0162 636800   		.ascii	"ch\000"
 3136 0165 01       		.byte	0x1
 3137 0166 62       		.byte	0x62
 3138 0167 66000000 		.4byte	0x66
 3139 016b 0C       		.uleb128 0xc
 3140 016c 73726300 		.ascii	"src\000"
 3141 0170 01       		.byte	0x1
 3142 0171 62       		.byte	0x62
 3143 0172 AC010000 		.4byte	0x1ac
 3144 0176 0E       		.uleb128 0xe
 3145 0177 38000000 		.4byte	.LASF14
 3146 017b 01       		.byte	0x1
 3147 017c 62       		.byte	0x62
 3148 017d 25000000 		.4byte	0x25
 3149 0181 0E       		.uleb128 0xe
 3150 0182 F8010000 		.4byte	.LASF15
 3151 0186 01       		.byte	0x1
 3152 0187 62       		.byte	0x62
 3153 0188 B2010000 		.4byte	0x1b2
 3154 018c 0F       		.uleb128 0xf
 3155 018d 7000     		.ascii	"p\000"
 3156 018f 01       		.byte	0x1
 3157 0190 64       		.byte	0x64
 3158 0191 4B010000 		.4byte	0x14b
 3159 0195 0F       		.uleb128 0xf
 3160 0196 6E756D00 		.ascii	"num\000"
 3161 019a 01       		.byte	0x1
 3162 019b 65       		.byte	0x65
 3163 019c 25000000 		.4byte	0x25
 3164 01a0 11       		.uleb128 0x11
 3165 01a1 A6000000 		.4byte	.LASF16
 3166 01a5 01       		.byte	0x1
 3167 01a6 66       		.byte	0x66
 3168 01a7 25000000 		.4byte	0x25
 3169 01ab 00       		.byte	0
 3170 01ac 08       		.uleb128 0x8
 3171 01ad 04       		.byte	0x4
 3172 01ae 4B010000 		.4byte	0x14b
 3173 01b2 08       		.uleb128 0x8
 3174 01b3 04       		.byte	0x4
 3175 01b4 25000000 		.4byte	0x25
 3176 01b8 0D       		.uleb128 0xd
 3177 01b9 0C020000 		.4byte	.LASF17
 3178 01bd 01       		.byte	0x1
 3179 01be 71       		.byte	0x71
 3180 01bf 01       		.byte	0x1
 3181 01c0 14020000 		.4byte	0x214
 3182 01c4 0E       		.uleb128 0xe
 3183 01c5 13020000 		.4byte	.LASF18
 3184 01c9 01       		.byte	0x1
 3185 01ca 71       		.byte	0x71
 3186 01cb 64000000 		.4byte	0x64
ARM GAS  /tmp/cce3BzsE.s 			page 57


 3187 01cf 0E       		.uleb128 0xe
 3188 01d0 FD010000 		.4byte	.LASF19
 3189 01d4 01       		.byte	0x1
 3190 01d5 71       		.byte	0x71
 3191 01d6 9A000000 		.4byte	0x9a
 3192 01da 0C       		.uleb128 0xc
 3193 01db 6E00     		.ascii	"n\000"
 3194 01dd 01       		.byte	0x1
 3195 01de 71       		.byte	0x71
 3196 01df 25000000 		.4byte	0x25
 3197 01e3 0C       		.uleb128 0xc
 3198 01e4 7A00     		.ascii	"z\000"
 3199 01e6 01       		.byte	0x1
 3200 01e7 71       		.byte	0x71
 3201 01e8 66000000 		.4byte	0x66
 3202 01ec 0C       		.uleb128 0xc
 3203 01ed 626600   		.ascii	"bf\000"
 3204 01f0 01       		.byte	0x1
 3205 01f1 71       		.byte	0x71
 3206 01f2 4B010000 		.4byte	0x14b
 3207 01f6 0F       		.uleb128 0xf
 3208 01f7 666300   		.ascii	"fc\000"
 3209 01fa 01       		.byte	0x1
 3210 01fb 73       		.byte	0x73
 3211 01fc 66000000 		.4byte	0x66
 3212 0200 0F       		.uleb128 0xf
 3213 0201 636800   		.ascii	"ch\000"
 3214 0204 01       		.byte	0x1
 3215 0205 74       		.byte	0x74
 3216 0206 66000000 		.4byte	0x66
 3217 020a 0F       		.uleb128 0xf
 3218 020b 7000     		.ascii	"p\000"
 3219 020d 01       		.byte	0x1
 3220 020e 75       		.byte	0x75
 3221 020f 4B010000 		.4byte	0x14b
 3222 0213 00       		.byte	0
 3223 0214 12       		.uleb128 0x12
 3224 0215 00000000 		.4byte	.LASF30
 3225 0219 01       		.byte	0x1
 3226 021a 7E       		.byte	0x7e
 3227 021b 01       		.byte	0x1
 3228 021c 7C020000 		.4byte	0x27c
 3229 0220 0E       		.uleb128 0xe
 3230 0221 13020000 		.4byte	.LASF18
 3231 0225 01       		.byte	0x1
 3232 0226 7E       		.byte	0x7e
 3233 0227 64000000 		.4byte	0x64
 3234 022b 0E       		.uleb128 0xe
 3235 022c FD010000 		.4byte	.LASF19
 3236 0230 01       		.byte	0x1
 3237 0231 7E       		.byte	0x7e
 3238 0232 9A000000 		.4byte	0x9a
 3239 0236 0C       		.uleb128 0xc
 3240 0237 666D7400 		.ascii	"fmt\000"
 3241 023b 01       		.byte	0x1
 3242 023c 7E       		.byte	0x7e
 3243 023d 4B010000 		.4byte	0x14b
ARM GAS  /tmp/cce3BzsE.s 			page 58


 3244 0241 0C       		.uleb128 0xc
 3245 0242 766100   		.ascii	"va\000"
 3246 0245 01       		.byte	0x1
 3247 0246 7E       		.byte	0x7e
 3248 0247 8F000000 		.4byte	0x8f
 3249 024b 0F       		.uleb128 0xf
 3250 024c 626600   		.ascii	"bf\000"
 3251 024f 01       		.byte	0x1
 3252 0250 80       		.byte	0x80
 3253 0251 7C020000 		.4byte	0x27c
 3254 0255 0F       		.uleb128 0xf
 3255 0256 636800   		.ascii	"ch\000"
 3256 0259 01       		.byte	0x1
 3257 025a 82       		.byte	0x82
 3258 025b 66000000 		.4byte	0x66
 3259 025f 13       		.uleb128 0x13
 3260 0260 18020000 		.4byte	.LASF31
 3261 0264 01       		.byte	0x1
 3262 0265 C9       		.byte	0xc9
 3263 0266 10       		.uleb128 0x10
 3264 0267 0F       		.uleb128 0xf
 3265 0268 6C7A00   		.ascii	"lz\000"
 3266 026b 01       		.byte	0x1
 3267 026c 89       		.byte	0x89
 3268 026d 66000000 		.4byte	0x66
 3269 0271 0F       		.uleb128 0xf
 3270 0272 7700     		.ascii	"w\000"
 3271 0274 01       		.byte	0x1
 3272 0275 8D       		.byte	0x8d
 3273 0276 25000000 		.4byte	0x25
 3274 027a 00       		.byte	0
 3275 027b 00       		.byte	0
 3276 027c 14       		.uleb128 0x14
 3277 027d 66000000 		.4byte	0x66
 3278 0281 8C020000 		.4byte	0x28c
 3279 0285 15       		.uleb128 0x15
 3280 0286 5D000000 		.4byte	0x5d
 3281 028a 0B       		.byte	0xb
 3282 028b 00       		.byte	0
 3283 028c 16       		.uleb128 0x16
 3284 028d 69326100 		.ascii	"i2a\000"
 3285 0291 01       		.byte	0x1
 3286 0292 4E       		.byte	0x4e
 3287 0293 01       		.byte	0x1
 3288 0294 AE020000 		.4byte	0x2ae
 3289 0298 0C       		.uleb128 0xc
 3290 0299 6E756D00 		.ascii	"num\000"
 3291 029d 01       		.byte	0x1
 3292 029e 4E       		.byte	0x4e
 3293 029f 25000000 		.4byte	0x25
 3294 02a3 0C       		.uleb128 0xc
 3295 02a4 626600   		.ascii	"bf\000"
 3296 02a7 01       		.byte	0x1
 3297 02a8 4E       		.byte	0x4e
 3298 02a9 4B010000 		.4byte	0x14b
 3299 02ad 00       		.byte	0
 3300 02ae 17       		.uleb128 0x17
ARM GAS  /tmp/cce3BzsE.s 			page 59


 3301 02af 14020000 		.4byte	0x214
 3302 02b3 00000000 		.4byte	.LFB51
 3303 02b7 64050000 		.4byte	.LFE51-.LFB51
 3304 02bb 01       		.uleb128 0x1
 3305 02bc 9C       		.byte	0x9c
 3306 02bd FF060000 		.4byte	0x6ff
 3307 02c1 18       		.uleb128 0x18
 3308 02c2 20020000 		.4byte	0x220
 3309 02c6 00000000 		.4byte	.LLST0
 3310 02ca 18       		.uleb128 0x18
 3311 02cb 2B020000 		.4byte	0x22b
 3312 02cf 34010000 		.4byte	.LLST1
 3313 02d3 18       		.uleb128 0x18
 3314 02d4 36020000 		.4byte	0x236
 3315 02d8 52020000 		.4byte	.LLST2
 3316 02dc 18       		.uleb128 0x18
 3317 02dd 41020000 		.4byte	0x241
 3318 02e1 BA020000 		.4byte	.LLST3
 3319 02e5 19       		.uleb128 0x19
 3320 02e6 4B020000 		.4byte	0x24b
 3321 02ea 02       		.uleb128 0x2
 3322 02eb 91       		.byte	0x91
 3323 02ec 4C       		.sleb128 -52
 3324 02ed 1A       		.uleb128 0x1a
 3325 02ee 55020000 		.4byte	0x255
 3326 02f2 CD020000 		.4byte	.LLST4
 3327 02f6 1B       		.uleb128 0x1b
 3328 02f7 5F020000 		.4byte	0x25f
 3329 02fb 9E010000 		.4byte	.L17
 3330 02ff 1C       		.uleb128 0x1c
 3331 0300 42000000 		.4byte	.LBB34
 3332 0304 22050000 		.4byte	.LBE34-.LBB34
 3333 0308 F2060000 		.4byte	0x6f2
 3334 030c 1A       		.uleb128 0x1a
 3335 030d 67020000 		.4byte	0x267
 3336 0311 7A030000 		.4byte	.LLST5
 3337 0315 1A       		.uleb128 0x1a
 3338 0316 71020000 		.4byte	0x271
 3339 031a E7030000 		.4byte	.LLST6
 3340 031e 1D       		.uleb128 0x1d
 3341 031f F5000000 		.4byte	0xf5
 3342 0323 8C000000 		.4byte	.LBB35
 3343 0327 00000000 		.4byte	.Ldebug_ranges0+0
 3344 032b 01       		.byte	0x1
 3345 032c A5       		.byte	0xa5
 3346 032d 7D030000 		.4byte	0x37d
 3347 0331 18       		.uleb128 0x18
 3348 0332 0C010000 		.4byte	0x10c
 3349 0336 88050000 		.4byte	.LLST7
 3350 033a 18       		.uleb128 0x18
 3351 033b 17010000 		.4byte	0x117
 3352 033f C0050000 		.4byte	.LLST8
 3353 0343 18       		.uleb128 0x18
 3354 0344 21010000 		.4byte	0x121
 3355 0348 F8050000 		.4byte	.LLST9
 3356 034c 18       		.uleb128 0x18
 3357 034d 01010000 		.4byte	0x101
ARM GAS  /tmp/cce3BzsE.s 			page 60


 3358 0351 67060000 		.4byte	.LLST10
 3359 0355 1E       		.uleb128 0x1e
 3360 0356 00000000 		.4byte	.Ldebug_ranges0+0
 3361 035a 1A       		.uleb128 0x1a
 3362 035b 2B010000 		.4byte	0x12b
 3363 035f BC060000 		.4byte	.LLST11
 3364 0363 1A       		.uleb128 0x1a
 3365 0364 34010000 		.4byte	0x134
 3366 0368 15070000 		.4byte	.LLST12
 3367 036c 1E       		.uleb128 0x1e
 3368 036d 20000000 		.4byte	.Ldebug_ranges0+0x20
 3369 0371 1A       		.uleb128 0x1a
 3370 0372 3E010000 		.4byte	0x13e
 3371 0376 60070000 		.4byte	.LLST13
 3372 037a 00       		.byte	0
 3373 037b 00       		.byte	0
 3374 037c 00       		.byte	0
 3375 037d 1D       		.uleb128 0x1d
 3376 037e B8010000 		.4byte	0x1b8
 3377 0382 2C010000 		.4byte	.LBB42
 3378 0386 38000000 		.4byte	.Ldebug_ranges0+0x38
 3379 038a 01       		.byte	0x1
 3380 038b A6       		.byte	0xa6
 3381 038c 01040000 		.4byte	0x401
 3382 0390 18       		.uleb128 0x18
 3383 0391 EC010000 		.4byte	0x1ec
 3384 0395 89070000 		.4byte	.LLST14
 3385 0399 18       		.uleb128 0x18
 3386 039a E3010000 		.4byte	0x1e3
 3387 039e EA070000 		.4byte	.LLST15
 3388 03a2 18       		.uleb128 0x18
 3389 03a3 DA010000 		.4byte	0x1da
 3390 03a7 19080000 		.4byte	.LLST16
 3391 03ab 18       		.uleb128 0x18
 3392 03ac CF010000 		.4byte	0x1cf
 3393 03b0 86080000 		.4byte	.LLST17
 3394 03b4 18       		.uleb128 0x18
 3395 03b5 C4010000 		.4byte	0x1c4
 3396 03b9 AF080000 		.4byte	.LLST18
 3397 03bd 1E       		.uleb128 0x1e
 3398 03be 38000000 		.4byte	.Ldebug_ranges0+0x38
 3399 03c2 1A       		.uleb128 0x1a
 3400 03c3 F6010000 		.4byte	0x1f6
 3401 03c7 D8080000 		.4byte	.LLST19
 3402 03cb 1A       		.uleb128 0x1a
 3403 03cc 00020000 		.4byte	0x200
 3404 03d0 01090000 		.4byte	.LLST20
 3405 03d4 1A       		.uleb128 0x1a
 3406 03d5 0A020000 		.4byte	0x20a
 3407 03d9 35090000 		.4byte	.LLST21
 3408 03dd 1F       		.uleb128 0x1f
 3409 03de 60010000 		.4byte	.LVL60
 3410 03e2 ED030000 		.4byte	0x3ed
 3411 03e6 20       		.uleb128 0x20
 3412 03e7 01       		.uleb128 0x1
 3413 03e8 50       		.byte	0x50
 3414 03e9 02       		.uleb128 0x2
ARM GAS  /tmp/cce3BzsE.s 			page 61


 3415 03ea 76       		.byte	0x76
 3416 03eb 00       		.sleb128 0
 3417 03ec 00       		.byte	0
 3418 03ed 21       		.uleb128 0x21
 3419 03ee 02050000 		.4byte	.LVL236
 3420 03f2 20       		.uleb128 0x20
 3421 03f3 01       		.uleb128 0x1
 3422 03f4 51       		.byte	0x51
 3423 03f5 02       		.uleb128 0x2
 3424 03f6 75       		.byte	0x75
 3425 03f7 00       		.sleb128 0
 3426 03f8 20       		.uleb128 0x20
 3427 03f9 01       		.uleb128 0x1
 3428 03fa 50       		.byte	0x50
 3429 03fb 02       		.uleb128 0x2
 3430 03fc 76       		.byte	0x76
 3431 03fd 00       		.sleb128 0
 3432 03fe 00       		.byte	0
 3433 03ff 00       		.byte	0
 3434 0400 00       		.byte	0
 3435 0401 1D       		.uleb128 0x1d
 3436 0402 51010000 		.4byte	0x151
 3437 0406 86010000 		.4byte	.LBB46
 3438 040a 58000000 		.4byte	.Ldebug_ranges0+0x58
 3439 040e 01       		.byte	0x1
 3440 040f 94       		.byte	0x94
 3441 0410 63040000 		.4byte	0x463
 3442 0414 22       		.uleb128 0x22
 3443 0415 76010000 		.4byte	0x176
 3444 0419 22       		.uleb128 0x22
 3445 041a 81010000 		.4byte	0x181
 3446 041e 22       		.uleb128 0x22
 3447 041f 6B010000 		.4byte	0x16b
 3448 0423 18       		.uleb128 0x18
 3449 0424 61010000 		.4byte	0x161
 3450 0428 7E090000 		.4byte	.LLST22
 3451 042c 1E       		.uleb128 0x1e
 3452 042d 58000000 		.4byte	.Ldebug_ranges0+0x58
 3453 0431 1A       		.uleb128 0x1a
 3454 0432 8C010000 		.4byte	0x18c
 3455 0436 A7090000 		.4byte	.LLST23
 3456 043a 1A       		.uleb128 0x1a
 3457 043b 95010000 		.4byte	0x195
 3458 043f DD090000 		.4byte	.LLST24
 3459 0443 23       		.uleb128 0x23
 3460 0444 A0010000 		.4byte	0x1a0
 3461 0448 24       		.uleb128 0x24
 3462 0449 BB000000 		.4byte	0xbb
 3463 044d 86010000 		.4byte	.LBB48
 3464 0451 70000000 		.4byte	.Ldebug_ranges0+0x70
 3465 0455 01       		.byte	0x1
 3466 0456 67       		.byte	0x67
 3467 0457 18       		.uleb128 0x18
 3468 0458 CB000000 		.4byte	0xcb
 3469 045c 060A0000 		.4byte	.LLST25
 3470 0460 00       		.byte	0
 3471 0461 00       		.byte	0
ARM GAS  /tmp/cce3BzsE.s 			page 62


 3472 0462 00       		.byte	0
 3473 0463 1D       		.uleb128 0x1d
 3474 0464 8C020000 		.4byte	0x28c
 3475 0468 F0010000 		.4byte	.LBB54
 3476 046c 88000000 		.4byte	.Ldebug_ranges0+0x88
 3477 0470 01       		.byte	0x1
 3478 0471 AF       		.byte	0xaf
 3479 0472 E4040000 		.4byte	0x4e4
 3480 0476 18       		.uleb128 0x18
 3481 0477 A3020000 		.4byte	0x2a3
 3482 047b 240A0000 		.4byte	.LLST26
 3483 047f 18       		.uleb128 0x18
 3484 0480 98020000 		.4byte	0x298
 3485 0484 A60A0000 		.4byte	.LLST27
 3486 0488 24       		.uleb128 0x24
 3487 0489 F5000000 		.4byte	0xf5
 3488 048d FC010000 		.4byte	.LBB56
 3489 0491 B0000000 		.4byte	.Ldebug_ranges0+0xb0
 3490 0495 01       		.byte	0x1
 3491 0496 54       		.byte	0x54
 3492 0497 18       		.uleb128 0x18
 3493 0498 0C010000 		.4byte	0x10c
 3494 049c C40A0000 		.4byte	.LLST28
 3495 04a0 18       		.uleb128 0x18
 3496 04a1 17010000 		.4byte	0x117
 3497 04a5 140B0000 		.4byte	.LLST29
 3498 04a9 18       		.uleb128 0x18
 3499 04aa 21010000 		.4byte	0x121
 3500 04ae 640B0000 		.4byte	.LLST30
 3501 04b2 18       		.uleb128 0x18
 3502 04b3 01010000 		.4byte	0x101
 3503 04b7 BB0B0000 		.4byte	.LLST31
 3504 04bb 1E       		.uleb128 0x1e
 3505 04bc B0000000 		.4byte	.Ldebug_ranges0+0xb0
 3506 04c0 1A       		.uleb128 0x1a
 3507 04c1 2B010000 		.4byte	0x12b
 3508 04c5 FA0B0000 		.4byte	.LLST32
 3509 04c9 1A       		.uleb128 0x1a
 3510 04ca 34010000 		.4byte	0x134
 3511 04ce 530C0000 		.4byte	.LLST33
 3512 04d2 1E       		.uleb128 0x1e
 3513 04d3 E0000000 		.4byte	.Ldebug_ranges0+0xe0
 3514 04d7 1A       		.uleb128 0x1a
 3515 04d8 3E010000 		.4byte	0x13e
 3516 04dc B40C0000 		.4byte	.LLST34
 3517 04e0 00       		.byte	0
 3518 04e1 00       		.byte	0
 3519 04e2 00       		.byte	0
 3520 04e3 00       		.byte	0
 3521 04e4 1D       		.uleb128 0x1d
 3522 04e5 B8010000 		.4byte	0x1b8
 3523 04e9 88020000 		.4byte	.LBB72
 3524 04ed 00010000 		.4byte	.Ldebug_ranges0+0x100
 3525 04f1 01       		.byte	0x1
 3526 04f2 C0       		.byte	0xc0
 3527 04f3 68050000 		.4byte	0x568
 3528 04f7 18       		.uleb128 0x18
ARM GAS  /tmp/cce3BzsE.s 			page 63


 3529 04f8 EC010000 		.4byte	0x1ec
 3530 04fc DD0C0000 		.4byte	.LLST35
 3531 0500 18       		.uleb128 0x18
 3532 0501 E3010000 		.4byte	0x1e3
 3533 0505 290D0000 		.4byte	.LLST36
 3534 0509 18       		.uleb128 0x18
 3535 050a DA010000 		.4byte	0x1da
 3536 050e 490D0000 		.4byte	.LLST37
 3537 0512 18       		.uleb128 0x18
 3538 0513 CF010000 		.4byte	0x1cf
 3539 0517 A20D0000 		.4byte	.LLST38
 3540 051b 18       		.uleb128 0x18
 3541 051c C4010000 		.4byte	0x1c4
 3542 0520 C00D0000 		.4byte	.LLST39
 3543 0524 1E       		.uleb128 0x1e
 3544 0525 00010000 		.4byte	.Ldebug_ranges0+0x100
 3545 0529 1A       		.uleb128 0x1a
 3546 052a F6010000 		.4byte	0x1f6
 3547 052e DE0D0000 		.4byte	.LLST40
 3548 0532 1A       		.uleb128 0x1a
 3549 0533 00020000 		.4byte	0x200
 3550 0537 000E0000 		.4byte	.LLST41
 3551 053b 1A       		.uleb128 0x1a
 3552 053c 0A020000 		.4byte	0x20a
 3553 0540 1E0E0000 		.4byte	.LLST42
 3554 0544 1F       		.uleb128 0x1f
 3555 0545 BC020000 		.4byte	.LVL122
 3556 0549 5A050000 		.4byte	0x55a
 3557 054d 20       		.uleb128 0x20
 3558 054e 01       		.uleb128 0x1
 3559 054f 51       		.byte	0x51
 3560 0550 02       		.uleb128 0x2
 3561 0551 08       		.byte	0x8
 3562 0552 20       		.byte	0x20
 3563 0553 20       		.uleb128 0x20
 3564 0554 01       		.uleb128 0x1
 3565 0555 50       		.byte	0x50
 3566 0556 02       		.uleb128 0x2
 3567 0557 76       		.byte	0x76
 3568 0558 00       		.sleb128 0
 3569 0559 00       		.byte	0
 3570 055a 21       		.uleb128 0x21
 3571 055b D2020000 		.4byte	.LVL127
 3572 055f 20       		.uleb128 0x20
 3573 0560 01       		.uleb128 0x1
 3574 0561 50       		.byte	0x50
 3575 0562 02       		.uleb128 0x2
 3576 0563 76       		.byte	0x76
 3577 0564 00       		.sleb128 0
 3578 0565 00       		.byte	0
 3579 0566 00       		.byte	0
 3580 0567 00       		.byte	0
 3581 0568 1D       		.uleb128 0x1d
 3582 0569 F5000000 		.4byte	0xf5
 3583 056d EA020000 		.4byte	.LBB75
 3584 0571 18010000 		.4byte	.Ldebug_ranges0+0x118
 3585 0575 01       		.byte	0x1
ARM GAS  /tmp/cce3BzsE.s 			page 64


 3586 0576 B9       		.byte	0xb9
 3587 0577 C7050000 		.4byte	0x5c7
 3588 057b 18       		.uleb128 0x18
 3589 057c 21010000 		.4byte	0x121
 3590 0580 820E0000 		.4byte	.LLST43
 3591 0584 18       		.uleb128 0x18
 3592 0585 17010000 		.4byte	0x117
 3593 0589 400F0000 		.4byte	.LLST44
 3594 058d 18       		.uleb128 0x18
 3595 058e 0C010000 		.4byte	0x10c
 3596 0592 8A0F0000 		.4byte	.LLST45
 3597 0596 18       		.uleb128 0x18
 3598 0597 01010000 		.4byte	0x101
 3599 059b DA0F0000 		.4byte	.LLST46
 3600 059f 1E       		.uleb128 0x1e
 3601 05a0 18010000 		.4byte	.Ldebug_ranges0+0x118
 3602 05a4 1A       		.uleb128 0x1a
 3603 05a5 2B010000 		.4byte	0x12b
 3604 05a9 3A100000 		.4byte	.LLST47
 3605 05ad 1A       		.uleb128 0x1a
 3606 05ae 34010000 		.4byte	0x134
 3607 05b2 D9100000 		.4byte	.LLST48
 3608 05b6 1E       		.uleb128 0x1e
 3609 05b7 58010000 		.4byte	.Ldebug_ranges0+0x158
 3610 05bb 1A       		.uleb128 0x1a
 3611 05bc 3E010000 		.4byte	0x13e
 3612 05c0 12110000 		.4byte	.LLST49
 3613 05c4 00       		.byte	0
 3614 05c5 00       		.byte	0
 3615 05c6 00       		.byte	0
 3616 05c7 1D       		.uleb128 0x1d
 3617 05c8 B8010000 		.4byte	0x1b8
 3618 05cc 7C030000 		.4byte	.LBB91
 3619 05d0 90010000 		.4byte	.Ldebug_ranges0+0x190
 3620 05d4 01       		.byte	0x1
 3621 05d5 B0       		.byte	0xb0
 3622 05d6 4B060000 		.4byte	0x64b
 3623 05da 18       		.uleb128 0x18
 3624 05db EC010000 		.4byte	0x1ec
 3625 05df 72110000 		.4byte	.LLST50
 3626 05e3 18       		.uleb128 0x18
 3627 05e4 E3010000 		.4byte	0x1e3
 3628 05e8 D3110000 		.4byte	.LLST51
 3629 05ec 18       		.uleb128 0x18
 3630 05ed DA010000 		.4byte	0x1da
 3631 05f1 02120000 		.4byte	.LLST52
 3632 05f5 18       		.uleb128 0x18
 3633 05f6 CF010000 		.4byte	0x1cf
 3634 05fa 6F120000 		.4byte	.LLST53
 3635 05fe 18       		.uleb128 0x18
 3636 05ff C4010000 		.4byte	0x1c4
 3637 0603 98120000 		.4byte	.LLST54
 3638 0607 1E       		.uleb128 0x1e
 3639 0608 90010000 		.4byte	.Ldebug_ranges0+0x190
 3640 060c 1A       		.uleb128 0x1a
 3641 060d F6010000 		.4byte	0x1f6
 3642 0611 C1120000 		.4byte	.LLST55
ARM GAS  /tmp/cce3BzsE.s 			page 65


 3643 0615 1A       		.uleb128 0x1a
 3644 0616 00020000 		.4byte	0x200
 3645 061a EA120000 		.4byte	.LLST56
 3646 061e 1A       		.uleb128 0x1a
 3647 061f 0A020000 		.4byte	0x20a
 3648 0623 1E130000 		.4byte	.LLST57
 3649 0627 1F       		.uleb128 0x1f
 3650 0628 B0030000 		.4byte	.LVL170
 3651 062c 37060000 		.4byte	0x637
 3652 0630 20       		.uleb128 0x20
 3653 0631 01       		.uleb128 0x1
 3654 0632 50       		.byte	0x50
 3655 0633 02       		.uleb128 0x2
 3656 0634 76       		.byte	0x76
 3657 0635 00       		.sleb128 0
 3658 0636 00       		.byte	0
 3659 0637 21       		.uleb128 0x21
 3660 0638 D6040000 		.4byte	.LVL227
 3661 063c 20       		.uleb128 0x20
 3662 063d 01       		.uleb128 0x1
 3663 063e 51       		.byte	0x51
 3664 063f 02       		.uleb128 0x2
 3665 0640 75       		.byte	0x75
 3666 0641 00       		.sleb128 0
 3667 0642 20       		.uleb128 0x20
 3668 0643 01       		.uleb128 0x1
 3669 0644 50       		.byte	0x50
 3670 0645 02       		.uleb128 0x2
 3671 0646 76       		.byte	0x76
 3672 0647 00       		.sleb128 0
 3673 0648 00       		.byte	0
 3674 0649 00       		.byte	0
 3675 064a 00       		.byte	0
 3676 064b 1D       		.uleb128 0x1d
 3677 064c B8010000 		.4byte	0x1b8
 3678 0650 4C040000 		.4byte	.LBB98
 3679 0654 B0010000 		.4byte	.Ldebug_ranges0+0x1b0
 3680 0658 01       		.byte	0x1
 3681 0659 BA       		.byte	0xba
 3682 065a CF060000 		.4byte	0x6cf
 3683 065e 18       		.uleb128 0x18
 3684 065f EC010000 		.4byte	0x1ec
 3685 0663 67130000 		.4byte	.LLST58
 3686 0667 18       		.uleb128 0x18
 3687 0668 E3010000 		.4byte	0x1e3
 3688 066c C8130000 		.4byte	.LLST59
 3689 0670 18       		.uleb128 0x18
 3690 0671 DA010000 		.4byte	0x1da
 3691 0675 F7130000 		.4byte	.LLST60
 3692 0679 18       		.uleb128 0x18
 3693 067a CF010000 		.4byte	0x1cf
 3694 067e 64140000 		.4byte	.LLST61
 3695 0682 18       		.uleb128 0x18
 3696 0683 C4010000 		.4byte	0x1c4
 3697 0687 8D140000 		.4byte	.LLST62
 3698 068b 1E       		.uleb128 0x1e
 3699 068c B0010000 		.4byte	.Ldebug_ranges0+0x1b0
ARM GAS  /tmp/cce3BzsE.s 			page 66


 3700 0690 1A       		.uleb128 0x1a
 3701 0691 F6010000 		.4byte	0x1f6
 3702 0695 B6140000 		.4byte	.LLST63
 3703 0699 1A       		.uleb128 0x1a
 3704 069a 00020000 		.4byte	0x200
 3705 069e DF140000 		.4byte	.LLST64
 3706 06a2 1A       		.uleb128 0x1a
 3707 06a3 0A020000 		.4byte	0x20a
 3708 06a7 13150000 		.4byte	.LLST65
 3709 06ab 1F       		.uleb128 0x1f
 3710 06ac 7E040000 		.4byte	.LVL208
 3711 06b0 BB060000 		.4byte	0x6bb
 3712 06b4 20       		.uleb128 0x20
 3713 06b5 01       		.uleb128 0x1
 3714 06b6 50       		.byte	0x50
 3715 06b7 02       		.uleb128 0x2
 3716 06b8 76       		.byte	0x76
 3717 06b9 00       		.sleb128 0
 3718 06ba 00       		.byte	0
 3719 06bb 21       		.uleb128 0x21
 3720 06bc AC040000 		.4byte	.LVL218
 3721 06c0 20       		.uleb128 0x20
 3722 06c1 01       		.uleb128 0x1
 3723 06c2 51       		.byte	0x51
 3724 06c3 02       		.uleb128 0x2
 3725 06c4 75       		.byte	0x75
 3726 06c5 00       		.sleb128 0
 3727 06c6 20       		.uleb128 0x20
 3728 06c7 01       		.uleb128 0x1
 3729 06c8 50       		.byte	0x50
 3730 06c9 02       		.uleb128 0x2
 3731 06ca 76       		.byte	0x76
 3732 06cb 00       		.sleb128 0
 3733 06cc 00       		.byte	0
 3734 06cd 00       		.byte	0
 3735 06ce 00       		.byte	0
 3736 06cf 1F       		.uleb128 0x1f
 3737 06d0 B4010000 		.4byte	.LVL70
 3738 06d4 DF060000 		.4byte	0x6df
 3739 06d8 20       		.uleb128 0x20
 3740 06d9 01       		.uleb128 0x1
 3741 06da 50       		.byte	0x50
 3742 06db 02       		.uleb128 0x2
 3743 06dc 76       		.byte	0x76
 3744 06dd 00       		.sleb128 0
 3745 06de 00       		.byte	0
 3746 06df 21       		.uleb128 0x21
 3747 06e0 70030000 		.4byte	.LVL156
 3748 06e4 20       		.uleb128 0x20
 3749 06e5 01       		.uleb128 0x1
 3750 06e6 51       		.byte	0x51
 3751 06e7 02       		.uleb128 0x2
 3752 06e8 08       		.byte	0x8
 3753 06e9 25       		.byte	0x25
 3754 06ea 20       		.uleb128 0x20
 3755 06eb 01       		.uleb128 0x1
 3756 06ec 50       		.byte	0x50
ARM GAS  /tmp/cce3BzsE.s 			page 67


 3757 06ed 02       		.uleb128 0x2
 3758 06ee 76       		.byte	0x76
 3759 06ef 00       		.sleb128 0
 3760 06f0 00       		.byte	0
 3761 06f1 00       		.byte	0
 3762 06f2 21       		.uleb128 0x21
 3763 06f3 2C000000 		.4byte	.LVL5
 3764 06f7 20       		.uleb128 0x20
 3765 06f8 01       		.uleb128 0x1
 3766 06f9 50       		.byte	0x50
 3767 06fa 02       		.uleb128 0x2
 3768 06fb 76       		.byte	0x76
 3769 06fc 00       		.sleb128 0
 3770 06fd 00       		.byte	0
 3771 06fe 00       		.byte	0
 3772 06ff 25       		.uleb128 0x25
 3773 0700 56000000 		.4byte	.LASF20
 3774 0704 01       		.byte	0x1
 3775 0705 CD       		.byte	0xcd
 3776 0706 00000000 		.4byte	.LFB52
 3777 070a 14000000 		.4byte	.LFE52-.LFB52
 3778 070e 01       		.uleb128 0x1
 3779 070f 9C       		.byte	0x9c
 3780 0710 2F070000 		.4byte	0x72f
 3781 0714 26       		.uleb128 0x26
 3782 0715 13020000 		.4byte	.LASF18
 3783 0719 01       		.byte	0x1
 3784 071a CD       		.byte	0xcd
 3785 071b 64000000 		.4byte	0x64
 3786 071f 01       		.uleb128 0x1
 3787 0720 50       		.byte	0x50
 3788 0721 26       		.uleb128 0x26
 3789 0722 FD010000 		.4byte	.LASF19
 3790 0726 01       		.byte	0x1
 3791 0727 CD       		.byte	0xcd
 3792 0728 A5000000 		.4byte	0xa5
 3793 072c 01       		.uleb128 0x1
 3794 072d 51       		.byte	0x51
 3795 072e 00       		.byte	0
 3796 072f 25       		.uleb128 0x25
 3797 0730 C7010000 		.4byte	.LASF21
 3798 0734 01       		.byte	0x1
 3799 0735 D3       		.byte	0xd3
 3800 0736 00000000 		.4byte	.LFB53
 3801 073a 28000000 		.4byte	.LFE53-.LFB53
 3802 073e 01       		.uleb128 0x1
 3803 073f 9C       		.byte	0x9c
 3804 0740 78070000 		.4byte	0x778
 3805 0744 27       		.uleb128 0x27
 3806 0745 666D7400 		.ascii	"fmt\000"
 3807 0749 01       		.byte	0x1
 3808 074a D3       		.byte	0xd3
 3809 074b 4B010000 		.4byte	0x14b
 3810 074f 02       		.uleb128 0x2
 3811 0750 91       		.byte	0x91
 3812 0751 70       		.sleb128 -16
 3813 0752 28       		.uleb128 0x28
ARM GAS  /tmp/cce3BzsE.s 			page 68


 3814 0753 29       		.uleb128 0x29
 3815 0754 766100   		.ascii	"va\000"
 3816 0757 01       		.byte	0x1
 3817 0758 D5       		.byte	0xd5
 3818 0759 8F000000 		.4byte	0x8f
 3819 075d 02       		.uleb128 0x2
 3820 075e 91       		.byte	0x91
 3821 075f 64       		.sleb128 -28
 3822 0760 2A       		.uleb128 0x2a
 3823 0761 18000000 		.4byte	.LVL259
 3824 0765 14020000 		.4byte	0x214
 3825 0769 20       		.uleb128 0x20
 3826 076a 01       		.uleb128 0x1
 3827 076b 53       		.byte	0x53
 3828 076c 02       		.uleb128 0x2
 3829 076d 91       		.byte	0x91
 3830 076e 54       		.sleb128 -44
 3831 076f 20       		.uleb128 0x20
 3832 0770 01       		.uleb128 0x1
 3833 0771 52       		.byte	0x52
 3834 0772 03       		.uleb128 0x3
 3835 0773 91       		.byte	0x91
 3836 0774 50       		.sleb128 -48
 3837 0775 06       		.byte	0x6
 3838 0776 00       		.byte	0
 3839 0777 00       		.byte	0
 3840 0778 2B       		.uleb128 0x2b
 3841 0779 8D000000 		.4byte	.LASF22
 3842 077d 01       		.byte	0x1
 3843 077e E2       		.byte	0xe2
 3844 077f 00000000 		.4byte	.LFB55
 3845 0783 18050000 		.4byte	.LFE55-.LFB55
 3846 0787 01       		.uleb128 0x1
 3847 0788 9C       		.byte	0x9c
 3848 0789 5F0D0000 		.4byte	0xd5f
 3849 078d 2C       		.uleb128 0x2c
 3850 078e 7300     		.ascii	"s\000"
 3851 0790 01       		.byte	0x1
 3852 0791 E2       		.byte	0xe2
 3853 0792 4B010000 		.4byte	0x14b
 3854 0796 5C150000 		.4byte	.LLST66
 3855 079a 27       		.uleb128 0x27
 3856 079b 666D7400 		.ascii	"fmt\000"
 3857 079f 01       		.byte	0x1
 3858 07a0 E2       		.byte	0xe2
 3859 07a1 4B010000 		.4byte	0x14b
 3860 07a5 02       		.uleb128 0x2
 3861 07a6 91       		.byte	0x91
 3862 07a7 74       		.sleb128 -12
 3863 07a8 28       		.uleb128 0x28
 3864 07a9 29       		.uleb128 0x29
 3865 07aa 766100   		.ascii	"va\000"
 3866 07ad 01       		.byte	0x1
 3867 07ae E4       		.byte	0xe4
 3868 07af 8F000000 		.4byte	0x8f
 3869 07b3 02       		.uleb128 0x2
 3870 07b4 91       		.byte	0x91
ARM GAS  /tmp/cce3BzsE.s 			page 69


 3871 07b5 40       		.sleb128 -64
 3872 07b6 1D       		.uleb128 0x1d
 3873 07b7 14020000 		.4byte	0x214
 3874 07bb 1A000000 		.4byte	.LBB164
 3875 07bf D0010000 		.4byte	.Ldebug_ranges0+0x1d0
 3876 07c3 01       		.byte	0x1
 3877 07c4 E6       		.byte	0xe6
 3878 07c5 B40C0000 		.4byte	0xcb4
 3879 07c9 22       		.uleb128 0x22
 3880 07ca 2B020000 		.4byte	0x22b
 3881 07ce 18       		.uleb128 0x18
 3882 07cf 41020000 		.4byte	0x241
 3883 07d3 AB160000 		.4byte	.LLST67
 3884 07d7 18       		.uleb128 0x18
 3885 07d8 36020000 		.4byte	0x236
 3886 07dc D6170000 		.4byte	.LLST68
 3887 07e0 2D       		.uleb128 0x2d
 3888 07e1 20020000 		.4byte	0x220
 3889 07e5 06       		.uleb128 0x6
 3890 07e6 F2       		.byte	0xf2
 3891 07e7 8D070000 		.4byte	.Ldebug_info0+1933
 3892 07eb 00       		.sleb128 0
 3893 07ec 1E       		.uleb128 0x1e
 3894 07ed D0010000 		.4byte	.Ldebug_ranges0+0x1d0
 3895 07f1 19       		.uleb128 0x19
 3896 07f2 4B020000 		.4byte	0x24b
 3897 07f6 02       		.uleb128 0x2
 3898 07f7 91       		.byte	0x91
 3899 07f8 44       		.sleb128 -60
 3900 07f9 1A       		.uleb128 0x1a
 3901 07fa 55020000 		.4byte	0x255
 3902 07fe 3F190000 		.4byte	.LLST69
 3903 0802 1B       		.uleb128 0x1b
 3904 0803 5F020000 		.4byte	0x25f
 3905 0807 30000000 		.4byte	.L214
 3906 080b 1D       		.uleb128 0x1d
 3907 080c D6000000 		.4byte	0xd6
 3908 0810 24000000 		.4byte	.LBB166
 3909 0814 E8010000 		.4byte	.Ldebug_ranges0+0x1e8
 3910 0818 01       		.byte	0x1
 3911 0819 87       		.byte	0x87
 3912 081a 31080000 		.4byte	0x831
 3913 081e 18       		.uleb128 0x18
 3914 081f EB000000 		.4byte	0xeb
 3915 0823 ED190000 		.4byte	.LLST70
 3916 0827 18       		.uleb128 0x18
 3917 0828 E2000000 		.4byte	0xe2
 3918 082c 0D1A0000 		.4byte	.LLST71
 3919 0830 00       		.byte	0
 3920 0831 2E       		.uleb128 0x2e
 3921 0832 48000000 		.4byte	.LBB170
 3922 0836 D0040000 		.4byte	.LBE170-.LBB170
 3923 083a 1A       		.uleb128 0x1a
 3924 083b 67020000 		.4byte	0x267
 3925 083f 251A0000 		.4byte	.LLST72
 3926 0843 1A       		.uleb128 0x1a
 3927 0844 71020000 		.4byte	0x271
ARM GAS  /tmp/cce3BzsE.s 			page 70


 3928 0848 9F1A0000 		.4byte	.LLST73
 3929 084c 1D       		.uleb128 0x1d
 3930 084d F5000000 		.4byte	0xf5
 3931 0851 8C000000 		.4byte	.LBB171
 3932 0855 00020000 		.4byte	.Ldebug_ranges0+0x200
 3933 0859 01       		.byte	0x1
 3934 085a A5       		.byte	0xa5
 3935 085b AB080000 		.4byte	0x8ab
 3936 085f 18       		.uleb128 0x18
 3937 0860 0C010000 		.4byte	0x10c
 3938 0864 621C0000 		.4byte	.LLST74
 3939 0868 18       		.uleb128 0x18
 3940 0869 17010000 		.4byte	0x117
 3941 086d 8E1C0000 		.4byte	.LLST75
 3942 0871 18       		.uleb128 0x18
 3943 0872 21010000 		.4byte	0x121
 3944 0876 BA1C0000 		.4byte	.LLST76
 3945 087a 18       		.uleb128 0x18
 3946 087b 01010000 		.4byte	0x101
 3947 087f 201D0000 		.4byte	.LLST77
 3948 0883 1E       		.uleb128 0x1e
 3949 0884 00020000 		.4byte	.Ldebug_ranges0+0x200
 3950 0888 1A       		.uleb128 0x1a
 3951 0889 2B010000 		.4byte	0x12b
 3952 088d 751D0000 		.4byte	.LLST78
 3953 0891 1A       		.uleb128 0x1a
 3954 0892 34010000 		.4byte	0x134
 3955 0896 CE1D0000 		.4byte	.LLST79
 3956 089a 1E       		.uleb128 0x1e
 3957 089b 20020000 		.4byte	.Ldebug_ranges0+0x220
 3958 089f 1A       		.uleb128 0x1a
 3959 08a0 3E010000 		.4byte	0x13e
 3960 08a4 191E0000 		.4byte	.LLST80
 3961 08a8 00       		.byte	0
 3962 08a9 00       		.byte	0
 3963 08aa 00       		.byte	0
 3964 08ab 1D       		.uleb128 0x1d
 3965 08ac B8010000 		.4byte	0x1b8
 3966 08b0 2C010000 		.4byte	.LBB178
 3967 08b4 38020000 		.4byte	.Ldebug_ranges0+0x238
 3968 08b8 01       		.byte	0x1
 3969 08b9 A6       		.byte	0xa6
 3970 08ba 49090000 		.4byte	0x949
 3971 08be 22       		.uleb128 0x22
 3972 08bf CF010000 		.4byte	0x1cf
 3973 08c3 18       		.uleb128 0x18
 3974 08c4 EC010000 		.4byte	0x1ec
 3975 08c8 421E0000 		.4byte	.LLST81
 3976 08cc 18       		.uleb128 0x18
 3977 08cd E3010000 		.4byte	0x1e3
 3978 08d1 801E0000 		.4byte	.LLST82
 3979 08d5 18       		.uleb128 0x18
 3980 08d6 DA010000 		.4byte	0x1da
 3981 08da A21E0000 		.4byte	.LLST83
 3982 08de 18       		.uleb128 0x18
 3983 08df C4010000 		.4byte	0x1c4
 3984 08e3 CB1E0000 		.4byte	.LLST84
ARM GAS  /tmp/cce3BzsE.s 			page 71


 3985 08e7 1E       		.uleb128 0x1e
 3986 08e8 38020000 		.4byte	.Ldebug_ranges0+0x238
 3987 08ec 1A       		.uleb128 0x1a
 3988 08ed F6010000 		.4byte	0x1f6
 3989 08f1 F31E0000 		.4byte	.LLST85
 3990 08f5 1A       		.uleb128 0x1a
 3991 08f6 00020000 		.4byte	0x200
 3992 08fa 111F0000 		.4byte	.LLST86
 3993 08fe 1A       		.uleb128 0x1a
 3994 08ff 0A020000 		.4byte	0x20a
 3995 0903 461F0000 		.4byte	.LLST87
 3996 0907 2F       		.uleb128 0x2f
 3997 0908 D6000000 		.4byte	0xd6
 3998 090c 54010000 		.4byte	.LBB180
 3999 0910 0A000000 		.4byte	.LBE180-.LBB180
 4000 0914 01       		.byte	0x1
 4001 0915 7B       		.byte	0x7b
 4002 0916 2D090000 		.4byte	0x92d
 4003 091a 18       		.uleb128 0x18
 4004 091b EB000000 		.4byte	0xeb
 4005 091f 831F0000 		.4byte	.LLST88
 4006 0923 18       		.uleb128 0x18
 4007 0924 E2000000 		.4byte	0xe2
 4008 0928 AD1F0000 		.4byte	.LLST89
 4009 092c 00       		.byte	0
 4010 092d 30       		.uleb128 0x30
 4011 092e D6000000 		.4byte	0xd6
 4012 0932 B8040000 		.4byte	.LBB182
 4013 0936 14000000 		.4byte	.LBE182-.LBB182
 4014 093a 01       		.byte	0x1
 4015 093b 79       		.byte	0x79
 4016 093c 22       		.uleb128 0x22
 4017 093d EB000000 		.4byte	0xeb
 4018 0941 22       		.uleb128 0x22
 4019 0942 E2000000 		.4byte	0xe2
 4020 0946 00       		.byte	0
 4021 0947 00       		.byte	0
 4022 0948 00       		.byte	0
 4023 0949 2F       		.uleb128 0x2f
 4024 094a 51010000 		.4byte	0x151
 4025 094e 80010000 		.4byte	.LBB185
 4026 0952 32000000 		.4byte	.LBE185-.LBB185
 4027 0956 01       		.byte	0x1
 4028 0957 94       		.byte	0x94
 4029 0958 AF090000 		.4byte	0x9af
 4030 095c 22       		.uleb128 0x22
 4031 095d 76010000 		.4byte	0x176
 4032 0961 22       		.uleb128 0x22
 4033 0962 81010000 		.4byte	0x181
 4034 0966 22       		.uleb128 0x22
 4035 0967 6B010000 		.4byte	0x16b
 4036 096b 18       		.uleb128 0x18
 4037 096c 61010000 		.4byte	0x161
 4038 0970 C51F0000 		.4byte	.LLST90
 4039 0974 2E       		.uleb128 0x2e
 4040 0975 80010000 		.4byte	.LBB186
 4041 0979 32000000 		.4byte	.LBE186-.LBB186
ARM GAS  /tmp/cce3BzsE.s 			page 72


 4042 097d 1A       		.uleb128 0x1a
 4043 097e 8C010000 		.4byte	0x18c
 4044 0982 E31F0000 		.4byte	.LLST91
 4045 0986 1A       		.uleb128 0x1a
 4046 0987 95010000 		.4byte	0x195
 4047 098b 0E200000 		.4byte	.LLST92
 4048 098f 23       		.uleb128 0x23
 4049 0990 A0010000 		.4byte	0x1a0
 4050 0994 30       		.uleb128 0x30
 4051 0995 BB000000 		.4byte	0xbb
 4052 0999 80010000 		.4byte	.LBB187
 4053 099d 1A000000 		.4byte	.LBE187-.LBB187
 4054 09a1 01       		.byte	0x1
 4055 09a2 67       		.byte	0x67
 4056 09a3 18       		.uleb128 0x18
 4057 09a4 CB000000 		.4byte	0xcb
 4058 09a8 2C200000 		.4byte	.LLST93
 4059 09ac 00       		.byte	0
 4060 09ad 00       		.byte	0
 4061 09ae 00       		.byte	0
 4062 09af 2F       		.uleb128 0x2f
 4063 09b0 D6000000 		.4byte	0xd6
 4064 09b4 C0010000 		.4byte	.LBB189
 4065 09b8 04000000 		.4byte	.LBE189-.LBB189
 4066 09bc 01       		.byte	0x1
 4067 09bd BD       		.byte	0xbd
 4068 09be D5090000 		.4byte	0x9d5
 4069 09c2 18       		.uleb128 0x18
 4070 09c3 EB000000 		.4byte	0xeb
 4071 09c7 4A200000 		.4byte	.LLST94
 4072 09cb 18       		.uleb128 0x18
 4073 09cc E2000000 		.4byte	0xe2
 4074 09d0 75200000 		.4byte	.LLST95
 4075 09d4 00       		.byte	0
 4076 09d5 1D       		.uleb128 0x1d
 4077 09d6 8C020000 		.4byte	0x28c
 4078 09da DE010000 		.4byte	.LBB191
 4079 09de 50020000 		.4byte	.Ldebug_ranges0+0x250
 4080 09e2 01       		.byte	0x1
 4081 09e3 AF       		.byte	0xaf
 4082 09e4 560A0000 		.4byte	0xa56
 4083 09e8 18       		.uleb128 0x18
 4084 09e9 A3020000 		.4byte	0x2a3
 4085 09ed 8D200000 		.4byte	.LLST96
 4086 09f1 18       		.uleb128 0x18
 4087 09f2 98020000 		.4byte	0x298
 4088 09f6 E0200000 		.4byte	.LLST97
 4089 09fa 24       		.uleb128 0x24
 4090 09fb F5000000 		.4byte	0xf5
 4091 09ff EA010000 		.4byte	.LBB193
 4092 0a03 78020000 		.4byte	.Ldebug_ranges0+0x278
 4093 0a07 01       		.byte	0x1
 4094 0a08 54       		.byte	0x54
 4095 0a09 18       		.uleb128 0x18
 4096 0a0a 0C010000 		.4byte	0x10c
 4097 0a0e FE200000 		.4byte	.LLST98
 4098 0a12 18       		.uleb128 0x18
ARM GAS  /tmp/cce3BzsE.s 			page 73


 4099 0a13 17010000 		.4byte	0x117
 4100 0a17 42210000 		.4byte	.LLST99
 4101 0a1b 18       		.uleb128 0x18
 4102 0a1c 21010000 		.4byte	0x121
 4103 0a20 86210000 		.4byte	.LLST100
 4104 0a24 18       		.uleb128 0x18
 4105 0a25 01010000 		.4byte	0x101
 4106 0a29 D0210000 		.4byte	.LLST101
 4107 0a2d 1E       		.uleb128 0x1e
 4108 0a2e 78020000 		.4byte	.Ldebug_ranges0+0x278
 4109 0a32 1A       		.uleb128 0x1a
 4110 0a33 2B010000 		.4byte	0x12b
 4111 0a37 0F220000 		.4byte	.LLST102
 4112 0a3b 1A       		.uleb128 0x1a
 4113 0a3c 34010000 		.4byte	0x134
 4114 0a40 68220000 		.4byte	.LLST103
 4115 0a44 1E       		.uleb128 0x1e
 4116 0a45 A8020000 		.4byte	.Ldebug_ranges0+0x2a8
 4117 0a49 1A       		.uleb128 0x1a
 4118 0a4a 3E010000 		.4byte	0x13e
 4119 0a4e C9220000 		.4byte	.LLST104
 4120 0a52 00       		.byte	0
 4121 0a53 00       		.byte	0
 4122 0a54 00       		.byte	0
 4123 0a55 00       		.byte	0
 4124 0a56 1D       		.uleb128 0x1d
 4125 0a57 B8010000 		.4byte	0x1b8
 4126 0a5b 72020000 		.4byte	.LBB209
 4127 0a5f C8020000 		.4byte	.Ldebug_ranges0+0x2c8
 4128 0a63 01       		.byte	0x1
 4129 0a64 C0       		.byte	0xc0
 4130 0a65 F40A0000 		.4byte	0xaf4
 4131 0a69 22       		.uleb128 0x22
 4132 0a6a CF010000 		.4byte	0x1cf
 4133 0a6e 18       		.uleb128 0x18
 4134 0a6f EC010000 		.4byte	0x1ec
 4135 0a73 F2220000 		.4byte	.LLST105
 4136 0a77 18       		.uleb128 0x18
 4137 0a78 E3010000 		.4byte	0x1e3
 4138 0a7c 33230000 		.4byte	.LLST106
 4139 0a80 18       		.uleb128 0x18
 4140 0a81 DA010000 		.4byte	0x1da
 4141 0a85 53230000 		.4byte	.LLST107
 4142 0a89 18       		.uleb128 0x18
 4143 0a8a C4010000 		.4byte	0x1c4
 4144 0a8e 94230000 		.4byte	.LLST108
 4145 0a92 1E       		.uleb128 0x1e
 4146 0a93 C8020000 		.4byte	.Ldebug_ranges0+0x2c8
 4147 0a97 1A       		.uleb128 0x1a
 4148 0a98 F6010000 		.4byte	0x1f6
 4149 0a9c BC230000 		.4byte	.LLST109
 4150 0aa0 1A       		.uleb128 0x1a
 4151 0aa1 00020000 		.4byte	0x200
 4152 0aa5 DE230000 		.4byte	.LLST110
 4153 0aa9 1A       		.uleb128 0x1a
 4154 0aaa 0A020000 		.4byte	0x20a
 4155 0aae 08240000 		.4byte	.LLST111
ARM GAS  /tmp/cce3BzsE.s 			page 74


 4156 0ab2 2F       		.uleb128 0x2f
 4157 0ab3 D6000000 		.4byte	0xd6
 4158 0ab7 98020000 		.4byte	.LBB211
 4159 0abb 18000000 		.4byte	.LBE211-.LBB211
 4160 0abf 01       		.byte	0x1
 4161 0ac0 79       		.byte	0x79
 4162 0ac1 D00A0000 		.4byte	0xad0
 4163 0ac5 22       		.uleb128 0x22
 4164 0ac6 EB000000 		.4byte	0xeb
 4165 0aca 22       		.uleb128 0x22
 4166 0acb E2000000 		.4byte	0xe2
 4167 0acf 00       		.byte	0
 4168 0ad0 30       		.uleb128 0x30
 4169 0ad1 D6000000 		.4byte	0xd6
 4170 0ad5 B6020000 		.4byte	.LBB213
 4171 0ad9 0A000000 		.4byte	.LBE213-.LBB213
 4172 0add 01       		.byte	0x1
 4173 0ade 7B       		.byte	0x7b
 4174 0adf 18       		.uleb128 0x18
 4175 0ae0 EB000000 		.4byte	0xeb
 4176 0ae4 56240000 		.4byte	.LLST112
 4177 0ae8 18       		.uleb128 0x18
 4178 0ae9 E2000000 		.4byte	0xe2
 4179 0aed 75240000 		.4byte	.LLST113
 4180 0af1 00       		.byte	0
 4181 0af2 00       		.byte	0
 4182 0af3 00       		.byte	0
 4183 0af4 1D       		.uleb128 0x1d
 4184 0af5 F5000000 		.4byte	0xf5
 4185 0af9 D6020000 		.4byte	.LBB216
 4186 0afd E0020000 		.4byte	.Ldebug_ranges0+0x2e0
 4187 0b01 01       		.byte	0x1
 4188 0b02 B9       		.byte	0xb9
 4189 0b03 530B0000 		.4byte	0xb53
 4190 0b07 18       		.uleb128 0x18
 4191 0b08 21010000 		.4byte	0x121
 4192 0b0c 8D240000 		.4byte	.LLST114
 4193 0b10 18       		.uleb128 0x18
 4194 0b11 17010000 		.4byte	0x117
 4195 0b15 4E250000 		.4byte	.LLST115
 4196 0b19 18       		.uleb128 0x18
 4197 0b1a 0C010000 		.4byte	0x10c
 4198 0b1e 98250000 		.4byte	.LLST116
 4199 0b22 18       		.uleb128 0x18
 4200 0b23 01010000 		.4byte	0x101
 4201 0b27 DC250000 		.4byte	.LLST117
 4202 0b2b 1E       		.uleb128 0x1e
 4203 0b2c E0020000 		.4byte	.Ldebug_ranges0+0x2e0
 4204 0b30 1A       		.uleb128 0x1a
 4205 0b31 2B010000 		.4byte	0x12b
 4206 0b35 26260000 		.4byte	.LLST118
 4207 0b39 1A       		.uleb128 0x1a
 4208 0b3a 34010000 		.4byte	0x134
 4209 0b3e C5260000 		.4byte	.LLST119
 4210 0b42 1E       		.uleb128 0x1e
 4211 0b43 20030000 		.4byte	.Ldebug_ranges0+0x320
 4212 0b47 1A       		.uleb128 0x1a
ARM GAS  /tmp/cce3BzsE.s 			page 75


 4213 0b48 3E010000 		.4byte	0x13e
 4214 0b4c EF260000 		.4byte	.LLST120
 4215 0b50 00       		.byte	0
 4216 0b51 00       		.byte	0
 4217 0b52 00       		.byte	0
 4218 0b53 2F       		.uleb128 0x2f
 4219 0b54 D6000000 		.4byte	0xd6
 4220 0b58 58030000 		.4byte	.LBB231
 4221 0b5c 0E000000 		.4byte	.LBE231-.LBB231
 4222 0b60 01       		.byte	0x1
 4223 0b61 C3       		.byte	0xc3
 4224 0b62 790B0000 		.4byte	0xb79
 4225 0b66 18       		.uleb128 0x18
 4226 0b67 EB000000 		.4byte	0xeb
 4227 0b6b 5A270000 		.4byte	.LLST121
 4228 0b6f 18       		.uleb128 0x18
 4229 0b70 E2000000 		.4byte	0xe2
 4230 0b74 6F270000 		.4byte	.LLST122
 4231 0b78 00       		.byte	0
 4232 0b79 1D       		.uleb128 0x1d
 4233 0b7a B8010000 		.4byte	0x1b8
 4234 0b7e 6A030000 		.4byte	.LBB234
 4235 0b82 58030000 		.4byte	.Ldebug_ranges0+0x358
 4236 0b86 01       		.byte	0x1
 4237 0b87 B0       		.byte	0xb0
 4238 0b88 170C0000 		.4byte	0xc17
 4239 0b8c 22       		.uleb128 0x22
 4240 0b8d CF010000 		.4byte	0x1cf
 4241 0b91 18       		.uleb128 0x18
 4242 0b92 EC010000 		.4byte	0x1ec
 4243 0b96 87270000 		.4byte	.LLST123
 4244 0b9a 18       		.uleb128 0x18
 4245 0b9b E3010000 		.4byte	0x1e3
 4246 0b9f C5270000 		.4byte	.LLST124
 4247 0ba3 18       		.uleb128 0x18
 4248 0ba4 DA010000 		.4byte	0x1da
 4249 0ba8 E7270000 		.4byte	.LLST125
 4250 0bac 18       		.uleb128 0x18
 4251 0bad C4010000 		.4byte	0x1c4
 4252 0bb1 10280000 		.4byte	.LLST126
 4253 0bb5 1E       		.uleb128 0x1e
 4254 0bb6 58030000 		.4byte	.Ldebug_ranges0+0x358
 4255 0bba 1A       		.uleb128 0x1a
 4256 0bbb F6010000 		.4byte	0x1f6
 4257 0bbf 38280000 		.4byte	.LLST127
 4258 0bc3 1A       		.uleb128 0x1a
 4259 0bc4 00020000 		.4byte	0x200
 4260 0bc8 56280000 		.4byte	.LLST128
 4261 0bcc 1A       		.uleb128 0x1a
 4262 0bcd 0A020000 		.4byte	0x20a
 4263 0bd1 8B280000 		.4byte	.LLST129
 4264 0bd5 2F       		.uleb128 0x2f
 4265 0bd6 D6000000 		.4byte	0xd6
 4266 0bda 92030000 		.4byte	.LBB236
 4267 0bde 0A000000 		.4byte	.LBE236-.LBB236
 4268 0be2 01       		.byte	0x1
 4269 0be3 7B       		.byte	0x7b
ARM GAS  /tmp/cce3BzsE.s 			page 76


 4270 0be4 FB0B0000 		.4byte	0xbfb
 4271 0be8 18       		.uleb128 0x18
 4272 0be9 EB000000 		.4byte	0xeb
 4273 0bed C8280000 		.4byte	.LLST130
 4274 0bf1 18       		.uleb128 0x18
 4275 0bf2 E2000000 		.4byte	0xe2
 4276 0bf6 F2280000 		.4byte	.LLST131
 4277 0bfa 00       		.byte	0
 4278 0bfb 30       		.uleb128 0x30
 4279 0bfc D6000000 		.4byte	0xd6
 4280 0c00 9C040000 		.4byte	.LBB238
 4281 0c04 14000000 		.4byte	.LBE238-.LBB238
 4282 0c08 01       		.byte	0x1
 4283 0c09 79       		.byte	0x79
 4284 0c0a 22       		.uleb128 0x22
 4285 0c0b EB000000 		.4byte	0xeb
 4286 0c0f 22       		.uleb128 0x22
 4287 0c10 E2000000 		.4byte	0xe2
 4288 0c14 00       		.byte	0
 4289 0c15 00       		.byte	0
 4290 0c16 00       		.byte	0
 4291 0c17 24       		.uleb128 0x24
 4292 0c18 B8010000 		.4byte	0x1b8
 4293 0c1c 36040000 		.4byte	.LBB244
 4294 0c20 70030000 		.4byte	.Ldebug_ranges0+0x370
 4295 0c24 01       		.byte	0x1
 4296 0c25 BA       		.byte	0xba
 4297 0c26 22       		.uleb128 0x22
 4298 0c27 CF010000 		.4byte	0x1cf
 4299 0c2b 18       		.uleb128 0x18
 4300 0c2c EC010000 		.4byte	0x1ec
 4301 0c30 0A290000 		.4byte	.LLST132
 4302 0c34 18       		.uleb128 0x18
 4303 0c35 E3010000 		.4byte	0x1e3
 4304 0c39 74290000 		.4byte	.LLST133
 4305 0c3d 18       		.uleb128 0x18
 4306 0c3e DA010000 		.4byte	0x1da
 4307 0c42 96290000 		.4byte	.LLST134
 4308 0c46 18       		.uleb128 0x18
 4309 0c47 C4010000 		.4byte	0x1c4
 4310 0c4b E2290000 		.4byte	.LLST135
 4311 0c4f 1E       		.uleb128 0x1e
 4312 0c50 70030000 		.4byte	.Ldebug_ranges0+0x370
 4313 0c54 1A       		.uleb128 0x1a
 4314 0c55 F6010000 		.4byte	0x1f6
 4315 0c59 0A2A0000 		.4byte	.LLST136
 4316 0c5d 1A       		.uleb128 0x1a
 4317 0c5e 00020000 		.4byte	0x200
 4318 0c62 282A0000 		.4byte	.LLST137
 4319 0c66 1A       		.uleb128 0x1a
 4320 0c67 0A020000 		.4byte	0x20a
 4321 0c6b 5D2A0000 		.4byte	.LLST138
 4322 0c6f 2F       		.uleb128 0x2f
 4323 0c70 D6000000 		.4byte	0xd6
 4324 0c74 5C040000 		.4byte	.LBB246
 4325 0c78 0A000000 		.4byte	.LBE246-.LBB246
 4326 0c7c 01       		.byte	0x1
ARM GAS  /tmp/cce3BzsE.s 			page 77


 4327 0c7d 7B       		.byte	0x7b
 4328 0c7e 950C0000 		.4byte	0xc95
 4329 0c82 18       		.uleb128 0x18
 4330 0c83 EB000000 		.4byte	0xeb
 4331 0c87 9A2A0000 		.4byte	.LLST139
 4332 0c8b 18       		.uleb128 0x18
 4333 0c8c E2000000 		.4byte	0xe2
 4334 0c90 C42A0000 		.4byte	.LLST140
 4335 0c94 00       		.byte	0
 4336 0c95 24       		.uleb128 0x24
 4337 0c96 D6000000 		.4byte	0xd6
 4338 0c9a 80040000 		.4byte	.LBB248
 4339 0c9e 90030000 		.4byte	.Ldebug_ranges0+0x390
 4340 0ca2 01       		.byte	0x1
 4341 0ca3 79       		.byte	0x79
 4342 0ca4 22       		.uleb128 0x22
 4343 0ca5 EB000000 		.4byte	0xeb
 4344 0ca9 22       		.uleb128 0x22
 4345 0caa E2000000 		.4byte	0xe2
 4346 0cae 00       		.byte	0
 4347 0caf 00       		.byte	0
 4348 0cb0 00       		.byte	0
 4349 0cb1 00       		.byte	0
 4350 0cb2 00       		.byte	0
 4351 0cb3 00       		.byte	0
 4352 0cb4 2F       		.uleb128 0x2f
 4353 0cb5 D6000000 		.4byte	0xd6
 4354 0cb9 30000000 		.4byte	.LBB265
 4355 0cbd 04000000 		.4byte	.LBE265-.LBB265
 4356 0cc1 01       		.byte	0x1
 4357 0cc2 E7       		.byte	0xe7
 4358 0cc3 DA0C0000 		.4byte	0xcda
 4359 0cc7 18       		.uleb128 0x18
 4360 0cc8 EB000000 		.4byte	0xeb
 4361 0ccc DC2A0000 		.4byte	.LLST141
 4362 0cd0 18       		.uleb128 0x18
 4363 0cd1 E2000000 		.4byte	0xe2
 4364 0cd5 F02A0000 		.4byte	.LLST142
 4365 0cd9 00       		.byte	0
 4366 0cda 31       		.uleb128 0x31
 4367 0cdb AA020000 		.4byte	.LVL384
 4368 0cdf 810D0000 		.4byte	0xd81
 4369 0ce3 FA0C0000 		.4byte	0xcfa
 4370 0ce7 20       		.uleb128 0x20
 4371 0ce8 01       		.uleb128 0x1
 4372 0ce9 52       		.byte	0x52
 4373 0cea 02       		.uleb128 0x2
 4374 0ceb 74       		.byte	0x74
 4375 0cec 00       		.sleb128 0
 4376 0ced 20       		.uleb128 0x20
 4377 0cee 01       		.uleb128 0x1
 4378 0cef 51       		.byte	0x51
 4379 0cf0 02       		.uleb128 0x2
 4380 0cf1 08       		.byte	0x8
 4381 0cf2 20       		.byte	0x20
 4382 0cf3 20       		.uleb128 0x20
 4383 0cf4 01       		.uleb128 0x1
ARM GAS  /tmp/cce3BzsE.s 			page 78


 4384 0cf5 50       		.byte	0x50
 4385 0cf6 02       		.uleb128 0x2
 4386 0cf7 75       		.byte	0x75
 4387 0cf8 00       		.sleb128 0
 4388 0cf9 00       		.byte	0
 4389 0cfa 31       		.uleb128 0x31
 4390 0cfb 90040000 		.4byte	.LVL479
 4391 0cff 810D0000 		.4byte	0xd81
 4392 0d03 140D0000 		.4byte	0xd14
 4393 0d07 20       		.uleb128 0x20
 4394 0d08 01       		.uleb128 0x1
 4395 0d09 52       		.byte	0x52
 4396 0d0a 02       		.uleb128 0x2
 4397 0d0b 74       		.byte	0x74
 4398 0d0c 00       		.sleb128 0
 4399 0d0d 20       		.uleb128 0x20
 4400 0d0e 01       		.uleb128 0x1
 4401 0d0f 50       		.byte	0x50
 4402 0d10 02       		.uleb128 0x2
 4403 0d11 75       		.byte	0x75
 4404 0d12 00       		.sleb128 0
 4405 0d13 00       		.byte	0
 4406 0d14 31       		.uleb128 0x31
 4407 0d15 AC040000 		.4byte	.LVL483
 4408 0d19 810D0000 		.4byte	0xd81
 4409 0d1d 2E0D0000 		.4byte	0xd2e
 4410 0d21 20       		.uleb128 0x20
 4411 0d22 01       		.uleb128 0x1
 4412 0d23 52       		.byte	0x52
 4413 0d24 02       		.uleb128 0x2
 4414 0d25 74       		.byte	0x74
 4415 0d26 00       		.sleb128 0
 4416 0d27 20       		.uleb128 0x20
 4417 0d28 01       		.uleb128 0x1
 4418 0d29 50       		.byte	0x50
 4419 0d2a 02       		.uleb128 0x2
 4420 0d2b 75       		.byte	0x75
 4421 0d2c 00       		.sleb128 0
 4422 0d2d 00       		.byte	0
 4423 0d2e 31       		.uleb128 0x31
 4424 0d2f C8040000 		.4byte	.LVL487
 4425 0d33 810D0000 		.4byte	0xd81
 4426 0d37 480D0000 		.4byte	0xd48
 4427 0d3b 20       		.uleb128 0x20
 4428 0d3c 01       		.uleb128 0x1
 4429 0d3d 52       		.byte	0x52
 4430 0d3e 02       		.uleb128 0x2
 4431 0d3f 74       		.byte	0x74
 4432 0d40 00       		.sleb128 0
 4433 0d41 20       		.uleb128 0x20
 4434 0d42 01       		.uleb128 0x1
 4435 0d43 50       		.byte	0x50
 4436 0d44 02       		.uleb128 0x2
 4437 0d45 75       		.byte	0x75
 4438 0d46 00       		.sleb128 0
 4439 0d47 00       		.byte	0
 4440 0d48 2A       		.uleb128 0x2a
ARM GAS  /tmp/cce3BzsE.s 			page 79


 4441 0d49 02050000 		.4byte	.LVL501
 4442 0d4d 810D0000 		.4byte	0xd81
 4443 0d51 20       		.uleb128 0x20
 4444 0d52 01       		.uleb128 0x1
 4445 0d53 52       		.byte	0x52
 4446 0d54 02       		.uleb128 0x2
 4447 0d55 74       		.byte	0x74
 4448 0d56 00       		.sleb128 0
 4449 0d57 20       		.uleb128 0x20
 4450 0d58 01       		.uleb128 0x1
 4451 0d59 50       		.byte	0x50
 4452 0d5a 02       		.uleb128 0x2
 4453 0d5b 75       		.byte	0x75
 4454 0d5c 00       		.sleb128 0
 4455 0d5d 00       		.byte	0
 4456 0d5e 00       		.byte	0
 4457 0d5f 32       		.uleb128 0x32
 4458 0d60 2A020000 		.4byte	.LASF23
 4459 0d64 01       		.byte	0x1
 4460 0d65 1A       		.byte	0x1a
 4461 0d66 9A000000 		.4byte	0x9a
 4462 0d6a 05       		.uleb128 0x5
 4463 0d6b 03       		.byte	0x3
 4464 0d6c 00000000 		.4byte	stdout_putf
 4465 0d70 32       		.uleb128 0x32
 4466 0d71 72000000 		.4byte	.LASF24
 4467 0d75 01       		.byte	0x1
 4468 0d76 1B       		.byte	0x1b
 4469 0d77 64000000 		.4byte	0x64
 4470 0d7b 05       		.uleb128 0x5
 4471 0d7c 03       		.byte	0x3
 4472 0d7d 00000000 		.4byte	stdout_putp
 4473 0d81 33       		.uleb128 0x33
 4474 0d82 27000000 		.4byte	.LASF32
 4475 0d86 03       		.byte	0x3
 4476 0d87 00       		.byte	0
 4477 0d88 62000000 		.4byte	.LASF33
 4478 0d8c 64000000 		.4byte	0x64
 4479 0d90 0A       		.uleb128 0xa
 4480 0d91 64000000 		.4byte	0x64
 4481 0d95 0A       		.uleb128 0xa
 4482 0d96 25000000 		.4byte	0x25
 4483 0d9a 0A       		.uleb128 0xa
 4484 0d9b 2C000000 		.4byte	0x2c
 4485 0d9f 00       		.byte	0
 4486 0da0 00       		.byte	0
 4487              		.section	.debug_abbrev,"",%progbits
 4488              	.Ldebug_abbrev0:
 4489 0000 01       		.uleb128 0x1
 4490 0001 11       		.uleb128 0x11
 4491 0002 01       		.byte	0x1
 4492 0003 25       		.uleb128 0x25
 4493 0004 0E       		.uleb128 0xe
 4494 0005 13       		.uleb128 0x13
 4495 0006 0B       		.uleb128 0xb
 4496 0007 03       		.uleb128 0x3
 4497 0008 0E       		.uleb128 0xe
ARM GAS  /tmp/cce3BzsE.s 			page 80


 4498 0009 1B       		.uleb128 0x1b
 4499 000a 0E       		.uleb128 0xe
 4500 000b 55       		.uleb128 0x55
 4501 000c 17       		.uleb128 0x17
 4502 000d 11       		.uleb128 0x11
 4503 000e 01       		.uleb128 0x1
 4504 000f 10       		.uleb128 0x10
 4505 0010 17       		.uleb128 0x17
 4506 0011 00       		.byte	0
 4507 0012 00       		.byte	0
 4508 0013 02       		.uleb128 0x2
 4509 0014 24       		.uleb128 0x24
 4510 0015 00       		.byte	0
 4511 0016 0B       		.uleb128 0xb
 4512 0017 0B       		.uleb128 0xb
 4513 0018 3E       		.uleb128 0x3e
 4514 0019 0B       		.uleb128 0xb
 4515 001a 03       		.uleb128 0x3
 4516 001b 08       		.uleb128 0x8
 4517 001c 00       		.byte	0
 4518 001d 00       		.byte	0
 4519 001e 03       		.uleb128 0x3
 4520 001f 24       		.uleb128 0x24
 4521 0020 00       		.byte	0
 4522 0021 0B       		.uleb128 0xb
 4523 0022 0B       		.uleb128 0xb
 4524 0023 3E       		.uleb128 0x3e
 4525 0024 0B       		.uleb128 0xb
 4526 0025 03       		.uleb128 0x3
 4527 0026 0E       		.uleb128 0xe
 4528 0027 00       		.byte	0
 4529 0028 00       		.byte	0
 4530 0029 04       		.uleb128 0x4
 4531 002a 0F       		.uleb128 0xf
 4532 002b 00       		.byte	0
 4533 002c 0B       		.uleb128 0xb
 4534 002d 0B       		.uleb128 0xb
 4535 002e 00       		.byte	0
 4536 002f 00       		.byte	0
 4537 0030 05       		.uleb128 0x5
 4538 0031 16       		.uleb128 0x16
 4539 0032 00       		.byte	0
 4540 0033 03       		.uleb128 0x3
 4541 0034 0E       		.uleb128 0xe
 4542 0035 3A       		.uleb128 0x3a
 4543 0036 0B       		.uleb128 0xb
 4544 0037 3B       		.uleb128 0x3b
 4545 0038 0B       		.uleb128 0xb
 4546 0039 49       		.uleb128 0x49
 4547 003a 13       		.uleb128 0x13
 4548 003b 00       		.byte	0
 4549 003c 00       		.byte	0
 4550 003d 06       		.uleb128 0x6
 4551 003e 13       		.uleb128 0x13
 4552 003f 01       		.byte	0x1
 4553 0040 03       		.uleb128 0x3
 4554 0041 0E       		.uleb128 0xe
ARM GAS  /tmp/cce3BzsE.s 			page 81


 4555 0042 0B       		.uleb128 0xb
 4556 0043 0B       		.uleb128 0xb
 4557 0044 3A       		.uleb128 0x3a
 4558 0045 0B       		.uleb128 0xb
 4559 0046 3B       		.uleb128 0x3b
 4560 0047 0B       		.uleb128 0xb
 4561 0048 01       		.uleb128 0x1
 4562 0049 13       		.uleb128 0x13
 4563 004a 00       		.byte	0
 4564 004b 00       		.byte	0
 4565 004c 07       		.uleb128 0x7
 4566 004d 0D       		.uleb128 0xd
 4567 004e 00       		.byte	0
 4568 004f 03       		.uleb128 0x3
 4569 0050 0E       		.uleb128 0xe
 4570 0051 49       		.uleb128 0x49
 4571 0052 13       		.uleb128 0x13
 4572 0053 38       		.uleb128 0x38
 4573 0054 0B       		.uleb128 0xb
 4574 0055 34       		.uleb128 0x34
 4575 0056 19       		.uleb128 0x19
 4576 0057 00       		.byte	0
 4577 0058 00       		.byte	0
 4578 0059 08       		.uleb128 0x8
 4579 005a 0F       		.uleb128 0xf
 4580 005b 00       		.byte	0
 4581 005c 0B       		.uleb128 0xb
 4582 005d 0B       		.uleb128 0xb
 4583 005e 49       		.uleb128 0x49
 4584 005f 13       		.uleb128 0x13
 4585 0060 00       		.byte	0
 4586 0061 00       		.byte	0
 4587 0062 09       		.uleb128 0x9
 4588 0063 15       		.uleb128 0x15
 4589 0064 01       		.byte	0x1
 4590 0065 27       		.uleb128 0x27
 4591 0066 19       		.uleb128 0x19
 4592 0067 01       		.uleb128 0x1
 4593 0068 13       		.uleb128 0x13
 4594 0069 00       		.byte	0
 4595 006a 00       		.byte	0
 4596 006b 0A       		.uleb128 0xa
 4597 006c 05       		.uleb128 0x5
 4598 006d 00       		.byte	0
 4599 006e 49       		.uleb128 0x49
 4600 006f 13       		.uleb128 0x13
 4601 0070 00       		.byte	0
 4602 0071 00       		.byte	0
 4603 0072 0B       		.uleb128 0xb
 4604 0073 2E       		.uleb128 0x2e
 4605 0074 01       		.byte	0x1
 4606 0075 03       		.uleb128 0x3
 4607 0076 08       		.uleb128 0x8
 4608 0077 3A       		.uleb128 0x3a
 4609 0078 0B       		.uleb128 0xb
 4610 0079 3B       		.uleb128 0x3b
 4611 007a 0B       		.uleb128 0xb
ARM GAS  /tmp/cce3BzsE.s 			page 82


 4612 007b 27       		.uleb128 0x27
 4613 007c 19       		.uleb128 0x19
 4614 007d 49       		.uleb128 0x49
 4615 007e 13       		.uleb128 0x13
 4616 007f 20       		.uleb128 0x20
 4617 0080 0B       		.uleb128 0xb
 4618 0081 01       		.uleb128 0x1
 4619 0082 13       		.uleb128 0x13
 4620 0083 00       		.byte	0
 4621 0084 00       		.byte	0
 4622 0085 0C       		.uleb128 0xc
 4623 0086 05       		.uleb128 0x5
 4624 0087 00       		.byte	0
 4625 0088 03       		.uleb128 0x3
 4626 0089 08       		.uleb128 0x8
 4627 008a 3A       		.uleb128 0x3a
 4628 008b 0B       		.uleb128 0xb
 4629 008c 3B       		.uleb128 0x3b
 4630 008d 0B       		.uleb128 0xb
 4631 008e 49       		.uleb128 0x49
 4632 008f 13       		.uleb128 0x13
 4633 0090 00       		.byte	0
 4634 0091 00       		.byte	0
 4635 0092 0D       		.uleb128 0xd
 4636 0093 2E       		.uleb128 0x2e
 4637 0094 01       		.byte	0x1
 4638 0095 03       		.uleb128 0x3
 4639 0096 0E       		.uleb128 0xe
 4640 0097 3A       		.uleb128 0x3a
 4641 0098 0B       		.uleb128 0xb
 4642 0099 3B       		.uleb128 0x3b
 4643 009a 0B       		.uleb128 0xb
 4644 009b 27       		.uleb128 0x27
 4645 009c 19       		.uleb128 0x19
 4646 009d 20       		.uleb128 0x20
 4647 009e 0B       		.uleb128 0xb
 4648 009f 01       		.uleb128 0x1
 4649 00a0 13       		.uleb128 0x13
 4650 00a1 00       		.byte	0
 4651 00a2 00       		.byte	0
 4652 00a3 0E       		.uleb128 0xe
 4653 00a4 05       		.uleb128 0x5
 4654 00a5 00       		.byte	0
 4655 00a6 03       		.uleb128 0x3
 4656 00a7 0E       		.uleb128 0xe
 4657 00a8 3A       		.uleb128 0x3a
 4658 00a9 0B       		.uleb128 0xb
 4659 00aa 3B       		.uleb128 0x3b
 4660 00ab 0B       		.uleb128 0xb
 4661 00ac 49       		.uleb128 0x49
 4662 00ad 13       		.uleb128 0x13
 4663 00ae 00       		.byte	0
 4664 00af 00       		.byte	0
 4665 00b0 0F       		.uleb128 0xf
 4666 00b1 34       		.uleb128 0x34
 4667 00b2 00       		.byte	0
 4668 00b3 03       		.uleb128 0x3
ARM GAS  /tmp/cce3BzsE.s 			page 83


 4669 00b4 08       		.uleb128 0x8
 4670 00b5 3A       		.uleb128 0x3a
 4671 00b6 0B       		.uleb128 0xb
 4672 00b7 3B       		.uleb128 0x3b
 4673 00b8 0B       		.uleb128 0xb
 4674 00b9 49       		.uleb128 0x49
 4675 00ba 13       		.uleb128 0x13
 4676 00bb 00       		.byte	0
 4677 00bc 00       		.byte	0
 4678 00bd 10       		.uleb128 0x10
 4679 00be 0B       		.uleb128 0xb
 4680 00bf 01       		.byte	0x1
 4681 00c0 00       		.byte	0
 4682 00c1 00       		.byte	0
 4683 00c2 11       		.uleb128 0x11
 4684 00c3 34       		.uleb128 0x34
 4685 00c4 00       		.byte	0
 4686 00c5 03       		.uleb128 0x3
 4687 00c6 0E       		.uleb128 0xe
 4688 00c7 3A       		.uleb128 0x3a
 4689 00c8 0B       		.uleb128 0xb
 4690 00c9 3B       		.uleb128 0x3b
 4691 00ca 0B       		.uleb128 0xb
 4692 00cb 49       		.uleb128 0x49
 4693 00cc 13       		.uleb128 0x13
 4694 00cd 00       		.byte	0
 4695 00ce 00       		.byte	0
 4696 00cf 12       		.uleb128 0x12
 4697 00d0 2E       		.uleb128 0x2e
 4698 00d1 01       		.byte	0x1
 4699 00d2 3F       		.uleb128 0x3f
 4700 00d3 19       		.uleb128 0x19
 4701 00d4 03       		.uleb128 0x3
 4702 00d5 0E       		.uleb128 0xe
 4703 00d6 3A       		.uleb128 0x3a
 4704 00d7 0B       		.uleb128 0xb
 4705 00d8 3B       		.uleb128 0x3b
 4706 00d9 0B       		.uleb128 0xb
 4707 00da 27       		.uleb128 0x27
 4708 00db 19       		.uleb128 0x19
 4709 00dc 20       		.uleb128 0x20
 4710 00dd 0B       		.uleb128 0xb
 4711 00de 01       		.uleb128 0x1
 4712 00df 13       		.uleb128 0x13
 4713 00e0 00       		.byte	0
 4714 00e1 00       		.byte	0
 4715 00e2 13       		.uleb128 0x13
 4716 00e3 0A       		.uleb128 0xa
 4717 00e4 00       		.byte	0
 4718 00e5 03       		.uleb128 0x3
 4719 00e6 0E       		.uleb128 0xe
 4720 00e7 3A       		.uleb128 0x3a
 4721 00e8 0B       		.uleb128 0xb
 4722 00e9 3B       		.uleb128 0x3b
 4723 00ea 0B       		.uleb128 0xb
 4724 00eb 00       		.byte	0
 4725 00ec 00       		.byte	0
ARM GAS  /tmp/cce3BzsE.s 			page 84


 4726 00ed 14       		.uleb128 0x14
 4727 00ee 01       		.uleb128 0x1
 4728 00ef 01       		.byte	0x1
 4729 00f0 49       		.uleb128 0x49
 4730 00f1 13       		.uleb128 0x13
 4731 00f2 01       		.uleb128 0x1
 4732 00f3 13       		.uleb128 0x13
 4733 00f4 00       		.byte	0
 4734 00f5 00       		.byte	0
 4735 00f6 15       		.uleb128 0x15
 4736 00f7 21       		.uleb128 0x21
 4737 00f8 00       		.byte	0
 4738 00f9 49       		.uleb128 0x49
 4739 00fa 13       		.uleb128 0x13
 4740 00fb 2F       		.uleb128 0x2f
 4741 00fc 0B       		.uleb128 0xb
 4742 00fd 00       		.byte	0
 4743 00fe 00       		.byte	0
 4744 00ff 16       		.uleb128 0x16
 4745 0100 2E       		.uleb128 0x2e
 4746 0101 01       		.byte	0x1
 4747 0102 03       		.uleb128 0x3
 4748 0103 08       		.uleb128 0x8
 4749 0104 3A       		.uleb128 0x3a
 4750 0105 0B       		.uleb128 0xb
 4751 0106 3B       		.uleb128 0x3b
 4752 0107 0B       		.uleb128 0xb
 4753 0108 27       		.uleb128 0x27
 4754 0109 19       		.uleb128 0x19
 4755 010a 20       		.uleb128 0x20
 4756 010b 0B       		.uleb128 0xb
 4757 010c 01       		.uleb128 0x1
 4758 010d 13       		.uleb128 0x13
 4759 010e 00       		.byte	0
 4760 010f 00       		.byte	0
 4761 0110 17       		.uleb128 0x17
 4762 0111 2E       		.uleb128 0x2e
 4763 0112 01       		.byte	0x1
 4764 0113 31       		.uleb128 0x31
 4765 0114 13       		.uleb128 0x13
 4766 0115 11       		.uleb128 0x11
 4767 0116 01       		.uleb128 0x1
 4768 0117 12       		.uleb128 0x12
 4769 0118 06       		.uleb128 0x6
 4770 0119 40       		.uleb128 0x40
 4771 011a 18       		.uleb128 0x18
 4772 011b 9642     		.uleb128 0x2116
 4773 011d 19       		.uleb128 0x19
 4774 011e 01       		.uleb128 0x1
 4775 011f 13       		.uleb128 0x13
 4776 0120 00       		.byte	0
 4777 0121 00       		.byte	0
 4778 0122 18       		.uleb128 0x18
 4779 0123 05       		.uleb128 0x5
 4780 0124 00       		.byte	0
 4781 0125 31       		.uleb128 0x31
 4782 0126 13       		.uleb128 0x13
ARM GAS  /tmp/cce3BzsE.s 			page 85


 4783 0127 02       		.uleb128 0x2
 4784 0128 17       		.uleb128 0x17
 4785 0129 00       		.byte	0
 4786 012a 00       		.byte	0
 4787 012b 19       		.uleb128 0x19
 4788 012c 34       		.uleb128 0x34
 4789 012d 00       		.byte	0
 4790 012e 31       		.uleb128 0x31
 4791 012f 13       		.uleb128 0x13
 4792 0130 02       		.uleb128 0x2
 4793 0131 18       		.uleb128 0x18
 4794 0132 00       		.byte	0
 4795 0133 00       		.byte	0
 4796 0134 1A       		.uleb128 0x1a
 4797 0135 34       		.uleb128 0x34
 4798 0136 00       		.byte	0
 4799 0137 31       		.uleb128 0x31
 4800 0138 13       		.uleb128 0x13
 4801 0139 02       		.uleb128 0x2
 4802 013a 17       		.uleb128 0x17
 4803 013b 00       		.byte	0
 4804 013c 00       		.byte	0
 4805 013d 1B       		.uleb128 0x1b
 4806 013e 0A       		.uleb128 0xa
 4807 013f 00       		.byte	0
 4808 0140 31       		.uleb128 0x31
 4809 0141 13       		.uleb128 0x13
 4810 0142 11       		.uleb128 0x11
 4811 0143 01       		.uleb128 0x1
 4812 0144 00       		.byte	0
 4813 0145 00       		.byte	0
 4814 0146 1C       		.uleb128 0x1c
 4815 0147 0B       		.uleb128 0xb
 4816 0148 01       		.byte	0x1
 4817 0149 11       		.uleb128 0x11
 4818 014a 01       		.uleb128 0x1
 4819 014b 12       		.uleb128 0x12
 4820 014c 06       		.uleb128 0x6
 4821 014d 01       		.uleb128 0x1
 4822 014e 13       		.uleb128 0x13
 4823 014f 00       		.byte	0
 4824 0150 00       		.byte	0
 4825 0151 1D       		.uleb128 0x1d
 4826 0152 1D       		.uleb128 0x1d
 4827 0153 01       		.byte	0x1
 4828 0154 31       		.uleb128 0x31
 4829 0155 13       		.uleb128 0x13
 4830 0156 52       		.uleb128 0x52
 4831 0157 01       		.uleb128 0x1
 4832 0158 55       		.uleb128 0x55
 4833 0159 17       		.uleb128 0x17
 4834 015a 58       		.uleb128 0x58
 4835 015b 0B       		.uleb128 0xb
 4836 015c 59       		.uleb128 0x59
 4837 015d 0B       		.uleb128 0xb
 4838 015e 01       		.uleb128 0x1
 4839 015f 13       		.uleb128 0x13
ARM GAS  /tmp/cce3BzsE.s 			page 86


 4840 0160 00       		.byte	0
 4841 0161 00       		.byte	0
 4842 0162 1E       		.uleb128 0x1e
 4843 0163 0B       		.uleb128 0xb
 4844 0164 01       		.byte	0x1
 4845 0165 55       		.uleb128 0x55
 4846 0166 17       		.uleb128 0x17
 4847 0167 00       		.byte	0
 4848 0168 00       		.byte	0
 4849 0169 1F       		.uleb128 0x1f
 4850 016a 898201   		.uleb128 0x4109
 4851 016d 01       		.byte	0x1
 4852 016e 11       		.uleb128 0x11
 4853 016f 01       		.uleb128 0x1
 4854 0170 01       		.uleb128 0x1
 4855 0171 13       		.uleb128 0x13
 4856 0172 00       		.byte	0
 4857 0173 00       		.byte	0
 4858 0174 20       		.uleb128 0x20
 4859 0175 8A8201   		.uleb128 0x410a
 4860 0178 00       		.byte	0
 4861 0179 02       		.uleb128 0x2
 4862 017a 18       		.uleb128 0x18
 4863 017b 9142     		.uleb128 0x2111
 4864 017d 18       		.uleb128 0x18
 4865 017e 00       		.byte	0
 4866 017f 00       		.byte	0
 4867 0180 21       		.uleb128 0x21
 4868 0181 898201   		.uleb128 0x4109
 4869 0184 01       		.byte	0x1
 4870 0185 11       		.uleb128 0x11
 4871 0186 01       		.uleb128 0x1
 4872 0187 00       		.byte	0
 4873 0188 00       		.byte	0
 4874 0189 22       		.uleb128 0x22
 4875 018a 05       		.uleb128 0x5
 4876 018b 00       		.byte	0
 4877 018c 31       		.uleb128 0x31
 4878 018d 13       		.uleb128 0x13
 4879 018e 00       		.byte	0
 4880 018f 00       		.byte	0
 4881 0190 23       		.uleb128 0x23
 4882 0191 34       		.uleb128 0x34
 4883 0192 00       		.byte	0
 4884 0193 31       		.uleb128 0x31
 4885 0194 13       		.uleb128 0x13
 4886 0195 00       		.byte	0
 4887 0196 00       		.byte	0
 4888 0197 24       		.uleb128 0x24
 4889 0198 1D       		.uleb128 0x1d
 4890 0199 01       		.byte	0x1
 4891 019a 31       		.uleb128 0x31
 4892 019b 13       		.uleb128 0x13
 4893 019c 52       		.uleb128 0x52
 4894 019d 01       		.uleb128 0x1
 4895 019e 55       		.uleb128 0x55
 4896 019f 17       		.uleb128 0x17
ARM GAS  /tmp/cce3BzsE.s 			page 87


 4897 01a0 58       		.uleb128 0x58
 4898 01a1 0B       		.uleb128 0xb
 4899 01a2 59       		.uleb128 0x59
 4900 01a3 0B       		.uleb128 0xb
 4901 01a4 00       		.byte	0
 4902 01a5 00       		.byte	0
 4903 01a6 25       		.uleb128 0x25
 4904 01a7 2E       		.uleb128 0x2e
 4905 01a8 01       		.byte	0x1
 4906 01a9 3F       		.uleb128 0x3f
 4907 01aa 19       		.uleb128 0x19
 4908 01ab 03       		.uleb128 0x3
 4909 01ac 0E       		.uleb128 0xe
 4910 01ad 3A       		.uleb128 0x3a
 4911 01ae 0B       		.uleb128 0xb
 4912 01af 3B       		.uleb128 0x3b
 4913 01b0 0B       		.uleb128 0xb
 4914 01b1 27       		.uleb128 0x27
 4915 01b2 19       		.uleb128 0x19
 4916 01b3 11       		.uleb128 0x11
 4917 01b4 01       		.uleb128 0x1
 4918 01b5 12       		.uleb128 0x12
 4919 01b6 06       		.uleb128 0x6
 4920 01b7 40       		.uleb128 0x40
 4921 01b8 18       		.uleb128 0x18
 4922 01b9 9742     		.uleb128 0x2117
 4923 01bb 19       		.uleb128 0x19
 4924 01bc 01       		.uleb128 0x1
 4925 01bd 13       		.uleb128 0x13
 4926 01be 00       		.byte	0
 4927 01bf 00       		.byte	0
 4928 01c0 26       		.uleb128 0x26
 4929 01c1 05       		.uleb128 0x5
 4930 01c2 00       		.byte	0
 4931 01c3 03       		.uleb128 0x3
 4932 01c4 0E       		.uleb128 0xe
 4933 01c5 3A       		.uleb128 0x3a
 4934 01c6 0B       		.uleb128 0xb
 4935 01c7 3B       		.uleb128 0x3b
 4936 01c8 0B       		.uleb128 0xb
 4937 01c9 49       		.uleb128 0x49
 4938 01ca 13       		.uleb128 0x13
 4939 01cb 02       		.uleb128 0x2
 4940 01cc 18       		.uleb128 0x18
 4941 01cd 00       		.byte	0
 4942 01ce 00       		.byte	0
 4943 01cf 27       		.uleb128 0x27
 4944 01d0 05       		.uleb128 0x5
 4945 01d1 00       		.byte	0
 4946 01d2 03       		.uleb128 0x3
 4947 01d3 08       		.uleb128 0x8
 4948 01d4 3A       		.uleb128 0x3a
 4949 01d5 0B       		.uleb128 0xb
 4950 01d6 3B       		.uleb128 0x3b
 4951 01d7 0B       		.uleb128 0xb
 4952 01d8 49       		.uleb128 0x49
 4953 01d9 13       		.uleb128 0x13
ARM GAS  /tmp/cce3BzsE.s 			page 88


 4954 01da 02       		.uleb128 0x2
 4955 01db 18       		.uleb128 0x18
 4956 01dc 00       		.byte	0
 4957 01dd 00       		.byte	0
 4958 01de 28       		.uleb128 0x28
 4959 01df 18       		.uleb128 0x18
 4960 01e0 00       		.byte	0
 4961 01e1 00       		.byte	0
 4962 01e2 00       		.byte	0
 4963 01e3 29       		.uleb128 0x29
 4964 01e4 34       		.uleb128 0x34
 4965 01e5 00       		.byte	0
 4966 01e6 03       		.uleb128 0x3
 4967 01e7 08       		.uleb128 0x8
 4968 01e8 3A       		.uleb128 0x3a
 4969 01e9 0B       		.uleb128 0xb
 4970 01ea 3B       		.uleb128 0x3b
 4971 01eb 0B       		.uleb128 0xb
 4972 01ec 49       		.uleb128 0x49
 4973 01ed 13       		.uleb128 0x13
 4974 01ee 02       		.uleb128 0x2
 4975 01ef 18       		.uleb128 0x18
 4976 01f0 00       		.byte	0
 4977 01f1 00       		.byte	0
 4978 01f2 2A       		.uleb128 0x2a
 4979 01f3 898201   		.uleb128 0x4109
 4980 01f6 01       		.byte	0x1
 4981 01f7 11       		.uleb128 0x11
 4982 01f8 01       		.uleb128 0x1
 4983 01f9 31       		.uleb128 0x31
 4984 01fa 13       		.uleb128 0x13
 4985 01fb 00       		.byte	0
 4986 01fc 00       		.byte	0
 4987 01fd 2B       		.uleb128 0x2b
 4988 01fe 2E       		.uleb128 0x2e
 4989 01ff 01       		.byte	0x1
 4990 0200 3F       		.uleb128 0x3f
 4991 0201 19       		.uleb128 0x19
 4992 0202 03       		.uleb128 0x3
 4993 0203 0E       		.uleb128 0xe
 4994 0204 3A       		.uleb128 0x3a
 4995 0205 0B       		.uleb128 0xb
 4996 0206 3B       		.uleb128 0x3b
 4997 0207 0B       		.uleb128 0xb
 4998 0208 27       		.uleb128 0x27
 4999 0209 19       		.uleb128 0x19
 5000 020a 11       		.uleb128 0x11
 5001 020b 01       		.uleb128 0x1
 5002 020c 12       		.uleb128 0x12
 5003 020d 06       		.uleb128 0x6
 5004 020e 40       		.uleb128 0x40
 5005 020f 18       		.uleb128 0x18
 5006 0210 9642     		.uleb128 0x2116
 5007 0212 19       		.uleb128 0x19
 5008 0213 01       		.uleb128 0x1
 5009 0214 13       		.uleb128 0x13
 5010 0215 00       		.byte	0
ARM GAS  /tmp/cce3BzsE.s 			page 89


 5011 0216 00       		.byte	0
 5012 0217 2C       		.uleb128 0x2c
 5013 0218 05       		.uleb128 0x5
 5014 0219 00       		.byte	0
 5015 021a 03       		.uleb128 0x3
 5016 021b 08       		.uleb128 0x8
 5017 021c 3A       		.uleb128 0x3a
 5018 021d 0B       		.uleb128 0xb
 5019 021e 3B       		.uleb128 0x3b
 5020 021f 0B       		.uleb128 0xb
 5021 0220 49       		.uleb128 0x49
 5022 0221 13       		.uleb128 0x13
 5023 0222 02       		.uleb128 0x2
 5024 0223 17       		.uleb128 0x17
 5025 0224 00       		.byte	0
 5026 0225 00       		.byte	0
 5027 0226 2D       		.uleb128 0x2d
 5028 0227 05       		.uleb128 0x5
 5029 0228 00       		.byte	0
 5030 0229 31       		.uleb128 0x31
 5031 022a 13       		.uleb128 0x13
 5032 022b 02       		.uleb128 0x2
 5033 022c 18       		.uleb128 0x18
 5034 022d 00       		.byte	0
 5035 022e 00       		.byte	0
 5036 022f 2E       		.uleb128 0x2e
 5037 0230 0B       		.uleb128 0xb
 5038 0231 01       		.byte	0x1
 5039 0232 11       		.uleb128 0x11
 5040 0233 01       		.uleb128 0x1
 5041 0234 12       		.uleb128 0x12
 5042 0235 06       		.uleb128 0x6
 5043 0236 00       		.byte	0
 5044 0237 00       		.byte	0
 5045 0238 2F       		.uleb128 0x2f
 5046 0239 1D       		.uleb128 0x1d
 5047 023a 01       		.byte	0x1
 5048 023b 31       		.uleb128 0x31
 5049 023c 13       		.uleb128 0x13
 5050 023d 11       		.uleb128 0x11
 5051 023e 01       		.uleb128 0x1
 5052 023f 12       		.uleb128 0x12
 5053 0240 06       		.uleb128 0x6
 5054 0241 58       		.uleb128 0x58
 5055 0242 0B       		.uleb128 0xb
 5056 0243 59       		.uleb128 0x59
 5057 0244 0B       		.uleb128 0xb
 5058 0245 01       		.uleb128 0x1
 5059 0246 13       		.uleb128 0x13
 5060 0247 00       		.byte	0
 5061 0248 00       		.byte	0
 5062 0249 30       		.uleb128 0x30
 5063 024a 1D       		.uleb128 0x1d
 5064 024b 01       		.byte	0x1
 5065 024c 31       		.uleb128 0x31
 5066 024d 13       		.uleb128 0x13
 5067 024e 11       		.uleb128 0x11
ARM GAS  /tmp/cce3BzsE.s 			page 90


 5068 024f 01       		.uleb128 0x1
 5069 0250 12       		.uleb128 0x12
 5070 0251 06       		.uleb128 0x6
 5071 0252 58       		.uleb128 0x58
 5072 0253 0B       		.uleb128 0xb
 5073 0254 59       		.uleb128 0x59
 5074 0255 0B       		.uleb128 0xb
 5075 0256 00       		.byte	0
 5076 0257 00       		.byte	0
 5077 0258 31       		.uleb128 0x31
 5078 0259 898201   		.uleb128 0x4109
 5079 025c 01       		.byte	0x1
 5080 025d 11       		.uleb128 0x11
 5081 025e 01       		.uleb128 0x1
 5082 025f 31       		.uleb128 0x31
 5083 0260 13       		.uleb128 0x13
 5084 0261 01       		.uleb128 0x1
 5085 0262 13       		.uleb128 0x13
 5086 0263 00       		.byte	0
 5087 0264 00       		.byte	0
 5088 0265 32       		.uleb128 0x32
 5089 0266 34       		.uleb128 0x34
 5090 0267 00       		.byte	0
 5091 0268 03       		.uleb128 0x3
 5092 0269 0E       		.uleb128 0xe
 5093 026a 3A       		.uleb128 0x3a
 5094 026b 0B       		.uleb128 0xb
 5095 026c 3B       		.uleb128 0x3b
 5096 026d 0B       		.uleb128 0xb
 5097 026e 49       		.uleb128 0x49
 5098 026f 13       		.uleb128 0x13
 5099 0270 02       		.uleb128 0x2
 5100 0271 18       		.uleb128 0x18
 5101 0272 00       		.byte	0
 5102 0273 00       		.byte	0
 5103 0274 33       		.uleb128 0x33
 5104 0275 2E       		.uleb128 0x2e
 5105 0276 01       		.byte	0x1
 5106 0277 3F       		.uleb128 0x3f
 5107 0278 19       		.uleb128 0x19
 5108 0279 03       		.uleb128 0x3
 5109 027a 0E       		.uleb128 0xe
 5110 027b 3A       		.uleb128 0x3a
 5111 027c 0B       		.uleb128 0xb
 5112 027d 3B       		.uleb128 0x3b
 5113 027e 0B       		.uleb128 0xb
 5114 027f 6E       		.uleb128 0x6e
 5115 0280 0E       		.uleb128 0xe
 5116 0281 27       		.uleb128 0x27
 5117 0282 19       		.uleb128 0x19
 5118 0283 49       		.uleb128 0x49
 5119 0284 13       		.uleb128 0x13
 5120 0285 3C       		.uleb128 0x3c
 5121 0286 19       		.uleb128 0x19
 5122 0287 00       		.byte	0
 5123 0288 00       		.byte	0
 5124 0289 00       		.byte	0
ARM GAS  /tmp/cce3BzsE.s 			page 91


 5125              		.section	.debug_loc,"",%progbits
 5126              	.Ldebug_loc0:
 5127              	.LLST0:
 5128 0000 00000000 		.4byte	.LVL0
 5129 0004 16000000 		.4byte	.LVL1
 5130 0008 0100     		.2byte	0x1
 5131 000a 50       		.byte	0x50
 5132 000b 16000000 		.4byte	.LVL1
 5133 000f 36000000 		.4byte	.LVL8
 5134 0013 0100     		.2byte	0x1
 5135 0015 56       		.byte	0x56
 5136 0016 36000000 		.4byte	.LVL8
 5137 001a 42000000 		.4byte	.LVL10
 5138 001e 0400     		.2byte	0x4
 5139 0020 F3       		.byte	0xf3
 5140 0021 01       		.uleb128 0x1
 5141 0022 50       		.byte	0x50
 5142 0023 9F       		.byte	0x9f
 5143 0024 42000000 		.4byte	.LVL10
 5144 0028 C4000000 		.4byte	.LVL25
 5145 002c 0100     		.2byte	0x1
 5146 002e 56       		.byte	0x56
 5147 002f C4000000 		.4byte	.LVL25
 5148 0033 CC000000 		.4byte	.LVL28
 5149 0037 0100     		.2byte	0x1
 5150 0039 52       		.byte	0x52
 5151 003a CC000000 		.4byte	.LVL28
 5152 003e 28010000 		.4byte	.LVL50
 5153 0042 0100     		.2byte	0x1
 5154 0044 59       		.byte	0x59
 5155 0045 28010000 		.4byte	.LVL50
 5156 0049 34020000 		.4byte	.LVL92
 5157 004d 0100     		.2byte	0x1
 5158 004f 56       		.byte	0x56
 5159 0050 34020000 		.4byte	.LVL92
 5160 0054 3C020000 		.4byte	.LVL94
 5161 0058 0100     		.2byte	0x1
 5162 005a 52       		.byte	0x52
 5163 005b 3C020000 		.4byte	.LVL94
 5164 005f 80020000 		.4byte	.LVL109
 5165 0063 0100     		.2byte	0x1
 5166 0065 59       		.byte	0x59
 5167 0066 80020000 		.4byte	.LVL109
 5168 006a 24030000 		.4byte	.LVL141
 5169 006e 0100     		.2byte	0x1
 5170 0070 56       		.byte	0x56
 5171 0071 24030000 		.4byte	.LVL141
 5172 0075 2C030000 		.4byte	.LVL145
 5173 0079 0100     		.2byte	0x1
 5174 007b 52       		.byte	0x52
 5175 007c 2C030000 		.4byte	.LVL145
 5176 0080 6A030000 		.4byte	.LVL155
 5177 0084 0100     		.2byte	0x1
 5178 0086 58       		.byte	0x58
 5179 0087 6A030000 		.4byte	.LVL155
 5180 008b 72030000 		.4byte	.LVL157
 5181 008f 0100     		.2byte	0x1
ARM GAS  /tmp/cce3BzsE.s 			page 92


 5182 0091 56       		.byte	0x56
 5183 0092 72030000 		.4byte	.LVL157
 5184 0096 78030000 		.4byte	.LVL160
 5185 009a 0100     		.2byte	0x1
 5186 009c 59       		.byte	0x59
 5187 009d 78030000 		.4byte	.LVL160
 5188 00a1 C8030000 		.4byte	.LVL175
 5189 00a5 0100     		.2byte	0x1
 5190 00a7 56       		.byte	0x56
 5191 00a8 C8030000 		.4byte	.LVL175
 5192 00ac D0030000 		.4byte	.LVL179
 5193 00b0 0100     		.2byte	0x1
 5194 00b2 52       		.byte	0x52
 5195 00b3 D0030000 		.4byte	.LVL179
 5196 00b7 0C040000 		.4byte	.LVL189
 5197 00bb 0100     		.2byte	0x1
 5198 00bd 58       		.byte	0x58
 5199 00be 0C040000 		.4byte	.LVL189
 5200 00c2 22040000 		.4byte	.LVL191
 5201 00c6 0100     		.2byte	0x1
 5202 00c8 56       		.byte	0x56
 5203 00c9 22040000 		.4byte	.LVL191
 5204 00cd 30040000 		.4byte	.LVL194
 5205 00d1 0100     		.2byte	0x1
 5206 00d3 59       		.byte	0x59
 5207 00d4 30040000 		.4byte	.LVL194
 5208 00d8 48040000 		.4byte	.LVL198
 5209 00dc 0100     		.2byte	0x1
 5210 00de 58       		.byte	0x58
 5211 00df 48040000 		.4byte	.LVL198
 5212 00e3 8A040000 		.4byte	.LVL210
 5213 00e7 0100     		.2byte	0x1
 5214 00e9 56       		.byte	0x56
 5215 00ea 8A040000 		.4byte	.LVL210
 5216 00ee 94040000 		.4byte	.LVL212
 5217 00f2 0100     		.2byte	0x1
 5218 00f4 58       		.byte	0x58
 5219 00f5 94040000 		.4byte	.LVL212
 5220 00f9 14050000 		.4byte	.LVL239
 5221 00fd 0100     		.2byte	0x1
 5222 00ff 56       		.byte	0x56
 5223 0100 14050000 		.4byte	.LVL239
 5224 0104 1A050000 		.4byte	.LVL241
 5225 0108 0100     		.2byte	0x1
 5226 010a 58       		.byte	0x58
 5227 010b 1A050000 		.4byte	.LVL241
 5228 010f 28050000 		.4byte	.LVL245
 5229 0113 0100     		.2byte	0x1
 5230 0115 56       		.byte	0x56
 5231 0116 28050000 		.4byte	.LVL245
 5232 011a 30050000 		.4byte	.LVL247
 5233 011e 0100     		.2byte	0x1
 5234 0120 58       		.byte	0x58
 5235 0121 30050000 		.4byte	.LVL247
 5236 0125 64050000 		.4byte	.LFE51
 5237 0129 0100     		.2byte	0x1
 5238 012b 56       		.byte	0x56
ARM GAS  /tmp/cce3BzsE.s 			page 93


 5239 012c 00000000 		.4byte	0
 5240 0130 00000000 		.4byte	0
 5241              	.LLST1:
 5242 0134 00000000 		.4byte	.LVL0
 5243 0138 16000000 		.4byte	.LVL1
 5244 013c 0100     		.2byte	0x1
 5245 013e 51       		.byte	0x51
 5246 013f 16000000 		.4byte	.LVL1
 5247 0143 36000000 		.4byte	.LVL9
 5248 0147 0100     		.2byte	0x1
 5249 0149 57       		.byte	0x57
 5250 014a 36000000 		.4byte	.LVL9
 5251 014e 42000000 		.4byte	.LVL10
 5252 0152 0400     		.2byte	0x4
 5253 0154 F3       		.byte	0xf3
 5254 0155 01       		.uleb128 0x1
 5255 0156 51       		.byte	0x51
 5256 0157 9F       		.byte	0x9f
 5257 0158 42000000 		.4byte	.LVL10
 5258 015c C6000000 		.4byte	.LVL26
 5259 0160 0100     		.2byte	0x1
 5260 0162 57       		.byte	0x57
 5261 0163 C6000000 		.4byte	.LVL26
 5262 0167 CC000000 		.4byte	.LVL28
 5263 016b 0100     		.2byte	0x1
 5264 016d 53       		.byte	0x53
 5265 016e CC000000 		.4byte	.LVL28
 5266 0172 28010000 		.4byte	.LVL50
 5267 0176 0100     		.2byte	0x1
 5268 0178 5A       		.byte	0x5a
 5269 0179 28010000 		.4byte	.LVL50
 5270 017d 36020000 		.4byte	.LVL93
 5271 0181 0100     		.2byte	0x1
 5272 0183 57       		.byte	0x57
 5273 0184 36020000 		.4byte	.LVL93
 5274 0188 3C020000 		.4byte	.LVL94
 5275 018c 0100     		.2byte	0x1
 5276 018e 53       		.byte	0x53
 5277 018f 3C020000 		.4byte	.LVL94
 5278 0193 80020000 		.4byte	.LVL109
 5279 0197 0100     		.2byte	0x1
 5280 0199 5A       		.byte	0x5a
 5281 019a 80020000 		.4byte	.LVL109
 5282 019e 2A030000 		.4byte	.LVL144
 5283 01a2 0100     		.2byte	0x1
 5284 01a4 57       		.byte	0x57
 5285 01a5 2A030000 		.4byte	.LVL144
 5286 01a9 6A030000 		.4byte	.LVL155
 5287 01ad 0100     		.2byte	0x1
 5288 01af 59       		.byte	0x59
 5289 01b0 6A030000 		.4byte	.LVL155
 5290 01b4 72030000 		.4byte	.LVL157
 5291 01b8 0100     		.2byte	0x1
 5292 01ba 57       		.byte	0x57
 5293 01bb 72030000 		.4byte	.LVL157
 5294 01bf 78030000 		.4byte	.LVL160
 5295 01c3 0100     		.2byte	0x1
ARM GAS  /tmp/cce3BzsE.s 			page 94


 5296 01c5 5A       		.byte	0x5a
 5297 01c6 78030000 		.4byte	.LVL160
 5298 01ca CE030000 		.4byte	.LVL178
 5299 01ce 0100     		.2byte	0x1
 5300 01d0 57       		.byte	0x57
 5301 01d1 CE030000 		.4byte	.LVL178
 5302 01d5 0C040000 		.4byte	.LVL189
 5303 01d9 0100     		.2byte	0x1
 5304 01db 59       		.byte	0x59
 5305 01dc 0C040000 		.4byte	.LVL189
 5306 01e0 22040000 		.4byte	.LVL191
 5307 01e4 0100     		.2byte	0x1
 5308 01e6 57       		.byte	0x57
 5309 01e7 22040000 		.4byte	.LVL191
 5310 01eb 30040000 		.4byte	.LVL194
 5311 01ef 0100     		.2byte	0x1
 5312 01f1 5A       		.byte	0x5a
 5313 01f2 30040000 		.4byte	.LVL194
 5314 01f6 38040000 		.4byte	.LVL195
 5315 01fa 0100     		.2byte	0x1
 5316 01fc 59       		.byte	0x59
 5317 01fd 38040000 		.4byte	.LVL195
 5318 0201 8A040000 		.4byte	.LVL210
 5319 0205 0100     		.2byte	0x1
 5320 0207 57       		.byte	0x57
 5321 0208 8A040000 		.4byte	.LVL210
 5322 020c 94040000 		.4byte	.LVL212
 5323 0210 0100     		.2byte	0x1
 5324 0212 59       		.byte	0x59
 5325 0213 94040000 		.4byte	.LVL212
 5326 0217 14050000 		.4byte	.LVL239
 5327 021b 0100     		.2byte	0x1
 5328 021d 57       		.byte	0x57
 5329 021e 14050000 		.4byte	.LVL239
 5330 0222 1A050000 		.4byte	.LVL241
 5331 0226 0100     		.2byte	0x1
 5332 0228 59       		.byte	0x59
 5333 0229 1A050000 		.4byte	.LVL241
 5334 022d 28050000 		.4byte	.LVL245
 5335 0231 0100     		.2byte	0x1
 5336 0233 57       		.byte	0x57
 5337 0234 28050000 		.4byte	.LVL245
 5338 0238 30050000 		.4byte	.LVL247
 5339 023c 0100     		.2byte	0x1
 5340 023e 59       		.byte	0x59
 5341 023f 30050000 		.4byte	.LVL247
 5342 0243 64050000 		.4byte	.LFE51
 5343 0247 0100     		.2byte	0x1
 5344 0249 57       		.byte	0x57
 5345 024a 00000000 		.4byte	0
 5346 024e 00000000 		.4byte	0
 5347              	.LLST2:
 5348 0252 00000000 		.4byte	.LVL0
 5349 0256 16000000 		.4byte	.LVL1
 5350 025a 0100     		.2byte	0x1
 5351 025c 52       		.byte	0x52
 5352 025d 16000000 		.4byte	.LVL1
ARM GAS  /tmp/cce3BzsE.s 			page 95


 5353 0261 1E000000 		.4byte	.LVL4
 5354 0265 0300     		.2byte	0x3
 5355 0267 7B       		.byte	0x7b
 5356 0268 01       		.sleb128 1
 5357 0269 9F       		.byte	0x9f
 5358 026a 2C000000 		.4byte	.LVL5
 5359 026e 34000000 		.4byte	.LVL7
 5360 0272 0300     		.2byte	0x3
 5361 0274 7B       		.byte	0x7b
 5362 0275 01       		.sleb128 1
 5363 0276 9F       		.byte	0x9f
 5364 0277 42000000 		.4byte	.LVL10
 5365 027b 56000000 		.4byte	.LVL13
 5366 027f 0300     		.2byte	0x3
 5367 0281 7B       		.byte	0x7b
 5368 0282 02       		.sleb128 2
 5369 0283 9F       		.byte	0x9f
 5370 0284 56000000 		.4byte	.LVL13
 5371 0288 A4010000 		.4byte	.LVL66
 5372 028c 0100     		.2byte	0x1
 5373 028e 5B       		.byte	0x5b
 5374 028f A6010000 		.4byte	.LVL67
 5375 0293 D0010000 		.4byte	.LVL76
 5376 0297 0100     		.2byte	0x1
 5377 0299 5B       		.byte	0x5b
 5378 029a D0010000 		.4byte	.LVL76
 5379 029e DE010000 		.4byte	.LVL79
 5380 02a2 0300     		.2byte	0x3
 5381 02a4 7B       		.byte	0x7b
 5382 02a5 03       		.sleb128 3
 5383 02a6 9F       		.byte	0x9f
 5384 02a7 DE010000 		.4byte	.LVL79
 5385 02ab 64050000 		.4byte	.LFE51
 5386 02af 0100     		.2byte	0x1
 5387 02b1 5B       		.byte	0x5b
 5388 02b2 00000000 		.4byte	0
 5389 02b6 00000000 		.4byte	0
 5390              	.LLST3:
 5391 02ba 00000000 		.4byte	.LVL0
 5392 02be 18000000 		.4byte	.LVL2
 5393 02c2 0100     		.2byte	0x1
 5394 02c4 53       		.byte	0x53
 5395 02c5 00000000 		.4byte	0
 5396 02c9 00000000 		.4byte	0
 5397              	.LLST4:
 5398 02cd 1A000000 		.4byte	.LVL3
 5399 02d1 2B000000 		.4byte	.LVL5-1
 5400 02d5 0100     		.2byte	0x1
 5401 02d7 51       		.byte	0x51
 5402 02d8 30000000 		.4byte	.LVL6
 5403 02dc 34000000 		.4byte	.LVL7
 5404 02e0 0100     		.2byte	0x1
 5405 02e2 51       		.byte	0x51
 5406 02e3 42000000 		.4byte	.LVL10
 5407 02e7 48000000 		.4byte	.LVL11
 5408 02eb 0100     		.2byte	0x1
 5409 02ed 51       		.byte	0x51
ARM GAS  /tmp/cce3BzsE.s 			page 96


 5410 02ee 48000000 		.4byte	.LVL11
 5411 02f2 50000000 		.4byte	.LVL12
 5412 02f6 0100     		.2byte	0x1
 5413 02f8 53       		.byte	0x53
 5414 02f9 50000000 		.4byte	.LVL12
 5415 02fd 90000000 		.4byte	.LVL16
 5416 0301 0100     		.2byte	0x1
 5417 0303 59       		.byte	0x59
 5418 0304 6C010000 		.4byte	.LVL62
 5419 0308 A0010000 		.4byte	.LVL65
 5420 030c 0100     		.2byte	0x1
 5421 030e 59       		.byte	0x59
 5422 030f A6010000 		.4byte	.LVL67
 5423 0313 D0010000 		.4byte	.LVL76
 5424 0317 0100     		.2byte	0x1
 5425 0319 59       		.byte	0x59
 5426 031a D0010000 		.4byte	.LVL76
 5427 031e D2010000 		.4byte	.LVL77
 5428 0322 0100     		.2byte	0x1
 5429 0324 53       		.byte	0x53
 5430 0325 D2010000 		.4byte	.LVL77
 5431 0329 00020000 		.4byte	.LVL84
 5432 032d 0100     		.2byte	0x1
 5433 032f 59       		.byte	0x59
 5434 0330 80020000 		.4byte	.LVL109
 5435 0334 84020000 		.4byte	.LVL110
 5436 0338 0100     		.2byte	0x1
 5437 033a 59       		.byte	0x59
 5438 033b DE020000 		.4byte	.LVL129
 5439 033f 26030000 		.4byte	.LVL142
 5440 0343 0100     		.2byte	0x1
 5441 0345 59       		.byte	0x59
 5442 0346 6A030000 		.4byte	.LVL155
 5443 034a 72030000 		.4byte	.LVL157
 5444 034e 0100     		.2byte	0x1
 5445 0350 59       		.byte	0x59
 5446 0351 BC030000 		.4byte	.LVL172
 5447 0355 CA030000 		.4byte	.LVL176
 5448 0359 0100     		.2byte	0x1
 5449 035b 59       		.byte	0x59
 5450 035c 0C040000 		.4byte	.LVL189
 5451 0360 22040000 		.4byte	.LVL191
 5452 0364 0100     		.2byte	0x1
 5453 0366 59       		.byte	0x59
 5454 0367 22050000 		.4byte	.LVL243
 5455 036b 28050000 		.4byte	.LVL245
 5456 036f 0100     		.2byte	0x1
 5457 0371 59       		.byte	0x59
 5458 0372 00000000 		.4byte	0
 5459 0376 00000000 		.4byte	0
 5460              	.LLST5:
 5461 037a 42000000 		.4byte	.LVL10
 5462 037e 58000000 		.4byte	.LVL14
 5463 0382 0200     		.2byte	0x2
 5464 0384 30       		.byte	0x30
 5465 0385 9F       		.byte	0x9f
 5466 0386 58000000 		.4byte	.LVL14
ARM GAS  /tmp/cce3BzsE.s 			page 97


 5467 038a D0010000 		.4byte	.LVL76
 5468 038e 0300     		.2byte	0x3
 5469 0390 91       		.byte	0x91
 5470 0391 B47F     		.sleb128 -76
 5471 0393 D0010000 		.4byte	.LVL76
 5472 0397 D6010000 		.4byte	.LVL78
 5473 039b 0200     		.2byte	0x2
 5474 039d 30       		.byte	0x30
 5475 039e 9F       		.byte	0x9f
 5476 039f D6010000 		.4byte	.LVL78
 5477 03a3 E2010000 		.4byte	.LVL80
 5478 03a7 0200     		.2byte	0x2
 5479 03a9 31       		.byte	0x31
 5480 03aa 9F       		.byte	0x9f
 5481 03ab E2010000 		.4byte	.LVL80
 5482 03af 48040000 		.4byte	.LVL198
 5483 03b3 0300     		.2byte	0x3
 5484 03b5 91       		.byte	0x91
 5485 03b6 B47F     		.sleb128 -76
 5486 03b8 8A040000 		.4byte	.LVL210
 5487 03bc 94040000 		.4byte	.LVL212
 5488 03c0 0300     		.2byte	0x3
 5489 03c2 91       		.byte	0x91
 5490 03c3 B47F     		.sleb128 -76
 5491 03c5 BC040000 		.4byte	.LVL221
 5492 03c9 34050000 		.4byte	.LVL248
 5493 03cd 0300     		.2byte	0x3
 5494 03cf 91       		.byte	0x91
 5495 03d0 B47F     		.sleb128 -76
 5496 03d2 40050000 		.4byte	.LVL250
 5497 03d6 64050000 		.4byte	.LFE51
 5498 03da 0300     		.2byte	0x3
 5499 03dc 91       		.byte	0x91
 5500 03dd B47F     		.sleb128 -76
 5501 03df 00000000 		.4byte	0
 5502 03e3 00000000 		.4byte	0
 5503              	.LLST6:
 5504 03e7 42000000 		.4byte	.LVL10
 5505 03eb 66000000 		.4byte	.LVL15
 5506 03ef 0200     		.2byte	0x2
 5507 03f1 30       		.byte	0x30
 5508 03f2 9F       		.byte	0x9f
 5509 03f3 66000000 		.4byte	.LVL15
 5510 03f7 98000000 		.4byte	.LVL17
 5511 03fb 0100     		.2byte	0x1
 5512 03fd 54       		.byte	0x54
 5513 03fe 98000000 		.4byte	.LVL17
 5514 0402 B4000000 		.4byte	.LVL22
 5515 0406 0100     		.2byte	0x1
 5516 0408 58       		.byte	0x58
 5517 0409 B4000000 		.4byte	.LVL22
 5518 040d CC000000 		.4byte	.LVL28
 5519 0411 0100     		.2byte	0x1
 5520 0413 54       		.byte	0x54
 5521 0414 CC000000 		.4byte	.LVL28
 5522 0418 28010000 		.4byte	.LVL50
 5523 041c 0200     		.2byte	0x2
ARM GAS  /tmp/cce3BzsE.s 			page 98


 5524 041e 91       		.byte	0x91
 5525 041f 40       		.sleb128 -64
 5526 0420 6C010000 		.4byte	.LVL62
 5527 0424 80010000 		.4byte	.LVL63
 5528 0428 0100     		.2byte	0x1
 5529 042a 54       		.byte	0x54
 5530 042b 80010000 		.4byte	.LVL63
 5531 042f A6010000 		.4byte	.LVL67
 5532 0433 0200     		.2byte	0x2
 5533 0435 30       		.byte	0x30
 5534 0436 9F       		.byte	0x9f
 5535 0437 A6010000 		.4byte	.LVL67
 5536 043b B0010000 		.4byte	.LVL69
 5537 043f 0100     		.2byte	0x1
 5538 0441 54       		.byte	0x54
 5539 0442 B8010000 		.4byte	.LVL71
 5540 0446 E2010000 		.4byte	.LVL80
 5541 044a 0200     		.2byte	0x2
 5542 044c 30       		.byte	0x30
 5543 044d 9F       		.byte	0x9f
 5544 044e E2010000 		.4byte	.LVL80
 5545 0452 0A020000 		.4byte	.LVL85
 5546 0456 0100     		.2byte	0x1
 5547 0458 54       		.byte	0x54
 5548 0459 0A020000 		.4byte	.LVL85
 5549 045d 0C020000 		.4byte	.LVL86
 5550 0461 0100     		.2byte	0x1
 5551 0463 53       		.byte	0x53
 5552 0464 0C020000 		.4byte	.LVL86
 5553 0468 26020000 		.4byte	.LVL91
 5554 046c 0100     		.2byte	0x1
 5555 046e 58       		.byte	0x58
 5556 046f 26020000 		.4byte	.LVL91
 5557 0473 3C020000 		.4byte	.LVL94
 5558 0477 0100     		.2byte	0x1
 5559 0479 54       		.byte	0x54
 5560 047a 3C020000 		.4byte	.LVL94
 5561 047e 80020000 		.4byte	.LVL109
 5562 0482 0200     		.2byte	0x2
 5563 0484 91       		.byte	0x91
 5564 0485 44       		.sleb128 -60
 5565 0486 80020000 		.4byte	.LVL109
 5566 048a A0020000 		.4byte	.LVL115
 5567 048e 0100     		.2byte	0x1
 5568 0490 54       		.byte	0x54
 5569 0491 DE020000 		.4byte	.LVL129
 5570 0495 F6020000 		.4byte	.LVL132
 5571 0499 0100     		.2byte	0x1
 5572 049b 54       		.byte	0x54
 5573 049c F6020000 		.4byte	.LVL132
 5574 04a0 F8020000 		.4byte	.LVL133
 5575 04a4 0100     		.2byte	0x1
 5576 04a6 53       		.byte	0x53
 5577 04a7 F8020000 		.4byte	.LVL133
 5578 04ab 0A030000 		.4byte	.LVL136
 5579 04af 0100     		.2byte	0x1
 5580 04b1 58       		.byte	0x58
ARM GAS  /tmp/cce3BzsE.s 			page 99


 5581 04b2 0A030000 		.4byte	.LVL136
 5582 04b6 12030000 		.4byte	.LVL138
 5583 04ba 0100     		.2byte	0x1
 5584 04bc 53       		.byte	0x53
 5585 04bd 12030000 		.4byte	.LVL138
 5586 04c1 2C030000 		.4byte	.LVL145
 5587 04c5 0100     		.2byte	0x1
 5588 04c7 54       		.byte	0x54
 5589 04c8 2C030000 		.4byte	.LVL145
 5590 04cc 6A030000 		.4byte	.LVL155
 5591 04d0 0200     		.2byte	0x2
 5592 04d2 91       		.byte	0x91
 5593 04d3 40       		.sleb128 -64
 5594 04d4 6A030000 		.4byte	.LVL155
 5595 04d8 72030000 		.4byte	.LVL157
 5596 04dc 0100     		.2byte	0x1
 5597 04de 54       		.byte	0x54
 5598 04df 72030000 		.4byte	.LVL157
 5599 04e3 78030000 		.4byte	.LVL160
 5600 04e7 0200     		.2byte	0x2
 5601 04e9 91       		.byte	0x91
 5602 04ea 44       		.sleb128 -60
 5603 04eb BC030000 		.4byte	.LVL172
 5604 04ef D0030000 		.4byte	.LVL179
 5605 04f3 0100     		.2byte	0x1
 5606 04f5 54       		.byte	0x54
 5607 04f6 D0030000 		.4byte	.LVL179
 5608 04fa 0C040000 		.4byte	.LVL189
 5609 04fe 0200     		.2byte	0x2
 5610 0500 91       		.byte	0x91
 5611 0501 40       		.sleb128 -64
 5612 0502 0C040000 		.4byte	.LVL189
 5613 0506 22040000 		.4byte	.LVL191
 5614 050a 0100     		.2byte	0x1
 5615 050c 54       		.byte	0x54
 5616 050d 22040000 		.4byte	.LVL191
 5617 0511 30040000 		.4byte	.LVL194
 5618 0515 0200     		.2byte	0x2
 5619 0517 91       		.byte	0x91
 5620 0518 44       		.sleb128 -60
 5621 0519 30040000 		.4byte	.LVL194
 5622 051d 48040000 		.4byte	.LVL198
 5623 0521 0200     		.2byte	0x2
 5624 0523 91       		.byte	0x91
 5625 0524 40       		.sleb128 -64
 5626 0525 8A040000 		.4byte	.LVL210
 5627 0529 94040000 		.4byte	.LVL212
 5628 052d 0200     		.2byte	0x2
 5629 052f 91       		.byte	0x91
 5630 0530 40       		.sleb128 -64
 5631 0531 14050000 		.4byte	.LVL239
 5632 0535 1A050000 		.4byte	.LVL241
 5633 0539 0200     		.2byte	0x2
 5634 053b 91       		.byte	0x91
 5635 053c 40       		.sleb128 -64
 5636 053d 1A050000 		.4byte	.LVL241
 5637 0541 22050000 		.4byte	.LVL243
ARM GAS  /tmp/cce3BzsE.s 			page 100


 5638 0545 0100     		.2byte	0x1
 5639 0547 54       		.byte	0x54
 5640 0548 22050000 		.4byte	.LVL243
 5641 054c 24050000 		.4byte	.LVL244
 5642 0550 0100     		.2byte	0x1
 5643 0552 53       		.byte	0x53
 5644 0553 24050000 		.4byte	.LVL244
 5645 0557 28050000 		.4byte	.LVL245
 5646 055b 0100     		.2byte	0x1
 5647 055d 54       		.byte	0x54
 5648 055e 28050000 		.4byte	.LVL245
 5649 0562 30050000 		.4byte	.LVL247
 5650 0566 0200     		.2byte	0x2
 5651 0568 91       		.byte	0x91
 5652 0569 40       		.sleb128 -64
 5653 056a 30050000 		.4byte	.LVL247
 5654 056e 34050000 		.4byte	.LVL248
 5655 0572 0100     		.2byte	0x1
 5656 0574 54       		.byte	0x54
 5657 0575 40050000 		.4byte	.LVL250
 5658 0579 4C050000 		.4byte	.LVL253
 5659 057d 0100     		.2byte	0x1
 5660 057f 54       		.byte	0x54
 5661 0580 00000000 		.4byte	0
 5662 0584 00000000 		.4byte	0
 5663              	.LLST7:
 5664 0588 90000000 		.4byte	.LVL16
 5665 058c 6C010000 		.4byte	.LVL62
 5666 0590 0200     		.2byte	0x2
 5667 0592 3A       		.byte	0x3a
 5668 0593 9F       		.byte	0x9f
 5669 0594 E8040000 		.4byte	.LVL230
 5670 0598 14050000 		.4byte	.LVL239
 5671 059c 0200     		.2byte	0x2
 5672 059e 3A       		.byte	0x3a
 5673 059f 9F       		.byte	0x9f
 5674 05a0 1A050000 		.4byte	.LVL241
 5675 05a4 22050000 		.4byte	.LVL243
 5676 05a8 0200     		.2byte	0x2
 5677 05aa 3A       		.byte	0x3a
 5678 05ab 9F       		.byte	0x9f
 5679 05ac 4C050000 		.4byte	.LVL253
 5680 05b0 58050000 		.4byte	.LVL255
 5681 05b4 0200     		.2byte	0x2
 5682 05b6 3A       		.byte	0x3a
 5683 05b7 9F       		.byte	0x9f
 5684 05b8 00000000 		.4byte	0
 5685 05bc 00000000 		.4byte	0
 5686              	.LLST8:
 5687 05c0 90000000 		.4byte	.LVL16
 5688 05c4 6C010000 		.4byte	.LVL62
 5689 05c8 0200     		.2byte	0x2
 5690 05ca 30       		.byte	0x30
 5691 05cb 9F       		.byte	0x9f
 5692 05cc E8040000 		.4byte	.LVL230
 5693 05d0 14050000 		.4byte	.LVL239
 5694 05d4 0200     		.2byte	0x2
ARM GAS  /tmp/cce3BzsE.s 			page 101


 5695 05d6 30       		.byte	0x30
 5696 05d7 9F       		.byte	0x9f
 5697 05d8 1A050000 		.4byte	.LVL241
 5698 05dc 22050000 		.4byte	.LVL243
 5699 05e0 0200     		.2byte	0x2
 5700 05e2 30       		.byte	0x30
 5701 05e3 9F       		.byte	0x9f
 5702 05e4 4C050000 		.4byte	.LVL253
 5703 05e8 58050000 		.4byte	.LVL255
 5704 05ec 0200     		.2byte	0x2
 5705 05ee 30       		.byte	0x30
 5706 05ef 9F       		.byte	0x9f
 5707 05f0 00000000 		.4byte	0
 5708 05f4 00000000 		.4byte	0
 5709              	.LLST9:
 5710 05f8 90000000 		.4byte	.LVL16
 5711 05fc B8000000 		.4byte	.LVL23
 5712 0600 0300     		.2byte	0x3
 5713 0602 91       		.byte	0x91
 5714 0603 4C       		.sleb128 -52
 5715 0604 9F       		.byte	0x9f
 5716 0605 B8000000 		.4byte	.LVL23
 5717 0609 C2000000 		.4byte	.LVL24
 5718 060d 0100     		.2byte	0x1
 5719 060f 53       		.byte	0x53
 5720 0610 C2000000 		.4byte	.LVL24
 5721 0614 F6000000 		.4byte	.LVL39
 5722 0618 0100     		.2byte	0x1
 5723 061a 58       		.byte	0x58
 5724 061b F6000000 		.4byte	.LVL39
 5725 061f 0C010000 		.4byte	.LVL43
 5726 0623 0100     		.2byte	0x1
 5727 0625 52       		.byte	0x52
 5728 0626 0C010000 		.4byte	.LVL43
 5729 062a 12010000 		.4byte	.LVL44
 5730 062e 0100     		.2byte	0x1
 5731 0630 58       		.byte	0x58
 5732 0631 12010000 		.4byte	.LVL44
 5733 0635 44010000 		.4byte	.LVL54
 5734 0639 0100     		.2byte	0x1
 5735 063b 52       		.byte	0x52
 5736 063c 1A050000 		.4byte	.LVL241
 5737 0640 1C050000 		.4byte	.LVL242
 5738 0644 0300     		.2byte	0x3
 5739 0646 91       		.byte	0x91
 5740 0647 4C       		.sleb128 -52
 5741 0648 9F       		.byte	0x9f
 5742 0649 1C050000 		.4byte	.LVL242
 5743 064d 22050000 		.4byte	.LVL243
 5744 0651 0100     		.2byte	0x1
 5745 0653 53       		.byte	0x53
 5746 0654 4C050000 		.4byte	.LVL253
 5747 0658 58050000 		.4byte	.LVL255
 5748 065c 0100     		.2byte	0x1
 5749 065e 52       		.byte	0x52
 5750 065f 00000000 		.4byte	0
 5751 0663 00000000 		.4byte	0
ARM GAS  /tmp/cce3BzsE.s 			page 102


 5752              	.LLST10:
 5753 0667 90000000 		.4byte	.LVL16
 5754 066b 98000000 		.4byte	.LVL17
 5755 066f 0100     		.2byte	0x1
 5756 0671 53       		.byte	0x53
 5757 0672 98000000 		.4byte	.LVL17
 5758 0676 AE000000 		.4byte	.LVL21
 5759 067a 0100     		.2byte	0x1
 5760 067c 54       		.byte	0x54
 5761 067d AE000000 		.4byte	.LVL21
 5762 0681 C8000000 		.4byte	.LVL27
 5763 0685 0100     		.2byte	0x1
 5764 0687 59       		.byte	0x59
 5765 0688 C8000000 		.4byte	.LVL27
 5766 068c E2000000 		.4byte	.LVL33
 5767 0690 0100     		.2byte	0x1
 5768 0692 56       		.byte	0x56
 5769 0693 E2000000 		.4byte	.LVL33
 5770 0697 E4000000 		.4byte	.LVL34
 5771 069b 0100     		.2byte	0x1
 5772 069d 51       		.byte	0x51
 5773 069e E4000000 		.4byte	.LVL34
 5774 06a2 24010000 		.4byte	.LVL48
 5775 06a6 0100     		.2byte	0x1
 5776 06a8 56       		.byte	0x56
 5777 06a9 1A050000 		.4byte	.LVL241
 5778 06ad 22050000 		.4byte	.LVL243
 5779 06b1 0100     		.2byte	0x1
 5780 06b3 59       		.byte	0x59
 5781 06b4 00000000 		.4byte	0
 5782 06b8 00000000 		.4byte	0
 5783              	.LLST11:
 5784 06bc AE000000 		.4byte	.LVL21
 5785 06c0 CC000000 		.4byte	.LVL28
 5786 06c4 0200     		.2byte	0x2
 5787 06c6 30       		.byte	0x30
 5788 06c7 9F       		.byte	0x9f
 5789 06c8 CC000000 		.4byte	.LVL28
 5790 06cc EE000000 		.4byte	.LVL37
 5791 06d0 0100     		.2byte	0x1
 5792 06d2 57       		.byte	0x57
 5793 06d3 EE000000 		.4byte	.LVL37
 5794 06d7 F2000000 		.4byte	.LVL38
 5795 06db 0200     		.2byte	0x2
 5796 06dd 30       		.byte	0x30
 5797 06de 9F       		.byte	0x9f
 5798 06df 02010000 		.4byte	.LVL41
 5799 06e3 08010000 		.4byte	.LVL42
 5800 06e7 0100     		.2byte	0x1
 5801 06e9 57       		.byte	0x57
 5802 06ea 0C010000 		.4byte	.LVL43
 5803 06ee 14010000 		.4byte	.LVL45
 5804 06f2 0200     		.2byte	0x2
 5805 06f4 30       		.byte	0x30
 5806 06f5 9F       		.byte	0x9f
 5807 06f6 1C010000 		.4byte	.LVL47
 5808 06fa 26010000 		.4byte	.LVL49
ARM GAS  /tmp/cce3BzsE.s 			page 103


 5809 06fe 0100     		.2byte	0x1
 5810 0700 57       		.byte	0x57
 5811 0701 1A050000 		.4byte	.LVL241
 5812 0705 22050000 		.4byte	.LVL243
 5813 0709 0200     		.2byte	0x2
 5814 070b 30       		.byte	0x30
 5815 070c 9F       		.byte	0x9f
 5816 070d 00000000 		.4byte	0
 5817 0711 00000000 		.4byte	0
 5818              	.LLST12:
 5819 0715 90000000 		.4byte	.LVL16
 5820 0719 98000000 		.4byte	.LVL17
 5821 071d 0200     		.2byte	0x2
 5822 071f 31       		.byte	0x31
 5823 0720 9F       		.byte	0x9f
 5824 0721 98000000 		.4byte	.LVL17
 5825 0725 9C000000 		.4byte	.LVL18
 5826 0729 0100     		.2byte	0x1
 5827 072b 55       		.byte	0x55
 5828 072c 9E000000 		.4byte	.LVL19
 5829 0730 EA000000 		.4byte	.LVL36
 5830 0734 0100     		.2byte	0x1
 5831 0736 55       		.byte	0x55
 5832 0737 EA000000 		.4byte	.LVL36
 5833 073b 28010000 		.4byte	.LVL50
 5834 073f 0100     		.2byte	0x1
 5835 0741 50       		.byte	0x50
 5836 0742 28010000 		.4byte	.LVL50
 5837 0746 3E010000 		.4byte	.LVL53
 5838 074a 0100     		.2byte	0x1
 5839 074c 55       		.byte	0x55
 5840 074d 1A050000 		.4byte	.LVL241
 5841 0751 22050000 		.4byte	.LVL243
 5842 0755 0100     		.2byte	0x1
 5843 0757 55       		.byte	0x55
 5844 0758 00000000 		.4byte	0
 5845 075c 00000000 		.4byte	0
 5846              	.LLST13:
 5847 0760 D8000000 		.4byte	.LVL30
 5848 0764 DA000000 		.4byte	.LVL31
 5849 0768 0100     		.2byte	0x1
 5850 076a 50       		.byte	0x50
 5851 076b DA000000 		.4byte	.LVL31
 5852 076f FE000000 		.4byte	.LVL40
 5853 0773 0100     		.2byte	0x1
 5854 0775 54       		.byte	0x54
 5855 0776 0C010000 		.4byte	.LVL43
 5856 077a 18010000 		.4byte	.LVL46
 5857 077e 0100     		.2byte	0x1
 5858 0780 54       		.byte	0x54
 5859 0781 00000000 		.4byte	0
 5860 0785 00000000 		.4byte	0
 5861              	.LLST14:
 5862 0789 2C010000 		.4byte	.LVL51
 5863 078d 54010000 		.4byte	.LVL57
 5864 0791 0300     		.2byte	0x3
 5865 0793 91       		.byte	0x91
ARM GAS  /tmp/cce3BzsE.s 			page 104


 5866 0794 B87F     		.sleb128 -72
 5867 0796 54010000 		.4byte	.LVL57
 5868 079a 5A010000 		.4byte	.LVL58
 5869 079e 0300     		.2byte	0x3
 5870 07a0 91       		.byte	0x91
 5871 07a1 4D       		.sleb128 -51
 5872 07a2 9F       		.byte	0x9f
 5873 07a3 5A010000 		.4byte	.LVL58
 5874 07a7 5E010000 		.4byte	.LVL59
 5875 07ab 0100     		.2byte	0x1
 5876 07ad 54       		.byte	0x54
 5877 07ae 5E010000 		.4byte	.LVL59
 5878 07b2 60010000 		.4byte	.LVL60
 5879 07b6 0300     		.2byte	0x3
 5880 07b8 74       		.byte	0x74
 5881 07b9 7F       		.sleb128 -1
 5882 07ba 9F       		.byte	0x9f
 5883 07bb E8040000 		.4byte	.LVL230
 5884 07bf 0A050000 		.4byte	.LVL237
 5885 07c3 0300     		.2byte	0x3
 5886 07c5 91       		.byte	0x91
 5887 07c6 B87F     		.sleb128 -72
 5888 07c8 0A050000 		.4byte	.LVL237
 5889 07cc 14050000 		.4byte	.LVL239
 5890 07d0 0300     		.2byte	0x3
 5891 07d2 91       		.byte	0x91
 5892 07d3 4D       		.sleb128 -51
 5893 07d4 9F       		.byte	0x9f
 5894 07d5 4C050000 		.4byte	.LVL253
 5895 07d9 58050000 		.4byte	.LVL255
 5896 07dd 0300     		.2byte	0x3
 5897 07df 91       		.byte	0x91
 5898 07e0 B87F     		.sleb128 -72
 5899 07e2 00000000 		.4byte	0
 5900 07e6 00000000 		.4byte	0
 5901              	.LLST15:
 5902 07ea 2C010000 		.4byte	.LVL51
 5903 07ee 6C010000 		.4byte	.LVL62
 5904 07f2 0300     		.2byte	0x3
 5905 07f4 91       		.byte	0x91
 5906 07f5 B47F     		.sleb128 -76
 5907 07f7 E8040000 		.4byte	.LVL230
 5908 07fb 14050000 		.4byte	.LVL239
 5909 07ff 0300     		.2byte	0x3
 5910 0801 91       		.byte	0x91
 5911 0802 B47F     		.sleb128 -76
 5912 0804 4C050000 		.4byte	.LVL253
 5913 0808 58050000 		.4byte	.LVL255
 5914 080c 0300     		.2byte	0x3
 5915 080e 91       		.byte	0x91
 5916 080f B47F     		.sleb128 -76
 5917 0811 00000000 		.4byte	0
 5918 0815 00000000 		.4byte	0
 5919              	.LLST16:
 5920 0819 2C010000 		.4byte	.LVL51
 5921 081d 54010000 		.4byte	.LVL57
 5922 0821 0100     		.2byte	0x1
ARM GAS  /tmp/cce3BzsE.s 			page 105


 5923 0823 54       		.byte	0x54
 5924 0824 E8040000 		.4byte	.LVL230
 5925 0828 EC040000 		.4byte	.LVL232
 5926 082c 0100     		.2byte	0x1
 5927 082e 54       		.byte	0x54
 5928 082f EC040000 		.4byte	.LVL232
 5929 0833 F4040000 		.4byte	.LVL233
 5930 0837 0100     		.2byte	0x1
 5931 0839 53       		.byte	0x53
 5932 083a F4040000 		.4byte	.LVL233
 5933 083e FA040000 		.4byte	.LVL234
 5934 0842 0100     		.2byte	0x1
 5935 0844 59       		.byte	0x59
 5936 0845 FA040000 		.4byte	.LVL234
 5937 0849 00050000 		.4byte	.LVL235
 5938 084d 0100     		.2byte	0x1
 5939 084f 54       		.byte	0x54
 5940 0850 00050000 		.4byte	.LVL235
 5941 0854 02050000 		.4byte	.LVL236
 5942 0858 0300     		.2byte	0x3
 5943 085a 74       		.byte	0x74
 5944 085b 01       		.sleb128 1
 5945 085c 9F       		.byte	0x9f
 5946 085d 02050000 		.4byte	.LVL236
 5947 0861 14050000 		.4byte	.LVL239
 5948 0865 0100     		.2byte	0x1
 5949 0867 54       		.byte	0x54
 5950 0868 4C050000 		.4byte	.LVL253
 5951 086c 50050000 		.4byte	.LVL254
 5952 0870 0100     		.2byte	0x1
 5953 0872 54       		.byte	0x54
 5954 0873 50050000 		.4byte	.LVL254
 5955 0877 58050000 		.4byte	.LVL255
 5956 087b 0100     		.2byte	0x1
 5957 087d 53       		.byte	0x53
 5958 087e 00000000 		.4byte	0
 5959 0882 00000000 		.4byte	0
 5960              	.LLST17:
 5961 0886 2C010000 		.4byte	.LVL51
 5962 088a 6C010000 		.4byte	.LVL62
 5963 088e 0100     		.2byte	0x1
 5964 0890 57       		.byte	0x57
 5965 0891 E8040000 		.4byte	.LVL230
 5966 0895 14050000 		.4byte	.LVL239
 5967 0899 0100     		.2byte	0x1
 5968 089b 57       		.byte	0x57
 5969 089c 4C050000 		.4byte	.LVL253
 5970 08a0 58050000 		.4byte	.LVL255
 5971 08a4 0100     		.2byte	0x1
 5972 08a6 57       		.byte	0x57
 5973 08a7 00000000 		.4byte	0
 5974 08ab 00000000 		.4byte	0
 5975              	.LLST18:
 5976 08af 2C010000 		.4byte	.LVL51
 5977 08b3 6C010000 		.4byte	.LVL62
 5978 08b7 0100     		.2byte	0x1
 5979 08b9 56       		.byte	0x56
ARM GAS  /tmp/cce3BzsE.s 			page 106


 5980 08ba E8040000 		.4byte	.LVL230
 5981 08be 14050000 		.4byte	.LVL239
 5982 08c2 0100     		.2byte	0x1
 5983 08c4 56       		.byte	0x56
 5984 08c5 4C050000 		.4byte	.LVL253
 5985 08c9 58050000 		.4byte	.LVL255
 5986 08cd 0100     		.2byte	0x1
 5987 08cf 56       		.byte	0x56
 5988 08d0 00000000 		.4byte	0
 5989 08d4 00000000 		.4byte	0
 5990              	.LLST19:
 5991 08d8 3A010000 		.4byte	.LVL52
 5992 08dc 54010000 		.4byte	.LVL57
 5993 08e0 0100     		.2byte	0x1
 5994 08e2 58       		.byte	0x58
 5995 08e3 E8040000 		.4byte	.LVL230
 5996 08e7 FA040000 		.4byte	.LVL234
 5997 08eb 0100     		.2byte	0x1
 5998 08ed 58       		.byte	0x58
 5999 08ee 4C050000 		.4byte	.LVL253
 6000 08f2 58050000 		.4byte	.LVL255
 6001 08f6 0100     		.2byte	0x1
 6002 08f8 58       		.byte	0x58
 6003 08f9 00000000 		.4byte	0
 6004 08fd 00000000 		.4byte	0
 6005              	.LLST20:
 6006 0901 54010000 		.4byte	.LVL57
 6007 0905 5A010000 		.4byte	.LVL58
 6008 0909 0100     		.2byte	0x1
 6009 090b 55       		.byte	0x55
 6010 090c 5A010000 		.4byte	.LVL58
 6011 0910 5F010000 		.4byte	.LVL60-1
 6012 0914 0100     		.2byte	0x1
 6013 0916 51       		.byte	0x51
 6014 0917 64010000 		.4byte	.LVL61
 6015 091b 6C010000 		.4byte	.LVL62
 6016 091f 0100     		.2byte	0x1
 6017 0921 51       		.byte	0x51
 6018 0922 0A050000 		.4byte	.LVL237
 6019 0926 12050000 		.4byte	.LVL238
 6020 092a 0100     		.2byte	0x1
 6021 092c 55       		.byte	0x55
 6022 092d 00000000 		.4byte	0
 6023 0931 00000000 		.4byte	0
 6024              	.LLST21:
 6025 0935 3A010000 		.4byte	.LVL52
 6026 0939 44010000 		.4byte	.LVL54
 6027 093d 0300     		.2byte	0x3
 6028 093f 91       		.byte	0x91
 6029 0940 4D       		.sleb128 -51
 6030 0941 9F       		.byte	0x9f
 6031 0942 44010000 		.4byte	.LVL54
 6032 0946 48010000 		.4byte	.LVL55
 6033 094a 0300     		.2byte	0x3
 6034 094c 73       		.byte	0x73
 6035 094d 01       		.sleb128 1
 6036 094e 9F       		.byte	0x9f
ARM GAS  /tmp/cce3BzsE.s 			page 107


 6037 094f 48010000 		.4byte	.LVL55
 6038 0953 50010000 		.4byte	.LVL56
 6039 0957 0300     		.2byte	0x3
 6040 0959 73       		.byte	0x73
 6041 095a 02       		.sleb128 2
 6042 095b 9F       		.byte	0x9f
 6043 095c E8040000 		.4byte	.LVL230
 6044 0960 EA040000 		.4byte	.LVL231
 6045 0964 0300     		.2byte	0x3
 6046 0966 73       		.byte	0x73
 6047 0967 02       		.sleb128 2
 6048 0968 9F       		.byte	0x9f
 6049 0969 4C050000 		.4byte	.LVL253
 6050 096d 58050000 		.4byte	.LVL255
 6051 0971 0300     		.2byte	0x3
 6052 0973 91       		.byte	0x91
 6053 0974 4D       		.sleb128 -51
 6054 0975 9F       		.byte	0x9f
 6055 0976 00000000 		.4byte	0
 6056 097a 00000000 		.4byte	0
 6057              	.LLST22:
 6058 097e 8A010000 		.4byte	.LVL64
 6059 0982 AC010000 		.4byte	.LVL68
 6060 0986 0100     		.2byte	0x1
 6061 0988 52       		.byte	0x52
 6062 0989 B8010000 		.4byte	.LVL71
 6063 098d C0010000 		.4byte	.LVL72
 6064 0991 0100     		.2byte	0x1
 6065 0993 52       		.byte	0x52
 6066 0994 C8010000 		.4byte	.LVL74
 6067 0998 D0010000 		.4byte	.LVL76
 6068 099c 0100     		.2byte	0x1
 6069 099e 52       		.byte	0x52
 6070 099f 00000000 		.4byte	0
 6071 09a3 00000000 		.4byte	0
 6072              	.LLST23:
 6073 09a7 8A010000 		.4byte	.LVL64
 6074 09ab AC010000 		.4byte	.LVL68
 6075 09af 0100     		.2byte	0x1
 6076 09b1 51       		.byte	0x51
 6077 09b2 B8010000 		.4byte	.LVL71
 6078 09b6 C8010000 		.4byte	.LVL74
 6079 09ba 0100     		.2byte	0x1
 6080 09bc 51       		.byte	0x51
 6081 09bd C8010000 		.4byte	.LVL74
 6082 09c1 CC010000 		.4byte	.LVL75
 6083 09c5 0300     		.2byte	0x3
 6084 09c7 71       		.byte	0x71
 6085 09c8 01       		.sleb128 1
 6086 09c9 9F       		.byte	0x9f
 6087 09ca CC010000 		.4byte	.LVL75
 6088 09ce D0010000 		.4byte	.LVL76
 6089 09d2 0100     		.2byte	0x1
 6090 09d4 51       		.byte	0x51
 6091 09d5 00000000 		.4byte	0
 6092 09d9 00000000 		.4byte	0
 6093              	.LLST24:
ARM GAS  /tmp/cce3BzsE.s 			page 108


 6094 09dd 8A010000 		.4byte	.LVL64
 6095 09e1 AC010000 		.4byte	.LVL68
 6096 09e5 0100     		.2byte	0x1
 6097 09e7 54       		.byte	0x54
 6098 09e8 B8010000 		.4byte	.LVL71
 6099 09ec C2010000 		.4byte	.LVL73
 6100 09f0 0100     		.2byte	0x1
 6101 09f2 54       		.byte	0x54
 6102 09f3 C8010000 		.4byte	.LVL74
 6103 09f7 D0010000 		.4byte	.LVL76
 6104 09fb 0100     		.2byte	0x1
 6105 09fd 54       		.byte	0x54
 6106 09fe 00000000 		.4byte	0
 6107 0a02 00000000 		.4byte	0
 6108              	.LLST25:
 6109 0a06 8A010000 		.4byte	.LVL64
 6110 0a0a AC010000 		.4byte	.LVL68
 6111 0a0e 0100     		.2byte	0x1
 6112 0a10 52       		.byte	0x52
 6113 0a11 B8010000 		.4byte	.LVL71
 6114 0a15 C0010000 		.4byte	.LVL72
 6115 0a19 0100     		.2byte	0x1
 6116 0a1b 52       		.byte	0x52
 6117 0a1c 00000000 		.4byte	0
 6118 0a20 00000000 		.4byte	0
 6119              	.LLST26:
 6120 0a24 F0010000 		.4byte	.LVL81
 6121 0a28 F8010000 		.4byte	.LVL82
 6122 0a2c 0300     		.2byte	0x3
 6123 0a2e 91       		.byte	0x91
 6124 0a2f 4C       		.sleb128 -52
 6125 0a30 9F       		.byte	0x9f
 6126 0a31 F8010000 		.4byte	.LVL82
 6127 0a35 FC010000 		.4byte	.LVL83
 6128 0a39 0100     		.2byte	0x1
 6129 0a3b 53       		.byte	0x53
 6130 0a3c FC010000 		.4byte	.LVL83
 6131 0a40 80020000 		.4byte	.LVL109
 6132 0a44 0200     		.2byte	0x2
 6133 0a46 91       		.byte	0x91
 6134 0a47 40       		.sleb128 -64
 6135 0a48 72030000 		.4byte	.LVL157
 6136 0a4c BC030000 		.4byte	.LVL172
 6137 0a50 0200     		.2byte	0x2
 6138 0a52 91       		.byte	0x91
 6139 0a53 40       		.sleb128 -64
 6140 0a54 0C040000 		.4byte	.LVL189
 6141 0a58 10040000 		.4byte	.LVL190
 6142 0a5c 0300     		.2byte	0x3
 6143 0a5e 91       		.byte	0x91
 6144 0a5f 4C       		.sleb128 -52
 6145 0a60 9F       		.byte	0x9f
 6146 0a61 10040000 		.4byte	.LVL190
 6147 0a65 22040000 		.4byte	.LVL191
 6148 0a69 0300     		.2byte	0x3
 6149 0a6b 91       		.byte	0x91
 6150 0a6c 4D       		.sleb128 -51
ARM GAS  /tmp/cce3BzsE.s 			page 109


 6151 0a6d 9F       		.byte	0x9f
 6152 0a6e 22040000 		.4byte	.LVL191
 6153 0a72 30040000 		.4byte	.LVL194
 6154 0a76 0200     		.2byte	0x2
 6155 0a78 91       		.byte	0x91
 6156 0a79 40       		.sleb128 -64
 6157 0a7a BC040000 		.4byte	.LVL221
 6158 0a7e E8040000 		.4byte	.LVL230
 6159 0a82 0200     		.2byte	0x2
 6160 0a84 91       		.byte	0x91
 6161 0a85 40       		.sleb128 -64
 6162 0a86 30050000 		.4byte	.LVL247
 6163 0a8a 34050000 		.4byte	.LVL248
 6164 0a8e 0200     		.2byte	0x2
 6165 0a90 91       		.byte	0x91
 6166 0a91 40       		.sleb128 -64
 6167 0a92 58050000 		.4byte	.LVL255
 6168 0a96 64050000 		.4byte	.LFE51
 6169 0a9a 0200     		.2byte	0x2
 6170 0a9c 91       		.byte	0x91
 6171 0a9d 40       		.sleb128 -64
 6172 0a9e 00000000 		.4byte	0
 6173 0aa2 00000000 		.4byte	0
 6174              	.LLST27:
 6175 0aa6 F0010000 		.4byte	.LVL81
 6176 0aaa F8010000 		.4byte	.LVL82
 6177 0aae 0100     		.2byte	0x1
 6178 0ab0 53       		.byte	0x53
 6179 0ab1 F8010000 		.4byte	.LVL82
 6180 0ab5 FC010000 		.4byte	.LVL83
 6181 0ab9 0100     		.2byte	0x1
 6182 0abb 58       		.byte	0x58
 6183 0abc 00000000 		.4byte	0
 6184 0ac0 00000000 		.4byte	0
 6185              	.LLST28:
 6186 0ac4 00020000 		.4byte	.LVL84
 6187 0ac8 80020000 		.4byte	.LVL109
 6188 0acc 0200     		.2byte	0x2
 6189 0ace 3A       		.byte	0x3a
 6190 0acf 9F       		.byte	0x9f
 6191 0ad0 72030000 		.4byte	.LVL157
 6192 0ad4 BC030000 		.4byte	.LVL172
 6193 0ad8 0200     		.2byte	0x2
 6194 0ada 3A       		.byte	0x3a
 6195 0adb 9F       		.byte	0x9f
 6196 0adc 22040000 		.4byte	.LVL191
 6197 0ae0 30040000 		.4byte	.LVL194
 6198 0ae4 0200     		.2byte	0x2
 6199 0ae6 3A       		.byte	0x3a
 6200 0ae7 9F       		.byte	0x9f
 6201 0ae8 BC040000 		.4byte	.LVL221
 6202 0aec E8040000 		.4byte	.LVL230
 6203 0af0 0200     		.2byte	0x2
 6204 0af2 3A       		.byte	0x3a
 6205 0af3 9F       		.byte	0x9f
 6206 0af4 30050000 		.4byte	.LVL247
 6207 0af8 34050000 		.4byte	.LVL248
ARM GAS  /tmp/cce3BzsE.s 			page 110


 6208 0afc 0200     		.2byte	0x2
 6209 0afe 3A       		.byte	0x3a
 6210 0aff 9F       		.byte	0x9f
 6211 0b00 58050000 		.4byte	.LVL255
 6212 0b04 64050000 		.4byte	.LFE51
 6213 0b08 0200     		.2byte	0x2
 6214 0b0a 3A       		.byte	0x3a
 6215 0b0b 9F       		.byte	0x9f
 6216 0b0c 00000000 		.4byte	0
 6217 0b10 00000000 		.4byte	0
 6218              	.LLST29:
 6219 0b14 00020000 		.4byte	.LVL84
 6220 0b18 80020000 		.4byte	.LVL109
 6221 0b1c 0200     		.2byte	0x2
 6222 0b1e 30       		.byte	0x30
 6223 0b1f 9F       		.byte	0x9f
 6224 0b20 72030000 		.4byte	.LVL157
 6225 0b24 BC030000 		.4byte	.LVL172
 6226 0b28 0200     		.2byte	0x2
 6227 0b2a 30       		.byte	0x30
 6228 0b2b 9F       		.byte	0x9f
 6229 0b2c 22040000 		.4byte	.LVL191
 6230 0b30 30040000 		.4byte	.LVL194
 6231 0b34 0200     		.2byte	0x2
 6232 0b36 30       		.byte	0x30
 6233 0b37 9F       		.byte	0x9f
 6234 0b38 BC040000 		.4byte	.LVL221
 6235 0b3c E8040000 		.4byte	.LVL230
 6236 0b40 0200     		.2byte	0x2
 6237 0b42 30       		.byte	0x30
 6238 0b43 9F       		.byte	0x9f
 6239 0b44 30050000 		.4byte	.LVL247
 6240 0b48 34050000 		.4byte	.LVL248
 6241 0b4c 0200     		.2byte	0x2
 6242 0b4e 30       		.byte	0x30
 6243 0b4f 9F       		.byte	0x9f
 6244 0b50 58050000 		.4byte	.LVL255
 6245 0b54 64050000 		.4byte	.LFE51
 6246 0b58 0200     		.2byte	0x2
 6247 0b5a 30       		.byte	0x30
 6248 0b5b 9F       		.byte	0x9f
 6249 0b5c 00000000 		.4byte	0
 6250 0b60 00000000 		.4byte	0
 6251              	.LLST30:
 6252 0b64 00020000 		.4byte	.LVL84
 6253 0b68 3C020000 		.4byte	.LVL94
 6254 0b6c 0200     		.2byte	0x2
 6255 0b6e 91       		.byte	0x91
 6256 0b6f 40       		.sleb128 -64
 6257 0b70 3C020000 		.4byte	.LVL94
 6258 0b74 68020000 		.4byte	.LVL105
 6259 0b78 0100     		.2byte	0x1
 6260 0b7a 58       		.byte	0x58
 6261 0b7b 68020000 		.4byte	.LVL105
 6262 0b7f 80020000 		.4byte	.LVL109
 6263 0b83 0100     		.2byte	0x1
 6264 0b85 52       		.byte	0x52
ARM GAS  /tmp/cce3BzsE.s 			page 111


 6265 0b86 72030000 		.4byte	.LVL157
 6266 0b8a 78030000 		.4byte	.LVL160
 6267 0b8e 0100     		.2byte	0x1
 6268 0b90 52       		.byte	0x52
 6269 0b91 22040000 		.4byte	.LVL191
 6270 0b95 2A040000 		.4byte	.LVL192
 6271 0b99 0100     		.2byte	0x1
 6272 0b9b 58       		.byte	0x58
 6273 0b9c 2A040000 		.4byte	.LVL192
 6274 0ba0 30040000 		.4byte	.LVL194
 6275 0ba4 0100     		.2byte	0x1
 6276 0ba6 52       		.byte	0x52
 6277 0ba7 30050000 		.4byte	.LVL247
 6278 0bab 34050000 		.4byte	.LVL248
 6279 0baf 0200     		.2byte	0x2
 6280 0bb1 91       		.byte	0x91
 6281 0bb2 40       		.sleb128 -64
 6282 0bb3 00000000 		.4byte	0
 6283 0bb7 00000000 		.4byte	0
 6284              	.LLST31:
 6285 0bbb 3C020000 		.4byte	.LVL94
 6286 0bbf 52020000 		.4byte	.LVL99
 6287 0bc3 0100     		.2byte	0x1
 6288 0bc5 56       		.byte	0x56
 6289 0bc6 52020000 		.4byte	.LVL99
 6290 0bca 54020000 		.4byte	.LVL100
 6291 0bce 0100     		.2byte	0x1
 6292 0bd0 51       		.byte	0x51
 6293 0bd1 54020000 		.4byte	.LVL100
 6294 0bd5 80020000 		.4byte	.LVL109
 6295 0bd9 0100     		.2byte	0x1
 6296 0bdb 56       		.byte	0x56
 6297 0bdc 72030000 		.4byte	.LVL157
 6298 0be0 74030000 		.4byte	.LVL158
 6299 0be4 0100     		.2byte	0x1
 6300 0be6 56       		.byte	0x56
 6301 0be7 22040000 		.4byte	.LVL191
 6302 0beb 30040000 		.4byte	.LVL194
 6303 0bef 0100     		.2byte	0x1
 6304 0bf1 56       		.byte	0x56
 6305 0bf2 00000000 		.4byte	0
 6306 0bf6 00000000 		.4byte	0
 6307              	.LLST32:
 6308 0bfa 20020000 		.4byte	.LVL90
 6309 0bfe 3C020000 		.4byte	.LVL94
 6310 0c02 0200     		.2byte	0x2
 6311 0c04 30       		.byte	0x30
 6312 0c05 9F       		.byte	0x9f
 6313 0c06 3C020000 		.4byte	.LVL94
 6314 0c0a 5E020000 		.4byte	.LVL103
 6315 0c0e 0100     		.2byte	0x1
 6316 0c10 57       		.byte	0x57
 6317 0c11 5E020000 		.4byte	.LVL103
 6318 0c15 64020000 		.4byte	.LVL104
 6319 0c19 0200     		.2byte	0x2
 6320 0c1b 30       		.byte	0x30
 6321 0c1c 9F       		.byte	0x9f
ARM GAS  /tmp/cce3BzsE.s 			page 112


 6322 0c1d 76020000 		.4byte	.LVL107
 6323 0c21 7C020000 		.4byte	.LVL108
 6324 0c25 0100     		.2byte	0x1
 6325 0c27 57       		.byte	0x57
 6326 0c28 72030000 		.4byte	.LVL157
 6327 0c2c 76030000 		.4byte	.LVL159
 6328 0c30 0100     		.2byte	0x1
 6329 0c32 57       		.byte	0x57
 6330 0c33 22040000 		.4byte	.LVL191
 6331 0c37 2C040000 		.4byte	.LVL193
 6332 0c3b 0200     		.2byte	0x2
 6333 0c3d 30       		.byte	0x30
 6334 0c3e 9F       		.byte	0x9f
 6335 0c3f 30050000 		.4byte	.LVL247
 6336 0c43 34050000 		.4byte	.LVL248
 6337 0c47 0200     		.2byte	0x2
 6338 0c49 30       		.byte	0x30
 6339 0c4a 9F       		.byte	0x9f
 6340 0c4b 00000000 		.4byte	0
 6341 0c4f 00000000 		.4byte	0
 6342              	.LLST33:
 6343 0c53 00020000 		.4byte	.LVL84
 6344 0c57 0C020000 		.4byte	.LVL86
 6345 0c5b 0200     		.2byte	0x2
 6346 0c5d 31       		.byte	0x31
 6347 0c5e 9F       		.byte	0x9f
 6348 0c5f 0C020000 		.4byte	.LVL86
 6349 0c63 10020000 		.4byte	.LVL87
 6350 0c67 0100     		.2byte	0x1
 6351 0c69 55       		.byte	0x55
 6352 0c6a 12020000 		.4byte	.LVL88
 6353 0c6e 5A020000 		.4byte	.LVL102
 6354 0c72 0100     		.2byte	0x1
 6355 0c74 55       		.byte	0x55
 6356 0c75 5A020000 		.4byte	.LVL102
 6357 0c79 80020000 		.4byte	.LVL109
 6358 0c7d 0100     		.2byte	0x1
 6359 0c7f 50       		.byte	0x50
 6360 0c80 72030000 		.4byte	.LVL157
 6361 0c84 78030000 		.4byte	.LVL160
 6362 0c88 0100     		.2byte	0x1
 6363 0c8a 50       		.byte	0x50
 6364 0c8b 78030000 		.4byte	.LVL160
 6365 0c8f 8E030000 		.4byte	.LVL163
 6366 0c93 0100     		.2byte	0x1
 6367 0c95 55       		.byte	0x55
 6368 0c96 22040000 		.4byte	.LVL191
 6369 0c9a 30040000 		.4byte	.LVL194
 6370 0c9e 0100     		.2byte	0x1
 6371 0ca0 50       		.byte	0x50
 6372 0ca1 30050000 		.4byte	.LVL247
 6373 0ca5 34050000 		.4byte	.LVL248
 6374 0ca9 0100     		.2byte	0x1
 6375 0cab 55       		.byte	0x55
 6376 0cac 00000000 		.4byte	0
 6377 0cb0 00000000 		.4byte	0
 6378              	.LLST34:
ARM GAS  /tmp/cce3BzsE.s 			page 113


 6379 0cb4 48020000 		.4byte	.LVL96
 6380 0cb8 4A020000 		.4byte	.LVL97
 6381 0cbc 0100     		.2byte	0x1
 6382 0cbe 50       		.byte	0x50
 6383 0cbf 4A020000 		.4byte	.LVL97
 6384 0cc3 72020000 		.4byte	.LVL106
 6385 0cc7 0100     		.2byte	0x1
 6386 0cc9 54       		.byte	0x54
 6387 0cca 22040000 		.4byte	.LVL191
 6388 0cce 30040000 		.4byte	.LVL194
 6389 0cd2 0100     		.2byte	0x1
 6390 0cd4 54       		.byte	0x54
 6391 0cd5 00000000 		.4byte	0
 6392 0cd9 00000000 		.4byte	0
 6393              	.LLST35:
 6394 0cdd 88020000 		.4byte	.LVL111
 6395 0ce1 8A020000 		.4byte	.LVL112
 6396 0ce5 0100     		.2byte	0x1
 6397 0ce7 53       		.byte	0x53
 6398 0ce8 8A020000 		.4byte	.LVL112
 6399 0cec C6020000 		.4byte	.LVL123
 6400 0cf0 0100     		.2byte	0x1
 6401 0cf2 5A       		.byte	0x5a
 6402 0cf3 C6020000 		.4byte	.LVL123
 6403 0cf7 CC020000 		.4byte	.LVL125
 6404 0cfb 0100     		.2byte	0x1
 6405 0cfd 58       		.byte	0x58
 6406 0cfe CC020000 		.4byte	.LVL125
 6407 0d02 D0020000 		.4byte	.LVL126
 6408 0d06 0100     		.2byte	0x1
 6409 0d08 55       		.byte	0x55
 6410 0d09 D0020000 		.4byte	.LVL126
 6411 0d0d D2020000 		.4byte	.LVL127
 6412 0d11 0300     		.2byte	0x3
 6413 0d13 75       		.byte	0x75
 6414 0d14 7F       		.sleb128 -1
 6415 0d15 9F       		.byte	0x9f
 6416 0d16 40050000 		.4byte	.LVL250
 6417 0d1a 4C050000 		.4byte	.LVL253
 6418 0d1e 0100     		.2byte	0x1
 6419 0d20 53       		.byte	0x53
 6420 0d21 00000000 		.4byte	0
 6421 0d25 00000000 		.4byte	0
 6422              	.LLST36:
 6423 0d29 88020000 		.4byte	.LVL111
 6424 0d2d DE020000 		.4byte	.LVL129
 6425 0d31 0200     		.2byte	0x2
 6426 0d33 30       		.byte	0x30
 6427 0d34 9F       		.byte	0x9f
 6428 0d35 40050000 		.4byte	.LVL250
 6429 0d39 4C050000 		.4byte	.LVL253
 6430 0d3d 0200     		.2byte	0x2
 6431 0d3f 30       		.byte	0x30
 6432 0d40 9F       		.byte	0x9f
 6433 0d41 00000000 		.4byte	0
 6434 0d45 00000000 		.4byte	0
 6435              	.LLST37:
ARM GAS  /tmp/cce3BzsE.s 			page 114


 6436 0d49 88020000 		.4byte	.LVL111
 6437 0d4d B0020000 		.4byte	.LVL119
 6438 0d51 0100     		.2byte	0x1
 6439 0d53 54       		.byte	0x54
 6440 0d54 B0020000 		.4byte	.LVL119
 6441 0d58 BA020000 		.4byte	.LVL121
 6442 0d5c 0100     		.2byte	0x1
 6443 0d5e 55       		.byte	0x55
 6444 0d5f BA020000 		.4byte	.LVL121
 6445 0d63 BC020000 		.4byte	.LVL122
 6446 0d67 0300     		.2byte	0x3
 6447 0d69 75       		.byte	0x75
 6448 0d6a 01       		.sleb128 1
 6449 0d6b 9F       		.byte	0x9f
 6450 0d6c BC020000 		.4byte	.LVL122
 6451 0d70 CA020000 		.4byte	.LVL124
 6452 0d74 0100     		.2byte	0x1
 6453 0d76 55       		.byte	0x55
 6454 0d77 40050000 		.4byte	.LVL250
 6455 0d7b 42050000 		.4byte	.LVL251
 6456 0d7f 0100     		.2byte	0x1
 6457 0d81 54       		.byte	0x54
 6458 0d82 42050000 		.4byte	.LVL251
 6459 0d86 4A050000 		.4byte	.LVL252
 6460 0d8a 0100     		.2byte	0x1
 6461 0d8c 55       		.byte	0x55
 6462 0d8d 4A050000 		.4byte	.LVL252
 6463 0d91 4C050000 		.4byte	.LVL253
 6464 0d95 0300     		.2byte	0x3
 6465 0d97 74       		.byte	0x74
 6466 0d98 7F       		.sleb128 -1
 6467 0d99 9F       		.byte	0x9f
 6468 0d9a 00000000 		.4byte	0
 6469 0d9e 00000000 		.4byte	0
 6470              	.LLST38:
 6471 0da2 88020000 		.4byte	.LVL111
 6472 0da6 DE020000 		.4byte	.LVL129
 6473 0daa 0100     		.2byte	0x1
 6474 0dac 57       		.byte	0x57
 6475 0dad 40050000 		.4byte	.LVL250
 6476 0db1 4C050000 		.4byte	.LVL253
 6477 0db5 0100     		.2byte	0x1
 6478 0db7 57       		.byte	0x57
 6479 0db8 00000000 		.4byte	0
 6480 0dbc 00000000 		.4byte	0
 6481              	.LLST39:
 6482 0dc0 88020000 		.4byte	.LVL111
 6483 0dc4 DE020000 		.4byte	.LVL129
 6484 0dc8 0100     		.2byte	0x1
 6485 0dca 56       		.byte	0x56
 6486 0dcb 40050000 		.4byte	.LVL250
 6487 0dcf 4C050000 		.4byte	.LVL253
 6488 0dd3 0100     		.2byte	0x1
 6489 0dd5 56       		.byte	0x56
 6490 0dd6 00000000 		.4byte	0
 6491 0dda 00000000 		.4byte	0
 6492              	.LLST40:
ARM GAS  /tmp/cce3BzsE.s 			page 115


 6493 0dde 88020000 		.4byte	.LVL111
 6494 0de2 DE020000 		.4byte	.LVL129
 6495 0de6 0300     		.2byte	0x3
 6496 0de8 08       		.byte	0x8
 6497 0de9 20       		.byte	0x20
 6498 0dea 9F       		.byte	0x9f
 6499 0deb 40050000 		.4byte	.LVL250
 6500 0def 4C050000 		.4byte	.LVL253
 6501 0df3 0300     		.2byte	0x3
 6502 0df5 08       		.byte	0x8
 6503 0df6 20       		.byte	0x20
 6504 0df7 9F       		.byte	0x9f
 6505 0df8 00000000 		.4byte	0
 6506 0dfc 00000000 		.4byte	0
 6507              	.LLST41:
 6508 0e00 C6020000 		.4byte	.LVL123
 6509 0e04 D1020000 		.4byte	.LVL127-1
 6510 0e08 0100     		.2byte	0x1
 6511 0e0a 51       		.byte	0x51
 6512 0e0b D6020000 		.4byte	.LVL128
 6513 0e0f DE020000 		.4byte	.LVL129
 6514 0e13 0100     		.2byte	0x1
 6515 0e15 51       		.byte	0x51
 6516 0e16 00000000 		.4byte	0
 6517 0e1a 00000000 		.4byte	0
 6518              	.LLST42:
 6519 0e1e 88020000 		.4byte	.LVL111
 6520 0e22 8A020000 		.4byte	.LVL112
 6521 0e26 0100     		.2byte	0x1
 6522 0e28 53       		.byte	0x53
 6523 0e29 8A020000 		.4byte	.LVL112
 6524 0e2d 8E020000 		.4byte	.LVL113
 6525 0e31 0100     		.2byte	0x1
 6526 0e33 5A       		.byte	0x5a
 6527 0e34 8E020000 		.4byte	.LVL113
 6528 0e38 90020000 		.4byte	.LVL114
 6529 0e3c 0100     		.2byte	0x1
 6530 0e3e 53       		.byte	0x53
 6531 0e3f 90020000 		.4byte	.LVL114
 6532 0e43 A0020000 		.4byte	.LVL115
 6533 0e47 0100     		.2byte	0x1
 6534 0e49 58       		.byte	0x58
 6535 0e4a A0020000 		.4byte	.LVL115
 6536 0e4e A2020000 		.4byte	.LVL116
 6537 0e52 0300     		.2byte	0x3
 6538 0e54 73       		.byte	0x73
 6539 0e55 01       		.sleb128 1
 6540 0e56 9F       		.byte	0x9f
 6541 0e57 A2020000 		.4byte	.LVL116
 6542 0e5b AA020000 		.4byte	.LVL118
 6543 0e5f 0100     		.2byte	0x1
 6544 0e61 53       		.byte	0x53
 6545 0e62 AA020000 		.4byte	.LVL118
 6546 0e66 B4020000 		.4byte	.LVL120
 6547 0e6a 0300     		.2byte	0x3
 6548 0e6c 73       		.byte	0x73
 6549 0e6d 01       		.sleb128 1
ARM GAS  /tmp/cce3BzsE.s 			page 116


 6550 0e6e 9F       		.byte	0x9f
 6551 0e6f 40050000 		.4byte	.LVL250
 6552 0e73 4C050000 		.4byte	.LVL253
 6553 0e77 0100     		.2byte	0x1
 6554 0e79 58       		.byte	0x58
 6555 0e7a 00000000 		.4byte	0
 6556 0e7e 00000000 		.4byte	0
 6557              	.LLST43:
 6558 0e82 EE020000 		.4byte	.LVL130
 6559 0e86 1A030000 		.4byte	.LVL139
 6560 0e8a 0300     		.2byte	0x3
 6561 0e8c 91       		.byte	0x91
 6562 0e8d 4C       		.sleb128 -52
 6563 0e8e 9F       		.byte	0x9f
 6564 0e8f 1A030000 		.4byte	.LVL139
 6565 0e93 22030000 		.4byte	.LVL140
 6566 0e97 0100     		.2byte	0x1
 6567 0e99 53       		.byte	0x53
 6568 0e9a 22030000 		.4byte	.LVL140
 6569 0e9e 52030000 		.4byte	.LVL152
 6570 0ea2 0100     		.2byte	0x1
 6571 0ea4 5A       		.byte	0x5a
 6572 0ea5 52030000 		.4byte	.LVL152
 6573 0ea9 6A030000 		.4byte	.LVL155
 6574 0ead 0100     		.2byte	0x1
 6575 0eaf 53       		.byte	0x53
 6576 0eb0 BC030000 		.4byte	.LVL172
 6577 0eb4 BE030000 		.4byte	.LVL173
 6578 0eb8 0300     		.2byte	0x3
 6579 0eba 91       		.byte	0x91
 6580 0ebb 4C       		.sleb128 -52
 6581 0ebc 9F       		.byte	0x9f
 6582 0ebd BE030000 		.4byte	.LVL173
 6583 0ec1 C6030000 		.4byte	.LVL174
 6584 0ec5 0100     		.2byte	0x1
 6585 0ec7 53       		.byte	0x53
 6586 0ec8 C6030000 		.4byte	.LVL174
 6587 0ecc F4030000 		.4byte	.LVL186
 6588 0ed0 0100     		.2byte	0x1
 6589 0ed2 5A       		.byte	0x5a
 6590 0ed3 F4030000 		.4byte	.LVL186
 6591 0ed7 0C040000 		.4byte	.LVL189
 6592 0edb 0100     		.2byte	0x1
 6593 0edd 53       		.byte	0x53
 6594 0ede 30040000 		.4byte	.LVL194
 6595 0ee2 46040000 		.4byte	.LVL197
 6596 0ee6 0100     		.2byte	0x1
 6597 0ee8 5A       		.byte	0x5a
 6598 0ee9 46040000 		.4byte	.LVL197
 6599 0eed 4E040000 		.4byte	.LVL200
 6600 0ef1 0100     		.2byte	0x1
 6601 0ef3 53       		.byte	0x53
 6602 0ef4 8A040000 		.4byte	.LVL210
 6603 0ef8 92040000 		.4byte	.LVL211
 6604 0efc 0100     		.2byte	0x1
 6605 0efe 5A       		.byte	0x5a
 6606 0eff 92040000 		.4byte	.LVL211
ARM GAS  /tmp/cce3BzsE.s 			page 117


 6607 0f03 94040000 		.4byte	.LVL212
 6608 0f07 0100     		.2byte	0x1
 6609 0f09 53       		.byte	0x53
 6610 0f0a 14050000 		.4byte	.LVL239
 6611 0f0e 18050000 		.4byte	.LVL240
 6612 0f12 0100     		.2byte	0x1
 6613 0f14 5A       		.byte	0x5a
 6614 0f15 18050000 		.4byte	.LVL240
 6615 0f19 1A050000 		.4byte	.LVL241
 6616 0f1d 0100     		.2byte	0x1
 6617 0f1f 53       		.byte	0x53
 6618 0f20 22050000 		.4byte	.LVL243
 6619 0f24 24050000 		.4byte	.LVL244
 6620 0f28 0300     		.2byte	0x3
 6621 0f2a 91       		.byte	0x91
 6622 0f2b 4C       		.sleb128 -52
 6623 0f2c 9F       		.byte	0x9f
 6624 0f2d 24050000 		.4byte	.LVL244
 6625 0f31 30050000 		.4byte	.LVL247
 6626 0f35 0100     		.2byte	0x1
 6627 0f37 53       		.byte	0x53
 6628 0f38 00000000 		.4byte	0
 6629 0f3c 00000000 		.4byte	0
 6630              	.LLST44:
 6631 0f40 EE020000 		.4byte	.LVL130
 6632 0f44 26030000 		.4byte	.LVL142
 6633 0f48 0C00     		.2byte	0xc
 6634 0f4a 79       		.byte	0x79
 6635 0f4b 00       		.sleb128 0
 6636 0f4c 08       		.byte	0x8
 6637 0f4d FF       		.byte	0xff
 6638 0f4e 1A       		.byte	0x1a
 6639 0f4f 08       		.byte	0x8
 6640 0f50 58       		.byte	0x58
 6641 0f51 29       		.byte	0x29
 6642 0f52 08       		.byte	0x8
 6643 0f53 FF       		.byte	0xff
 6644 0f54 1A       		.byte	0x1a
 6645 0f55 9F       		.byte	0x9f
 6646 0f56 BC030000 		.4byte	.LVL172
 6647 0f5a CA030000 		.4byte	.LVL176
 6648 0f5e 0C00     		.2byte	0xc
 6649 0f60 79       		.byte	0x79
 6650 0f61 00       		.sleb128 0
 6651 0f62 08       		.byte	0x8
 6652 0f63 FF       		.byte	0xff
 6653 0f64 1A       		.byte	0x1a
 6654 0f65 08       		.byte	0x8
 6655 0f66 58       		.byte	0x58
 6656 0f67 29       		.byte	0x29
 6657 0f68 08       		.byte	0x8
 6658 0f69 FF       		.byte	0xff
 6659 0f6a 1A       		.byte	0x1a
 6660 0f6b 9F       		.byte	0x9f
 6661 0f6c 22050000 		.4byte	.LVL243
 6662 0f70 28050000 		.4byte	.LVL245
 6663 0f74 0C00     		.2byte	0xc
ARM GAS  /tmp/cce3BzsE.s 			page 118


 6664 0f76 79       		.byte	0x79
 6665 0f77 00       		.sleb128 0
 6666 0f78 08       		.byte	0x8
 6667 0f79 FF       		.byte	0xff
 6668 0f7a 1A       		.byte	0x1a
 6669 0f7b 08       		.byte	0x8
 6670 0f7c 58       		.byte	0x58
 6671 0f7d 29       		.byte	0x29
 6672 0f7e 08       		.byte	0x8
 6673 0f7f FF       		.byte	0xff
 6674 0f80 1A       		.byte	0x1a
 6675 0f81 9F       		.byte	0x9f
 6676 0f82 00000000 		.4byte	0
 6677 0f86 00000000 		.4byte	0
 6678              	.LLST45:
 6679 0f8a EE020000 		.4byte	.LVL130
 6680 0f8e 6A030000 		.4byte	.LVL155
 6681 0f92 0200     		.2byte	0x2
 6682 0f94 40       		.byte	0x40
 6683 0f95 9F       		.byte	0x9f
 6684 0f96 BC030000 		.4byte	.LVL172
 6685 0f9a 0C040000 		.4byte	.LVL189
 6686 0f9e 0200     		.2byte	0x2
 6687 0fa0 40       		.byte	0x40
 6688 0fa1 9F       		.byte	0x9f
 6689 0fa2 30040000 		.4byte	.LVL194
 6690 0fa6 BC040000 		.4byte	.LVL221
 6691 0faa 0200     		.2byte	0x2
 6692 0fac 40       		.byte	0x40
 6693 0fad 9F       		.byte	0x9f
 6694 0fae 14050000 		.4byte	.LVL239
 6695 0fb2 1A050000 		.4byte	.LVL241
 6696 0fb6 0200     		.2byte	0x2
 6697 0fb8 40       		.byte	0x40
 6698 0fb9 9F       		.byte	0x9f
 6699 0fba 22050000 		.4byte	.LVL243
 6700 0fbe 30050000 		.4byte	.LVL247
 6701 0fc2 0200     		.2byte	0x2
 6702 0fc4 40       		.byte	0x40
 6703 0fc5 9F       		.byte	0x9f
 6704 0fc6 34050000 		.4byte	.LVL248
 6705 0fca 40050000 		.4byte	.LVL250
 6706 0fce 0200     		.2byte	0x2
 6707 0fd0 40       		.byte	0x40
 6708 0fd1 9F       		.byte	0x9f
 6709 0fd2 00000000 		.4byte	0
 6710 0fd6 00000000 		.4byte	0
 6711              	.LLST46:
 6712 0fda EE020000 		.4byte	.LVL130
 6713 0fde F4020000 		.4byte	.LVL131
 6714 0fe2 0100     		.2byte	0x1
 6715 0fe4 53       		.byte	0x53
 6716 0fe5 F4020000 		.4byte	.LVL131
 6717 0fe9 F8020000 		.4byte	.LVL133
 6718 0fed 0100     		.2byte	0x1
 6719 0fef 58       		.byte	0x58
 6720 0ff0 F8020000 		.4byte	.LVL133
ARM GAS  /tmp/cce3BzsE.s 			page 119


 6721 0ff4 0C030000 		.4byte	.LVL137
 6722 0ff8 0100     		.2byte	0x1
 6723 0ffa 54       		.byte	0x54
 6724 0ffb 0C030000 		.4byte	.LVL137
 6725 0fff 28030000 		.4byte	.LVL143
 6726 1003 0100     		.2byte	0x1
 6727 1005 58       		.byte	0x58
 6728 1006 28030000 		.4byte	.LVL143
 6729 100a 2C030000 		.4byte	.LVL145
 6730 100e 0100     		.2byte	0x1
 6731 1010 56       		.byte	0x56
 6732 1011 BC030000 		.4byte	.LVL172
 6733 1015 CC030000 		.4byte	.LVL177
 6734 1019 0100     		.2byte	0x1
 6735 101b 58       		.byte	0x58
 6736 101c CC030000 		.4byte	.LVL177
 6737 1020 D0030000 		.4byte	.LVL179
 6738 1024 0100     		.2byte	0x1
 6739 1026 56       		.byte	0x56
 6740 1027 22050000 		.4byte	.LVL243
 6741 102b 28050000 		.4byte	.LVL245
 6742 102f 0100     		.2byte	0x1
 6743 1031 58       		.byte	0x58
 6744 1032 00000000 		.4byte	0
 6745 1036 00000000 		.4byte	0
 6746              	.LLST47:
 6747 103a EE020000 		.4byte	.LVL130
 6748 103e 2C030000 		.4byte	.LVL145
 6749 1042 0200     		.2byte	0x2
 6750 1044 30       		.byte	0x30
 6751 1045 9F       		.byte	0x9f
 6752 1046 2C030000 		.4byte	.LVL145
 6753 104a 46030000 		.4byte	.LVL150
 6754 104e 0100     		.2byte	0x1
 6755 1050 57       		.byte	0x57
 6756 1051 46030000 		.4byte	.LVL150
 6757 1055 4C030000 		.4byte	.LVL151
 6758 1059 0200     		.2byte	0x2
 6759 105b 30       		.byte	0x30
 6760 105c 9F       		.byte	0x9f
 6761 105d 5E030000 		.4byte	.LVL154
 6762 1061 6A030000 		.4byte	.LVL155
 6763 1065 0100     		.2byte	0x1
 6764 1067 57       		.byte	0x57
 6765 1068 BC030000 		.4byte	.LVL172
 6766 106c D0030000 		.4byte	.LVL179
 6767 1070 0200     		.2byte	0x2
 6768 1072 30       		.byte	0x30
 6769 1073 9F       		.byte	0x9f
 6770 1074 D0030000 		.4byte	.LVL179
 6771 1078 EA030000 		.4byte	.LVL184
 6772 107c 0100     		.2byte	0x1
 6773 107e 57       		.byte	0x57
 6774 107f EA030000 		.4byte	.LVL184
 6775 1083 EE030000 		.4byte	.LVL185
 6776 1087 0200     		.2byte	0x2
 6777 1089 30       		.byte	0x30
ARM GAS  /tmp/cce3BzsE.s 			page 120


 6778 108a 9F       		.byte	0x9f
 6779 108b 00040000 		.4byte	.LVL188
 6780 108f 0C040000 		.4byte	.LVL189
 6781 1093 0100     		.2byte	0x1
 6782 1095 57       		.byte	0x57
 6783 1096 30040000 		.4byte	.LVL194
 6784 109a 48040000 		.4byte	.LVL198
 6785 109e 0200     		.2byte	0x2
 6786 10a0 30       		.byte	0x30
 6787 10a1 9F       		.byte	0x9f
 6788 10a2 8A040000 		.4byte	.LVL210
 6789 10a6 94040000 		.4byte	.LVL212
 6790 10aa 0200     		.2byte	0x2
 6791 10ac 30       		.byte	0x30
 6792 10ad 9F       		.byte	0x9f
 6793 10ae 14050000 		.4byte	.LVL239
 6794 10b2 1A050000 		.4byte	.LVL241
 6795 10b6 0200     		.2byte	0x2
 6796 10b8 30       		.byte	0x30
 6797 10b9 9F       		.byte	0x9f
 6798 10ba 22050000 		.4byte	.LVL243
 6799 10be 28050000 		.4byte	.LVL245
 6800 10c2 0200     		.2byte	0x2
 6801 10c4 30       		.byte	0x30
 6802 10c5 9F       		.byte	0x9f
 6803 10c6 28050000 		.4byte	.LVL245
 6804 10ca 2E050000 		.4byte	.LVL246
 6805 10ce 0100     		.2byte	0x1
 6806 10d0 57       		.byte	0x57
 6807 10d1 00000000 		.4byte	0
 6808 10d5 00000000 		.4byte	0
 6809              	.LLST48:
 6810 10d9 EE020000 		.4byte	.LVL130
 6811 10dd F8020000 		.4byte	.LVL133
 6812 10e1 0200     		.2byte	0x2
 6813 10e3 31       		.byte	0x31
 6814 10e4 9F       		.byte	0x9f
 6815 10e5 F8020000 		.4byte	.LVL133
 6816 10e9 FA020000 		.4byte	.LVL134
 6817 10ed 0500     		.2byte	0x5
 6818 10ef 75       		.byte	0x75
 6819 10f0 00       		.sleb128 0
 6820 10f1 34       		.byte	0x34
 6821 10f2 24       		.byte	0x24
 6822 10f3 9F       		.byte	0x9f
 6823 10f4 FA020000 		.4byte	.LVL134
 6824 10f8 12030000 		.4byte	.LVL138
 6825 10fc 0100     		.2byte	0x1
 6826 10fe 55       		.byte	0x55
 6827 10ff 22050000 		.4byte	.LVL243
 6828 1103 28050000 		.4byte	.LVL245
 6829 1107 0100     		.2byte	0x1
 6830 1109 55       		.byte	0x55
 6831 110a 00000000 		.4byte	0
 6832 110e 00000000 		.4byte	0
 6833              	.LLST49:
 6834 1112 38030000 		.4byte	.LVL147
ARM GAS  /tmp/cce3BzsE.s 			page 121


 6835 1116 3A030000 		.4byte	.LVL148
 6836 111a 0100     		.2byte	0x1
 6837 111c 50       		.byte	0x50
 6838 111d 3A030000 		.4byte	.LVL148
 6839 1121 5A030000 		.4byte	.LVL153
 6840 1125 0100     		.2byte	0x1
 6841 1127 54       		.byte	0x54
 6842 1128 DC030000 		.4byte	.LVL181
 6843 112c DE030000 		.4byte	.LVL182
 6844 1130 0100     		.2byte	0x1
 6845 1132 50       		.byte	0x50
 6846 1133 DE030000 		.4byte	.LVL182
 6847 1137 FC030000 		.4byte	.LVL187
 6848 113b 0100     		.2byte	0x1
 6849 113d 54       		.byte	0x54
 6850 113e 30040000 		.4byte	.LVL194
 6851 1142 44040000 		.4byte	.LVL196
 6852 1146 0100     		.2byte	0x1
 6853 1148 54       		.byte	0x54
 6854 1149 44040000 		.4byte	.LVL196
 6855 114d 48040000 		.4byte	.LVL198
 6856 1151 0100     		.2byte	0x1
 6857 1153 59       		.byte	0x59
 6858 1154 8A040000 		.4byte	.LVL210
 6859 1158 94040000 		.4byte	.LVL212
 6860 115c 0100     		.2byte	0x1
 6861 115e 54       		.byte	0x54
 6862 115f 14050000 		.4byte	.LVL239
 6863 1163 1A050000 		.4byte	.LVL241
 6864 1167 0100     		.2byte	0x1
 6865 1169 54       		.byte	0x54
 6866 116a 00000000 		.4byte	0
 6867 116e 00000000 		.4byte	0
 6868              	.LLST50:
 6869 1172 7C030000 		.4byte	.LVL161
 6870 1176 A4030000 		.4byte	.LVL167
 6871 117a 0300     		.2byte	0x3
 6872 117c 91       		.byte	0x91
 6873 117d B87F     		.sleb128 -72
 6874 117f A4030000 		.4byte	.LVL167
 6875 1183 AA030000 		.4byte	.LVL168
 6876 1187 0300     		.2byte	0x3
 6877 1189 91       		.byte	0x91
 6878 118a 4D       		.sleb128 -51
 6879 118b 9F       		.byte	0x9f
 6880 118c AA030000 		.4byte	.LVL168
 6881 1190 AE030000 		.4byte	.LVL169
 6882 1194 0100     		.2byte	0x1
 6883 1196 54       		.byte	0x54
 6884 1197 AE030000 		.4byte	.LVL169
 6885 119b B0030000 		.4byte	.LVL170
 6886 119f 0300     		.2byte	0x3
 6887 11a1 74       		.byte	0x74
 6888 11a2 7F       		.sleb128 -1
 6889 11a3 9F       		.byte	0x9f
 6890 11a4 BC040000 		.4byte	.LVL221
 6891 11a8 DE040000 		.4byte	.LVL228
ARM GAS  /tmp/cce3BzsE.s 			page 122


 6892 11ac 0300     		.2byte	0x3
 6893 11ae 91       		.byte	0x91
 6894 11af B87F     		.sleb128 -72
 6895 11b1 DE040000 		.4byte	.LVL228
 6896 11b5 E8040000 		.4byte	.LVL230
 6897 11b9 0300     		.2byte	0x3
 6898 11bb 91       		.byte	0x91
 6899 11bc 4D       		.sleb128 -51
 6900 11bd 9F       		.byte	0x9f
 6901 11be 58050000 		.4byte	.LVL255
 6902 11c2 64050000 		.4byte	.LFE51
 6903 11c6 0300     		.2byte	0x3
 6904 11c8 91       		.byte	0x91
 6905 11c9 B87F     		.sleb128 -72
 6906 11cb 00000000 		.4byte	0
 6907 11cf 00000000 		.4byte	0
 6908              	.LLST51:
 6909 11d3 7C030000 		.4byte	.LVL161
 6910 11d7 BC030000 		.4byte	.LVL172
 6911 11db 0300     		.2byte	0x3
 6912 11dd 91       		.byte	0x91
 6913 11de B47F     		.sleb128 -76
 6914 11e0 BC040000 		.4byte	.LVL221
 6915 11e4 E8040000 		.4byte	.LVL230
 6916 11e8 0300     		.2byte	0x3
 6917 11ea 91       		.byte	0x91
 6918 11eb B47F     		.sleb128 -76
 6919 11ed 58050000 		.4byte	.LVL255
 6920 11f1 64050000 		.4byte	.LFE51
 6921 11f5 0300     		.2byte	0x3
 6922 11f7 91       		.byte	0x91
 6923 11f8 B47F     		.sleb128 -76
 6924 11fa 00000000 		.4byte	0
 6925 11fe 00000000 		.4byte	0
 6926              	.LLST52:
 6927 1202 7C030000 		.4byte	.LVL161
 6928 1206 A4030000 		.4byte	.LVL167
 6929 120a 0100     		.2byte	0x1
 6930 120c 54       		.byte	0x54
 6931 120d BC040000 		.4byte	.LVL221
 6932 1211 C0040000 		.4byte	.LVL223
 6933 1215 0100     		.2byte	0x1
 6934 1217 54       		.byte	0x54
 6935 1218 C0040000 		.4byte	.LVL223
 6936 121c C8040000 		.4byte	.LVL224
 6937 1220 0100     		.2byte	0x1
 6938 1222 53       		.byte	0x53
 6939 1223 C8040000 		.4byte	.LVL224
 6940 1227 CE040000 		.4byte	.LVL225
 6941 122b 0100     		.2byte	0x1
 6942 122d 59       		.byte	0x59
 6943 122e CE040000 		.4byte	.LVL225
 6944 1232 D4040000 		.4byte	.LVL226
 6945 1236 0100     		.2byte	0x1
 6946 1238 54       		.byte	0x54
 6947 1239 D4040000 		.4byte	.LVL226
 6948 123d D6040000 		.4byte	.LVL227
ARM GAS  /tmp/cce3BzsE.s 			page 123


 6949 1241 0300     		.2byte	0x3
 6950 1243 74       		.byte	0x74
 6951 1244 01       		.sleb128 1
 6952 1245 9F       		.byte	0x9f
 6953 1246 D6040000 		.4byte	.LVL227
 6954 124a E8040000 		.4byte	.LVL230
 6955 124e 0100     		.2byte	0x1
 6956 1250 54       		.byte	0x54
 6957 1251 58050000 		.4byte	.LVL255
 6958 1255 5C050000 		.4byte	.LVL256
 6959 1259 0100     		.2byte	0x1
 6960 125b 54       		.byte	0x54
 6961 125c 5C050000 		.4byte	.LVL256
 6962 1260 64050000 		.4byte	.LFE51
 6963 1264 0100     		.2byte	0x1
 6964 1266 53       		.byte	0x53
 6965 1267 00000000 		.4byte	0
 6966 126b 00000000 		.4byte	0
 6967              	.LLST53:
 6968 126f 7C030000 		.4byte	.LVL161
 6969 1273 BC030000 		.4byte	.LVL172
 6970 1277 0100     		.2byte	0x1
 6971 1279 57       		.byte	0x57
 6972 127a BC040000 		.4byte	.LVL221
 6973 127e E8040000 		.4byte	.LVL230
 6974 1282 0100     		.2byte	0x1
 6975 1284 57       		.byte	0x57
 6976 1285 58050000 		.4byte	.LVL255
 6977 1289 64050000 		.4byte	.LFE51
 6978 128d 0100     		.2byte	0x1
 6979 128f 57       		.byte	0x57
 6980 1290 00000000 		.4byte	0
 6981 1294 00000000 		.4byte	0
 6982              	.LLST54:
 6983 1298 7C030000 		.4byte	.LVL161
 6984 129c BC030000 		.4byte	.LVL172
 6985 12a0 0100     		.2byte	0x1
 6986 12a2 56       		.byte	0x56
 6987 12a3 BC040000 		.4byte	.LVL221
 6988 12a7 E8040000 		.4byte	.LVL230
 6989 12ab 0100     		.2byte	0x1
 6990 12ad 56       		.byte	0x56
 6991 12ae 58050000 		.4byte	.LVL255
 6992 12b2 64050000 		.4byte	.LFE51
 6993 12b6 0100     		.2byte	0x1
 6994 12b8 56       		.byte	0x56
 6995 12b9 00000000 		.4byte	0
 6996 12bd 00000000 		.4byte	0
 6997              	.LLST55:
 6998 12c1 8A030000 		.4byte	.LVL162
 6999 12c5 A4030000 		.4byte	.LVL167
 7000 12c9 0100     		.2byte	0x1
 7001 12cb 58       		.byte	0x58
 7002 12cc BC040000 		.4byte	.LVL221
 7003 12d0 CE040000 		.4byte	.LVL225
 7004 12d4 0100     		.2byte	0x1
 7005 12d6 58       		.byte	0x58
ARM GAS  /tmp/cce3BzsE.s 			page 124


 7006 12d7 58050000 		.4byte	.LVL255
 7007 12db 64050000 		.4byte	.LFE51
 7008 12df 0100     		.2byte	0x1
 7009 12e1 58       		.byte	0x58
 7010 12e2 00000000 		.4byte	0
 7011 12e6 00000000 		.4byte	0
 7012              	.LLST56:
 7013 12ea A4030000 		.4byte	.LVL167
 7014 12ee AA030000 		.4byte	.LVL168
 7015 12f2 0100     		.2byte	0x1
 7016 12f4 55       		.byte	0x55
 7017 12f5 AA030000 		.4byte	.LVL168
 7018 12f9 AF030000 		.4byte	.LVL170-1
 7019 12fd 0100     		.2byte	0x1
 7020 12ff 51       		.byte	0x51
 7021 1300 B4030000 		.4byte	.LVL171
 7022 1304 BC030000 		.4byte	.LVL172
 7023 1308 0100     		.2byte	0x1
 7024 130a 51       		.byte	0x51
 7025 130b DE040000 		.4byte	.LVL228
 7026 130f E6040000 		.4byte	.LVL229
 7027 1313 0100     		.2byte	0x1
 7028 1315 55       		.byte	0x55
 7029 1316 00000000 		.4byte	0
 7030 131a 00000000 		.4byte	0
 7031              	.LLST57:
 7032 131e 8A030000 		.4byte	.LVL162
 7033 1322 94030000 		.4byte	.LVL164
 7034 1326 0300     		.2byte	0x3
 7035 1328 91       		.byte	0x91
 7036 1329 4D       		.sleb128 -51
 7037 132a 9F       		.byte	0x9f
 7038 132b 94030000 		.4byte	.LVL164
 7039 132f 98030000 		.4byte	.LVL165
 7040 1333 0300     		.2byte	0x3
 7041 1335 73       		.byte	0x73
 7042 1336 01       		.sleb128 1
 7043 1337 9F       		.byte	0x9f
 7044 1338 98030000 		.4byte	.LVL165
 7045 133c A0030000 		.4byte	.LVL166
 7046 1340 0300     		.2byte	0x3
 7047 1342 73       		.byte	0x73
 7048 1343 02       		.sleb128 2
 7049 1344 9F       		.byte	0x9f
 7050 1345 BC040000 		.4byte	.LVL221
 7051 1349 BE040000 		.4byte	.LVL222
 7052 134d 0300     		.2byte	0x3
 7053 134f 73       		.byte	0x73
 7054 1350 02       		.sleb128 2
 7055 1351 9F       		.byte	0x9f
 7056 1352 58050000 		.4byte	.LVL255
 7057 1356 64050000 		.4byte	.LFE51
 7058 135a 0300     		.2byte	0x3
 7059 135c 91       		.byte	0x91
 7060 135d 4D       		.sleb128 -51
 7061 135e 9F       		.byte	0x9f
 7062 135f 00000000 		.4byte	0
ARM GAS  /tmp/cce3BzsE.s 			page 125


 7063 1363 00000000 		.4byte	0
 7064              	.LLST58:
 7065 1367 4C040000 		.4byte	.LVL199
 7066 136b 72040000 		.4byte	.LVL205
 7067 136f 0300     		.2byte	0x3
 7068 1371 91       		.byte	0x91
 7069 1372 4C       		.sleb128 -52
 7070 1373 9F       		.byte	0x9f
 7071 1374 72040000 		.4byte	.LVL205
 7072 1378 78040000 		.4byte	.LVL206
 7073 137c 0300     		.2byte	0x3
 7074 137e 91       		.byte	0x91
 7075 137f 4D       		.sleb128 -51
 7076 1380 9F       		.byte	0x9f
 7077 1381 78040000 		.4byte	.LVL206
 7078 1385 7C040000 		.4byte	.LVL207
 7079 1389 0100     		.2byte	0x1
 7080 138b 54       		.byte	0x54
 7081 138c 7C040000 		.4byte	.LVL207
 7082 1390 7E040000 		.4byte	.LVL208
 7083 1394 0300     		.2byte	0x3
 7084 1396 74       		.byte	0x74
 7085 1397 7F       		.sleb128 -1
 7086 1398 9F       		.byte	0x9f
 7087 1399 94040000 		.4byte	.LVL212
 7088 139d B4040000 		.4byte	.LVL219
 7089 13a1 0300     		.2byte	0x3
 7090 13a3 91       		.byte	0x91
 7091 13a4 4C       		.sleb128 -52
 7092 13a5 9F       		.byte	0x9f
 7093 13a6 B4040000 		.4byte	.LVL219
 7094 13aa BC040000 		.4byte	.LVL221
 7095 13ae 0300     		.2byte	0x3
 7096 13b0 91       		.byte	0x91
 7097 13b1 4D       		.sleb128 -51
 7098 13b2 9F       		.byte	0x9f
 7099 13b3 34050000 		.4byte	.LVL248
 7100 13b7 40050000 		.4byte	.LVL250
 7101 13bb 0300     		.2byte	0x3
 7102 13bd 91       		.byte	0x91
 7103 13be 4C       		.sleb128 -52
 7104 13bf 9F       		.byte	0x9f
 7105 13c0 00000000 		.4byte	0
 7106 13c4 00000000 		.4byte	0
 7107              	.LLST59:
 7108 13c8 4C040000 		.4byte	.LVL199
 7109 13cc 8A040000 		.4byte	.LVL210
 7110 13d0 0300     		.2byte	0x3
 7111 13d2 91       		.byte	0x91
 7112 13d3 B47F     		.sleb128 -76
 7113 13d5 94040000 		.4byte	.LVL212
 7114 13d9 BC040000 		.4byte	.LVL221
 7115 13dd 0300     		.2byte	0x3
 7116 13df 91       		.byte	0x91
 7117 13e0 B47F     		.sleb128 -76
 7118 13e2 34050000 		.4byte	.LVL248
 7119 13e6 40050000 		.4byte	.LVL250
ARM GAS  /tmp/cce3BzsE.s 			page 126


 7120 13ea 0300     		.2byte	0x3
 7121 13ec 91       		.byte	0x91
 7122 13ed B47F     		.sleb128 -76
 7123 13ef 00000000 		.4byte	0
 7124 13f3 00000000 		.4byte	0
 7125              	.LLST60:
 7126 13f7 4C040000 		.4byte	.LVL199
 7127 13fb 72040000 		.4byte	.LVL205
 7128 13ff 0100     		.2byte	0x1
 7129 1401 54       		.byte	0x54
 7130 1402 94040000 		.4byte	.LVL212
 7131 1406 98040000 		.4byte	.LVL214
 7132 140a 0100     		.2byte	0x1
 7133 140c 54       		.byte	0x54
 7134 140d 98040000 		.4byte	.LVL214
 7135 1411 9E040000 		.4byte	.LVL215
 7136 1415 0100     		.2byte	0x1
 7137 1417 53       		.byte	0x53
 7138 1418 9E040000 		.4byte	.LVL215
 7139 141c A4040000 		.4byte	.LVL216
 7140 1420 0100     		.2byte	0x1
 7141 1422 59       		.byte	0x59
 7142 1423 A4040000 		.4byte	.LVL216
 7143 1427 AA040000 		.4byte	.LVL217
 7144 142b 0100     		.2byte	0x1
 7145 142d 54       		.byte	0x54
 7146 142e AA040000 		.4byte	.LVL217
 7147 1432 AC040000 		.4byte	.LVL218
 7148 1436 0300     		.2byte	0x3
 7149 1438 74       		.byte	0x74
 7150 1439 01       		.sleb128 1
 7151 143a 9F       		.byte	0x9f
 7152 143b AC040000 		.4byte	.LVL218
 7153 143f BC040000 		.4byte	.LVL221
 7154 1443 0100     		.2byte	0x1
 7155 1445 54       		.byte	0x54
 7156 1446 34050000 		.4byte	.LVL248
 7157 144a 38050000 		.4byte	.LVL249
 7158 144e 0100     		.2byte	0x1
 7159 1450 54       		.byte	0x54
 7160 1451 38050000 		.4byte	.LVL249
 7161 1455 40050000 		.4byte	.LVL250
 7162 1459 0100     		.2byte	0x1
 7163 145b 53       		.byte	0x53
 7164 145c 00000000 		.4byte	0
 7165 1460 00000000 		.4byte	0
 7166              	.LLST61:
 7167 1464 4C040000 		.4byte	.LVL199
 7168 1468 8A040000 		.4byte	.LVL210
 7169 146c 0100     		.2byte	0x1
 7170 146e 57       		.byte	0x57
 7171 146f 94040000 		.4byte	.LVL212
 7172 1473 BC040000 		.4byte	.LVL221
 7173 1477 0100     		.2byte	0x1
 7174 1479 57       		.byte	0x57
 7175 147a 34050000 		.4byte	.LVL248
 7176 147e 40050000 		.4byte	.LVL250
ARM GAS  /tmp/cce3BzsE.s 			page 127


 7177 1482 0100     		.2byte	0x1
 7178 1484 57       		.byte	0x57
 7179 1485 00000000 		.4byte	0
 7180 1489 00000000 		.4byte	0
 7181              	.LLST62:
 7182 148d 4C040000 		.4byte	.LVL199
 7183 1491 8A040000 		.4byte	.LVL210
 7184 1495 0100     		.2byte	0x1
 7185 1497 56       		.byte	0x56
 7186 1498 94040000 		.4byte	.LVL212
 7187 149c BC040000 		.4byte	.LVL221
 7188 14a0 0100     		.2byte	0x1
 7189 14a2 56       		.byte	0x56
 7190 14a3 34050000 		.4byte	.LVL248
 7191 14a7 40050000 		.4byte	.LVL250
 7192 14ab 0100     		.2byte	0x1
 7193 14ad 56       		.byte	0x56
 7194 14ae 00000000 		.4byte	0
 7195 14b2 00000000 		.4byte	0
 7196              	.LLST63:
 7197 14b6 5A040000 		.4byte	.LVL201
 7198 14ba 72040000 		.4byte	.LVL205
 7199 14be 0100     		.2byte	0x1
 7200 14c0 58       		.byte	0x58
 7201 14c1 94040000 		.4byte	.LVL212
 7202 14c5 A4040000 		.4byte	.LVL216
 7203 14c9 0100     		.2byte	0x1
 7204 14cb 58       		.byte	0x58
 7205 14cc 34050000 		.4byte	.LVL248
 7206 14d0 40050000 		.4byte	.LVL250
 7207 14d4 0100     		.2byte	0x1
 7208 14d6 58       		.byte	0x58
 7209 14d7 00000000 		.4byte	0
 7210 14db 00000000 		.4byte	0
 7211              	.LLST64:
 7212 14df 72040000 		.4byte	.LVL205
 7213 14e3 78040000 		.4byte	.LVL206
 7214 14e7 0100     		.2byte	0x1
 7215 14e9 55       		.byte	0x55
 7216 14ea 78040000 		.4byte	.LVL206
 7217 14ee 7D040000 		.4byte	.LVL208-1
 7218 14f2 0100     		.2byte	0x1
 7219 14f4 51       		.byte	0x51
 7220 14f5 82040000 		.4byte	.LVL209
 7221 14f9 8A040000 		.4byte	.LVL210
 7222 14fd 0100     		.2byte	0x1
 7223 14ff 51       		.byte	0x51
 7224 1500 B4040000 		.4byte	.LVL219
 7225 1504 BA040000 		.4byte	.LVL220
 7226 1508 0100     		.2byte	0x1
 7227 150a 55       		.byte	0x55
 7228 150b 00000000 		.4byte	0
 7229 150f 00000000 		.4byte	0
 7230              	.LLST65:
 7231 1513 5A040000 		.4byte	.LVL201
 7232 1517 64040000 		.4byte	.LVL202
 7233 151b 0300     		.2byte	0x3
ARM GAS  /tmp/cce3BzsE.s 			page 128


 7234 151d 91       		.byte	0x91
 7235 151e 4D       		.sleb128 -51
 7236 151f 9F       		.byte	0x9f
 7237 1520 64040000 		.4byte	.LVL202
 7238 1524 68040000 		.4byte	.LVL203
 7239 1528 0300     		.2byte	0x3
 7240 152a 73       		.byte	0x73
 7241 152b 01       		.sleb128 1
 7242 152c 9F       		.byte	0x9f
 7243 152d 68040000 		.4byte	.LVL203
 7244 1531 6E040000 		.4byte	.LVL204
 7245 1535 0300     		.2byte	0x3
 7246 1537 73       		.byte	0x73
 7247 1538 02       		.sleb128 2
 7248 1539 9F       		.byte	0x9f
 7249 153a 94040000 		.4byte	.LVL212
 7250 153e 96040000 		.4byte	.LVL213
 7251 1542 0300     		.2byte	0x3
 7252 1544 73       		.byte	0x73
 7253 1545 02       		.sleb128 2
 7254 1546 9F       		.byte	0x9f
 7255 1547 34050000 		.4byte	.LVL248
 7256 154b 40050000 		.4byte	.LVL250
 7257 154f 0300     		.2byte	0x3
 7258 1551 91       		.byte	0x91
 7259 1552 4D       		.sleb128 -51
 7260 1553 9F       		.byte	0x9f
 7261 1554 00000000 		.4byte	0
 7262 1558 00000000 		.4byte	0
 7263              	.LLST66:
 7264 155c 00000000 		.4byte	.LVL260
 7265 1560 1A000000 		.4byte	.LVL261
 7266 1564 0100     		.2byte	0x1
 7267 1566 50       		.byte	0x50
 7268 1567 1A000000 		.4byte	.LVL261
 7269 156b 28000000 		.4byte	.LVL264
 7270 156f 0100     		.2byte	0x1
 7271 1571 55       		.byte	0x55
 7272 1572 28000000 		.4byte	.LVL264
 7273 1576 2C000000 		.4byte	.LVL266
 7274 157a 0300     		.2byte	0x3
 7275 157c 75       		.byte	0x75
 7276 157d 01       		.sleb128 1
 7277 157e 9F       		.byte	0x9f
 7278 157f 2C000000 		.4byte	.LVL266
 7279 1583 30000000 		.4byte	.LVL267
 7280 1587 0100     		.2byte	0x1
 7281 1589 55       		.byte	0x55
 7282 158a 30000000 		.4byte	.LVL267
 7283 158e 36000000 		.4byte	.LVL268
 7284 1592 0300     		.2byte	0x3
 7285 1594 75       		.byte	0x75
 7286 1595 01       		.sleb128 1
 7287 1596 9F       		.byte	0x9f
 7288 1597 48000000 		.4byte	.LVL269
 7289 159b C6000000 		.4byte	.LVL288
 7290 159f 0100     		.2byte	0x1
ARM GAS  /tmp/cce3BzsE.s 			page 129


 7291 15a1 55       		.byte	0x55
 7292 15a2 C6000000 		.4byte	.LVL288
 7293 15a6 CC000000 		.4byte	.LVL289
 7294 15aa 0100     		.2byte	0x1
 7295 15ac 52       		.byte	0x52
 7296 15ad CC000000 		.4byte	.LVL289
 7297 15b1 28010000 		.4byte	.LVL310
 7298 15b5 0100     		.2byte	0x1
 7299 15b7 59       		.byte	0x59
 7300 15b8 28010000 		.4byte	.LVL310
 7301 15bc BA010000 		.4byte	.LVL333
 7302 15c0 0100     		.2byte	0x1
 7303 15c2 55       		.byte	0x55
 7304 15c3 BA010000 		.4byte	.LVL333
 7305 15c7 C2010000 		.4byte	.LVL336
 7306 15cb 0300     		.2byte	0x3
 7307 15cd 75       		.byte	0x75
 7308 15ce 01       		.sleb128 1
 7309 15cf 9F       		.byte	0x9f
 7310 15d0 C2010000 		.4byte	.LVL336
 7311 15d4 20020000 		.4byte	.LVL356
 7312 15d8 0100     		.2byte	0x1
 7313 15da 55       		.byte	0x55
 7314 15db 20020000 		.4byte	.LVL356
 7315 15df 26020000 		.4byte	.LVL357
 7316 15e3 0100     		.2byte	0x1
 7317 15e5 52       		.byte	0x52
 7318 15e6 26020000 		.4byte	.LVL357
 7319 15ea 6A020000 		.4byte	.LVL372
 7320 15ee 0100     		.2byte	0x1
 7321 15f0 59       		.byte	0x59
 7322 15f1 6A020000 		.4byte	.LVL372
 7323 15f5 18030000 		.4byte	.LVL408
 7324 15f9 0100     		.2byte	0x1
 7325 15fb 55       		.byte	0x55
 7326 15fc 18030000 		.4byte	.LVL408
 7327 1600 58030000 		.4byte	.LVL419
 7328 1604 0100     		.2byte	0x1
 7329 1606 59       		.byte	0x59
 7330 1607 58030000 		.4byte	.LVL419
 7331 160b 5E030000 		.4byte	.LVL420
 7332 160f 0300     		.2byte	0x3
 7333 1611 75       		.byte	0x75
 7334 1612 01       		.sleb128 1
 7335 1613 9F       		.byte	0x9f
 7336 1614 5E030000 		.4byte	.LVL420
 7337 1618 60030000 		.4byte	.LVL421
 7338 161c 0100     		.2byte	0x1
 7339 161e 55       		.byte	0x55
 7340 161f 60030000 		.4byte	.LVL421
 7341 1623 66030000 		.4byte	.LVL423
 7342 1627 0100     		.2byte	0x1
 7343 1629 59       		.byte	0x59
 7344 162a 66030000 		.4byte	.LVL423
 7345 162e BA030000 		.4byte	.LVL442
 7346 1632 0100     		.2byte	0x1
 7347 1634 55       		.byte	0x55
ARM GAS  /tmp/cce3BzsE.s 			page 130


 7348 1635 BA030000 		.4byte	.LVL442
 7349 1639 F6030000 		.4byte	.LVL453
 7350 163d 0100     		.2byte	0x1
 7351 163f 59       		.byte	0x59
 7352 1640 F6030000 		.4byte	.LVL453
 7353 1644 0C040000 		.4byte	.LVL455
 7354 1648 0100     		.2byte	0x1
 7355 164a 55       		.byte	0x55
 7356 164b 0C040000 		.4byte	.LVL455
 7357 164f 22040000 		.4byte	.LVL459
 7358 1653 0100     		.2byte	0x1
 7359 1655 59       		.byte	0x59
 7360 1656 22040000 		.4byte	.LVL459
 7361 165a 70040000 		.4byte	.LVL475
 7362 165e 0100     		.2byte	0x1
 7363 1660 55       		.byte	0x55
 7364 1661 70040000 		.4byte	.LVL475
 7365 1665 7A040000 		.4byte	.LVL477
 7366 1669 0100     		.2byte	0x1
 7367 166b 59       		.byte	0x59
 7368 166c 7A040000 		.4byte	.LVL477
 7369 1670 CC040000 		.4byte	.LVL489
 7370 1674 0100     		.2byte	0x1
 7371 1676 55       		.byte	0x55
 7372 1677 CC040000 		.4byte	.LVL489
 7373 167b D2040000 		.4byte	.LVL491
 7374 167f 0100     		.2byte	0x1
 7375 1681 59       		.byte	0x59
 7376 1682 D2040000 		.4byte	.LVL491
 7377 1686 E0040000 		.4byte	.LVL495
 7378 168a 0100     		.2byte	0x1
 7379 168c 55       		.byte	0x55
 7380 168d E0040000 		.4byte	.LVL495
 7381 1691 E8040000 		.4byte	.LVL497
 7382 1695 0100     		.2byte	0x1
 7383 1697 59       		.byte	0x59
 7384 1698 E8040000 		.4byte	.LVL497
 7385 169c 18050000 		.4byte	.LFE55
 7386 16a0 0100     		.2byte	0x1
 7387 16a2 55       		.byte	0x55
 7388 16a3 00000000 		.4byte	0
 7389 16a7 00000000 		.4byte	0
 7390              	.LLST67:
 7391 16ab 1A000000 		.4byte	.LVL261
 7392 16af 8A000000 		.4byte	.LVL276
 7393 16b3 0300     		.2byte	0x3
 7394 16b5 52       		.byte	0x52
 7395 16b6 93       		.byte	0x93
 7396 16b7 04       		.uleb128 0x4
 7397 16b8 8A000000 		.4byte	.LVL276
 7398 16bc 8C000000 		.4byte	.LVL277
 7399 16c0 0300     		.2byte	0x3
 7400 16c2 53       		.byte	0x53
 7401 16c3 93       		.byte	0x93
 7402 16c4 04       		.uleb128 0x4
 7403 16c5 8C000000 		.4byte	.LVL277
 7404 16c9 64010000 		.4byte	.LVL322
ARM GAS  /tmp/cce3BzsE.s 			page 131


 7405 16cd 0500     		.2byte	0x5
 7406 16cf 91       		.byte	0x91
 7407 16d0 A47F     		.sleb128 -92
 7408 16d2 93       		.byte	0x93
 7409 16d3 04       		.uleb128 0x4
 7410 16d4 68010000 		.4byte	.LVL323
 7411 16d8 BA010000 		.4byte	.LVL333
 7412 16dc 0300     		.2byte	0x3
 7413 16de 52       		.byte	0x52
 7414 16df 93       		.byte	0x93
 7415 16e0 04       		.uleb128 0x4
 7416 16e1 BA010000 		.4byte	.LVL333
 7417 16e5 BE010000 		.4byte	.LVL334
 7418 16e9 0500     		.2byte	0x5
 7419 16eb 72       		.byte	0x72
 7420 16ec 04       		.sleb128 4
 7421 16ed 9F       		.byte	0x9f
 7422 16ee 93       		.byte	0x93
 7423 16ef 04       		.uleb128 0x4
 7424 16f0 BE010000 		.4byte	.LVL334
 7425 16f4 DA010000 		.4byte	.LVL342
 7426 16f8 0300     		.2byte	0x3
 7427 16fa 52       		.byte	0x52
 7428 16fb 93       		.byte	0x93
 7429 16fc 04       		.uleb128 0x4
 7430 16fd DA010000 		.4byte	.LVL342
 7431 1701 DC010000 		.4byte	.LVL343
 7432 1705 0300     		.2byte	0x3
 7433 1707 53       		.byte	0x53
 7434 1708 93       		.byte	0x93
 7435 1709 04       		.uleb128 0x4
 7436 170a DC010000 		.4byte	.LVL343
 7437 170e 6A020000 		.4byte	.LVL372
 7438 1712 0500     		.2byte	0x5
 7439 1714 91       		.byte	0x91
 7440 1715 A47F     		.sleb128 -92
 7441 1717 93       		.byte	0x93
 7442 1718 04       		.uleb128 0x4
 7443 1719 6A020000 		.4byte	.LVL372
 7444 171d 6E020000 		.4byte	.LVL373
 7445 1721 0300     		.2byte	0x3
 7446 1723 52       		.byte	0x52
 7447 1724 93       		.byte	0x93
 7448 1725 04       		.uleb128 0x4
 7449 1726 6E020000 		.4byte	.LVL373
 7450 172a 70020000 		.4byte	.LVL374
 7451 172e 0300     		.2byte	0x3
 7452 1730 53       		.byte	0x53
 7453 1731 93       		.byte	0x93
 7454 1732 04       		.uleb128 0x4
 7455 1733 70020000 		.4byte	.LVL374
 7456 1737 CA020000 		.4byte	.LVL392
 7457 173b 0300     		.2byte	0x3
 7458 173d 58       		.byte	0x58
 7459 173e 93       		.byte	0x93
 7460 173f 04       		.uleb128 0x4
 7461 1740 CA020000 		.4byte	.LVL392
ARM GAS  /tmp/cce3BzsE.s 			page 132


 7462 1744 D4020000 		.4byte	.LVL393
 7463 1748 0300     		.2byte	0x3
 7464 174a 52       		.byte	0x52
 7465 174b 93       		.byte	0x93
 7466 174c 04       		.uleb128 0x4
 7467 174d D4020000 		.4byte	.LVL393
 7468 1751 D6020000 		.4byte	.LVL394
 7469 1755 0300     		.2byte	0x3
 7470 1757 53       		.byte	0x53
 7471 1758 93       		.byte	0x93
 7472 1759 04       		.uleb128 0x4
 7473 175a D6020000 		.4byte	.LVL394
 7474 175e 58030000 		.4byte	.LVL419
 7475 1762 0500     		.2byte	0x5
 7476 1764 91       		.byte	0x91
 7477 1765 A47F     		.sleb128 -92
 7478 1767 93       		.byte	0x93
 7479 1768 04       		.uleb128 0x4
 7480 1769 58030000 		.4byte	.LVL419
 7481 176d 60030000 		.4byte	.LVL421
 7482 1771 0300     		.2byte	0x3
 7483 1773 52       		.byte	0x52
 7484 1774 93       		.byte	0x93
 7485 1775 04       		.uleb128 0x4
 7486 1776 60030000 		.4byte	.LVL421
 7487 177a A4030000 		.4byte	.LVL436
 7488 177e 0500     		.2byte	0x5
 7489 1780 91       		.byte	0x91
 7490 1781 A47F     		.sleb128 -92
 7491 1783 93       		.byte	0x93
 7492 1784 04       		.uleb128 0x4
 7493 1785 A6030000 		.4byte	.LVL437
 7494 1789 32040000 		.4byte	.LVL463
 7495 178d 0500     		.2byte	0x5
 7496 178f 91       		.byte	0x91
 7497 1790 A47F     		.sleb128 -92
 7498 1792 93       		.byte	0x93
 7499 1793 04       		.uleb128 0x4
 7500 1794 70040000 		.4byte	.LVL475
 7501 1798 7A040000 		.4byte	.LVL477
 7502 179c 0500     		.2byte	0x5
 7503 179e 91       		.byte	0x91
 7504 179f A47F     		.sleb128 -92
 7505 17a1 93       		.byte	0x93
 7506 17a2 04       		.uleb128 0x4
 7507 17a3 94040000 		.4byte	.LVL481
 7508 17a7 E8040000 		.4byte	.LVL497
 7509 17ab 0500     		.2byte	0x5
 7510 17ad 91       		.byte	0x91
 7511 17ae A47F     		.sleb128 -92
 7512 17b0 93       		.byte	0x93
 7513 17b1 04       		.uleb128 0x4
 7514 17b2 08050000 		.4byte	.LVL503
 7515 17b6 0C050000 		.4byte	.LVL504
 7516 17ba 0500     		.2byte	0x5
 7517 17bc 91       		.byte	0x91
 7518 17bd A47F     		.sleb128 -92
ARM GAS  /tmp/cce3BzsE.s 			page 133


 7519 17bf 93       		.byte	0x93
 7520 17c0 04       		.uleb128 0x4
 7521 17c1 0C050000 		.4byte	.LVL504
 7522 17c5 18050000 		.4byte	.LFE55
 7523 17c9 0300     		.2byte	0x3
 7524 17cb 58       		.byte	0x58
 7525 17cc 93       		.byte	0x93
 7526 17cd 04       		.uleb128 0x4
 7527 17ce 00000000 		.4byte	0
 7528 17d2 00000000 		.4byte	0
 7529              	.LLST68:
 7530 17d6 1A000000 		.4byte	.LVL261
 7531 17da 20000000 		.4byte	.LVL263
 7532 17de 0300     		.2byte	0x3
 7533 17e0 77       		.byte	0x77
 7534 17e1 01       		.sleb128 1
 7535 17e2 9F       		.byte	0x9f
 7536 17e3 2C000000 		.4byte	.LVL266
 7537 17e7 30000000 		.4byte	.LVL267
 7538 17eb 0300     		.2byte	0x3
 7539 17ed 77       		.byte	0x77
 7540 17ee 01       		.sleb128 1
 7541 17ef 9F       		.byte	0x9f
 7542 17f0 48000000 		.4byte	.LVL269
 7543 17f4 56000000 		.4byte	.LVL273
 7544 17f8 0300     		.2byte	0x3
 7545 17fa 77       		.byte	0x77
 7546 17fb 02       		.sleb128 2
 7547 17fc 9F       		.byte	0x9f
 7548 17fd 56000000 		.4byte	.LVL273
 7549 1801 C2000000 		.4byte	.LVL287
 7550 1805 0100     		.2byte	0x1
 7551 1807 57       		.byte	0x57
 7552 1808 C2000000 		.4byte	.LVL287
 7553 180c CC000000 		.4byte	.LVL289
 7554 1810 0200     		.2byte	0x2
 7555 1812 91       		.byte	0x91
 7556 1813 5C       		.sleb128 -36
 7557 1814 CC000000 		.4byte	.LVL289
 7558 1818 28010000 		.4byte	.LVL310
 7559 181c 0100     		.2byte	0x1
 7560 181e 5A       		.byte	0x5a
 7561 181f 28010000 		.4byte	.LVL310
 7562 1823 80010000 		.4byte	.LVL325
 7563 1827 0100     		.2byte	0x1
 7564 1829 57       		.byte	0x57
 7565 182a B2010000 		.4byte	.LVL332
 7566 182e BA010000 		.4byte	.LVL333
 7567 1832 0100     		.2byte	0x1
 7568 1834 50       		.byte	0x50
 7569 1835 BA010000 		.4byte	.LVL333
 7570 1839 C4010000 		.4byte	.LVL337
 7571 183d 0100     		.2byte	0x1
 7572 183f 57       		.byte	0x57
 7573 1840 C4010000 		.4byte	.LVL337
 7574 1844 C8010000 		.4byte	.LVL339
 7575 1848 0300     		.2byte	0x3
ARM GAS  /tmp/cce3BzsE.s 			page 134


 7576 184a 77       		.byte	0x77
 7577 184b 03       		.sleb128 3
 7578 184c 9F       		.byte	0x9f
 7579 184d C8010000 		.4byte	.LVL339
 7580 1851 1C020000 		.4byte	.LVL355
 7581 1855 0100     		.2byte	0x1
 7582 1857 57       		.byte	0x57
 7583 1858 1C020000 		.4byte	.LVL355
 7584 185c 26020000 		.4byte	.LVL357
 7585 1860 0200     		.2byte	0x2
 7586 1862 91       		.byte	0x91
 7587 1863 5C       		.sleb128 -36
 7588 1864 26020000 		.4byte	.LVL357
 7589 1868 6A020000 		.4byte	.LVL372
 7590 186c 0100     		.2byte	0x1
 7591 186e 5A       		.byte	0x5a
 7592 186f 6A020000 		.4byte	.LVL372
 7593 1873 10030000 		.4byte	.LVL406
 7594 1877 0100     		.2byte	0x1
 7595 1879 57       		.byte	0x57
 7596 187a 10030000 		.4byte	.LVL406
 7597 187e 1A030000 		.4byte	.LVL409
 7598 1882 0200     		.2byte	0x2
 7599 1884 91       		.byte	0x91
 7600 1885 5C       		.sleb128 -36
 7601 1886 1A030000 		.4byte	.LVL409
 7602 188a 58030000 		.4byte	.LVL419
 7603 188e 0100     		.2byte	0x1
 7604 1890 5B       		.byte	0x5b
 7605 1891 58030000 		.4byte	.LVL419
 7606 1895 60030000 		.4byte	.LVL421
 7607 1899 0100     		.2byte	0x1
 7608 189b 57       		.byte	0x57
 7609 189c 60030000 		.4byte	.LVL421
 7610 18a0 66030000 		.4byte	.LVL423
 7611 18a4 0100     		.2byte	0x1
 7612 18a6 5A       		.byte	0x5a
 7613 18a7 66030000 		.4byte	.LVL423
 7614 18ab B2030000 		.4byte	.LVL440
 7615 18af 0100     		.2byte	0x1
 7616 18b1 57       		.byte	0x57
 7617 18b2 B2030000 		.4byte	.LVL440
 7618 18b6 BC030000 		.4byte	.LVL443
 7619 18ba 0200     		.2byte	0x2
 7620 18bc 91       		.byte	0x91
 7621 18bd 5C       		.sleb128 -36
 7622 18be BC030000 		.4byte	.LVL443
 7623 18c2 F6030000 		.4byte	.LVL453
 7624 18c6 0100     		.2byte	0x1
 7625 18c8 5B       		.byte	0x5b
 7626 18c9 F6030000 		.4byte	.LVL453
 7627 18cd 0C040000 		.4byte	.LVL455
 7628 18d1 0100     		.2byte	0x1
 7629 18d3 57       		.byte	0x57
 7630 18d4 0C040000 		.4byte	.LVL455
 7631 18d8 1A040000 		.4byte	.LVL458
 7632 18dc 0100     		.2byte	0x1
ARM GAS  /tmp/cce3BzsE.s 			page 135


 7633 18de 5A       		.byte	0x5a
 7634 18df 1A040000 		.4byte	.LVL458
 7635 18e3 32040000 		.4byte	.LVL463
 7636 18e7 0100     		.2byte	0x1
 7637 18e9 5B       		.byte	0x5b
 7638 18ea 32040000 		.4byte	.LVL463
 7639 18ee 70040000 		.4byte	.LVL475
 7640 18f2 0100     		.2byte	0x1
 7641 18f4 57       		.byte	0x57
 7642 18f5 70040000 		.4byte	.LVL475
 7643 18f9 7A040000 		.4byte	.LVL477
 7644 18fd 0100     		.2byte	0x1
 7645 18ff 5B       		.byte	0x5b
 7646 1900 7A040000 		.4byte	.LVL477
 7647 1904 CC040000 		.4byte	.LVL489
 7648 1908 0100     		.2byte	0x1
 7649 190a 57       		.byte	0x57
 7650 190b CC040000 		.4byte	.LVL489
 7651 190f D2040000 		.4byte	.LVL491
 7652 1913 0100     		.2byte	0x1
 7653 1915 5B       		.byte	0x5b
 7654 1916 D2040000 		.4byte	.LVL491
 7655 191a E0040000 		.4byte	.LVL495
 7656 191e 0100     		.2byte	0x1
 7657 1920 57       		.byte	0x57
 7658 1921 E0040000 		.4byte	.LVL495
 7659 1925 E8040000 		.4byte	.LVL497
 7660 1929 0100     		.2byte	0x1
 7661 192b 5B       		.byte	0x5b
 7662 192c E8040000 		.4byte	.LVL497
 7663 1930 18050000 		.4byte	.LFE55
 7664 1934 0100     		.2byte	0x1
 7665 1936 57       		.byte	0x57
 7666 1937 00000000 		.4byte	0
 7667 193b 00000000 		.4byte	0
 7668              	.LLST69:
 7669 193f 1C000000 		.4byte	.LVL262
 7670 1943 2A000000 		.4byte	.LVL265
 7671 1947 0100     		.2byte	0x1
 7672 1949 53       		.byte	0x53
 7673 194a 2A000000 		.4byte	.LVL265
 7674 194e 2C000000 		.4byte	.LVL266
 7675 1952 0200     		.2byte	0x2
 7676 1954 75       		.byte	0x75
 7677 1955 00       		.sleb128 0
 7678 1956 2C000000 		.4byte	.LVL266
 7679 195a 30000000 		.4byte	.LVL267
 7680 195e 0100     		.2byte	0x1
 7681 1960 53       		.byte	0x53
 7682 1961 48000000 		.4byte	.LVL269
 7683 1965 4A000000 		.4byte	.LVL270
 7684 1969 0100     		.2byte	0x1
 7685 196b 53       		.byte	0x53
 7686 196c 4C000000 		.4byte	.LVL271
 7687 1970 54000000 		.4byte	.LVL272
 7688 1974 0100     		.2byte	0x1
 7689 1976 53       		.byte	0x53
ARM GAS  /tmp/cce3BzsE.s 			page 136


 7690 1977 54000000 		.4byte	.LVL272
 7691 197b 90000000 		.4byte	.LVL278
 7692 197f 0100     		.2byte	0x1
 7693 1981 59       		.byte	0x59
 7694 1982 68010000 		.4byte	.LVL323
 7695 1986 C4010000 		.4byte	.LVL337
 7696 198a 0100     		.2byte	0x1
 7697 198c 59       		.byte	0x59
 7698 198d C4010000 		.4byte	.LVL337
 7699 1991 C6010000 		.4byte	.LVL338
 7700 1995 0100     		.2byte	0x1
 7701 1997 53       		.byte	0x53
 7702 1998 C6010000 		.4byte	.LVL338
 7703 199c EE010000 		.4byte	.LVL347
 7704 19a0 0100     		.2byte	0x1
 7705 19a2 59       		.byte	0x59
 7706 19a3 6A020000 		.4byte	.LVL372
 7707 19a7 72020000 		.4byte	.LVL375
 7708 19ab 0100     		.2byte	0x1
 7709 19ad 59       		.byte	0x59
 7710 19ae CA020000 		.4byte	.LVL392
 7711 19b2 14030000 		.4byte	.LVL407
 7712 19b6 0100     		.2byte	0x1
 7713 19b8 59       		.byte	0x59
 7714 19b9 58030000 		.4byte	.LVL419
 7715 19bd 60030000 		.4byte	.LVL421
 7716 19c1 0100     		.2byte	0x1
 7717 19c3 59       		.byte	0x59
 7718 19c4 A6030000 		.4byte	.LVL437
 7719 19c8 B6030000 		.4byte	.LVL441
 7720 19cc 0100     		.2byte	0x1
 7721 19ce 59       		.byte	0x59
 7722 19cf F6030000 		.4byte	.LVL453
 7723 19d3 0C040000 		.4byte	.LVL455
 7724 19d7 0100     		.2byte	0x1
 7725 19d9 59       		.byte	0x59
 7726 19da DA040000 		.4byte	.LVL493
 7727 19de E0040000 		.4byte	.LVL495
 7728 19e2 0100     		.2byte	0x1
 7729 19e4 59       		.byte	0x59
 7730 19e5 00000000 		.4byte	0
 7731 19e9 00000000 		.4byte	0
 7732              	.LLST70:
 7733 19ed 28000000 		.4byte	.LVL264
 7734 19f1 2C000000 		.4byte	.LVL266
 7735 19f5 0200     		.2byte	0x2
 7736 19f7 75       		.byte	0x75
 7737 19f8 00       		.sleb128 0
 7738 19f9 2C000000 		.4byte	.LVL266
 7739 19fd 30000000 		.4byte	.LVL267
 7740 1a01 0200     		.2byte	0x2
 7741 1a03 75       		.byte	0x75
 7742 1a04 7F       		.sleb128 -1
 7743 1a05 00000000 		.4byte	0
 7744 1a09 00000000 		.4byte	0
 7745              	.LLST71:
 7746 1a0d 28000000 		.4byte	.LVL264
ARM GAS  /tmp/cce3BzsE.s 			page 137


 7747 1a11 30000000 		.4byte	.LVL267
 7748 1a15 0600     		.2byte	0x6
 7749 1a17 F2       		.byte	0xf2
 7750 1a18 8D070000 		.4byte	.Ldebug_info0+1933
 7751 1a1c 00       		.sleb128 0
 7752 1a1d 00000000 		.4byte	0
 7753 1a21 00000000 		.4byte	0
 7754              	.LLST72:
 7755 1a25 48000000 		.4byte	.LVL269
 7756 1a29 58000000 		.4byte	.LVL274
 7757 1a2d 0200     		.2byte	0x2
 7758 1a2f 30       		.byte	0x30
 7759 1a30 9F       		.byte	0x9f
 7760 1a31 58000000 		.4byte	.LVL274
 7761 1a35 64010000 		.4byte	.LVL322
 7762 1a39 0300     		.2byte	0x3
 7763 1a3b 91       		.byte	0x91
 7764 1a3c 9C7F     		.sleb128 -100
 7765 1a3e 68010000 		.4byte	.LVL323
 7766 1a42 C4010000 		.4byte	.LVL337
 7767 1a46 0300     		.2byte	0x3
 7768 1a48 91       		.byte	0x91
 7769 1a49 9C7F     		.sleb128 -100
 7770 1a4b C4010000 		.4byte	.LVL337
 7771 1a4f CA010000 		.4byte	.LVL340
 7772 1a53 0200     		.2byte	0x2
 7773 1a55 30       		.byte	0x30
 7774 1a56 9F       		.byte	0x9f
 7775 1a57 CA010000 		.4byte	.LVL340
 7776 1a5b D0010000 		.4byte	.LVL341
 7777 1a5f 0200     		.2byte	0x2
 7778 1a61 31       		.byte	0x31
 7779 1a62 9F       		.byte	0x9f
 7780 1a63 D0010000 		.4byte	.LVL341
 7781 1a67 32040000 		.4byte	.LVL463
 7782 1a6b 0300     		.2byte	0x3
 7783 1a6d 91       		.byte	0x91
 7784 1a6e 9C7F     		.sleb128 -100
 7785 1a70 70040000 		.4byte	.LVL475
 7786 1a74 7A040000 		.4byte	.LVL477
 7787 1a78 0300     		.2byte	0x3
 7788 1a7a 91       		.byte	0x91
 7789 1a7b 9C7F     		.sleb128 -100
 7790 1a7d 94040000 		.4byte	.LVL481
 7791 1a81 E8040000 		.4byte	.LVL497
 7792 1a85 0300     		.2byte	0x3
 7793 1a87 91       		.byte	0x91
 7794 1a88 9C7F     		.sleb128 -100
 7795 1a8a 08050000 		.4byte	.LVL503
 7796 1a8e 18050000 		.4byte	.LFE55
 7797 1a92 0300     		.2byte	0x3
 7798 1a94 91       		.byte	0x91
 7799 1a95 9C7F     		.sleb128 -100
 7800 1a97 00000000 		.4byte	0
 7801 1a9b 00000000 		.4byte	0
 7802              	.LLST73:
 7803 1a9f 48000000 		.4byte	.LVL269
ARM GAS  /tmp/cce3BzsE.s 			page 138


 7804 1aa3 66000000 		.4byte	.LVL275
 7805 1aa7 0200     		.2byte	0x2
 7806 1aa9 30       		.byte	0x30
 7807 1aaa 9F       		.byte	0x9f
 7808 1aab 66000000 		.4byte	.LVL275
 7809 1aaf 98000000 		.4byte	.LVL279
 7810 1ab3 0100     		.2byte	0x1
 7811 1ab5 54       		.byte	0x54
 7812 1ab6 98000000 		.4byte	.LVL279
 7813 1aba B4000000 		.4byte	.LVL284
 7814 1abe 0100     		.2byte	0x1
 7815 1ac0 58       		.byte	0x58
 7816 1ac1 B4000000 		.4byte	.LVL284
 7817 1ac5 CC000000 		.4byte	.LVL289
 7818 1ac9 0100     		.2byte	0x1
 7819 1acb 54       		.byte	0x54
 7820 1acc CC000000 		.4byte	.LVL289
 7821 1ad0 28010000 		.4byte	.LVL310
 7822 1ad4 0100     		.2byte	0x1
 7823 1ad6 58       		.byte	0x58
 7824 1ad7 28010000 		.4byte	.LVL310
 7825 1adb 40010000 		.4byte	.LVL314
 7826 1adf 0100     		.2byte	0x1
 7827 1ae1 54       		.byte	0x54
 7828 1ae2 40010000 		.4byte	.LVL314
 7829 1ae6 64010000 		.4byte	.LVL322
 7830 1aea 0100     		.2byte	0x1
 7831 1aec 58       		.byte	0x58
 7832 1aed 68010000 		.4byte	.LVL323
 7833 1af1 7C010000 		.4byte	.LVL324
 7834 1af5 0100     		.2byte	0x1
 7835 1af7 54       		.byte	0x54
 7836 1af8 7C010000 		.4byte	.LVL324
 7837 1afc B2010000 		.4byte	.LVL332
 7838 1b00 0200     		.2byte	0x2
 7839 1b02 30       		.byte	0x30
 7840 1b03 9F       		.byte	0x9f
 7841 1b04 B2010000 		.4byte	.LVL332
 7842 1b08 C4010000 		.4byte	.LVL337
 7843 1b0c 0100     		.2byte	0x1
 7844 1b0e 54       		.byte	0x54
 7845 1b0f C4010000 		.4byte	.LVL337
 7846 1b13 D0010000 		.4byte	.LVL341
 7847 1b17 0200     		.2byte	0x2
 7848 1b19 30       		.byte	0x30
 7849 1b1a 9F       		.byte	0x9f
 7850 1b1b D0010000 		.4byte	.LVL341
 7851 1b1f F8010000 		.4byte	.LVL348
 7852 1b23 0100     		.2byte	0x1
 7853 1b25 54       		.byte	0x54
 7854 1b26 F8010000 		.4byte	.LVL348
 7855 1b2a FA010000 		.4byte	.LVL349
 7856 1b2e 0100     		.2byte	0x1
 7857 1b30 53       		.byte	0x53
 7858 1b31 FA010000 		.4byte	.LVL349
 7859 1b35 14020000 		.4byte	.LVL354
 7860 1b39 0100     		.2byte	0x1
ARM GAS  /tmp/cce3BzsE.s 			page 139


 7861 1b3b 58       		.byte	0x58
 7862 1b3c 14020000 		.4byte	.LVL354
 7863 1b40 26020000 		.4byte	.LVL357
 7864 1b44 0100     		.2byte	0x1
 7865 1b46 54       		.byte	0x54
 7866 1b47 26020000 		.4byte	.LVL357
 7867 1b4b 6A020000 		.4byte	.LVL372
 7868 1b4f 0100     		.2byte	0x1
 7869 1b51 58       		.byte	0x58
 7870 1b52 6A020000 		.4byte	.LVL372
 7871 1b56 84020000 		.4byte	.LVL378
 7872 1b5a 0100     		.2byte	0x1
 7873 1b5c 54       		.byte	0x54
 7874 1b5d CA020000 		.4byte	.LVL392
 7875 1b61 E2020000 		.4byte	.LVL397
 7876 1b65 0100     		.2byte	0x1
 7877 1b67 54       		.byte	0x54
 7878 1b68 E2020000 		.4byte	.LVL397
 7879 1b6c E4020000 		.4byte	.LVL398
 7880 1b70 0100     		.2byte	0x1
 7881 1b72 53       		.byte	0x53
 7882 1b73 E4020000 		.4byte	.LVL398
 7883 1b77 F6020000 		.4byte	.LVL401
 7884 1b7b 0100     		.2byte	0x1
 7885 1b7d 58       		.byte	0x58
 7886 1b7e F6020000 		.4byte	.LVL401
 7887 1b82 FE020000 		.4byte	.LVL403
 7888 1b86 0100     		.2byte	0x1
 7889 1b88 53       		.byte	0x53
 7890 1b89 FE020000 		.4byte	.LVL403
 7891 1b8d 1A030000 		.4byte	.LVL409
 7892 1b91 0100     		.2byte	0x1
 7893 1b93 54       		.byte	0x54
 7894 1b94 1A030000 		.4byte	.LVL409
 7895 1b98 58030000 		.4byte	.LVL419
 7896 1b9c 0100     		.2byte	0x1
 7897 1b9e 58       		.byte	0x58
 7898 1b9f 58030000 		.4byte	.LVL419
 7899 1ba3 60030000 		.4byte	.LVL421
 7900 1ba7 0100     		.2byte	0x1
 7901 1ba9 54       		.byte	0x54
 7902 1baa 60030000 		.4byte	.LVL421
 7903 1bae 66030000 		.4byte	.LVL423
 7904 1bb2 0100     		.2byte	0x1
 7905 1bb4 58       		.byte	0x58
 7906 1bb5 66030000 		.4byte	.LVL423
 7907 1bb9 7E030000 		.4byte	.LVL427
 7908 1bbd 0100     		.2byte	0x1
 7909 1bbf 54       		.byte	0x54
 7910 1bc0 7E030000 		.4byte	.LVL427
 7911 1bc4 A6030000 		.4byte	.LVL437
 7912 1bc8 0100     		.2byte	0x1
 7913 1bca 58       		.byte	0x58
 7914 1bcb A6030000 		.4byte	.LVL437
 7915 1bcf BC030000 		.4byte	.LVL443
 7916 1bd3 0100     		.2byte	0x1
 7917 1bd5 54       		.byte	0x54
ARM GAS  /tmp/cce3BzsE.s 			page 140


 7918 1bd6 BC030000 		.4byte	.LVL443
 7919 1bda F6030000 		.4byte	.LVL453
 7920 1bde 0100     		.2byte	0x1
 7921 1be0 58       		.byte	0x58
 7922 1be1 F6030000 		.4byte	.LVL453
 7923 1be5 0C040000 		.4byte	.LVL455
 7924 1be9 0100     		.2byte	0x1
 7925 1beb 54       		.byte	0x54
 7926 1bec 0C040000 		.4byte	.LVL455
 7927 1bf0 32040000 		.4byte	.LVL463
 7928 1bf4 0100     		.2byte	0x1
 7929 1bf6 58       		.byte	0x58
 7930 1bf7 32040000 		.4byte	.LVL463
 7931 1bfb 4A040000 		.4byte	.LVL467
 7932 1bff 0100     		.2byte	0x1
 7933 1c01 54       		.byte	0x54
 7934 1c02 70040000 		.4byte	.LVL475
 7935 1c06 7A040000 		.4byte	.LVL477
 7936 1c0a 0100     		.2byte	0x1
 7937 1c0c 58       		.byte	0x58
 7938 1c0d 94040000 		.4byte	.LVL481
 7939 1c11 D2040000 		.4byte	.LVL491
 7940 1c15 0100     		.2byte	0x1
 7941 1c17 58       		.byte	0x58
 7942 1c18 D2040000 		.4byte	.LVL491
 7943 1c1c DA040000 		.4byte	.LVL493
 7944 1c20 0100     		.2byte	0x1
 7945 1c22 54       		.byte	0x54
 7946 1c23 DA040000 		.4byte	.LVL493
 7947 1c27 DC040000 		.4byte	.LVL494
 7948 1c2b 0100     		.2byte	0x1
 7949 1c2d 53       		.byte	0x53
 7950 1c2e DC040000 		.4byte	.LVL494
 7951 1c32 E0040000 		.4byte	.LVL495
 7952 1c36 0100     		.2byte	0x1
 7953 1c38 54       		.byte	0x54
 7954 1c39 E0040000 		.4byte	.LVL495
 7955 1c3d E8040000 		.4byte	.LVL497
 7956 1c41 0100     		.2byte	0x1
 7957 1c43 58       		.byte	0x58
 7958 1c44 E8040000 		.4byte	.LVL497
 7959 1c48 F8040000 		.4byte	.LVL500
 7960 1c4c 0100     		.2byte	0x1
 7961 1c4e 54       		.byte	0x54
 7962 1c4f 08050000 		.4byte	.LVL503
 7963 1c53 18050000 		.4byte	.LFE55
 7964 1c57 0100     		.2byte	0x1
 7965 1c59 54       		.byte	0x54
 7966 1c5a 00000000 		.4byte	0
 7967 1c5e 00000000 		.4byte	0
 7968              	.LLST74:
 7969 1c62 90000000 		.4byte	.LVL278
 7970 1c66 64010000 		.4byte	.LVL322
 7971 1c6a 0200     		.2byte	0x2
 7972 1c6c 3A       		.byte	0x3a
 7973 1c6d 9F       		.byte	0x9f
 7974 1c6e B0040000 		.4byte	.LVL485
ARM GAS  /tmp/cce3BzsE.s 			page 141


 7975 1c72 CC040000 		.4byte	.LVL489
 7976 1c76 0200     		.2byte	0x2
 7977 1c78 3A       		.byte	0x3a
 7978 1c79 9F       		.byte	0x9f
 7979 1c7a D2040000 		.4byte	.LVL491
 7980 1c7e DA040000 		.4byte	.LVL493
 7981 1c82 0200     		.2byte	0x2
 7982 1c84 3A       		.byte	0x3a
 7983 1c85 9F       		.byte	0x9f
 7984 1c86 00000000 		.4byte	0
 7985 1c8a 00000000 		.4byte	0
 7986              	.LLST75:
 7987 1c8e 90000000 		.4byte	.LVL278
 7988 1c92 64010000 		.4byte	.LVL322
 7989 1c96 0200     		.2byte	0x2
 7990 1c98 30       		.byte	0x30
 7991 1c99 9F       		.byte	0x9f
 7992 1c9a B0040000 		.4byte	.LVL485
 7993 1c9e CC040000 		.4byte	.LVL489
 7994 1ca2 0200     		.2byte	0x2
 7995 1ca4 30       		.byte	0x30
 7996 1ca5 9F       		.byte	0x9f
 7997 1ca6 D2040000 		.4byte	.LVL491
 7998 1caa DA040000 		.4byte	.LVL493
 7999 1cae 0200     		.2byte	0x2
 8000 1cb0 30       		.byte	0x30
 8001 1cb1 9F       		.byte	0x9f
 8002 1cb2 00000000 		.4byte	0
 8003 1cb6 00000000 		.4byte	0
 8004              	.LLST76:
 8005 1cba 90000000 		.4byte	.LVL278
 8006 1cbe B6000000 		.4byte	.LVL285
 8007 1cc2 0400     		.2byte	0x4
 8008 1cc4 91       		.byte	0x91
 8009 1cc5 AC7F     		.sleb128 -84
 8010 1cc7 9F       		.byte	0x9f
 8011 1cc8 B6000000 		.4byte	.LVL285
 8012 1ccc BC000000 		.4byte	.LVL286
 8013 1cd0 0100     		.2byte	0x1
 8014 1cd2 53       		.byte	0x53
 8015 1cd3 BC000000 		.4byte	.LVL286
 8016 1cd7 F6000000 		.4byte	.LVL300
 8017 1cdb 0100     		.2byte	0x1
 8018 1cdd 5B       		.byte	0x5b
 8019 1cde F6000000 		.4byte	.LVL300
 8020 1ce2 0C010000 		.4byte	.LVL304
 8021 1ce6 0100     		.2byte	0x1
 8022 1ce8 52       		.byte	0x52
 8023 1ce9 0C010000 		.4byte	.LVL304
 8024 1ced 12010000 		.4byte	.LVL305
 8025 1cf1 0100     		.2byte	0x1
 8026 1cf3 5B       		.byte	0x5b
 8027 1cf4 12010000 		.4byte	.LVL305
 8028 1cf8 40010000 		.4byte	.LVL314
 8029 1cfc 0100     		.2byte	0x1
 8030 1cfe 52       		.byte	0x52
 8031 1cff D2040000 		.4byte	.LVL491
ARM GAS  /tmp/cce3BzsE.s 			page 142


 8032 1d03 D4040000 		.4byte	.LVL492
 8033 1d07 0400     		.2byte	0x4
 8034 1d09 91       		.byte	0x91
 8035 1d0a AC7F     		.sleb128 -84
 8036 1d0c 9F       		.byte	0x9f
 8037 1d0d D4040000 		.4byte	.LVL492
 8038 1d11 DA040000 		.4byte	.LVL493
 8039 1d15 0100     		.2byte	0x1
 8040 1d17 53       		.byte	0x53
 8041 1d18 00000000 		.4byte	0
 8042 1d1c 00000000 		.4byte	0
 8043              	.LLST77:
 8044 1d20 90000000 		.4byte	.LVL278
 8045 1d24 98000000 		.4byte	.LVL279
 8046 1d28 0100     		.2byte	0x1
 8047 1d2a 53       		.byte	0x53
 8048 1d2b 98000000 		.4byte	.LVL279
 8049 1d2f AE000000 		.4byte	.LVL283
 8050 1d33 0100     		.2byte	0x1
 8051 1d35 54       		.byte	0x54
 8052 1d36 AE000000 		.4byte	.LVL283
 8053 1d3a CC000000 		.4byte	.LVL289
 8054 1d3e 0100     		.2byte	0x1
 8055 1d40 59       		.byte	0x59
 8056 1d41 CC000000 		.4byte	.LVL289
 8057 1d45 E2000000 		.4byte	.LVL294
 8058 1d49 0100     		.2byte	0x1
 8059 1d4b 55       		.byte	0x55
 8060 1d4c E2000000 		.4byte	.LVL294
 8061 1d50 E4000000 		.4byte	.LVL295
 8062 1d54 0100     		.2byte	0x1
 8063 1d56 51       		.byte	0x51
 8064 1d57 E4000000 		.4byte	.LVL295
 8065 1d5b 26010000 		.4byte	.LVL309
 8066 1d5f 0100     		.2byte	0x1
 8067 1d61 55       		.byte	0x55
 8068 1d62 D2040000 		.4byte	.LVL491
 8069 1d66 DA040000 		.4byte	.LVL493
 8070 1d6a 0100     		.2byte	0x1
 8071 1d6c 59       		.byte	0x59
 8072 1d6d 00000000 		.4byte	0
 8073 1d71 00000000 		.4byte	0
 8074              	.LLST78:
 8075 1d75 AE000000 		.4byte	.LVL283
 8076 1d79 CC000000 		.4byte	.LVL289
 8077 1d7d 0200     		.2byte	0x2
 8078 1d7f 30       		.byte	0x30
 8079 1d80 9F       		.byte	0x9f
 8080 1d81 CC000000 		.4byte	.LVL289
 8081 1d85 EE000000 		.4byte	.LVL298
 8082 1d89 0100     		.2byte	0x1
 8083 1d8b 57       		.byte	0x57
 8084 1d8c EE000000 		.4byte	.LVL298
 8085 1d90 F2000000 		.4byte	.LVL299
 8086 1d94 0200     		.2byte	0x2
 8087 1d96 30       		.byte	0x30
 8088 1d97 9F       		.byte	0x9f
ARM GAS  /tmp/cce3BzsE.s 			page 143


 8089 1d98 02010000 		.4byte	.LVL302
 8090 1d9c 08010000 		.4byte	.LVL303
 8091 1da0 0100     		.2byte	0x1
 8092 1da2 57       		.byte	0x57
 8093 1da3 0C010000 		.4byte	.LVL304
 8094 1da7 14010000 		.4byte	.LVL306
 8095 1dab 0200     		.2byte	0x2
 8096 1dad 30       		.byte	0x30
 8097 1dae 9F       		.byte	0x9f
 8098 1daf 1C010000 		.4byte	.LVL308
 8099 1db3 28010000 		.4byte	.LVL310
 8100 1db7 0100     		.2byte	0x1
 8101 1db9 57       		.byte	0x57
 8102 1dba D2040000 		.4byte	.LVL491
 8103 1dbe DA040000 		.4byte	.LVL493
 8104 1dc2 0200     		.2byte	0x2
 8105 1dc4 30       		.byte	0x30
 8106 1dc5 9F       		.byte	0x9f
 8107 1dc6 00000000 		.4byte	0
 8108 1dca 00000000 		.4byte	0
 8109              	.LLST79:
 8110 1dce 90000000 		.4byte	.LVL278
 8111 1dd2 98000000 		.4byte	.LVL279
 8112 1dd6 0200     		.2byte	0x2
 8113 1dd8 31       		.byte	0x31
 8114 1dd9 9F       		.byte	0x9f
 8115 1dda 98000000 		.4byte	.LVL279
 8116 1dde 9C000000 		.4byte	.LVL280
 8117 1de2 0100     		.2byte	0x1
 8118 1de4 56       		.byte	0x56
 8119 1de5 9E000000 		.4byte	.LVL281
 8120 1de9 EA000000 		.4byte	.LVL297
 8121 1ded 0100     		.2byte	0x1
 8122 1def 56       		.byte	0x56
 8123 1df0 EA000000 		.4byte	.LVL297
 8124 1df4 28010000 		.4byte	.LVL310
 8125 1df8 0100     		.2byte	0x1
 8126 1dfa 50       		.byte	0x50
 8127 1dfb 28010000 		.4byte	.LVL310
 8128 1dff 3A010000 		.4byte	.LVL313
 8129 1e03 0100     		.2byte	0x1
 8130 1e05 56       		.byte	0x56
 8131 1e06 D2040000 		.4byte	.LVL491
 8132 1e0a DA040000 		.4byte	.LVL493
 8133 1e0e 0100     		.2byte	0x1
 8134 1e10 56       		.byte	0x56
 8135 1e11 00000000 		.4byte	0
 8136 1e15 00000000 		.4byte	0
 8137              	.LLST80:
 8138 1e19 D8000000 		.4byte	.LVL291
 8139 1e1d DA000000 		.4byte	.LVL292
 8140 1e21 0100     		.2byte	0x1
 8141 1e23 50       		.byte	0x50
 8142 1e24 DA000000 		.4byte	.LVL292
 8143 1e28 FE000000 		.4byte	.LVL301
 8144 1e2c 0100     		.2byte	0x1
 8145 1e2e 54       		.byte	0x54
ARM GAS  /tmp/cce3BzsE.s 			page 144


 8146 1e2f 0C010000 		.4byte	.LVL304
 8147 1e33 18010000 		.4byte	.LVL307
 8148 1e37 0100     		.2byte	0x1
 8149 1e39 54       		.byte	0x54
 8150 1e3a 00000000 		.4byte	0
 8151 1e3e 00000000 		.4byte	0
 8152              	.LLST81:
 8153 1e42 2C010000 		.4byte	.LVL311
 8154 1e46 50010000 		.4byte	.LVL317
 8155 1e4a 0300     		.2byte	0x3
 8156 1e4c 91       		.byte	0x91
 8157 1e4d A07F     		.sleb128 -96
 8158 1e4f 50010000 		.4byte	.LVL317
 8159 1e53 64010000 		.4byte	.LVL322
 8160 1e57 0400     		.2byte	0x4
 8161 1e59 91       		.byte	0x91
 8162 1e5a AD7F     		.sleb128 -83
 8163 1e5c 9F       		.byte	0x9f
 8164 1e5d B0040000 		.4byte	.LVL485
 8165 1e61 CA040000 		.4byte	.LVL488
 8166 1e65 0300     		.2byte	0x3
 8167 1e67 91       		.byte	0x91
 8168 1e68 A07F     		.sleb128 -96
 8169 1e6a CA040000 		.4byte	.LVL488
 8170 1e6e CC040000 		.4byte	.LVL489
 8171 1e72 0400     		.2byte	0x4
 8172 1e74 91       		.byte	0x91
 8173 1e75 AD7F     		.sleb128 -83
 8174 1e77 9F       		.byte	0x9f
 8175 1e78 00000000 		.4byte	0
 8176 1e7c 00000000 		.4byte	0
 8177              	.LLST82:
 8178 1e80 2C010000 		.4byte	.LVL311
 8179 1e84 64010000 		.4byte	.LVL322
 8180 1e88 0300     		.2byte	0x3
 8181 1e8a 91       		.byte	0x91
 8182 1e8b 9C7F     		.sleb128 -100
 8183 1e8d B0040000 		.4byte	.LVL485
 8184 1e91 CC040000 		.4byte	.LVL489
 8185 1e95 0300     		.2byte	0x3
 8186 1e97 91       		.byte	0x91
 8187 1e98 9C7F     		.sleb128 -100
 8188 1e9a 00000000 		.4byte	0
 8189 1e9e 00000000 		.4byte	0
 8190              	.LLST83:
 8191 1ea2 2C010000 		.4byte	.LVL311
 8192 1ea6 50010000 		.4byte	.LVL317
 8193 1eaa 0100     		.2byte	0x1
 8194 1eac 54       		.byte	0x54
 8195 1ead B0040000 		.4byte	.LVL485
 8196 1eb1 B2040000 		.4byte	.LVL486
 8197 1eb5 0100     		.2byte	0x1
 8198 1eb7 54       		.byte	0x54
 8199 1eb8 B2040000 		.4byte	.LVL486
 8200 1ebc C7040000 		.4byte	.LVL487-1
 8201 1ec0 0100     		.2byte	0x1
 8202 1ec2 53       		.byte	0x53
ARM GAS  /tmp/cce3BzsE.s 			page 145


 8203 1ec3 00000000 		.4byte	0
 8204 1ec7 00000000 		.4byte	0
 8205              	.LLST84:
 8206 1ecb 2C010000 		.4byte	.LVL311
 8207 1ecf 64010000 		.4byte	.LVL322
 8208 1ed3 0600     		.2byte	0x6
 8209 1ed5 F2       		.byte	0xf2
 8210 1ed6 8D070000 		.4byte	.Ldebug_info0+1933
 8211 1eda 00       		.sleb128 0
 8212 1edb B0040000 		.4byte	.LVL485
 8213 1edf CC040000 		.4byte	.LVL489
 8214 1ee3 0600     		.2byte	0x6
 8215 1ee5 F2       		.byte	0xf2
 8216 1ee6 8D070000 		.4byte	.Ldebug_info0+1933
 8217 1eea 00       		.sleb128 0
 8218 1eeb 00000000 		.4byte	0
 8219 1eef 00000000 		.4byte	0
 8220              	.LLST85:
 8221 1ef3 36010000 		.4byte	.LVL312
 8222 1ef7 50010000 		.4byte	.LVL317
 8223 1efb 0100     		.2byte	0x1
 8224 1efd 51       		.byte	0x51
 8225 1efe B0040000 		.4byte	.LVL485
 8226 1f02 C7040000 		.4byte	.LVL487-1
 8227 1f06 0100     		.2byte	0x1
 8228 1f08 51       		.byte	0x51
 8229 1f09 00000000 		.4byte	0
 8230 1f0d 00000000 		.4byte	0
 8231              	.LLST86:
 8232 1f11 50010000 		.4byte	.LVL317
 8233 1f15 5E010000 		.4byte	.LVL320
 8234 1f19 0100     		.2byte	0x1
 8235 1f1b 56       		.byte	0x56
 8236 1f1c 5E010000 		.4byte	.LVL320
 8237 1f20 60010000 		.4byte	.LVL321
 8238 1f24 0200     		.2byte	0x2
 8239 1f26 72       		.byte	0x72
 8240 1f27 00       		.sleb128 0
 8241 1f28 60010000 		.4byte	.LVL321
 8242 1f2c 64010000 		.4byte	.LVL322
 8243 1f30 0100     		.2byte	0x1
 8244 1f32 56       		.byte	0x56
 8245 1f33 CA040000 		.4byte	.LVL488
 8246 1f37 CC040000 		.4byte	.LVL489
 8247 1f3b 0100     		.2byte	0x1
 8248 1f3d 56       		.byte	0x56
 8249 1f3e 00000000 		.4byte	0
 8250 1f42 00000000 		.4byte	0
 8251              	.LLST87:
 8252 1f46 36010000 		.4byte	.LVL312
 8253 1f4a 40010000 		.4byte	.LVL314
 8254 1f4e 0400     		.2byte	0x4
 8255 1f50 91       		.byte	0x91
 8256 1f51 AD7F     		.sleb128 -83
 8257 1f53 9F       		.byte	0x9f
 8258 1f54 40010000 		.4byte	.LVL314
 8259 1f58 44010000 		.4byte	.LVL315
ARM GAS  /tmp/cce3BzsE.s 			page 146


 8260 1f5c 0300     		.2byte	0x3
 8261 1f5e 73       		.byte	0x73
 8262 1f5f 01       		.sleb128 1
 8263 1f60 9F       		.byte	0x9f
 8264 1f61 44010000 		.4byte	.LVL315
 8265 1f65 4C010000 		.4byte	.LVL316
 8266 1f69 0300     		.2byte	0x3
 8267 1f6b 73       		.byte	0x73
 8268 1f6c 02       		.sleb128 2
 8269 1f6d 9F       		.byte	0x9f
 8270 1f6e B0040000 		.4byte	.LVL485
 8271 1f72 B2040000 		.4byte	.LVL486
 8272 1f76 0300     		.2byte	0x3
 8273 1f78 73       		.byte	0x73
 8274 1f79 02       		.sleb128 2
 8275 1f7a 9F       		.byte	0x9f
 8276 1f7b 00000000 		.4byte	0
 8277 1f7f 00000000 		.4byte	0
 8278              	.LLST88:
 8279 1f83 54010000 		.4byte	.LVL318
 8280 1f87 5E010000 		.4byte	.LVL320
 8281 1f8b 0100     		.2byte	0x1
 8282 1f8d 56       		.byte	0x56
 8283 1f8e 5E010000 		.4byte	.LVL320
 8284 1f92 60010000 		.4byte	.LVL321
 8285 1f96 0200     		.2byte	0x2
 8286 1f98 72       		.byte	0x72
 8287 1f99 00       		.sleb128 0
 8288 1f9a 60010000 		.4byte	.LVL321
 8289 1f9e 64010000 		.4byte	.LVL322
 8290 1fa2 0100     		.2byte	0x1
 8291 1fa4 56       		.byte	0x56
 8292 1fa5 00000000 		.4byte	0
 8293 1fa9 00000000 		.4byte	0
 8294              	.LLST89:
 8295 1fad 54010000 		.4byte	.LVL318
 8296 1fb1 64010000 		.4byte	.LVL322
 8297 1fb5 0600     		.2byte	0x6
 8298 1fb7 F2       		.byte	0xf2
 8299 1fb8 8D070000 		.4byte	.Ldebug_info0+1933
 8300 1fbc 00       		.sleb128 0
 8301 1fbd 00000000 		.4byte	0
 8302 1fc1 00000000 		.4byte	0
 8303              	.LLST90:
 8304 1fc5 84010000 		.4byte	.LVL326
 8305 1fc9 A0010000 		.4byte	.LVL327
 8306 1fcd 0100     		.2byte	0x1
 8307 1fcf 51       		.byte	0x51
 8308 1fd0 A8010000 		.4byte	.LVL329
 8309 1fd4 BA010000 		.4byte	.LVL333
 8310 1fd8 0100     		.2byte	0x1
 8311 1fda 51       		.byte	0x51
 8312 1fdb 00000000 		.4byte	0
 8313 1fdf 00000000 		.4byte	0
 8314              	.LLST91:
 8315 1fe3 84010000 		.4byte	.LVL326
 8316 1fe7 A8010000 		.4byte	.LVL329
ARM GAS  /tmp/cce3BzsE.s 			page 147


 8317 1feb 0100     		.2byte	0x1
 8318 1fed 50       		.byte	0x50
 8319 1fee A8010000 		.4byte	.LVL329
 8320 1ff2 AC010000 		.4byte	.LVL330
 8321 1ff6 0300     		.2byte	0x3
 8322 1ff8 70       		.byte	0x70
 8323 1ff9 01       		.sleb128 1
 8324 1ffa 9F       		.byte	0x9f
 8325 1ffb AC010000 		.4byte	.LVL330
 8326 1fff BA010000 		.4byte	.LVL333
 8327 2003 0100     		.2byte	0x1
 8328 2005 50       		.byte	0x50
 8329 2006 00000000 		.4byte	0
 8330 200a 00000000 		.4byte	0
 8331              	.LLST92:
 8332 200e 84010000 		.4byte	.LVL326
 8333 2012 A2010000 		.4byte	.LVL328
 8334 2016 0100     		.2byte	0x1
 8335 2018 54       		.byte	0x54
 8336 2019 A8010000 		.4byte	.LVL329
 8337 201d BA010000 		.4byte	.LVL333
 8338 2021 0100     		.2byte	0x1
 8339 2023 54       		.byte	0x54
 8340 2024 00000000 		.4byte	0
 8341 2028 00000000 		.4byte	0
 8342              	.LLST93:
 8343 202c 84010000 		.4byte	.LVL326
 8344 2030 A0010000 		.4byte	.LVL327
 8345 2034 0100     		.2byte	0x1
 8346 2036 51       		.byte	0x51
 8347 2037 B0010000 		.4byte	.LVL331
 8348 203b BA010000 		.4byte	.LVL333
 8349 203f 0100     		.2byte	0x1
 8350 2041 51       		.byte	0x51
 8351 2042 00000000 		.4byte	0
 8352 2046 00000000 		.4byte	0
 8353              	.LLST94:
 8354 204a BA010000 		.4byte	.LVL333
 8355 204e BE010000 		.4byte	.LVL334
 8356 2052 0200     		.2byte	0x2
 8357 2054 72       		.byte	0x72
 8358 2055 00       		.sleb128 0
 8359 2056 BE010000 		.4byte	.LVL334
 8360 205a C0010000 		.4byte	.LVL335
 8361 205e 0200     		.2byte	0x2
 8362 2060 72       		.byte	0x72
 8363 2061 7C       		.sleb128 -4
 8364 2062 C0010000 		.4byte	.LVL335
 8365 2066 C4010000 		.4byte	.LVL337
 8366 206a 0100     		.2byte	0x1
 8367 206c 53       		.byte	0x53
 8368 206d 00000000 		.4byte	0
 8369 2071 00000000 		.4byte	0
 8370              	.LLST95:
 8371 2075 BA010000 		.4byte	.LVL333
 8372 2079 C4010000 		.4byte	.LVL337
 8373 207d 0600     		.2byte	0x6
ARM GAS  /tmp/cce3BzsE.s 			page 148


 8374 207f F2       		.byte	0xf2
 8375 2080 8D070000 		.4byte	.Ldebug_info0+1933
 8376 2084 00       		.sleb128 0
 8377 2085 00000000 		.4byte	0
 8378 2089 00000000 		.4byte	0
 8379              	.LLST96:
 8380 208d DE010000 		.4byte	.LVL344
 8381 2091 E6010000 		.4byte	.LVL345
 8382 2095 0400     		.2byte	0x4
 8383 2097 91       		.byte	0x91
 8384 2098 AC7F     		.sleb128 -84
 8385 209a 9F       		.byte	0x9f
 8386 209b E6010000 		.4byte	.LVL345
 8387 209f EA010000 		.4byte	.LVL346
 8388 20a3 0100     		.2byte	0x1
 8389 20a5 53       		.byte	0x53
 8390 20a6 EA010000 		.4byte	.LVL346
 8391 20aa 26020000 		.4byte	.LVL357
 8392 20ae 0100     		.2byte	0x1
 8393 20b0 5B       		.byte	0x5b
 8394 20b1 F6030000 		.4byte	.LVL453
 8395 20b5 FA030000 		.4byte	.LVL454
 8396 20b9 0400     		.2byte	0x4
 8397 20bb 91       		.byte	0x91
 8398 20bc AC7F     		.sleb128 -84
 8399 20be 9F       		.byte	0x9f
 8400 20bf FA030000 		.4byte	.LVL454
 8401 20c3 0C040000 		.4byte	.LVL455
 8402 20c7 0400     		.2byte	0x4
 8403 20c9 91       		.byte	0x91
 8404 20ca AD7F     		.sleb128 -83
 8405 20cc 9F       		.byte	0x9f
 8406 20cd 08050000 		.4byte	.LVL503
 8407 20d1 0C050000 		.4byte	.LVL504
 8408 20d5 0100     		.2byte	0x1
 8409 20d7 5B       		.byte	0x5b
 8410 20d8 00000000 		.4byte	0
 8411 20dc 00000000 		.4byte	0
 8412              	.LLST97:
 8413 20e0 DE010000 		.4byte	.LVL344
 8414 20e4 E6010000 		.4byte	.LVL345
 8415 20e8 0100     		.2byte	0x1
 8416 20ea 53       		.byte	0x53
 8417 20eb E6010000 		.4byte	.LVL345
 8418 20ef EA010000 		.4byte	.LVL346
 8419 20f3 0100     		.2byte	0x1
 8420 20f5 58       		.byte	0x58
 8421 20f6 00000000 		.4byte	0
 8422 20fa 00000000 		.4byte	0
 8423              	.LLST98:
 8424 20fe EE010000 		.4byte	.LVL347
 8425 2102 6A020000 		.4byte	.LVL372
 8426 2106 0200     		.2byte	0x2
 8427 2108 3A       		.byte	0x3a
 8428 2109 9F       		.byte	0x9f
 8429 210a 60030000 		.4byte	.LVL421
 8430 210e A6030000 		.4byte	.LVL437
ARM GAS  /tmp/cce3BzsE.s 			page 149


 8431 2112 0200     		.2byte	0x2
 8432 2114 3A       		.byte	0x3a
 8433 2115 9F       		.byte	0x9f
 8434 2116 0C040000 		.4byte	.LVL455
 8435 211a 1A040000 		.4byte	.LVL458
 8436 211e 0200     		.2byte	0x2
 8437 2120 3A       		.byte	0x3a
 8438 2121 9F       		.byte	0x9f
 8439 2122 94040000 		.4byte	.LVL481
 8440 2126 B0040000 		.4byte	.LVL485
 8441 212a 0200     		.2byte	0x2
 8442 212c 3A       		.byte	0x3a
 8443 212d 9F       		.byte	0x9f
 8444 212e 08050000 		.4byte	.LVL503
 8445 2132 0C050000 		.4byte	.LVL504
 8446 2136 0200     		.2byte	0x2
 8447 2138 3A       		.byte	0x3a
 8448 2139 9F       		.byte	0x9f
 8449 213a 00000000 		.4byte	0
 8450 213e 00000000 		.4byte	0
 8451              	.LLST99:
 8452 2142 EE010000 		.4byte	.LVL347
 8453 2146 6A020000 		.4byte	.LVL372
 8454 214a 0200     		.2byte	0x2
 8455 214c 30       		.byte	0x30
 8456 214d 9F       		.byte	0x9f
 8457 214e 60030000 		.4byte	.LVL421
 8458 2152 A6030000 		.4byte	.LVL437
 8459 2156 0200     		.2byte	0x2
 8460 2158 30       		.byte	0x30
 8461 2159 9F       		.byte	0x9f
 8462 215a 0C040000 		.4byte	.LVL455
 8463 215e 1A040000 		.4byte	.LVL458
 8464 2162 0200     		.2byte	0x2
 8465 2164 30       		.byte	0x30
 8466 2165 9F       		.byte	0x9f
 8467 2166 94040000 		.4byte	.LVL481
 8468 216a B0040000 		.4byte	.LVL485
 8469 216e 0200     		.2byte	0x2
 8470 2170 30       		.byte	0x30
 8471 2171 9F       		.byte	0x9f
 8472 2172 08050000 		.4byte	.LVL503
 8473 2176 0C050000 		.4byte	.LVL504
 8474 217a 0200     		.2byte	0x2
 8475 217c 30       		.byte	0x30
 8476 217d 9F       		.byte	0x9f
 8477 217e 00000000 		.4byte	0
 8478 2182 00000000 		.4byte	0
 8479              	.LLST100:
 8480 2186 EE010000 		.4byte	.LVL347
 8481 218a 52020000 		.4byte	.LVL368
 8482 218e 0100     		.2byte	0x1
 8483 2190 5B       		.byte	0x5b
 8484 2191 52020000 		.4byte	.LVL368
 8485 2195 6A020000 		.4byte	.LVL372
 8486 2199 0100     		.2byte	0x1
 8487 219b 52       		.byte	0x52
ARM GAS  /tmp/cce3BzsE.s 			page 150


 8488 219c 60030000 		.4byte	.LVL421
 8489 21a0 7E030000 		.4byte	.LVL427
 8490 21a4 0100     		.2byte	0x1
 8491 21a6 52       		.byte	0x52
 8492 21a7 0C040000 		.4byte	.LVL455
 8493 21ab 14040000 		.4byte	.LVL456
 8494 21af 0100     		.2byte	0x1
 8495 21b1 5B       		.byte	0x5b
 8496 21b2 14040000 		.4byte	.LVL456
 8497 21b6 1A040000 		.4byte	.LVL458
 8498 21ba 0100     		.2byte	0x1
 8499 21bc 52       		.byte	0x52
 8500 21bd 08050000 		.4byte	.LVL503
 8501 21c1 0C050000 		.4byte	.LVL504
 8502 21c5 0100     		.2byte	0x1
 8503 21c7 5B       		.byte	0x5b
 8504 21c8 00000000 		.4byte	0
 8505 21cc 00000000 		.4byte	0
 8506              	.LLST101:
 8507 21d0 26020000 		.4byte	.LVL357
 8508 21d4 3C020000 		.4byte	.LVL362
 8509 21d8 0100     		.2byte	0x1
 8510 21da 55       		.byte	0x55
 8511 21db 3C020000 		.4byte	.LVL362
 8512 21df 3E020000 		.4byte	.LVL363
 8513 21e3 0100     		.2byte	0x1
 8514 21e5 51       		.byte	0x51
 8515 21e6 3E020000 		.4byte	.LVL363
 8516 21ea 6A020000 		.4byte	.LVL372
 8517 21ee 0100     		.2byte	0x1
 8518 21f0 55       		.byte	0x55
 8519 21f1 60030000 		.4byte	.LVL421
 8520 21f5 64030000 		.4byte	.LVL422
 8521 21f9 0100     		.2byte	0x1
 8522 21fb 55       		.byte	0x55
 8523 21fc 0C040000 		.4byte	.LVL455
 8524 2200 1A040000 		.4byte	.LVL458
 8525 2204 0100     		.2byte	0x1
 8526 2206 55       		.byte	0x55
 8527 2207 00000000 		.4byte	0
 8528 220b 00000000 		.4byte	0
 8529              	.LLST102:
 8530 220f 0E020000 		.4byte	.LVL353
 8531 2213 26020000 		.4byte	.LVL357
 8532 2217 0200     		.2byte	0x2
 8533 2219 30       		.byte	0x30
 8534 221a 9F       		.byte	0x9f
 8535 221b 26020000 		.4byte	.LVL357
 8536 221f 48020000 		.4byte	.LVL366
 8537 2223 0100     		.2byte	0x1
 8538 2225 57       		.byte	0x57
 8539 2226 48020000 		.4byte	.LVL366
 8540 222a 4E020000 		.4byte	.LVL367
 8541 222e 0200     		.2byte	0x2
 8542 2230 30       		.byte	0x30
 8543 2231 9F       		.byte	0x9f
 8544 2232 60020000 		.4byte	.LVL370
ARM GAS  /tmp/cce3BzsE.s 			page 151


 8545 2236 66020000 		.4byte	.LVL371
 8546 223a 0100     		.2byte	0x1
 8547 223c 57       		.byte	0x57
 8548 223d 60030000 		.4byte	.LVL421
 8549 2241 66030000 		.4byte	.LVL423
 8550 2245 0100     		.2byte	0x1
 8551 2247 57       		.byte	0x57
 8552 2248 0C040000 		.4byte	.LVL455
 8553 224c 16040000 		.4byte	.LVL457
 8554 2250 0200     		.2byte	0x2
 8555 2252 30       		.byte	0x30
 8556 2253 9F       		.byte	0x9f
 8557 2254 08050000 		.4byte	.LVL503
 8558 2258 0C050000 		.4byte	.LVL504
 8559 225c 0200     		.2byte	0x2
 8560 225e 30       		.byte	0x30
 8561 225f 9F       		.byte	0x9f
 8562 2260 00000000 		.4byte	0
 8563 2264 00000000 		.4byte	0
 8564              	.LLST103:
 8565 2268 EE010000 		.4byte	.LVL347
 8566 226c FA010000 		.4byte	.LVL349
 8567 2270 0200     		.2byte	0x2
 8568 2272 31       		.byte	0x31
 8569 2273 9F       		.byte	0x9f
 8570 2274 FA010000 		.4byte	.LVL349
 8571 2278 FE010000 		.4byte	.LVL350
 8572 227c 0100     		.2byte	0x1
 8573 227e 56       		.byte	0x56
 8574 227f 00020000 		.4byte	.LVL351
 8575 2283 44020000 		.4byte	.LVL365
 8576 2287 0100     		.2byte	0x1
 8577 2289 56       		.byte	0x56
 8578 228a 44020000 		.4byte	.LVL365
 8579 228e 6A020000 		.4byte	.LVL372
 8580 2292 0100     		.2byte	0x1
 8581 2294 50       		.byte	0x50
 8582 2295 60030000 		.4byte	.LVL421
 8583 2299 66030000 		.4byte	.LVL423
 8584 229d 0100     		.2byte	0x1
 8585 229f 50       		.byte	0x50
 8586 22a0 66030000 		.4byte	.LVL423
 8587 22a4 78030000 		.4byte	.LVL426
 8588 22a8 0100     		.2byte	0x1
 8589 22aa 56       		.byte	0x56
 8590 22ab 0C040000 		.4byte	.LVL455
 8591 22af 1A040000 		.4byte	.LVL458
 8592 22b3 0100     		.2byte	0x1
 8593 22b5 50       		.byte	0x50
 8594 22b6 08050000 		.4byte	.LVL503
 8595 22ba 0C050000 		.4byte	.LVL504
 8596 22be 0100     		.2byte	0x1
 8597 22c0 56       		.byte	0x56
 8598 22c1 00000000 		.4byte	0
 8599 22c5 00000000 		.4byte	0
 8600              	.LLST104:
 8601 22c9 32020000 		.4byte	.LVL359
ARM GAS  /tmp/cce3BzsE.s 			page 152


 8602 22cd 34020000 		.4byte	.LVL360
 8603 22d1 0100     		.2byte	0x1
 8604 22d3 50       		.byte	0x50
 8605 22d4 34020000 		.4byte	.LVL360
 8606 22d8 5C020000 		.4byte	.LVL369
 8607 22dc 0100     		.2byte	0x1
 8608 22de 54       		.byte	0x54
 8609 22df 0C040000 		.4byte	.LVL455
 8610 22e3 1A040000 		.4byte	.LVL458
 8611 22e7 0100     		.2byte	0x1
 8612 22e9 54       		.byte	0x54
 8613 22ea 00000000 		.4byte	0
 8614 22ee 00000000 		.4byte	0
 8615              	.LLST105:
 8616 22f2 72020000 		.4byte	.LVL375
 8617 22f6 76020000 		.4byte	.LVL377
 8618 22fa 0100     		.2byte	0x1
 8619 22fc 53       		.byte	0x53
 8620 22fd 76020000 		.4byte	.LVL377
 8621 2301 B0020000 		.4byte	.LVL385
 8622 2305 0100     		.2byte	0x1
 8623 2307 59       		.byte	0x59
 8624 2308 B0020000 		.4byte	.LVL385
 8625 230c B6020000 		.4byte	.LVL387
 8626 2310 0100     		.2byte	0x1
 8627 2312 56       		.byte	0x56
 8628 2313 B6020000 		.4byte	.LVL387
 8629 2317 C6020000 		.4byte	.LVL391
 8630 231b 0300     		.2byte	0x3
 8631 231d 79       		.byte	0x79
 8632 231e 01       		.sleb128 1
 8633 231f 9F       		.byte	0x9f
 8634 2320 0C050000 		.4byte	.LVL504
 8635 2324 18050000 		.4byte	.LFE55
 8636 2328 0100     		.2byte	0x1
 8637 232a 59       		.byte	0x59
 8638 232b 00000000 		.4byte	0
 8639 232f 00000000 		.4byte	0
 8640              	.LLST106:
 8641 2333 72020000 		.4byte	.LVL375
 8642 2337 CA020000 		.4byte	.LVL392
 8643 233b 0200     		.2byte	0x2
 8644 233d 30       		.byte	0x30
 8645 233e 9F       		.byte	0x9f
 8646 233f 0C050000 		.4byte	.LVL504
 8647 2343 18050000 		.4byte	.LFE55
 8648 2347 0200     		.2byte	0x2
 8649 2349 30       		.byte	0x30
 8650 234a 9F       		.byte	0x9f
 8651 234b 00000000 		.4byte	0
 8652 234f 00000000 		.4byte	0
 8653              	.LLST107:
 8654 2353 72020000 		.4byte	.LVL375
 8655 2357 94020000 		.4byte	.LVL382
 8656 235b 0100     		.2byte	0x1
 8657 235d 54       		.byte	0x54
 8658 235e 94020000 		.4byte	.LVL382
ARM GAS  /tmp/cce3BzsE.s 			page 153


 8659 2362 A6020000 		.4byte	.LVL383
 8660 2366 0100     		.2byte	0x1
 8661 2368 52       		.byte	0x52
 8662 2369 0C050000 		.4byte	.LVL504
 8663 236d 0E050000 		.4byte	.LVL505
 8664 2371 0100     		.2byte	0x1
 8665 2373 54       		.byte	0x54
 8666 2374 0E050000 		.4byte	.LVL505
 8667 2378 16050000 		.4byte	.LVL506
 8668 237c 0100     		.2byte	0x1
 8669 237e 52       		.byte	0x52
 8670 237f 16050000 		.4byte	.LVL506
 8671 2383 18050000 		.4byte	.LFE55
 8672 2387 0300     		.2byte	0x3
 8673 2389 74       		.byte	0x74
 8674 238a 7F       		.sleb128 -1
 8675 238b 9F       		.byte	0x9f
 8676 238c 00000000 		.4byte	0
 8677 2390 00000000 		.4byte	0
 8678              	.LLST108:
 8679 2394 72020000 		.4byte	.LVL375
 8680 2398 CA020000 		.4byte	.LVL392
 8681 239c 0600     		.2byte	0x6
 8682 239e F2       		.byte	0xf2
 8683 239f 8D070000 		.4byte	.Ldebug_info0+1933
 8684 23a3 00       		.sleb128 0
 8685 23a4 0C050000 		.4byte	.LVL504
 8686 23a8 18050000 		.4byte	.LFE55
 8687 23ac 0600     		.2byte	0x6
 8688 23ae F2       		.byte	0xf2
 8689 23af 8D070000 		.4byte	.Ldebug_info0+1933
 8690 23b3 00       		.sleb128 0
 8691 23b4 00000000 		.4byte	0
 8692 23b8 00000000 		.4byte	0
 8693              	.LLST109:
 8694 23bc 72020000 		.4byte	.LVL375
 8695 23c0 CA020000 		.4byte	.LVL392
 8696 23c4 0300     		.2byte	0x3
 8697 23c6 08       		.byte	0x8
 8698 23c7 20       		.byte	0x20
 8699 23c8 9F       		.byte	0x9f
 8700 23c9 0C050000 		.4byte	.LVL504
 8701 23cd 18050000 		.4byte	.LFE55
 8702 23d1 0300     		.2byte	0x3
 8703 23d3 08       		.byte	0x8
 8704 23d4 20       		.byte	0x20
 8705 23d5 9F       		.byte	0x9f
 8706 23d6 00000000 		.4byte	0
 8707 23da 00000000 		.4byte	0
 8708              	.LLST110:
 8709 23de B0020000 		.4byte	.LVL385
 8710 23e2 C0020000 		.4byte	.LVL389
 8711 23e6 0100     		.2byte	0x1
 8712 23e8 53       		.byte	0x53
 8713 23e9 C0020000 		.4byte	.LVL389
 8714 23ed C2020000 		.4byte	.LVL390
 8715 23f1 0200     		.2byte	0x2
ARM GAS  /tmp/cce3BzsE.s 			page 154


 8716 23f3 71       		.byte	0x71
 8717 23f4 00       		.sleb128 0
 8718 23f5 C2020000 		.4byte	.LVL390
 8719 23f9 CA020000 		.4byte	.LVL392
 8720 23fd 0100     		.2byte	0x1
 8721 23ff 53       		.byte	0x53
 8722 2400 00000000 		.4byte	0
 8723 2404 00000000 		.4byte	0
 8724              	.LLST111:
 8725 2408 72020000 		.4byte	.LVL375
 8726 240c 74020000 		.4byte	.LVL376
 8727 2410 0100     		.2byte	0x1
 8728 2412 53       		.byte	0x53
 8729 2413 74020000 		.4byte	.LVL376
 8730 2417 84020000 		.4byte	.LVL378
 8731 241b 0100     		.2byte	0x1
 8732 241d 56       		.byte	0x56
 8733 241e 84020000 		.4byte	.LVL378
 8734 2422 86020000 		.4byte	.LVL379
 8735 2426 0300     		.2byte	0x3
 8736 2428 72       		.byte	0x72
 8737 2429 01       		.sleb128 1
 8738 242a 9F       		.byte	0x9f
 8739 242b 86020000 		.4byte	.LVL379
 8740 242f 8E020000 		.4byte	.LVL381
 8741 2433 0100     		.2byte	0x1
 8742 2435 52       		.byte	0x52
 8743 2436 8E020000 		.4byte	.LVL381
 8744 243a 94020000 		.4byte	.LVL382
 8745 243e 0300     		.2byte	0x3
 8746 2440 72       		.byte	0x72
 8747 2441 01       		.sleb128 1
 8748 2442 9F       		.byte	0x9f
 8749 2443 0C050000 		.4byte	.LVL504
 8750 2447 18050000 		.4byte	.LFE55
 8751 244b 0100     		.2byte	0x1
 8752 244d 56       		.byte	0x56
 8753 244e 00000000 		.4byte	0
 8754 2452 00000000 		.4byte	0
 8755              	.LLST112:
 8756 2456 B6020000 		.4byte	.LVL387
 8757 245a C0020000 		.4byte	.LVL389
 8758 245e 0100     		.2byte	0x1
 8759 2460 53       		.byte	0x53
 8760 2461 C0020000 		.4byte	.LVL389
 8761 2465 C6020000 		.4byte	.LVL391
 8762 2469 0200     		.2byte	0x2
 8763 246b 71       		.byte	0x71
 8764 246c 00       		.sleb128 0
 8765 246d 00000000 		.4byte	0
 8766 2471 00000000 		.4byte	0
 8767              	.LLST113:
 8768 2475 B6020000 		.4byte	.LVL387
 8769 2479 C6020000 		.4byte	.LVL391
 8770 247d 0600     		.2byte	0x6
 8771 247f F2       		.byte	0xf2
 8772 2480 8D070000 		.4byte	.Ldebug_info0+1933
ARM GAS  /tmp/cce3BzsE.s 			page 155


 8773 2484 00       		.sleb128 0
 8774 2485 00000000 		.4byte	0
 8775 2489 00000000 		.4byte	0
 8776              	.LLST114:
 8777 248d DA020000 		.4byte	.LVL395
 8778 2491 06030000 		.4byte	.LVL404
 8779 2495 0400     		.2byte	0x4
 8780 2497 91       		.byte	0x91
 8781 2498 AC7F     		.sleb128 -84
 8782 249a 9F       		.byte	0x9f
 8783 249b 06030000 		.4byte	.LVL404
 8784 249f 0C030000 		.4byte	.LVL405
 8785 24a3 0100     		.2byte	0x1
 8786 24a5 53       		.byte	0x53
 8787 24a6 0C030000 		.4byte	.LVL405
 8788 24aa 40030000 		.4byte	.LVL416
 8789 24ae 0100     		.2byte	0x1
 8790 24b0 5A       		.byte	0x5a
 8791 24b1 40030000 		.4byte	.LVL416
 8792 24b5 58030000 		.4byte	.LVL419
 8793 24b9 0100     		.2byte	0x1
 8794 24bb 53       		.byte	0x53
 8795 24bc A6030000 		.4byte	.LVL437
 8796 24c0 A8030000 		.4byte	.LVL438
 8797 24c4 0400     		.2byte	0x4
 8798 24c6 91       		.byte	0x91
 8799 24c7 AC7F     		.sleb128 -84
 8800 24c9 9F       		.byte	0x9f
 8801 24ca A8030000 		.4byte	.LVL438
 8802 24ce AE030000 		.4byte	.LVL439
 8803 24d2 0100     		.2byte	0x1
 8804 24d4 53       		.byte	0x53
 8805 24d5 AE030000 		.4byte	.LVL439
 8806 24d9 E0030000 		.4byte	.LVL450
 8807 24dd 0100     		.2byte	0x1
 8808 24df 5A       		.byte	0x5a
 8809 24e0 E0030000 		.4byte	.LVL450
 8810 24e4 F6030000 		.4byte	.LVL453
 8811 24e8 0100     		.2byte	0x1
 8812 24ea 53       		.byte	0x53
 8813 24eb 1A040000 		.4byte	.LVL458
 8814 24ef 30040000 		.4byte	.LVL462
 8815 24f3 0100     		.2byte	0x1
 8816 24f5 5A       		.byte	0x5a
 8817 24f6 30040000 		.4byte	.LVL462
 8818 24fa 38040000 		.4byte	.LVL465
 8819 24fe 0100     		.2byte	0x1
 8820 2500 53       		.byte	0x53
 8821 2501 70040000 		.4byte	.LVL475
 8822 2505 78040000 		.4byte	.LVL476
 8823 2509 0100     		.2byte	0x1
 8824 250b 5A       		.byte	0x5a
 8825 250c 78040000 		.4byte	.LVL476
 8826 2510 7A040000 		.4byte	.LVL477
 8827 2514 0100     		.2byte	0x1
 8828 2516 53       		.byte	0x53
 8829 2517 CC040000 		.4byte	.LVL489
ARM GAS  /tmp/cce3BzsE.s 			page 156


 8830 251b D0040000 		.4byte	.LVL490
 8831 251f 0100     		.2byte	0x1
 8832 2521 5A       		.byte	0x5a
 8833 2522 D0040000 		.4byte	.LVL490
 8834 2526 D2040000 		.4byte	.LVL491
 8835 252a 0100     		.2byte	0x1
 8836 252c 53       		.byte	0x53
 8837 252d DA040000 		.4byte	.LVL493
 8838 2531 DC040000 		.4byte	.LVL494
 8839 2535 0400     		.2byte	0x4
 8840 2537 91       		.byte	0x91
 8841 2538 AC7F     		.sleb128 -84
 8842 253a 9F       		.byte	0x9f
 8843 253b DC040000 		.4byte	.LVL494
 8844 253f E8040000 		.4byte	.LVL497
 8845 2543 0100     		.2byte	0x1
 8846 2545 53       		.byte	0x53
 8847 2546 00000000 		.4byte	0
 8848 254a 00000000 		.4byte	0
 8849              	.LLST115:
 8850 254e DA020000 		.4byte	.LVL395
 8851 2552 14030000 		.4byte	.LVL407
 8852 2556 0C00     		.2byte	0xc
 8853 2558 79       		.byte	0x79
 8854 2559 00       		.sleb128 0
 8855 255a 08       		.byte	0x8
 8856 255b FF       		.byte	0xff
 8857 255c 1A       		.byte	0x1a
 8858 255d 08       		.byte	0x8
 8859 255e 58       		.byte	0x58
 8860 255f 29       		.byte	0x29
 8861 2560 08       		.byte	0x8
 8862 2561 FF       		.byte	0xff
 8863 2562 1A       		.byte	0x1a
 8864 2563 9F       		.byte	0x9f
 8865 2564 A6030000 		.4byte	.LVL437
 8866 2568 B6030000 		.4byte	.LVL441
 8867 256c 0C00     		.2byte	0xc
 8868 256e 79       		.byte	0x79
 8869 256f 00       		.sleb128 0
 8870 2570 08       		.byte	0x8
 8871 2571 FF       		.byte	0xff
 8872 2572 1A       		.byte	0x1a
 8873 2573 08       		.byte	0x8
 8874 2574 58       		.byte	0x58
 8875 2575 29       		.byte	0x29
 8876 2576 08       		.byte	0x8
 8877 2577 FF       		.byte	0xff
 8878 2578 1A       		.byte	0x1a
 8879 2579 9F       		.byte	0x9f
 8880 257a DA040000 		.4byte	.LVL493
 8881 257e E0040000 		.4byte	.LVL495
 8882 2582 0C00     		.2byte	0xc
 8883 2584 79       		.byte	0x79
 8884 2585 00       		.sleb128 0
 8885 2586 08       		.byte	0x8
 8886 2587 FF       		.byte	0xff
ARM GAS  /tmp/cce3BzsE.s 			page 157


 8887 2588 1A       		.byte	0x1a
 8888 2589 08       		.byte	0x8
 8889 258a 58       		.byte	0x58
 8890 258b 29       		.byte	0x29
 8891 258c 08       		.byte	0x8
 8892 258d FF       		.byte	0xff
 8893 258e 1A       		.byte	0x1a
 8894 258f 9F       		.byte	0x9f
 8895 2590 00000000 		.4byte	0
 8896 2594 00000000 		.4byte	0
 8897              	.LLST116:
 8898 2598 DA020000 		.4byte	.LVL395
 8899 259c 58030000 		.4byte	.LVL419
 8900 25a0 0200     		.2byte	0x2
 8901 25a2 40       		.byte	0x40
 8902 25a3 9F       		.byte	0x9f
 8903 25a4 A6030000 		.4byte	.LVL437
 8904 25a8 F6030000 		.4byte	.LVL453
 8905 25ac 0200     		.2byte	0x2
 8906 25ae 40       		.byte	0x40
 8907 25af 9F       		.byte	0x9f
 8908 25b0 1A040000 		.4byte	.LVL458
 8909 25b4 94040000 		.4byte	.LVL481
 8910 25b8 0200     		.2byte	0x2
 8911 25ba 40       		.byte	0x40
 8912 25bb 9F       		.byte	0x9f
 8913 25bc CC040000 		.4byte	.LVL489
 8914 25c0 D2040000 		.4byte	.LVL491
 8915 25c4 0200     		.2byte	0x2
 8916 25c6 40       		.byte	0x40
 8917 25c7 9F       		.byte	0x9f
 8918 25c8 DA040000 		.4byte	.LVL493
 8919 25cc E8040000 		.4byte	.LVL497
 8920 25d0 0200     		.2byte	0x2
 8921 25d2 40       		.byte	0x40
 8922 25d3 9F       		.byte	0x9f
 8923 25d4 00000000 		.4byte	0
 8924 25d8 00000000 		.4byte	0
 8925              	.LLST117:
 8926 25dc DA020000 		.4byte	.LVL395
 8927 25e0 E0020000 		.4byte	.LVL396
 8928 25e4 0100     		.2byte	0x1
 8929 25e6 53       		.byte	0x53
 8930 25e7 E0020000 		.4byte	.LVL396
 8931 25eb E4020000 		.4byte	.LVL398
 8932 25ef 0100     		.2byte	0x1
 8933 25f1 58       		.byte	0x58
 8934 25f2 E4020000 		.4byte	.LVL398
 8935 25f6 F8020000 		.4byte	.LVL402
 8936 25fa 0100     		.2byte	0x1
 8937 25fc 54       		.byte	0x54
 8938 25fd F8020000 		.4byte	.LVL402
 8939 2601 1A030000 		.4byte	.LVL409
 8940 2605 0100     		.2byte	0x1
 8941 2607 58       		.byte	0x58
 8942 2608 A6030000 		.4byte	.LVL437
 8943 260c BC030000 		.4byte	.LVL443
ARM GAS  /tmp/cce3BzsE.s 			page 158


 8944 2610 0100     		.2byte	0x1
 8945 2612 58       		.byte	0x58
 8946 2613 DA040000 		.4byte	.LVL493
 8947 2617 E0040000 		.4byte	.LVL495
 8948 261b 0100     		.2byte	0x1
 8949 261d 58       		.byte	0x58
 8950 261e 00000000 		.4byte	0
 8951 2622 00000000 		.4byte	0
 8952              	.LLST118:
 8953 2626 DA020000 		.4byte	.LVL395
 8954 262a 1A030000 		.4byte	.LVL409
 8955 262e 0200     		.2byte	0x2
 8956 2630 30       		.byte	0x30
 8957 2631 9F       		.byte	0x9f
 8958 2632 1A030000 		.4byte	.LVL409
 8959 2636 34030000 		.4byte	.LVL414
 8960 263a 0100     		.2byte	0x1
 8961 263c 57       		.byte	0x57
 8962 263d 34030000 		.4byte	.LVL414
 8963 2641 3A030000 		.4byte	.LVL415
 8964 2645 0200     		.2byte	0x2
 8965 2647 30       		.byte	0x30
 8966 2648 9F       		.byte	0x9f
 8967 2649 4C030000 		.4byte	.LVL418
 8968 264d 58030000 		.4byte	.LVL419
 8969 2651 0100     		.2byte	0x1
 8970 2653 57       		.byte	0x57
 8971 2654 A6030000 		.4byte	.LVL437
 8972 2658 BC030000 		.4byte	.LVL443
 8973 265c 0200     		.2byte	0x2
 8974 265e 30       		.byte	0x30
 8975 265f 9F       		.byte	0x9f
 8976 2660 BC030000 		.4byte	.LVL443
 8977 2664 D6030000 		.4byte	.LVL448
 8978 2668 0100     		.2byte	0x1
 8979 266a 57       		.byte	0x57
 8980 266b D6030000 		.4byte	.LVL448
 8981 266f DA030000 		.4byte	.LVL449
 8982 2673 0200     		.2byte	0x2
 8983 2675 30       		.byte	0x30
 8984 2676 9F       		.byte	0x9f
 8985 2677 EC030000 		.4byte	.LVL452
 8986 267b F6030000 		.4byte	.LVL453
 8987 267f 0100     		.2byte	0x1
 8988 2681 57       		.byte	0x57
 8989 2682 1A040000 		.4byte	.LVL458
 8990 2686 32040000 		.4byte	.LVL463
 8991 268a 0200     		.2byte	0x2
 8992 268c 30       		.byte	0x30
 8993 268d 9F       		.byte	0x9f
 8994 268e 70040000 		.4byte	.LVL475
 8995 2692 7A040000 		.4byte	.LVL477
 8996 2696 0200     		.2byte	0x2
 8997 2698 30       		.byte	0x30
 8998 2699 9F       		.byte	0x9f
 8999 269a CC040000 		.4byte	.LVL489
 9000 269e D2040000 		.4byte	.LVL491
ARM GAS  /tmp/cce3BzsE.s 			page 159


 9001 26a2 0200     		.2byte	0x2
 9002 26a4 30       		.byte	0x30
 9003 26a5 9F       		.byte	0x9f
 9004 26a6 DA040000 		.4byte	.LVL493
 9005 26aa E0040000 		.4byte	.LVL495
 9006 26ae 0200     		.2byte	0x2
 9007 26b0 30       		.byte	0x30
 9008 26b1 9F       		.byte	0x9f
 9009 26b2 E0040000 		.4byte	.LVL495
 9010 26b6 E6040000 		.4byte	.LVL496
 9011 26ba 0100     		.2byte	0x1
 9012 26bc 57       		.byte	0x57
 9013 26bd 00000000 		.4byte	0
 9014 26c1 00000000 		.4byte	0
 9015              	.LLST119:
 9016 26c5 DA020000 		.4byte	.LVL395
 9017 26c9 E4020000 		.4byte	.LVL398
 9018 26cd 0200     		.2byte	0x2
 9019 26cf 31       		.byte	0x31
 9020 26d0 9F       		.byte	0x9f
 9021 26d1 E4020000 		.4byte	.LVL398
 9022 26d5 FE020000 		.4byte	.LVL403
 9023 26d9 0100     		.2byte	0x1
 9024 26db 56       		.byte	0x56
 9025 26dc DA040000 		.4byte	.LVL493
 9026 26e0 E0040000 		.4byte	.LVL495
 9027 26e4 0100     		.2byte	0x1
 9028 26e6 56       		.byte	0x56
 9029 26e7 00000000 		.4byte	0
 9030 26eb 00000000 		.4byte	0
 9031              	.LLST120:
 9032 26ef 26030000 		.4byte	.LVL411
 9033 26f3 28030000 		.4byte	.LVL412
 9034 26f7 0100     		.2byte	0x1
 9035 26f9 50       		.byte	0x50
 9036 26fa 28030000 		.4byte	.LVL412
 9037 26fe 48030000 		.4byte	.LVL417
 9038 2702 0100     		.2byte	0x1
 9039 2704 54       		.byte	0x54
 9040 2705 C8030000 		.4byte	.LVL445
 9041 2709 CA030000 		.4byte	.LVL446
 9042 270d 0100     		.2byte	0x1
 9043 270f 50       		.byte	0x50
 9044 2710 CA030000 		.4byte	.LVL446
 9045 2714 E8030000 		.4byte	.LVL451
 9046 2718 0100     		.2byte	0x1
 9047 271a 54       		.byte	0x54
 9048 271b 1A040000 		.4byte	.LVL458
 9049 271f 2C040000 		.4byte	.LVL460
 9050 2723 0100     		.2byte	0x1
 9051 2725 54       		.byte	0x54
 9052 2726 2C040000 		.4byte	.LVL460
 9053 272a 2E040000 		.4byte	.LVL461
 9054 272e 0100     		.2byte	0x1
 9055 2730 52       		.byte	0x52
 9056 2731 2E040000 		.4byte	.LVL461
 9057 2735 32040000 		.4byte	.LVL463
ARM GAS  /tmp/cce3BzsE.s 			page 160


 9058 2739 0100     		.2byte	0x1
 9059 273b 59       		.byte	0x59
 9060 273c 70040000 		.4byte	.LVL475
 9061 2740 7A040000 		.4byte	.LVL477
 9062 2744 0100     		.2byte	0x1
 9063 2746 54       		.byte	0x54
 9064 2747 CC040000 		.4byte	.LVL489
 9065 274b D2040000 		.4byte	.LVL491
 9066 274f 0100     		.2byte	0x1
 9067 2751 54       		.byte	0x54
 9068 2752 00000000 		.4byte	0
 9069 2756 00000000 		.4byte	0
 9070              	.LLST121:
 9071 275a 58030000 		.4byte	.LVL419
 9072 275e 60030000 		.4byte	.LVL421
 9073 2762 0300     		.2byte	0x3
 9074 2764 08       		.byte	0x8
 9075 2765 25       		.byte	0x25
 9076 2766 9F       		.byte	0x9f
 9077 2767 00000000 		.4byte	0
 9078 276b 00000000 		.4byte	0
 9079              	.LLST122:
 9080 276f 58030000 		.4byte	.LVL419
 9081 2773 60030000 		.4byte	.LVL421
 9082 2777 0600     		.2byte	0x6
 9083 2779 F2       		.byte	0xf2
 9084 277a 8D070000 		.4byte	.Ldebug_info0+1933
 9085 277e 00       		.sleb128 0
 9086 277f 00000000 		.4byte	0
 9087 2783 00000000 		.4byte	0
 9088              	.LLST123:
 9089 2787 6A030000 		.4byte	.LVL424
 9090 278b 8E030000 		.4byte	.LVL430
 9091 278f 0300     		.2byte	0x3
 9092 2791 91       		.byte	0x91
 9093 2792 A07F     		.sleb128 -96
 9094 2794 8E030000 		.4byte	.LVL430
 9095 2798 A6030000 		.4byte	.LVL437
 9096 279c 0400     		.2byte	0x4
 9097 279e 91       		.byte	0x91
 9098 279f AD7F     		.sleb128 -83
 9099 27a1 9F       		.byte	0x9f
 9100 27a2 94040000 		.4byte	.LVL481
 9101 27a6 AE040000 		.4byte	.LVL484
 9102 27aa 0300     		.2byte	0x3
 9103 27ac 91       		.byte	0x91
 9104 27ad A07F     		.sleb128 -96
 9105 27af AE040000 		.4byte	.LVL484
 9106 27b3 B0040000 		.4byte	.LVL485
 9107 27b7 0400     		.2byte	0x4
 9108 27b9 91       		.byte	0x91
 9109 27ba AD7F     		.sleb128 -83
 9110 27bc 9F       		.byte	0x9f
 9111 27bd 00000000 		.4byte	0
 9112 27c1 00000000 		.4byte	0
 9113              	.LLST124:
 9114 27c5 6A030000 		.4byte	.LVL424
ARM GAS  /tmp/cce3BzsE.s 			page 161


 9115 27c9 A6030000 		.4byte	.LVL437
 9116 27cd 0300     		.2byte	0x3
 9117 27cf 91       		.byte	0x91
 9118 27d0 9C7F     		.sleb128 -100
 9119 27d2 94040000 		.4byte	.LVL481
 9120 27d6 B0040000 		.4byte	.LVL485
 9121 27da 0300     		.2byte	0x3
 9122 27dc 91       		.byte	0x91
 9123 27dd 9C7F     		.sleb128 -100
 9124 27df 00000000 		.4byte	0
 9125 27e3 00000000 		.4byte	0
 9126              	.LLST125:
 9127 27e7 6A030000 		.4byte	.LVL424
 9128 27eb 8E030000 		.4byte	.LVL430
 9129 27ef 0100     		.2byte	0x1
 9130 27f1 54       		.byte	0x54
 9131 27f2 94040000 		.4byte	.LVL481
 9132 27f6 96040000 		.4byte	.LVL482
 9133 27fa 0100     		.2byte	0x1
 9134 27fc 54       		.byte	0x54
 9135 27fd 96040000 		.4byte	.LVL482
 9136 2801 AB040000 		.4byte	.LVL483-1
 9137 2805 0100     		.2byte	0x1
 9138 2807 53       		.byte	0x53
 9139 2808 00000000 		.4byte	0
 9140 280c 00000000 		.4byte	0
 9141              	.LLST126:
 9142 2810 6A030000 		.4byte	.LVL424
 9143 2814 A6030000 		.4byte	.LVL437
 9144 2818 0600     		.2byte	0x6
 9145 281a F2       		.byte	0xf2
 9146 281b 8D070000 		.4byte	.Ldebug_info0+1933
 9147 281f 00       		.sleb128 0
 9148 2820 94040000 		.4byte	.LVL481
 9149 2824 B0040000 		.4byte	.LVL485
 9150 2828 0600     		.2byte	0x6
 9151 282a F2       		.byte	0xf2
 9152 282b 8D070000 		.4byte	.Ldebug_info0+1933
 9153 282f 00       		.sleb128 0
 9154 2830 00000000 		.4byte	0
 9155 2834 00000000 		.4byte	0
 9156              	.LLST127:
 9157 2838 74030000 		.4byte	.LVL425
 9158 283c 8E030000 		.4byte	.LVL430
 9159 2840 0100     		.2byte	0x1
 9160 2842 51       		.byte	0x51
 9161 2843 94040000 		.4byte	.LVL481
 9162 2847 AB040000 		.4byte	.LVL483-1
 9163 284b 0100     		.2byte	0x1
 9164 284d 51       		.byte	0x51
 9165 284e 00000000 		.4byte	0
 9166 2852 00000000 		.4byte	0
 9167              	.LLST128:
 9168 2856 8E030000 		.4byte	.LVL430
 9169 285a 9C030000 		.4byte	.LVL433
 9170 285e 0100     		.2byte	0x1
 9171 2860 56       		.byte	0x56
ARM GAS  /tmp/cce3BzsE.s 			page 162


 9172 2861 9C030000 		.4byte	.LVL433
 9173 2865 9E030000 		.4byte	.LVL434
 9174 2869 0200     		.2byte	0x2
 9175 286b 72       		.byte	0x72
 9176 286c 00       		.sleb128 0
 9177 286d 9E030000 		.4byte	.LVL434
 9178 2871 A6030000 		.4byte	.LVL437
 9179 2875 0100     		.2byte	0x1
 9180 2877 56       		.byte	0x56
 9181 2878 AE040000 		.4byte	.LVL484
 9182 287c B0040000 		.4byte	.LVL485
 9183 2880 0100     		.2byte	0x1
 9184 2882 56       		.byte	0x56
 9185 2883 00000000 		.4byte	0
 9186 2887 00000000 		.4byte	0
 9187              	.LLST129:
 9188 288b 74030000 		.4byte	.LVL425
 9189 288f 7E030000 		.4byte	.LVL427
 9190 2893 0400     		.2byte	0x4
 9191 2895 91       		.byte	0x91
 9192 2896 AD7F     		.sleb128 -83
 9193 2898 9F       		.byte	0x9f
 9194 2899 7E030000 		.4byte	.LVL427
 9195 289d 82030000 		.4byte	.LVL428
 9196 28a1 0300     		.2byte	0x3
 9197 28a3 73       		.byte	0x73
 9198 28a4 01       		.sleb128 1
 9199 28a5 9F       		.byte	0x9f
 9200 28a6 82030000 		.4byte	.LVL428
 9201 28aa 8A030000 		.4byte	.LVL429
 9202 28ae 0300     		.2byte	0x3
 9203 28b0 73       		.byte	0x73
 9204 28b1 02       		.sleb128 2
 9205 28b2 9F       		.byte	0x9f
 9206 28b3 94040000 		.4byte	.LVL481
 9207 28b7 96040000 		.4byte	.LVL482
 9208 28bb 0300     		.2byte	0x3
 9209 28bd 73       		.byte	0x73
 9210 28be 02       		.sleb128 2
 9211 28bf 9F       		.byte	0x9f
 9212 28c0 00000000 		.4byte	0
 9213 28c4 00000000 		.4byte	0
 9214              	.LLST130:
 9215 28c8 92030000 		.4byte	.LVL431
 9216 28cc 9C030000 		.4byte	.LVL433
 9217 28d0 0100     		.2byte	0x1
 9218 28d2 56       		.byte	0x56
 9219 28d3 9C030000 		.4byte	.LVL433
 9220 28d7 9E030000 		.4byte	.LVL434
 9221 28db 0200     		.2byte	0x2
 9222 28dd 72       		.byte	0x72
 9223 28de 00       		.sleb128 0
 9224 28df 9E030000 		.4byte	.LVL434
 9225 28e3 A6030000 		.4byte	.LVL437
 9226 28e7 0100     		.2byte	0x1
 9227 28e9 56       		.byte	0x56
 9228 28ea 00000000 		.4byte	0
ARM GAS  /tmp/cce3BzsE.s 			page 163


 9229 28ee 00000000 		.4byte	0
 9230              	.LLST131:
 9231 28f2 92030000 		.4byte	.LVL431
 9232 28f6 A6030000 		.4byte	.LVL437
 9233 28fa 0600     		.2byte	0x6
 9234 28fc F2       		.byte	0xf2
 9235 28fd 8D070000 		.4byte	.Ldebug_info0+1933
 9236 2901 00       		.sleb128 0
 9237 2902 00000000 		.4byte	0
 9238 2906 00000000 		.4byte	0
 9239              	.LLST132:
 9240 290a 64010000 		.4byte	.LVL322
 9241 290e 68010000 		.4byte	.LVL323
 9242 2912 0400     		.2byte	0x4
 9243 2914 91       		.byte	0x91
 9244 2915 AD7F     		.sleb128 -83
 9245 2917 9F       		.byte	0x9f
 9246 2918 A2030000 		.4byte	.LVL435
 9247 291c A6030000 		.4byte	.LVL437
 9248 2920 0400     		.2byte	0x4
 9249 2922 91       		.byte	0x91
 9250 2923 AD7F     		.sleb128 -83
 9251 2925 9F       		.byte	0x9f
 9252 2926 36040000 		.4byte	.LVL464
 9253 292a 58040000 		.4byte	.LVL470
 9254 292e 0400     		.2byte	0x4
 9255 2930 91       		.byte	0x91
 9256 2931 AC7F     		.sleb128 -84
 9257 2933 9F       		.byte	0x9f
 9258 2934 58040000 		.4byte	.LVL470
 9259 2938 70040000 		.4byte	.LVL475
 9260 293c 0400     		.2byte	0x4
 9261 293e 91       		.byte	0x91
 9262 293f AD7F     		.sleb128 -83
 9263 2941 9F       		.byte	0x9f
 9264 2942 7A040000 		.4byte	.LVL477
 9265 2946 92040000 		.4byte	.LVL480
 9266 294a 0400     		.2byte	0x4
 9267 294c 91       		.byte	0x91
 9268 294d AC7F     		.sleb128 -84
 9269 294f 9F       		.byte	0x9f
 9270 2950 92040000 		.4byte	.LVL480
 9271 2954 94040000 		.4byte	.LVL481
 9272 2958 0400     		.2byte	0x4
 9273 295a 91       		.byte	0x91
 9274 295b AD7F     		.sleb128 -83
 9275 295d 9F       		.byte	0x9f
 9276 295e 04050000 		.4byte	.LVL502
 9277 2962 08050000 		.4byte	.LVL503
 9278 2966 0400     		.2byte	0x4
 9279 2968 91       		.byte	0x91
 9280 2969 AD7F     		.sleb128 -83
 9281 296b 9F       		.byte	0x9f
 9282 296c 00000000 		.4byte	0
 9283 2970 00000000 		.4byte	0
 9284              	.LLST133:
 9285 2974 36040000 		.4byte	.LVL464
ARM GAS  /tmp/cce3BzsE.s 			page 164


 9286 2978 70040000 		.4byte	.LVL475
 9287 297c 0300     		.2byte	0x3
 9288 297e 91       		.byte	0x91
 9289 297f 9C7F     		.sleb128 -100
 9290 2981 7A040000 		.4byte	.LVL477
 9291 2985 94040000 		.4byte	.LVL481
 9292 2989 0300     		.2byte	0x3
 9293 298b 91       		.byte	0x91
 9294 298c 9C7F     		.sleb128 -100
 9295 298e 00000000 		.4byte	0
 9296 2992 00000000 		.4byte	0
 9297              	.LLST134:
 9298 2996 36040000 		.4byte	.LVL464
 9299 299a 58040000 		.4byte	.LVL470
 9300 299e 0100     		.2byte	0x1
 9301 29a0 54       		.byte	0x54
 9302 29a1 7A040000 		.4byte	.LVL477
 9303 29a5 7C040000 		.4byte	.LVL478
 9304 29a9 0100     		.2byte	0x1
 9305 29ab 54       		.byte	0x54
 9306 29ac 7C040000 		.4byte	.LVL478
 9307 29b0 8F040000 		.4byte	.LVL479-1
 9308 29b4 0100     		.2byte	0x1
 9309 29b6 53       		.byte	0x53
 9310 29b7 E8040000 		.4byte	.LVL497
 9311 29bb EA040000 		.4byte	.LVL498
 9312 29bf 0100     		.2byte	0x1
 9313 29c1 54       		.byte	0x54
 9314 29c2 EA040000 		.4byte	.LVL498
 9315 29c6 F6040000 		.4byte	.LVL499
 9316 29ca 0100     		.2byte	0x1
 9317 29cc 52       		.byte	0x52
 9318 29cd F6040000 		.4byte	.LVL499
 9319 29d1 F8040000 		.4byte	.LVL500
 9320 29d5 0300     		.2byte	0x3
 9321 29d7 74       		.byte	0x74
 9322 29d8 7F       		.sleb128 -1
 9323 29d9 9F       		.byte	0x9f
 9324 29da 00000000 		.4byte	0
 9325 29de 00000000 		.4byte	0
 9326              	.LLST135:
 9327 29e2 36040000 		.4byte	.LVL464
 9328 29e6 70040000 		.4byte	.LVL475
 9329 29ea 0600     		.2byte	0x6
 9330 29ec F2       		.byte	0xf2
 9331 29ed 8D070000 		.4byte	.Ldebug_info0+1933
 9332 29f1 00       		.sleb128 0
 9333 29f2 7A040000 		.4byte	.LVL477
 9334 29f6 94040000 		.4byte	.LVL481
 9335 29fa 0600     		.2byte	0x6
 9336 29fc F2       		.byte	0xf2
 9337 29fd 8D070000 		.4byte	.Ldebug_info0+1933
 9338 2a01 00       		.sleb128 0
 9339 2a02 00000000 		.4byte	0
 9340 2a06 00000000 		.4byte	0
 9341              	.LLST136:
 9342 2a0a 40040000 		.4byte	.LVL466
ARM GAS  /tmp/cce3BzsE.s 			page 165


 9343 2a0e 58040000 		.4byte	.LVL470
 9344 2a12 0100     		.2byte	0x1
 9345 2a14 51       		.byte	0x51
 9346 2a15 7A040000 		.4byte	.LVL477
 9347 2a19 8F040000 		.4byte	.LVL479-1
 9348 2a1d 0100     		.2byte	0x1
 9349 2a1f 51       		.byte	0x51
 9350 2a20 00000000 		.4byte	0
 9351 2a24 00000000 		.4byte	0
 9352              	.LLST137:
 9353 2a28 58040000 		.4byte	.LVL470
 9354 2a2c 66040000 		.4byte	.LVL473
 9355 2a30 0100     		.2byte	0x1
 9356 2a32 56       		.byte	0x56
 9357 2a33 66040000 		.4byte	.LVL473
 9358 2a37 68040000 		.4byte	.LVL474
 9359 2a3b 0200     		.2byte	0x2
 9360 2a3d 72       		.byte	0x72
 9361 2a3e 00       		.sleb128 0
 9362 2a3f 68040000 		.4byte	.LVL474
 9363 2a43 70040000 		.4byte	.LVL475
 9364 2a47 0100     		.2byte	0x1
 9365 2a49 56       		.byte	0x56
 9366 2a4a 92040000 		.4byte	.LVL480
 9367 2a4e 94040000 		.4byte	.LVL481
 9368 2a52 0100     		.2byte	0x1
 9369 2a54 56       		.byte	0x56
 9370 2a55 00000000 		.4byte	0
 9371 2a59 00000000 		.4byte	0
 9372              	.LLST138:
 9373 2a5d 40040000 		.4byte	.LVL466
 9374 2a61 4A040000 		.4byte	.LVL467
 9375 2a65 0400     		.2byte	0x4
 9376 2a67 91       		.byte	0x91
 9377 2a68 AD7F     		.sleb128 -83
 9378 2a6a 9F       		.byte	0x9f
 9379 2a6b 4A040000 		.4byte	.LVL467
 9380 2a6f 4E040000 		.4byte	.LVL468
 9381 2a73 0300     		.2byte	0x3
 9382 2a75 73       		.byte	0x73
 9383 2a76 01       		.sleb128 1
 9384 2a77 9F       		.byte	0x9f
 9385 2a78 4E040000 		.4byte	.LVL468
 9386 2a7c 54040000 		.4byte	.LVL469
 9387 2a80 0300     		.2byte	0x3
 9388 2a82 73       		.byte	0x73
 9389 2a83 02       		.sleb128 2
 9390 2a84 9F       		.byte	0x9f
 9391 2a85 7A040000 		.4byte	.LVL477
 9392 2a89 7C040000 		.4byte	.LVL478
 9393 2a8d 0300     		.2byte	0x3
 9394 2a8f 73       		.byte	0x73
 9395 2a90 02       		.sleb128 2
 9396 2a91 9F       		.byte	0x9f
 9397 2a92 00000000 		.4byte	0
 9398 2a96 00000000 		.4byte	0
 9399              	.LLST139:
ARM GAS  /tmp/cce3BzsE.s 			page 166


 9400 2a9a 5C040000 		.4byte	.LVL471
 9401 2a9e 66040000 		.4byte	.LVL473
 9402 2aa2 0100     		.2byte	0x1
 9403 2aa4 56       		.byte	0x56
 9404 2aa5 66040000 		.4byte	.LVL473
 9405 2aa9 68040000 		.4byte	.LVL474
 9406 2aad 0200     		.2byte	0x2
 9407 2aaf 72       		.byte	0x72
 9408 2ab0 00       		.sleb128 0
 9409 2ab1 68040000 		.4byte	.LVL474
 9410 2ab5 70040000 		.4byte	.LVL475
 9411 2ab9 0100     		.2byte	0x1
 9412 2abb 56       		.byte	0x56
 9413 2abc 00000000 		.4byte	0
 9414 2ac0 00000000 		.4byte	0
 9415              	.LLST140:
 9416 2ac4 5C040000 		.4byte	.LVL471
 9417 2ac8 70040000 		.4byte	.LVL475
 9418 2acc 0600     		.2byte	0x6
 9419 2ace F2       		.byte	0xf2
 9420 2acf 8D070000 		.4byte	.Ldebug_info0+1933
 9421 2ad3 00       		.sleb128 0
 9422 2ad4 00000000 		.4byte	0
 9423 2ad8 00000000 		.4byte	0
 9424              	.LLST141:
 9425 2adc 30000000 		.4byte	.LVL267
 9426 2ae0 48000000 		.4byte	.LVL269
 9427 2ae4 0200     		.2byte	0x2
 9428 2ae6 30       		.byte	0x30
 9429 2ae7 9F       		.byte	0x9f
 9430 2ae8 00000000 		.4byte	0
 9431 2aec 00000000 		.4byte	0
 9432              	.LLST142:
 9433 2af0 30000000 		.4byte	.LVL267
 9434 2af4 48000000 		.4byte	.LVL269
 9435 2af8 0600     		.2byte	0x6
 9436 2afa F2       		.byte	0xf2
 9437 2afb 8D070000 		.4byte	.Ldebug_info0+1933
 9438 2aff 00       		.sleb128 0
 9439 2b00 00000000 		.4byte	0
 9440 2b04 00000000 		.4byte	0
 9441              		.section	.debug_aranges,"",%progbits
 9442 0000 34000000 		.4byte	0x34
 9443 0004 0200     		.2byte	0x2
 9444 0006 00000000 		.4byte	.Ldebug_info0
 9445 000a 04       		.byte	0x4
 9446 000b 00       		.byte	0
 9447 000c 0000     		.2byte	0
 9448 000e 0000     		.2byte	0
 9449 0010 00000000 		.4byte	.LFB51
 9450 0014 64050000 		.4byte	.LFE51-.LFB51
 9451 0018 00000000 		.4byte	.LFB52
 9452 001c 14000000 		.4byte	.LFE52-.LFB52
 9453 0020 00000000 		.4byte	.LFB53
 9454 0024 28000000 		.4byte	.LFE53-.LFB53
 9455 0028 00000000 		.4byte	.LFB55
 9456 002c 18050000 		.4byte	.LFE55-.LFB55
ARM GAS  /tmp/cce3BzsE.s 			page 167


 9457 0030 00000000 		.4byte	0
 9458 0034 00000000 		.4byte	0
 9459              		.section	.debug_ranges,"",%progbits
 9460              	.Ldebug_ranges0:
 9461 0000 8C000000 		.4byte	.LBB35
 9462 0004 8E000000 		.4byte	.LBE35
 9463 0008 90000000 		.4byte	.LBB41
 9464 000c 2C010000 		.4byte	.LBE41
 9465 0010 1A050000 		.4byte	.LBB107
 9466 0014 22050000 		.4byte	.LBE107
 9467 0018 00000000 		.4byte	0
 9468 001c 00000000 		.4byte	0
 9469 0020 B4000000 		.4byte	.LBB37
 9470 0024 04010000 		.4byte	.LBE37
 9471 0028 08010000 		.4byte	.LBB38
 9472 002c 1E010000 		.4byte	.LBE38
 9473 0030 00000000 		.4byte	0
 9474 0034 00000000 		.4byte	0
 9475 0038 2C010000 		.4byte	.LBB42
 9476 003c 68010000 		.4byte	.LBE42
 9477 0040 E8040000 		.4byte	.LBB105
 9478 0044 10050000 		.4byte	.LBE105
 9479 0048 4C050000 		.4byte	.LBB112
 9480 004c 54050000 		.4byte	.LBE112
 9481 0050 00000000 		.4byte	0
 9482 0054 00000000 		.4byte	0
 9483 0058 86010000 		.4byte	.LBB46
 9484 005c A0010000 		.4byte	.LBE46
 9485 0060 B8010000 		.4byte	.LBB53
 9486 0064 D0010000 		.4byte	.LBE53
 9487 0068 00000000 		.4byte	0
 9488 006c 00000000 		.4byte	0
 9489 0070 86010000 		.4byte	.LBB48
 9490 0074 A0010000 		.4byte	.LBE48
 9491 0078 B8010000 		.4byte	.LBB51
 9492 007c BA010000 		.4byte	.LBE51
 9493 0080 00000000 		.4byte	0
 9494 0084 00000000 		.4byte	0
 9495 0088 F0010000 		.4byte	.LBB54
 9496 008c 80020000 		.4byte	.LBE54
 9497 0090 78030000 		.4byte	.LBB90
 9498 0094 7C030000 		.4byte	.LBE90
 9499 0098 0C040000 		.4byte	.LBB96
 9500 009c 30040000 		.4byte	.LBE96
 9501 00a0 30050000 		.4byte	.LBB109
 9502 00a4 34050000 		.4byte	.LBE109
 9503 00a8 00000000 		.4byte	0
 9504 00ac 00000000 		.4byte	0
 9505 00b0 FC010000 		.4byte	.LBB56
 9506 00b4 FE010000 		.4byte	.LBE56
 9507 00b8 00020000 		.4byte	.LBB65
 9508 00bc 80020000 		.4byte	.LBE65
 9509 00c0 78030000 		.4byte	.LBB66
 9510 00c4 7C030000 		.4byte	.LBE66
 9511 00c8 22040000 		.4byte	.LBB67
 9512 00cc 30040000 		.4byte	.LBE67
 9513 00d0 30050000 		.4byte	.LBB68
ARM GAS  /tmp/cce3BzsE.s 			page 168


 9514 00d4 34050000 		.4byte	.LBE68
 9515 00d8 00000000 		.4byte	0
 9516 00dc 00000000 		.4byte	0
 9517 00e0 26020000 		.4byte	.LBB58
 9518 00e4 78020000 		.4byte	.LBE58
 9519 00e8 7C020000 		.4byte	.LBB59
 9520 00ec 80020000 		.4byte	.LBE59
 9521 00f0 22040000 		.4byte	.LBB60
 9522 00f4 30040000 		.4byte	.LBE60
 9523 00f8 00000000 		.4byte	0
 9524 00fc 00000000 		.4byte	0
 9525 0100 88020000 		.4byte	.LBB72
 9526 0104 DA020000 		.4byte	.LBE72
 9527 0108 40050000 		.4byte	.LBB111
 9528 010c 48050000 		.4byte	.LBE111
 9529 0110 00000000 		.4byte	0
 9530 0114 00000000 		.4byte	0
 9531 0118 EA020000 		.4byte	.LBB75
 9532 011c EC020000 		.4byte	.LBE75
 9533 0120 EE020000 		.4byte	.LBB89
 9534 0124 6A030000 		.4byte	.LBE89
 9535 0128 BC030000 		.4byte	.LBB95
 9536 012c 0C040000 		.4byte	.LBE95
 9537 0130 30040000 		.4byte	.LBB97
 9538 0134 4C040000 		.4byte	.LBE97
 9539 0138 8A040000 		.4byte	.LBB102
 9540 013c 94040000 		.4byte	.LBE102
 9541 0140 14050000 		.4byte	.LBB106
 9542 0144 1A050000 		.4byte	.LBE106
 9543 0148 22050000 		.4byte	.LBB108
 9544 014c 30050000 		.4byte	.LBE108
 9545 0150 00000000 		.4byte	0
 9546 0154 00000000 		.4byte	0
 9547 0158 2C030000 		.4byte	.LBB77
 9548 015c 60030000 		.4byte	.LBE77
 9549 0160 BC030000 		.4byte	.LBB78
 9550 0164 02040000 		.4byte	.LBE78
 9551 0168 08040000 		.4byte	.LBB79
 9552 016c 0C040000 		.4byte	.LBE79
 9553 0170 30040000 		.4byte	.LBB80
 9554 0174 48040000 		.4byte	.LBE80
 9555 0178 8A040000 		.4byte	.LBB81
 9556 017c 90040000 		.4byte	.LBE81
 9557 0180 14050000 		.4byte	.LBB82
 9558 0184 1A050000 		.4byte	.LBE82
 9559 0188 00000000 		.4byte	0
 9560 018c 00000000 		.4byte	0
 9561 0190 7C030000 		.4byte	.LBB91
 9562 0194 B8030000 		.4byte	.LBE91
 9563 0198 BC040000 		.4byte	.LBB104
 9564 019c E4040000 		.4byte	.LBE104
 9565 01a0 58050000 		.4byte	.LBB113
 9566 01a4 60050000 		.4byte	.LBE113
 9567 01a8 00000000 		.4byte	0
 9568 01ac 00000000 		.4byte	0
 9569 01b0 4C040000 		.4byte	.LBB98
 9570 01b4 86040000 		.4byte	.LBE98
ARM GAS  /tmp/cce3BzsE.s 			page 169


 9571 01b8 94040000 		.4byte	.LBB103
 9572 01bc B8040000 		.4byte	.LBE103
 9573 01c0 34050000 		.4byte	.LBB110
 9574 01c4 3C050000 		.4byte	.LBE110
 9575 01c8 00000000 		.4byte	0
 9576 01cc 00000000 		.4byte	0
 9577 01d0 1A000000 		.4byte	.LBB164
 9578 01d4 30000000 		.4byte	.LBE164
 9579 01d8 48000000 		.4byte	.LBB267
 9580 01dc 18050000 		.4byte	.LBE267
 9581 01e0 00000000 		.4byte	0
 9582 01e4 00000000 		.4byte	0
 9583 01e8 24000000 		.4byte	.LBB166
 9584 01ec 26000000 		.4byte	.LBE166
 9585 01f0 2A000000 		.4byte	.LBB169
 9586 01f4 2C000000 		.4byte	.LBE169
 9587 01f8 00000000 		.4byte	0
 9588 01fc 00000000 		.4byte	0
 9589 0200 8C000000 		.4byte	.LBB171
 9590 0204 8E000000 		.4byte	.LBE171
 9591 0208 90000000 		.4byte	.LBB177
 9592 020c 2C010000 		.4byte	.LBE177
 9593 0210 D2040000 		.4byte	.LBB259
 9594 0214 DA040000 		.4byte	.LBE259
 9595 0218 00000000 		.4byte	0
 9596 021c 00000000 		.4byte	0
 9597 0220 B4000000 		.4byte	.LBB173
 9598 0224 04010000 		.4byte	.LBE173
 9599 0228 08010000 		.4byte	.LBB174
 9600 022c 1E010000 		.4byte	.LBE174
 9601 0230 00000000 		.4byte	0
 9602 0234 00000000 		.4byte	0
 9603 0238 2C010000 		.4byte	.LBB178
 9604 023c 64010000 		.4byte	.LBE178
 9605 0240 B0040000 		.4byte	.LBB257
 9606 0244 CC040000 		.4byte	.LBE257
 9607 0248 00000000 		.4byte	0
 9608 024c 00000000 		.4byte	0
 9609 0250 DE010000 		.4byte	.LBB191
 9610 0254 6A020000 		.4byte	.LBE191
 9611 0258 66030000 		.4byte	.LBB233
 9612 025c 6A030000 		.4byte	.LBE233
 9613 0260 F6030000 		.4byte	.LBB242
 9614 0264 1A040000 		.4byte	.LBE242
 9615 0268 08050000 		.4byte	.LBB262
 9616 026c 0C050000 		.4byte	.LBE262
 9617 0270 00000000 		.4byte	0
 9618 0274 00000000 		.4byte	0
 9619 0278 EA010000 		.4byte	.LBB193
 9620 027c EC010000 		.4byte	.LBE193
 9621 0280 EE010000 		.4byte	.LBB202
 9622 0284 6A020000 		.4byte	.LBE202
 9623 0288 66030000 		.4byte	.LBB203
 9624 028c 6A030000 		.4byte	.LBE203
 9625 0290 0C040000 		.4byte	.LBB204
 9626 0294 1A040000 		.4byte	.LBE204
 9627 0298 08050000 		.4byte	.LBB205
ARM GAS  /tmp/cce3BzsE.s 			page 170


 9628 029c 0C050000 		.4byte	.LBE205
 9629 02a0 00000000 		.4byte	0
 9630 02a4 00000000 		.4byte	0
 9631 02a8 14020000 		.4byte	.LBB195
 9632 02ac 62020000 		.4byte	.LBE195
 9633 02b0 66020000 		.4byte	.LBB196
 9634 02b4 6A020000 		.4byte	.LBE196
 9635 02b8 0C040000 		.4byte	.LBB197
 9636 02bc 1A040000 		.4byte	.LBE197
 9637 02c0 00000000 		.4byte	0
 9638 02c4 00000000 		.4byte	0
 9639 02c8 72020000 		.4byte	.LBB209
 9640 02cc C6020000 		.4byte	.LBE209
 9641 02d0 0C050000 		.4byte	.LBB263
 9642 02d4 14050000 		.4byte	.LBE263
 9643 02d8 00000000 		.4byte	0
 9644 02dc 00000000 		.4byte	0
 9645 02e0 D6020000 		.4byte	.LBB216
 9646 02e4 D8020000 		.4byte	.LBE216
 9647 02e8 DA020000 		.4byte	.LBB230
 9648 02ec 58030000 		.4byte	.LBE230
 9649 02f0 A6030000 		.4byte	.LBB241
 9650 02f4 F6030000 		.4byte	.LBE241
 9651 02f8 1A040000 		.4byte	.LBB243
 9652 02fc 36040000 		.4byte	.LBE243
 9653 0300 70040000 		.4byte	.LBB254
 9654 0304 7A040000 		.4byte	.LBE254
 9655 0308 CC040000 		.4byte	.LBB258
 9656 030c D2040000 		.4byte	.LBE258
 9657 0310 DA040000 		.4byte	.LBB260
 9658 0314 E8040000 		.4byte	.LBE260
 9659 0318 00000000 		.4byte	0
 9660 031c 00000000 		.4byte	0
 9661 0320 1A030000 		.4byte	.LBB218
 9662 0324 4E030000 		.4byte	.LBE218
 9663 0328 A6030000 		.4byte	.LBB219
 9664 032c EE030000 		.4byte	.LBE219
 9665 0330 F2030000 		.4byte	.LBB220
 9666 0334 F6030000 		.4byte	.LBE220
 9667 0338 1A040000 		.4byte	.LBB221
 9668 033c 32040000 		.4byte	.LBE221
 9669 0340 70040000 		.4byte	.LBB222
 9670 0344 76040000 		.4byte	.LBE222
 9671 0348 CC040000 		.4byte	.LBB223
 9672 034c D2040000 		.4byte	.LBE223
 9673 0350 00000000 		.4byte	0
 9674 0354 00000000 		.4byte	0
 9675 0358 6A030000 		.4byte	.LBB234
 9676 035c A2030000 		.4byte	.LBE234
 9677 0360 94040000 		.4byte	.LBB256
 9678 0364 B0040000 		.4byte	.LBE256
 9679 0368 00000000 		.4byte	0
 9680 036c 00000000 		.4byte	0
 9681 0370 36040000 		.4byte	.LBB244
 9682 0374 6C040000 		.4byte	.LBE244
 9683 0378 7A040000 		.4byte	.LBB255
 9684 037c 94040000 		.4byte	.LBE255
ARM GAS  /tmp/cce3BzsE.s 			page 171


 9685 0380 E8040000 		.4byte	.LBB261
 9686 0384 04050000 		.4byte	.LBE261
 9687 0388 00000000 		.4byte	0
 9688 038c 00000000 		.4byte	0
 9689 0390 80040000 		.4byte	.LBB248
 9690 0394 94040000 		.4byte	.LBE248
 9691 0398 F0040000 		.4byte	.LBB251
 9692 039c 04050000 		.4byte	.LBE251
 9693 03a0 00000000 		.4byte	0
 9694 03a4 00000000 		.4byte	0
 9695 03a8 00000000 		.4byte	.LFB51
 9696 03ac 64050000 		.4byte	.LFE51
 9697 03b0 00000000 		.4byte	.LFB52
 9698 03b4 14000000 		.4byte	.LFE52
 9699 03b8 00000000 		.4byte	.LFB53
 9700 03bc 28000000 		.4byte	.LFE53
 9701 03c0 00000000 		.4byte	.LFB55
 9702 03c4 18050000 		.4byte	.LFE55
 9703 03c8 00000000 		.4byte	0
 9704 03cc 00000000 		.4byte	0
 9705              		.section	.debug_line,"",%progbits
 9706              	.Ldebug_line0:
 9707 0000 76030000 		.section	.debug_str,"MS",%progbits,1
 9707      02006600 
 9707      00000201 
 9707      FB0E0D00 
 9707      01010101 
 9708              	.LASF30:
 9709 0000 7466705F 		.ascii	"tfp_format\000"
 9709      666F726D 
 9709      617400
 9710              	.LASF10:
 9711 000b 76615F6C 		.ascii	"va_list\000"
 9711      69737400 
 9712              	.LASF11:
 9713 0013 70757463 		.ascii	"putcf\000"
 9713      6600
 9714              	.LASF4:
 9715 0019 756E7369 		.ascii	"unsigned char\000"
 9715      676E6564 
 9715      20636861 
 9715      7200
 9716              	.LASF32:
 9717 0027 5F5F6275 		.ascii	"__builtin_memset\000"
 9717      696C7469 
 9717      6E5F6D65 
 9717      6D736574 
 9717      00
 9718              	.LASF14:
 9719 0038 62617365 		.ascii	"base\000"
 9719      00
 9720              	.LASF5:
 9721 003d 73686F72 		.ascii	"short unsigned int\000"
 9721      7420756E 
 9721      7369676E 
 9721      65642069 
 9721      6E7400
ARM GAS  /tmp/cce3BzsE.s 			page 172


 9722              	.LASF12:
 9723 0050 70757463 		.ascii	"putcp\000"
 9723      7000
 9724              	.LASF20:
 9725 0056 696E6974 		.ascii	"init_printf\000"
 9725      5F707269 
 9725      6E746600 
 9726              	.LASF33:
 9727 0062 6D656D73 		.ascii	"memset\000"
 9727      657400
 9728              	.LASF26:
 9729 0069 7072696E 		.ascii	"printf.c\000"
 9729      74662E63 
 9729      00
 9730              	.LASF24:
 9731 0072 7374646F 		.ascii	"stdout_putp\000"
 9731      75745F70 
 9731      75747000 
 9732              	.LASF9:
 9733 007e 5F5F676E 		.ascii	"__gnuc_va_list\000"
 9733      75635F76 
 9733      615F6C69 
 9733      737400
 9734              	.LASF22:
 9735 008d 7466705F 		.ascii	"tfp_sprintf\000"
 9735      73707269 
 9735      6E746600 
 9736              	.LASF0:
 9737 0099 756E7369 		.ascii	"unsigned int\000"
 9737      676E6564 
 9737      20696E74 
 9737      00
 9738              	.LASF16:
 9739 00a6 64696769 		.ascii	"digit\000"
 9739      7400
 9740              	.LASF6:
 9741 00ac 6C6F6E67 		.ascii	"long long unsigned int\000"
 9741      206C6F6E 
 9741      6720756E 
 9741      7369676E 
 9741      65642069 
 9742              	.LASF29:
 9743 00c3 5F5F6170 		.ascii	"__ap\000"
 9743      00
 9744              	.LASF25:
 9745 00c8 474E5520 		.ascii	"GNU C 4.9.2 -mcpu=cortex-m0 -mfloat-abi=soft -mfp16"
 9745      4320342E 
 9745      392E3220 
 9745      2D6D6370 
 9745      753D636F 
 9746 00fb 2D666F72 		.ascii	"-format=none -mno-thumb-interwork -mthumb -mfloat-a"
 9746      6D61743D 
 9746      6E6F6E65 
 9746      202D6D6E 
 9746      6F2D7468 
 9747 012e 62693D73 		.ascii	"bi=soft -mfpu=vfpv3-d16 -mtls-dialect=gnu -ggdb -O3"
 9747      6F667420 
ARM GAS  /tmp/cce3BzsE.s 			page 173


 9747      2D6D6670 
 9747      753D7666 
 9747      7076332D 
 9748 0161 202D7374 		.ascii	" -std=gnu99 -fomit-frame-pointer -falign-functions="
 9748      643D676E 
 9748      75393920 
 9748      2D666F6D 
 9748      69742D66 
 9749 0194 3136202D 		.ascii	"16 -ffunction-sections -fdata-sections -fno-common\000"
 9749      6666756E 
 9749      6374696F 
 9749      6E2D7365 
 9749      6374696F 
 9750              	.LASF21:
 9751 01c7 7466705F 		.ascii	"tfp_printf\000"
 9751      7072696E 
 9751      746600
 9752              	.LASF7:
 9753 01d2 73697A65 		.ascii	"sizetype\000"
 9753      74797065 
 9753      00
 9754              	.LASF28:
 9755 01db 5F5F7661 		.ascii	"__va_list\000"
 9755      5F6C6973 
 9755      7400
 9756              	.LASF3:
 9757 01e5 6C6F6E67 		.ascii	"long long int\000"
 9757      206C6F6E 
 9757      6720696E 
 9757      7400
 9758              	.LASF8:
 9759 01f3 63686172 		.ascii	"char\000"
 9759      00
 9760              	.LASF15:
 9761 01f8 6E756D70 		.ascii	"nump\000"
 9761      00
 9762              	.LASF19:
 9763 01fd 70757466 		.ascii	"putf\000"
 9763      00
 9764              	.LASF2:
 9765 0202 73686F72 		.ascii	"short int\000"
 9765      7420696E 
 9765      7400
 9766              	.LASF17:
 9767 020c 70757463 		.ascii	"putchw\000"
 9767      687700
 9768              	.LASF18:
 9769 0213 70757470 		.ascii	"putp\000"
 9769      00
 9770              	.LASF31:
 9771 0218 61626F72 		.ascii	"abort\000"
 9771      7400
 9772              	.LASF1:
 9773 021e 7369676E 		.ascii	"signed char\000"
 9773      65642063 
 9773      68617200 
 9774              	.LASF23:
ARM GAS  /tmp/cce3BzsE.s 			page 174


 9775 022a 7374646F 		.ascii	"stdout_putf\000"
 9775      75745F70 
 9775      75746600 
 9776              	.LASF13:
 9777 0236 75693261 		.ascii	"ui2a\000"
 9777      00
 9778              	.LASF27:
 9779 023b 2F686F6D 		.ascii	"/home/bunnie/code/chibi-chibios/orchard\000"
 9779      652F6275 
 9779      6E6E6965 
 9779      2F636F64 
 9779      652F6368 
 9780              		.ident	"GCC: (Debian 4.9.2-10) 4.9.2"
 9781              		.section	.note.GNU-stack,"",%progbits
ARM GAS  /tmp/cce3BzsE.s 			page 175


DEFINED SYMBOLS
                            *ABS*:00000000 printf.c
     /tmp/cce3BzsE.s:20     .text.tfp_format:00000000 $t
     /tmp/cce3BzsE.s:26     .text.tfp_format:00000000 tfp_format
     /tmp/cce3BzsE.s:1458   .text.init_printf:00000000 $t
     /tmp/cce3BzsE.s:1464   .text.init_printf:00000000 init_printf
     /tmp/cce3BzsE.s:1483   .text.init_printf:0000000c $d
     /tmp/cce3BzsE.s:1489   .text.tfp_printf:00000000 $t
     /tmp/cce3BzsE.s:1495   .text.tfp_printf:00000000 tfp_printf
     /tmp/cce3BzsE.s:1533   .text.tfp_printf:00000020 $d
     /tmp/cce3BzsE.s:1539   .text.tfp_sprintf:00000000 $t
     /tmp/cce3BzsE.s:1545   .text.tfp_sprintf:00000000 tfp_sprintf
     /tmp/cce3BzsE.s:2941   .bss.stdout_putf:00000000 $d
     /tmp/cce3BzsE.s:2945   .bss.stdout_putf:00000000 stdout_putf
     /tmp/cce3BzsE.s:2948   .bss.stdout_putp:00000000 $d
     /tmp/cce3BzsE.s:2952   .bss.stdout_putp:00000000 stdout_putp
                     .debug_frame:00000010 $d
     /tmp/cce3BzsE.s:1488   .text.init_printf:00000014 $t
     /tmp/cce3BzsE.s:1538   .text.tfp_printf:00000028 $t

UNDEFINED SYMBOLS
__aeabi_uidiv
__aeabi_uidivmod
memset
