ARM GAS  /tmp/cckPztkN.s 			page 1


   1              		.cpu cortex-m0
   2              		.fpu softvfp
   3              		.eabi_attribute 20, 1
   4              		.eabi_attribute 21, 1
   5              		.eabi_attribute 23, 3
   6              		.eabi_attribute 24, 1
   7              		.eabi_attribute 25, 1
   8              		.eabi_attribute 26, 2
   9              		.eabi_attribute 30, 2
  10              		.eabi_attribute 34, 0
  11              		.eabi_attribute 18, 4
  12              		.code	16
  13              		.file	"serial.c"
  14              		.text
  15              	.Ltext0:
  16              		.cfi_sections	.debug_frame
  17              		.section	.text.readt,"ax",%progbits
  18              		.align	2
  19              		.p2align 4,,15
  20              		.code	16
  21              		.thumb_func
  22              		.type	readt, %function
  23              	readt:
  24              	.LFB88:
  25              		.file 1 "../os/hal/src/serial.c"
  26              		.loc 1 87 0
  27              		.cfi_startproc
  28              	.LVL0:
  29 0000 08B5     		push	{r3, lr}
  30              		.cfi_def_cfa_offset 8
  31              		.cfi_offset 3, -8
  32              		.cfi_offset 14, -4
  33              		.loc 1 89 0
  34 0002 1430     		add	r0, r0, #20
  35              	.LVL1:
  36 0004 FFF7FEFF 		bl	iqReadTimeout
  37              	.LVL2:
  38              		.loc 1 90 0
  39              		@ sp needed
  40 0008 08BD     		pop	{r3, pc}
  41              		.cfi_endproc
  42              	.LFE88:
  43              		.size	readt, .-readt
  44 000a C046C046 		.section	.text.read,"ax",%progbits
  44      C046
  45              		.align	2
  46              		.p2align 4,,15
  47              		.code	16
  48              		.thumb_func
  49              		.type	read, %function
  50              	read:
  51              	.LFB82:
  52              		.loc 1 56 0
  53              		.cfi_startproc
  54              	.LVL3:
  55 0000 08B5     		push	{r3, lr}
  56              		.cfi_def_cfa_offset 8
ARM GAS  /tmp/cckPztkN.s 			page 2


  57              		.cfi_offset 3, -8
  58              		.cfi_offset 14, -4
  59              		.loc 1 58 0
  60 0002 1430     		add	r0, r0, #20
  61              	.LVL4:
  62 0004 0023     		mov	r3, #0
  63 0006 FFF7FEFF 		bl	iqReadTimeout
  64              	.LVL5:
  65              		.loc 1 60 0
  66              		@ sp needed
  67 000a 08BD     		pop	{r3, pc}
  68              		.cfi_endproc
  69              	.LFE82:
  70              		.size	read, .-read
  71 000c C046C046 		.section	.text.writet,"ax",%progbits
  72              		.align	2
  73              		.p2align 4,,15
  74              		.code	16
  75              		.thumb_func
  76              		.type	writet, %function
  77              	writet:
  78              	.LFB87:
  79              		.loc 1 82 0
  80              		.cfi_startproc
  81              	.LVL6:
  82 0000 08B5     		push	{r3, lr}
  83              		.cfi_def_cfa_offset 8
  84              		.cfi_offset 3, -8
  85              		.cfi_offset 14, -4
  86              		.loc 1 84 0
  87 0002 3430     		add	r0, r0, #52
  88              	.LVL7:
  89 0004 FFF7FEFF 		bl	oqWriteTimeout
  90              	.LVL8:
  91              		.loc 1 85 0
  92              		@ sp needed
  93 0008 08BD     		pop	{r3, pc}
  94              		.cfi_endproc
  95              	.LFE87:
  96              		.size	writet, .-writet
  97 000a C046C046 		.section	.text.write,"ax",%progbits
  97      C046
  98              		.align	2
  99              		.p2align 4,,15
 100              		.code	16
 101              		.thumb_func
 102              		.type	write, %function
 103              	write:
 104              	.LFB81:
 105              		.loc 1 50 0
 106              		.cfi_startproc
 107              	.LVL9:
 108 0000 08B5     		push	{r3, lr}
 109              		.cfi_def_cfa_offset 8
 110              		.cfi_offset 3, -8
 111              		.cfi_offset 14, -4
 112              		.loc 1 52 0
ARM GAS  /tmp/cckPztkN.s 			page 3


 113 0002 3430     		add	r0, r0, #52
 114              	.LVL10:
 115 0004 0023     		mov	r3, #0
 116 0006 FFF7FEFF 		bl	oqWriteTimeout
 117              	.LVL11:
 118              		.loc 1 54 0
 119              		@ sp needed
 120 000a 08BD     		pop	{r3, pc}
 121              		.cfi_endproc
 122              	.LFE81:
 123              		.size	write, .-write
 124 000c C046C046 		.section	.text.gett,"ax",%progbits
 125              		.align	2
 126              		.p2align 4,,15
 127              		.code	16
 128              		.thumb_func
 129              		.type	gett, %function
 130              	gett:
 131              	.LFB86:
 132              		.loc 1 77 0
 133              		.cfi_startproc
 134              	.LVL12:
 135 0000 08B5     		push	{r3, lr}
 136              		.cfi_def_cfa_offset 8
 137              		.cfi_offset 3, -8
 138              		.cfi_offset 14, -4
 139              		.loc 1 79 0
 140 0002 1430     		add	r0, r0, #20
 141              	.LVL13:
 142 0004 FFF7FEFF 		bl	iqGetTimeout
 143              	.LVL14:
 144              		.loc 1 80 0
 145              		@ sp needed
 146 0008 08BD     		pop	{r3, pc}
 147              		.cfi_endproc
 148              	.LFE86:
 149              		.size	gett, .-gett
 150 000a C046C046 		.section	.text.get,"ax",%progbits
 150      C046
 151              		.align	2
 152              		.p2align 4,,15
 153              		.code	16
 154              		.thumb_func
 155              		.type	get, %function
 156              	get:
 157              	.LFB84:
 158              		.loc 1 67 0
 159              		.cfi_startproc
 160              	.LVL15:
 161 0000 08B5     		push	{r3, lr}
 162              		.cfi_def_cfa_offset 8
 163              		.cfi_offset 3, -8
 164              		.cfi_offset 14, -4
 165              		.loc 1 69 0
 166 0002 1430     		add	r0, r0, #20
 167              	.LVL16:
 168 0004 0021     		mov	r1, #0
ARM GAS  /tmp/cckPztkN.s 			page 4


 169 0006 FFF7FEFF 		bl	iqGetTimeout
 170              	.LVL17:
 171              		.loc 1 70 0
 172              		@ sp needed
 173 000a 08BD     		pop	{r3, pc}
 174              		.cfi_endproc
 175              	.LFE84:
 176              		.size	get, .-get
 177 000c C046C046 		.section	.text.putt,"ax",%progbits
 178              		.align	2
 179              		.p2align 4,,15
 180              		.code	16
 181              		.thumb_func
 182              		.type	putt, %function
 183              	putt:
 184              	.LFB85:
 185              		.loc 1 72 0
 186              		.cfi_startproc
 187              	.LVL18:
 188 0000 08B5     		push	{r3, lr}
 189              		.cfi_def_cfa_offset 8
 190              		.cfi_offset 3, -8
 191              		.cfi_offset 14, -4
 192              		.loc 1 74 0
 193 0002 3430     		add	r0, r0, #52
 194              	.LVL19:
 195 0004 FFF7FEFF 		bl	oqPutTimeout
 196              	.LVL20:
 197              		.loc 1 75 0
 198              		@ sp needed
 199 0008 08BD     		pop	{r3, pc}
 200              		.cfi_endproc
 201              	.LFE85:
 202              		.size	putt, .-putt
 203 000a C046C046 		.section	.text.put,"ax",%progbits
 203      C046
 204              		.align	2
 205              		.p2align 4,,15
 206              		.code	16
 207              		.thumb_func
 208              		.type	put, %function
 209              	put:
 210              	.LFB83:
 211              		.loc 1 62 0
 212              		.cfi_startproc
 213              	.LVL21:
 214 0000 08B5     		push	{r3, lr}
 215              		.cfi_def_cfa_offset 8
 216              		.cfi_offset 3, -8
 217              		.cfi_offset 14, -4
 218              		.loc 1 64 0
 219 0002 3430     		add	r0, r0, #52
 220              	.LVL22:
 221 0004 0022     		mov	r2, #0
 222 0006 FFF7FEFF 		bl	oqPutTimeout
 223              	.LVL23:
 224              		.loc 1 65 0
ARM GAS  /tmp/cckPztkN.s 			page 5


 225              		@ sp needed
 226 000a 08BD     		pop	{r3, pc}
 227              		.cfi_endproc
 228              	.LFE83:
 229              		.size	put, .-put
 230 000c C046C046 		.section	.text.sdInit,"ax",%progbits
 231              		.align	2
 232              		.p2align 4,,15
 233              		.global	sdInit
 234              		.code	16
 235              		.thumb_func
 236              		.type	sdInit, %function
 237              	sdInit:
 238              	.LFB89:
 239              		.loc 1 108 0
 240              		.cfi_startproc
 241 0000 08B5     		push	{r3, lr}
 242              		.cfi_def_cfa_offset 8
 243              		.cfi_offset 3, -8
 244              		.cfi_offset 14, -4
 245              		.loc 1 110 0
 246 0002 FFF7FEFF 		bl	sd_lld_init
 247              	.LVL24:
 248              		.loc 1 111 0
 249              		@ sp needed
 250 0006 08BD     		pop	{r3, pc}
 251              		.cfi_endproc
 252              	.LFE89:
 253              		.size	sdInit, .-sdInit
 254              		.section	.text.sdObjectInit,"ax",%progbits
 255              		.align	2
 256              		.p2align 4,,15
 257              		.global	sdObjectInit
 258              		.code	16
 259              		.thumb_func
 260              		.type	sdObjectInit, %function
 261              	sdObjectInit:
 262              	.LFB90:
 263              		.loc 1 128 0
 264              		.cfi_startproc
 265              	.LVL25:
 266 0000 30B5     		push	{r4, r5, lr}
 267              		.cfi_def_cfa_offset 12
 268              		.cfi_offset 4, -12
 269              		.cfi_offset 5, -8
 270              		.cfi_offset 14, -4
 271 0002 151C     		mov	r5, r2
 272              		.loc 1 130 0
 273 0004 0E4A     		ldr	r2, .L11
 274              	.LVL26:
 275              		.loc 1 128 0
 276 0006 041C     		mov	r4, r0
 277              		.loc 1 130 0
 278 0008 0260     		str	r2, [r0]
 279              	.LVL27:
 280              	.LBB64:
 281              	.LBB65:
ARM GAS  /tmp/cckPztkN.s 			page 6


 282              		.file 2 "../os/hal/osal/nil/osal.h"
 283              		.loc 2 808 0
 284 000a 0020     		mov	r0, #0
 285              	.LVL28:
 286              	.LBE65:
 287              	.LBE64:
 288              		.loc 1 128 0
 289 000c 0B1C     		mov	r3, r1
 290              	.LBB67:
 291              	.LBB66:
 292              		.loc 2 808 0
 293 000e 6060     		str	r0, [r4, #4]
 294              		.loc 2 809 0
 295 0010 A060     		str	r0, [r4, #8]
 296              		.loc 2 810 0
 297 0012 E060     		str	r0, [r4, #12]
 298              	.LBE66:
 299              	.LBE67:
 300              		.loc 1 132 0
 301 0014 0122     		mov	r2, #1
 302              		.loc 1 133 0
 303 0016 201C     		mov	r0, r4
 304 0018 211C     		mov	r1, r4
 305              	.LVL29:
 306              		.loc 1 128 0
 307 001a 83B0     		sub	sp, sp, #12
 308              		.cfi_def_cfa_offset 24
 309              		.loc 1 132 0
 310 001c 2261     		str	r2, [r4, #16]
 311              		.loc 1 133 0
 312 001e 1430     		add	r0, r0, #20
 313 0020 5431     		add	r1, r1, #84
 314 0022 0094     		str	r4, [sp]
 315 0024 1022     		mov	r2, #16
 316 0026 FFF7FEFF 		bl	iqObjectInit
 317              	.LVL30:
 318              		.loc 1 134 0
 319 002a 201C     		mov	r0, r4
 320 002c 211C     		mov	r1, r4
 321 002e 3430     		add	r0, r0, #52
 322 0030 6431     		add	r1, r1, #100
 323 0032 0094     		str	r4, [sp]
 324 0034 1022     		mov	r2, #16
 325 0036 2B1C     		mov	r3, r5
 326 0038 FFF7FEFF 		bl	oqObjectInit
 327              	.LVL31:
 328              		.loc 1 135 0
 329 003c 03B0     		add	sp, sp, #12
 330              		@ sp needed
 331              	.LVL32:
 332              	.LVL33:
 333 003e 30BD     		pop	{r4, r5, pc}
 334              	.L12:
 335              		.align	2
 336              	.L11:
 337 0040 00000000 		.word	.LANCHOR0
 338              		.cfi_endproc
ARM GAS  /tmp/cckPztkN.s 			page 7


 339              	.LFE90:
 340              		.size	sdObjectInit, .-sdObjectInit
 341 0044 C046C046 		.section	.text.sdStart,"ax",%progbits
 341      C046C046 
 341      C046C046 
 342              		.align	2
 343              		.p2align 4,,15
 344              		.global	sdStart
 345              		.code	16
 346              		.thumb_func
 347              		.type	sdStart, %function
 348              	sdStart:
 349              	.LFB91:
 350              		.loc 1 147 0
 351              		.cfi_startproc
 352              	.LVL34:
 353 0000 10B5     		push	{r4, lr}
 354              		.cfi_def_cfa_offset 8
 355              		.cfi_offset 4, -8
 356              		.cfi_offset 14, -4
 357              		.loc 1 147 0
 358 0002 041C     		mov	r4, r0
 359              	.LBB68:
 360              	.LBB69:
 361              	.LBB70:
 362              	.LBB71:
 363              		.file 3 "../os/ext/CMSIS/include/core_cmFunc.h"
 364              		.loc 3 344 0
 365              	#APP
 366              	@ 344 "../os/ext/CMSIS/include/core_cmFunc.h" 1
 367 0004 72B6     		cpsid i
 368              	@ 0 "" 2
 369              		.code	16
 370              	.LBE71:
 371              	.LBE70:
 372              	.LBE69:
 373              	.LBE68:
 374              		.loc 1 154 0
 375 0006 FFF7FEFF 		bl	sd_lld_start
 376              	.LVL35:
 377              		.loc 1 155 0
 378 000a 0223     		mov	r3, #2
 379 000c 2361     		str	r3, [r4, #16]
 380              	.LBB72:
 381              	.LBB73:
 382              	.LBB74:
 383              	.LBB75:
 384              		.loc 3 333 0
 385              	#APP
 386              	@ 333 "../os/ext/CMSIS/include/core_cmFunc.h" 1
 387 000e 62B6     		cpsie i
 388              	@ 0 "" 2
 389              		.code	16
 390              	.LBE75:
 391              	.LBE74:
 392              	.LBE73:
 393              	.LBE72:
ARM GAS  /tmp/cckPztkN.s 			page 8


 394              		.loc 1 157 0
 395              		@ sp needed
 396              	.LVL36:
 397 0010 10BD     		pop	{r4, pc}
 398              		.cfi_endproc
 399              	.LFE91:
 400              		.size	sdStart, .-sdStart
 401 0012 C046C046 		.section	.text.sdStop,"ax",%progbits
 401      C046C046 
 401      C046C046 
 401      C046
 402              		.align	2
 403              		.p2align 4,,15
 404              		.global	sdStop
 405              		.code	16
 406              		.thumb_func
 407              		.type	sdStop, %function
 408              	sdStop:
 409              	.LFB92:
 410              		.loc 1 168 0
 411              		.cfi_startproc
 412              	.LVL37:
 413 0000 10B5     		push	{r4, lr}
 414              		.cfi_def_cfa_offset 8
 415              		.cfi_offset 4, -8
 416              		.cfi_offset 14, -4
 417              		.loc 1 168 0
 418 0002 041C     		mov	r4, r0
 419              	.LBB76:
 420              	.LBB77:
 421              	.LBB78:
 422              	.LBB79:
 423              		.loc 3 344 0
 424              	#APP
 425              	@ 344 "../os/ext/CMSIS/include/core_cmFunc.h" 1
 426 0004 72B6     		cpsid i
 427              	@ 0 "" 2
 428              		.code	16
 429              	.LBE79:
 430              	.LBE78:
 431              	.LBE77:
 432              	.LBE76:
 433              		.loc 1 175 0
 434 0006 FFF7FEFF 		bl	sd_lld_stop
 435              	.LVL38:
 436              		.loc 1 176 0
 437 000a 0123     		mov	r3, #1
 438              		.loc 1 177 0
 439 000c 201C     		mov	r0, r4
 440              		.loc 1 176 0
 441 000e 2361     		str	r3, [r4, #16]
 442              		.loc 1 177 0
 443 0010 3430     		add	r0, r0, #52
 444 0012 FFF7FEFF 		bl	oqResetI
 445              	.LVL39:
 446              		.loc 1 178 0
 447 0016 201C     		mov	r0, r4
ARM GAS  /tmp/cckPztkN.s 			page 9


 448 0018 1430     		add	r0, r0, #20
 449 001a FFF7FEFF 		bl	iqResetI
 450              	.LVL40:
 451              	.LBB80:
 452              	.LBB81:
 453              		.loc 2 609 0
 454 001e FFF7FEFF 		bl	chSchRescheduleS
 455              	.LVL41:
 456              	.LBE81:
 457              	.LBE80:
 458              	.LBB82:
 459              	.LBB83:
 460              	.LBB84:
 461              	.LBB85:
 462              		.loc 3 333 0
 463              	#APP
 464              	@ 333 "../os/ext/CMSIS/include/core_cmFunc.h" 1
 465 0022 62B6     		cpsie i
 466              	@ 0 "" 2
 467              		.code	16
 468              	.LBE85:
 469              	.LBE84:
 470              	.LBE83:
 471              	.LBE82:
 472              		.loc 1 181 0
 473              		@ sp needed
 474              	.LVL42:
 475 0024 10BD     		pop	{r4, pc}
 476              		.cfi_endproc
 477              	.LFE92:
 478              		.size	sdStop, .-sdStop
 479 0026 C046C046 		.section	.text.sdIncomingDataI,"ax",%progbits
 479      C046C046 
 479      C046
 480              		.align	2
 481              		.p2align 4,,15
 482              		.global	sdIncomingDataI
 483              		.code	16
 484              		.thumb_func
 485              		.type	sdIncomingDataI, %function
 486              	sdIncomingDataI:
 487              	.LFB93:
 488              		.loc 1 199 0
 489              		.cfi_startproc
 490              	.LVL43:
 491 0000 38B5     		push	{r3, r4, r5, lr}
 492              		.cfi_def_cfa_offset 16
 493              		.cfi_offset 3, -16
 494              		.cfi_offset 4, -12
 495              		.cfi_offset 5, -8
 496              		.cfi_offset 14, -4
 497              		.loc 1 204 0
 498 0002 8369     		ldr	r3, [r0, #24]
 499              		.loc 1 199 0
 500 0004 041C     		mov	r4, r0
 501 0006 0D1C     		mov	r5, r1
 502              		.loc 1 204 0
ARM GAS  /tmp/cckPztkN.s 			page 10


 503 0008 002B     		cmp	r3, #0
 504 000a 08D1     		bne	.L17
 505              	.LVL44:
 506              	.LBB86:
 507              	.LBB87:
 508              		.loc 2 826 0
 509 000c 0423     		mov	r3, #4
 510 000e 4268     		ldr	r2, [r0, #4]
 511 0010 1343     		orr	r3, r2
 512 0012 4360     		str	r3, [r0, #4]
 513              		.loc 2 827 0
 514 0014 8368     		ldr	r3, [r0, #8]
 515 0016 002B     		cmp	r3, #0
 516 0018 01D0     		beq	.L17
 517              	.LBE87:
 518              	.LBE86:
 519              		.loc 1 205 0
 520 001a 0430     		add	r0, r0, #4
 521              	.LVL45:
 522              	.LBB89:
 523              	.LBB88:
 524              		.loc 2 828 0
 525 001c 9847     		blx	r3
 526              	.LVL46:
 527              	.L17:
 528              	.LBE88:
 529              	.LBE89:
 530              		.loc 1 206 0
 531 001e 201C     		mov	r0, r4
 532 0020 291C     		mov	r1, r5
 533 0022 1430     		add	r0, r0, #20
 534 0024 FFF7FEFF 		bl	iqPutI
 535              	.LVL47:
 536 0028 0028     		cmp	r0, #0
 537 002a 00DB     		blt	.L29
 538              	.L15:
 539              		.loc 1 208 0
 540              		@ sp needed
 541              	.LVL48:
 542 002c 38BD     		pop	{r3, r4, r5, pc}
 543              	.LVL49:
 544              	.L29:
 545              	.LBB90:
 546              	.LBB91:
 547              		.loc 2 826 0
 548 002e 8023     		mov	r3, #128
 549 0030 6268     		ldr	r2, [r4, #4]
 550              	.LBE91:
 551              	.LBE90:
 552              		.loc 1 207 0
 553 0032 201D     		add	r0, r4, #4
 554              	.LVL50:
 555              	.LBB93:
 556              	.LBB92:
 557              		.loc 2 826 0
 558 0034 1343     		orr	r3, r2
 559 0036 6360     		str	r3, [r4, #4]
ARM GAS  /tmp/cckPztkN.s 			page 11


 560              		.loc 2 827 0
 561 0038 A368     		ldr	r3, [r4, #8]
 562 003a 002B     		cmp	r3, #0
 563 003c F6D0     		beq	.L15
 564              		.loc 2 828 0
 565 003e 9847     		blx	r3
 566              	.LVL51:
 567 0040 F4E7     		b	.L15
 568              	.LBE92:
 569              	.LBE93:
 570              		.cfi_endproc
 571              	.LFE93:
 572              		.size	sdIncomingDataI, .-sdIncomingDataI
 573 0042 C046C046 		.section	.text.sdRequestDataI,"ax",%progbits
 573      C046C046 
 573      C046C046 
 573      C046
 574              		.align	2
 575              		.p2align 4,,15
 576              		.global	sdRequestDataI
 577              		.code	16
 578              		.thumb_func
 579              		.type	sdRequestDataI, %function
 580              	sdRequestDataI:
 581              	.LFB94:
 582              		.loc 1 225 0
 583              		.cfi_startproc
 584              	.LVL52:
 585 0000 38B5     		push	{r3, r4, r5, lr}
 586              		.cfi_def_cfa_offset 16
 587              		.cfi_offset 3, -16
 588              		.cfi_offset 4, -12
 589              		.cfi_offset 5, -8
 590              		.cfi_offset 14, -4
 591              		.loc 1 225 0
 592 0002 041C     		mov	r4, r0
 593              		.loc 1 231 0
 594 0004 3430     		add	r0, r0, #52
 595              	.LVL53:
 596 0006 FFF7FEFF 		bl	oqGetI
 597              	.LVL54:
 598 000a 051E     		sub	r5, r0, #0
 599              	.LVL55:
 600              		.loc 1 232 0
 601 000c 01DB     		blt	.L37
 602              	.LVL56:
 603              	.L32:
 604              		.loc 1 235 0
 605 000e 281C     		mov	r0, r5
 606              		@ sp needed
 607              	.LVL57:
 608              	.LVL58:
 609 0010 38BD     		pop	{r3, r4, r5, pc}
 610              	.LVL59:
 611              	.L37:
 612              	.LBB94:
 613              	.LBB95:
ARM GAS  /tmp/cckPztkN.s 			page 12


 614              		.loc 2 826 0
 615 0012 0823     		mov	r3, #8
 616 0014 6268     		ldr	r2, [r4, #4]
 617              	.LBE95:
 618              	.LBE94:
 619              		.loc 1 233 0
 620 0016 201D     		add	r0, r4, #4
 621              	.LVL60:
 622              	.LBB97:
 623              	.LBB96:
 624              		.loc 2 826 0
 625 0018 1343     		orr	r3, r2
 626 001a 6360     		str	r3, [r4, #4]
 627              		.loc 2 827 0
 628 001c A368     		ldr	r3, [r4, #8]
 629 001e 002B     		cmp	r3, #0
 630 0020 F5D0     		beq	.L32
 631              		.loc 2 828 0
 632 0022 9847     		blx	r3
 633              	.LVL61:
 634 0024 F3E7     		b	.L32
 635              	.LBE96:
 636              	.LBE97:
 637              		.cfi_endproc
 638              	.LFE94:
 639              		.size	sdRequestDataI, .-sdRequestDataI
 640 0026 C046C046 		.section	.text.sdPutWouldBlock,"ax",%progbits
 640      C046C046 
 640      C046
 641              		.align	2
 642              		.p2align 4,,15
 643              		.global	sdPutWouldBlock
 644              		.code	16
 645              		.thumb_func
 646              		.type	sdPutWouldBlock, %function
 647              	sdPutWouldBlock:
 648              	.LFB95:
 649              		.loc 1 252 0
 650              		.cfi_startproc
 651              	.LVL62:
 652              	.LBB98:
 653              	.LBB99:
 654              	.LBB100:
 655              	.LBB101:
 656              		.loc 3 344 0
 657              	#APP
 658              	@ 344 "../os/ext/CMSIS/include/core_cmFunc.h" 1
 659 0000 72B6     		cpsid i
 660              	@ 0 "" 2
 661              		.code	16
 662              	.LBE101:
 663              	.LBE100:
 664              	.LBE99:
 665              	.LBE98:
 666              		.loc 1 256 0
 667 0002 806B     		ldr	r0, [r0, #56]
 668              	.LVL63:
ARM GAS  /tmp/cckPztkN.s 			page 13


 669              	.LBB102:
 670              	.LBB103:
 671              	.LBB104:
 672              	.LBB105:
 673              		.loc 3 333 0
 674              	#APP
 675              	@ 333 "../os/ext/CMSIS/include/core_cmFunc.h" 1
 676 0004 62B6     		cpsie i
 677              	@ 0 "" 2
 678              		.code	16
 679              	.LBE105:
 680              	.LBE104:
 681              	.LBE103:
 682              	.LBE102:
 683              		.loc 1 256 0
 684 0006 4342     		neg	r3, r0
 685 0008 5841     		adc	r0, r0, r3
 686              	.LVL64:
 687              		.loc 1 260 0
 688              		@ sp needed
 689              		.loc 1 259 0
 690 000a C0B2     		uxtb	r0, r0
 691              		.loc 1 260 0
 692 000c 7047     		bx	lr
 693              		.cfi_endproc
 694              	.LFE95:
 695              		.size	sdPutWouldBlock, .-sdPutWouldBlock
 696 000e C046     		.section	.text.sdGetWouldBlock,"ax",%progbits
 697              		.align	2
 698              		.p2align 4,,15
 699              		.global	sdGetWouldBlock
 700              		.code	16
 701              		.thumb_func
 702              		.type	sdGetWouldBlock, %function
 703              	sdGetWouldBlock:
 704              	.LFB96:
 705              		.loc 1 277 0
 706              		.cfi_startproc
 707              	.LVL65:
 708              	.LBB106:
 709              	.LBB107:
 710              	.LBB108:
 711              	.LBB109:
 712              		.loc 3 344 0
 713              	#APP
 714              	@ 344 "../os/ext/CMSIS/include/core_cmFunc.h" 1
 715 0000 72B6     		cpsid i
 716              	@ 0 "" 2
 717              		.code	16
 718              	.LBE109:
 719              	.LBE108:
 720              	.LBE107:
 721              	.LBE106:
 722              		.loc 1 281 0
 723 0002 8069     		ldr	r0, [r0, #24]
 724              	.LVL66:
 725              	.LBB110:
ARM GAS  /tmp/cckPztkN.s 			page 14


 726              	.LBB111:
 727              	.LBB112:
 728              	.LBB113:
 729              		.loc 3 333 0
 730              	#APP
 731              	@ 333 "../os/ext/CMSIS/include/core_cmFunc.h" 1
 732 0004 62B6     		cpsie i
 733              	@ 0 "" 2
 734              		.code	16
 735              	.LBE113:
 736              	.LBE112:
 737              	.LBE111:
 738              	.LBE110:
 739              		.loc 1 281 0
 740 0006 4342     		neg	r3, r0
 741 0008 5841     		adc	r0, r0, r3
 742              	.LVL67:
 743              		.loc 1 285 0
 744              		@ sp needed
 745              		.loc 1 284 0
 746 000a C0B2     		uxtb	r0, r0
 747              		.loc 1 285 0
 748 000c 7047     		bx	lr
 749              		.cfi_endproc
 750              	.LFE96:
 751              		.size	sdGetWouldBlock, .-sdGetWouldBlock
 752 000e C046     		.section	.rodata.vmt,"a",%progbits
 753              		.align	2
 754              	.LANCHOR0 = . + 0
 755              		.type	vmt, %object
 756              		.size	vmt, 32
 757              	vmt:
 758 0000 00000000 		.word	write
 759 0004 00000000 		.word	read
 760 0008 00000000 		.word	put
 761 000c 00000000 		.word	get
 762 0010 00000000 		.word	putt
 763 0014 00000000 		.word	gett
 764 0018 00000000 		.word	writet
 765 001c 00000000 		.word	readt
 766              		.text
 767              	.Letext0:
 768              		.file 4 "/usr/lib/gcc/arm-linux-gnueabihf/4.9/include/stddef.h"
 769              		.file 5 "/usr/include/stdint.h"
 770              		.file 6 "../os/nil/include/nil.h"
 771              		.file 7 "../os/nil/ports/ARMCMx/compilers/GCC/niltypes.h"
 772              		.file 8 "../os/ext/CMSIS/KINETIS/kl02x.h"
 773              		.file 9 "../os/nil/ports/ARMCMx/nilcore.h"
 774              		.file 10 "../os/nil/ports/ARMCMx/nilcore_v6m.h"
 775              		.file 11 "../os/hal/include/hal_queues.h"
 776              		.file 12 "../os/hal/include/serial.h"
 777              		.file 13 "../os/hal/ports/KINETIS/KL02x/serial_lld.h"
 778              		.section	.debug_info,"",%progbits
 779              	.Ldebug_info0:
 780 0000 F2110000 		.4byte	0x11f2
 781 0004 0400     		.2byte	0x4
 782 0006 00000000 		.4byte	.Ldebug_abbrev0
ARM GAS  /tmp/cckPztkN.s 			page 15


 783 000a 04       		.byte	0x4
 784 000b 01       		.uleb128 0x1
 785 000c 76040000 		.4byte	.LASF117
 786 0010 01       		.byte	0x1
 787 0011 86000000 		.4byte	.LASF118
 788 0015 EA000000 		.4byte	.LASF119
 789 0019 60000000 		.4byte	.Ldebug_ranges0+0x60
 790 001d 00000000 		.4byte	0
 791 0021 00000000 		.4byte	.Ldebug_line0
 792 0025 02       		.uleb128 0x2
 793 0026 04       		.byte	0x4
 794 0027 05       		.byte	0x5
 795 0028 696E7400 		.ascii	"int\000"
 796 002c 03       		.uleb128 0x3
 797 002d E4010000 		.4byte	.LASF3
 798 0031 04       		.byte	0x4
 799 0032 D4       		.byte	0xd4
 800 0033 37000000 		.4byte	0x37
 801 0037 04       		.uleb128 0x4
 802 0038 04       		.byte	0x4
 803 0039 07       		.byte	0x7
 804 003a 62000000 		.4byte	.LASF0
 805 003e 04       		.uleb128 0x4
 806 003f 01       		.byte	0x1
 807 0040 06       		.byte	0x6
 808 0041 A8050000 		.4byte	.LASF1
 809 0045 04       		.uleb128 0x4
 810 0046 02       		.byte	0x2
 811 0047 05       		.byte	0x5
 812 0048 70030000 		.4byte	.LASF2
 813 004c 03       		.uleb128 0x3
 814 004d 57040000 		.4byte	.LASF4
 815 0051 05       		.byte	0x5
 816 0052 26       		.byte	0x26
 817 0053 25000000 		.4byte	0x25
 818 0057 04       		.uleb128 0x4
 819 0058 08       		.byte	0x8
 820 0059 05       		.byte	0x5
 821 005a BC020000 		.4byte	.LASF5
 822 005e 03       		.uleb128 0x3
 823 005f 99020000 		.4byte	.LASF6
 824 0063 05       		.byte	0x5
 825 0064 30       		.byte	0x30
 826 0065 69000000 		.4byte	0x69
 827 0069 04       		.uleb128 0x4
 828 006a 01       		.byte	0x1
 829 006b 08       		.byte	0x8
 830 006c 5F040000 		.4byte	.LASF7
 831 0070 04       		.uleb128 0x4
 832 0071 02       		.byte	0x2
 833 0072 07       		.byte	0x7
 834 0073 C3050000 		.4byte	.LASF8
 835 0077 03       		.uleb128 0x3
 836 0078 19010000 		.4byte	.LASF9
 837 007c 05       		.byte	0x5
 838 007d 33       		.byte	0x33
 839 007e 37000000 		.4byte	0x37
ARM GAS  /tmp/cckPztkN.s 			page 16


 840 0082 03       		.uleb128 0x3
 841 0083 E1030000 		.4byte	.LASF10
 842 0087 05       		.byte	0x5
 843 0088 3A       		.byte	0x3a
 844 0089 8D000000 		.4byte	0x8d
 845 008d 04       		.uleb128 0x4
 846 008e 08       		.byte	0x8
 847 008f 07       		.byte	0x7
 848 0090 5A010000 		.4byte	.LASF11
 849 0094 03       		.uleb128 0x3
 850 0095 C8010000 		.4byte	.LASF12
 851 0099 06       		.byte	0x6
 852 009a 25       		.byte	0x25
 853 009b 9F000000 		.4byte	0x9f
 854 009f 05       		.uleb128 0x5
 855 00a0 9D050000 		.4byte	.LASF27
 856 00a4 18       		.byte	0x18
 857 00a5 06       		.byte	0x6
 858 00a6 6201     		.2byte	0x162
 859 00a8 FA000000 		.4byte	0xfa
 860 00ac 06       		.uleb128 0x6
 861 00ad 8A030000 		.4byte	.LASF13
 862 00b1 06       		.byte	0x6
 863 00b2 6301     		.2byte	0x163
 864 00b4 22030000 		.4byte	0x322
 865 00b8 00       		.byte	0
 866 00b9 06       		.uleb128 0x6
 867 00ba 8A050000 		.4byte	.LASF14
 868 00be 06       		.byte	0x6
 869 00bf 6401     		.2byte	0x164
 870 00c1 FA000000 		.4byte	0xfa
 871 00c5 04       		.byte	0x4
 872 00c6 07       		.uleb128 0x7
 873 00c7 753100   		.ascii	"u1\000"
 874 00ca 06       		.byte	0x6
 875 00cb 6F01     		.2byte	0x16f
 876 00cd D2020000 		.4byte	0x2d2
 877 00d1 08       		.byte	0x8
 878 00d2 06       		.uleb128 0x6
 879 00d3 75050000 		.4byte	.LASF15
 880 00d7 06       		.byte	0x6
 881 00d8 7001     		.2byte	0x170
 882 00da 28030000 		.4byte	0x328
 883 00de 0C       		.byte	0xc
 884 00df 06       		.uleb128 0x6
 885 00e0 20030000 		.4byte	.LASF16
 886 00e4 06       		.byte	0x6
 887 00e5 7301     		.2byte	0x173
 888 00e7 10010000 		.4byte	0x110
 889 00eb 10       		.byte	0x10
 890 00ec 06       		.uleb128 0x6
 891 00ed 71010000 		.4byte	.LASF17
 892 00f1 06       		.byte	0x6
 893 00f2 7601     		.2byte	0x176
 894 00f4 A8020000 		.4byte	0x2a8
 895 00f8 14       		.byte	0x14
 896 00f9 00       		.byte	0
ARM GAS  /tmp/cckPztkN.s 			page 17


 897 00fa 03       		.uleb128 0x3
 898 00fb 90020000 		.4byte	.LASF18
 899 00ff 07       		.byte	0x7
 900 0100 37       		.byte	0x37
 901 0101 5E000000 		.4byte	0x5e
 902 0105 03       		.uleb128 0x3
 903 0106 D9020000 		.4byte	.LASF19
 904 010a 07       		.byte	0x7
 905 010b 38       		.byte	0x38
 906 010c 4C000000 		.4byte	0x4c
 907 0110 03       		.uleb128 0x3
 908 0111 31010000 		.4byte	.LASF20
 909 0115 07       		.byte	0x7
 910 0116 39       		.byte	0x39
 911 0117 77000000 		.4byte	0x77
 912 011b 03       		.uleb128 0x3
 913 011c 90010000 		.4byte	.LASF21
 914 0120 07       		.byte	0x7
 915 0121 3A       		.byte	0x3a
 916 0122 4C000000 		.4byte	0x4c
 917 0126 03       		.uleb128 0x3
 918 0127 4D000000 		.4byte	.LASF22
 919 012b 07       		.byte	0x7
 920 012c 41       		.byte	0x41
 921 012d 77000000 		.4byte	0x77
 922 0131 04       		.uleb128 0x4
 923 0132 04       		.byte	0x4
 924 0133 07       		.byte	0x7
 925 0134 31040000 		.4byte	.LASF23
 926 0138 08       		.uleb128 0x8
 927 0139 5E000000 		.4byte	0x5e
 928 013d 09       		.uleb128 0x9
 929 013e 0C       		.byte	0xc
 930 013f 08       		.byte	0x8
 931 0140 2C01     		.2byte	0x12c
 932 0142 DA010000 		.4byte	0x1da
 933 0146 07       		.uleb128 0x7
 934 0147 42444800 		.ascii	"BDH\000"
 935 014b 08       		.byte	0x8
 936 014c 2E01     		.2byte	0x12e
 937 014e 38010000 		.4byte	0x138
 938 0152 00       		.byte	0
 939 0153 07       		.uleb128 0x7
 940 0154 42444C00 		.ascii	"BDL\000"
 941 0158 08       		.byte	0x8
 942 0159 2F01     		.2byte	0x12f
 943 015b 38010000 		.4byte	0x138
 944 015f 01       		.byte	0x1
 945 0160 07       		.uleb128 0x7
 946 0161 433100   		.ascii	"C1\000"
 947 0164 08       		.byte	0x8
 948 0165 3001     		.2byte	0x130
 949 0167 38010000 		.4byte	0x138
 950 016b 02       		.byte	0x2
 951 016c 07       		.uleb128 0x7
 952 016d 433200   		.ascii	"C2\000"
 953 0170 08       		.byte	0x8
ARM GAS  /tmp/cckPztkN.s 			page 18


 954 0171 3101     		.2byte	0x131
 955 0173 38010000 		.4byte	0x138
 956 0177 03       		.byte	0x3
 957 0178 07       		.uleb128 0x7
 958 0179 533100   		.ascii	"S1\000"
 959 017c 08       		.byte	0x8
 960 017d 3201     		.2byte	0x132
 961 017f 38010000 		.4byte	0x138
 962 0183 04       		.byte	0x4
 963 0184 07       		.uleb128 0x7
 964 0185 533200   		.ascii	"S2\000"
 965 0188 08       		.byte	0x8
 966 0189 3301     		.2byte	0x133
 967 018b 38010000 		.4byte	0x138
 968 018f 05       		.byte	0x5
 969 0190 07       		.uleb128 0x7
 970 0191 433300   		.ascii	"C3\000"
 971 0194 08       		.byte	0x8
 972 0195 3401     		.2byte	0x134
 973 0197 38010000 		.4byte	0x138
 974 019b 06       		.byte	0x6
 975 019c 07       		.uleb128 0x7
 976 019d 4400     		.ascii	"D\000"
 977 019f 08       		.byte	0x8
 978 01a0 3501     		.2byte	0x135
 979 01a2 38010000 		.4byte	0x138
 980 01a6 07       		.byte	0x7
 981 01a7 07       		.uleb128 0x7
 982 01a8 4D413100 		.ascii	"MA1\000"
 983 01ac 08       		.byte	0x8
 984 01ad 3601     		.2byte	0x136
 985 01af 38010000 		.4byte	0x138
 986 01b3 08       		.byte	0x8
 987 01b4 07       		.uleb128 0x7
 988 01b5 4D413200 		.ascii	"MA2\000"
 989 01b9 08       		.byte	0x8
 990 01ba 3701     		.2byte	0x137
 991 01bc 38010000 		.4byte	0x138
 992 01c0 09       		.byte	0x9
 993 01c1 07       		.uleb128 0x7
 994 01c2 433400   		.ascii	"C4\000"
 995 01c5 08       		.byte	0x8
 996 01c6 3801     		.2byte	0x138
 997 01c8 38010000 		.4byte	0x138
 998 01cc 0A       		.byte	0xa
 999 01cd 07       		.uleb128 0x7
 1000 01ce 433500   		.ascii	"C5\000"
 1001 01d1 08       		.byte	0x8
 1002 01d2 3901     		.2byte	0x139
 1003 01d4 38010000 		.4byte	0x138
 1004 01d8 0B       		.byte	0xb
 1005 01d9 00       		.byte	0
 1006 01da 0A       		.uleb128 0xa
 1007 01db 0D040000 		.4byte	.LASF24
 1008 01df 08       		.byte	0x8
 1009 01e0 3A01     		.2byte	0x13a
 1010 01e2 3D010000 		.4byte	0x13d
ARM GAS  /tmp/cckPztkN.s 			page 19


 1011 01e6 03       		.uleb128 0x3
 1012 01e7 31000000 		.4byte	.LASF25
 1013 01eb 09       		.byte	0x9
 1014 01ec 65       		.byte	0x65
 1015 01ed F1010000 		.4byte	0x1f1
 1016 01f1 0B       		.uleb128 0xb
 1017 01f2 04       		.byte	0x4
 1018 01f3 03       		.uleb128 0x3
 1019 01f4 D6050000 		.4byte	.LASF26
 1020 01f8 09       		.byte	0x9
 1021 01f9 6D       		.byte	0x6d
 1022 01fa 82000000 		.4byte	0x82
 1023 01fe 0C       		.uleb128 0xc
 1024 01ff 8F030000 		.4byte	.LASF28
 1025 0203 24       		.byte	0x24
 1026 0204 0A       		.byte	0xa
 1027 0205 A4       		.byte	0xa4
 1028 0206 70020000 		.4byte	0x270
 1029 020a 0D       		.uleb128 0xd
 1030 020b 723800   		.ascii	"r8\000"
 1031 020e 0A       		.byte	0xa
 1032 020f A5       		.byte	0xa5
 1033 0210 E6010000 		.4byte	0x1e6
 1034 0214 00       		.byte	0
 1035 0215 0D       		.uleb128 0xd
 1036 0216 723900   		.ascii	"r9\000"
 1037 0219 0A       		.byte	0xa
 1038 021a A6       		.byte	0xa6
 1039 021b E6010000 		.4byte	0x1e6
 1040 021f 04       		.byte	0x4
 1041 0220 0D       		.uleb128 0xd
 1042 0221 72313000 		.ascii	"r10\000"
 1043 0225 0A       		.byte	0xa
 1044 0226 A7       		.byte	0xa7
 1045 0227 E6010000 		.4byte	0x1e6
 1046 022b 08       		.byte	0x8
 1047 022c 0D       		.uleb128 0xd
 1048 022d 72313100 		.ascii	"r11\000"
 1049 0231 0A       		.byte	0xa
 1050 0232 A8       		.byte	0xa8
 1051 0233 E6010000 		.4byte	0x1e6
 1052 0237 0C       		.byte	0xc
 1053 0238 0D       		.uleb128 0xd
 1054 0239 723400   		.ascii	"r4\000"
 1055 023c 0A       		.byte	0xa
 1056 023d A9       		.byte	0xa9
 1057 023e E6010000 		.4byte	0x1e6
 1058 0242 10       		.byte	0x10
 1059 0243 0D       		.uleb128 0xd
 1060 0244 723500   		.ascii	"r5\000"
 1061 0247 0A       		.byte	0xa
 1062 0248 AA       		.byte	0xaa
 1063 0249 E6010000 		.4byte	0x1e6
 1064 024d 14       		.byte	0x14
 1065 024e 0D       		.uleb128 0xd
 1066 024f 723600   		.ascii	"r6\000"
 1067 0252 0A       		.byte	0xa
ARM GAS  /tmp/cckPztkN.s 			page 20


 1068 0253 AB       		.byte	0xab
 1069 0254 E6010000 		.4byte	0x1e6
 1070 0258 18       		.byte	0x18
 1071 0259 0D       		.uleb128 0xd
 1072 025a 723700   		.ascii	"r7\000"
 1073 025d 0A       		.byte	0xa
 1074 025e AC       		.byte	0xac
 1075 025f E6010000 		.4byte	0x1e6
 1076 0263 1C       		.byte	0x1c
 1077 0264 0D       		.uleb128 0xd
 1078 0265 6C7200   		.ascii	"lr\000"
 1079 0268 0A       		.byte	0xa
 1080 0269 AD       		.byte	0xad
 1081 026a E6010000 		.4byte	0x1e6
 1082 026e 20       		.byte	0x20
 1083 026f 00       		.byte	0
 1084 0270 0A       		.uleb128 0xa
 1085 0271 EB020000 		.4byte	.LASF29
 1086 0275 06       		.byte	0x6
 1087 0276 3701     		.2byte	0x137
 1088 0278 FE010000 		.4byte	0x1fe
 1089 027c 0A       		.uleb128 0xa
 1090 027d B2010000 		.4byte	.LASF30
 1091 0281 06       		.byte	0x6
 1092 0282 3C01     		.2byte	0x13c
 1093 0284 88020000 		.4byte	0x288
 1094 0288 05       		.uleb128 0x5
 1095 0289 D5000000 		.4byte	.LASF31
 1096 028d 04       		.byte	0x4
 1097 028e 06       		.byte	0x6
 1098 028f 4101     		.2byte	0x141
 1099 0291 A3020000 		.4byte	0x2a3
 1100 0295 07       		.uleb128 0x7
 1101 0296 636E7400 		.ascii	"cnt\000"
 1102 029a 06       		.byte	0x6
 1103 029b 4201     		.2byte	0x142
 1104 029d A3020000 		.4byte	0x2a3
 1105 02a1 00       		.byte	0
 1106 02a2 00       		.byte	0
 1107 02a3 08       		.uleb128 0x8
 1108 02a4 1B010000 		.4byte	0x11b
 1109 02a8 0E       		.uleb128 0xe
 1110 02a9 04       		.byte	0x4
 1111 02aa F3010000 		.4byte	0x1f3
 1112 02ae 0E       		.uleb128 0xe
 1113 02af 04       		.byte	0x4
 1114 02b0 B4020000 		.4byte	0x2b4
 1115 02b4 0F       		.uleb128 0xf
 1116 02b5 B9020000 		.4byte	0x2b9
 1117 02b9 04       		.uleb128 0x4
 1118 02ba 01       		.byte	0x1
 1119 02bb 08       		.byte	0x8
 1120 02bc 70020000 		.4byte	.LASF32
 1121 02c0 0A       		.uleb128 0xa
 1122 02c1 75020000 		.4byte	.LASF33
 1123 02c5 06       		.byte	0x6
 1124 02c6 5D01     		.2byte	0x15d
ARM GAS  /tmp/cckPztkN.s 			page 21


 1125 02c8 CC020000 		.4byte	0x2cc
 1126 02cc 0E       		.uleb128 0xe
 1127 02cd 04       		.byte	0x4
 1128 02ce 94000000 		.4byte	0x94
 1129 02d2 10       		.uleb128 0x10
 1130 02d3 04       		.byte	0x4
 1131 02d4 06       		.byte	0x6
 1132 02d5 6701     		.2byte	0x167
 1133 02d7 16030000 		.4byte	0x316
 1134 02db 11       		.uleb128 0x11
 1135 02dc 6D736700 		.ascii	"msg\000"
 1136 02e0 06       		.byte	0x6
 1137 02e1 6801     		.2byte	0x168
 1138 02e3 05010000 		.4byte	0x105
 1139 02e7 11       		.uleb128 0x11
 1140 02e8 7000     		.ascii	"p\000"
 1141 02ea 06       		.byte	0x6
 1142 02eb 6901     		.2byte	0x169
 1143 02ed F1010000 		.4byte	0x1f1
 1144 02f1 11       		.uleb128 0x11
 1145 02f2 74727000 		.ascii	"trp\000"
 1146 02f6 06       		.byte	0x6
 1147 02f7 6A01     		.2byte	0x16a
 1148 02f9 16030000 		.4byte	0x316
 1149 02fd 12       		.uleb128 0x12
 1150 02fe AE000000 		.4byte	.LASF34
 1151 0302 06       		.byte	0x6
 1152 0303 6B01     		.2byte	0x16b
 1153 0305 1C030000 		.4byte	0x31c
 1154 0309 12       		.uleb128 0x12
 1155 030a BE000000 		.4byte	.LASF35
 1156 030e 06       		.byte	0x6
 1157 030f 6D01     		.2byte	0x16d
 1158 0311 10010000 		.4byte	0x110
 1159 0315 00       		.byte	0
 1160 0316 0E       		.uleb128 0xe
 1161 0317 04       		.byte	0x4
 1162 0318 C0020000 		.4byte	0x2c0
 1163 031c 0E       		.uleb128 0xe
 1164 031d 04       		.byte	0x4
 1165 031e 7C020000 		.4byte	0x27c
 1166 0322 0E       		.uleb128 0xe
 1167 0323 04       		.byte	0x4
 1168 0324 70020000 		.4byte	0x270
 1169 0328 08       		.uleb128 0x8
 1170 0329 26010000 		.4byte	0x126
 1171 032d 0A       		.uleb128 0xa
 1172 032e F1030000 		.4byte	.LASF36
 1173 0332 06       		.byte	0x6
 1174 0333 7F01     		.2byte	0x17f
 1175 0335 39030000 		.4byte	0x339
 1176 0339 05       		.uleb128 0x5
 1177 033a B3000000 		.4byte	.LASF37
 1178 033e 40       		.byte	0x40
 1179 033f 06       		.byte	0x6
 1180 0340 8601     		.2byte	0x186
 1181 0342 88030000 		.4byte	0x388
ARM GAS  /tmp/cckPztkN.s 			page 22


 1182 0346 06       		.uleb128 0x6
 1183 0347 E1050000 		.4byte	.LASF38
 1184 034b 06       		.byte	0x6
 1185 034c 8A01     		.2byte	0x18a
 1186 034e CC020000 		.4byte	0x2cc
 1187 0352 00       		.byte	0
 1188 0353 06       		.uleb128 0x6
 1189 0354 6F000000 		.4byte	.LASF39
 1190 0358 06       		.byte	0x6
 1191 0359 9001     		.2byte	0x190
 1192 035b CC020000 		.4byte	0x2cc
 1193 035f 04       		.byte	0x4
 1194 0360 06       		.uleb128 0x6
 1195 0361 41030000 		.4byte	.LASF40
 1196 0365 06       		.byte	0x6
 1197 0366 9501     		.2byte	0x195
 1198 0368 28030000 		.4byte	0x328
 1199 036c 08       		.byte	0x8
 1200 036d 06       		.uleb128 0x6
 1201 036e 43040000 		.4byte	.LASF41
 1202 0372 06       		.byte	0x6
 1203 0373 A401     		.2byte	0x1a4
 1204 0375 88030000 		.4byte	0x388
 1205 0379 0C       		.byte	0xc
 1206 037a 06       		.uleb128 0x6
 1207 037b A4010000 		.4byte	.LASF42
 1208 037f 06       		.byte	0x6
 1209 0380 AD01     		.2byte	0x1ad
 1210 0382 98030000 		.4byte	0x398
 1211 0386 3C       		.byte	0x3c
 1212 0387 00       		.byte	0
 1213 0388 13       		.uleb128 0x13
 1214 0389 94000000 		.4byte	0x94
 1215 038d 98030000 		.4byte	0x398
 1216 0391 14       		.uleb128 0x14
 1217 0392 31010000 		.4byte	0x131
 1218 0396 01       		.byte	0x1
 1219 0397 00       		.byte	0
 1220 0398 08       		.uleb128 0x8
 1221 0399 AE020000 		.4byte	0x2ae
 1222 039d 03       		.uleb128 0x3
 1223 039e 81010000 		.4byte	.LASF43
 1224 03a2 02       		.byte	0x2
 1225 03a3 B5       		.byte	0xb5
 1226 03a4 A8030000 		.4byte	0x3a8
 1227 03a8 0C       		.uleb128 0xc
 1228 03a9 3A000000 		.4byte	.LASF44
 1229 03ad 0C       		.byte	0xc
 1230 03ae 02       		.byte	0x2
 1231 03af CB       		.byte	0xcb
 1232 03b0 D8030000 		.4byte	0x3d8
 1233 03b4 15       		.uleb128 0x15
 1234 03b5 47000000 		.4byte	.LASF45
 1235 03b9 02       		.byte	0x2
 1236 03ba CC       		.byte	0xcc
 1237 03bb 05040000 		.4byte	0x405
 1238 03bf 00       		.byte	0
ARM GAS  /tmp/cckPztkN.s 			page 23


 1239 03c0 0D       		.uleb128 0xd
 1240 03c1 636200   		.ascii	"cb\000"
 1241 03c4 02       		.byte	0x2
 1242 03c5 CD       		.byte	0xcd
 1243 03c6 D8030000 		.4byte	0x3d8
 1244 03ca 04       		.byte	0x4
 1245 03cb 15       		.uleb128 0x15
 1246 03cc 0A030000 		.4byte	.LASF46
 1247 03d0 02       		.byte	0x2
 1248 03d1 CE       		.byte	0xce
 1249 03d2 F1010000 		.4byte	0x1f1
 1250 03d6 08       		.byte	0x8
 1251 03d7 00       		.byte	0
 1252 03d8 03       		.uleb128 0x3
 1253 03d9 10030000 		.4byte	.LASF47
 1254 03dd 02       		.byte	0x2
 1255 03de BC       		.byte	0xbc
 1256 03df E3030000 		.4byte	0x3e3
 1257 03e3 0E       		.uleb128 0xe
 1258 03e4 04       		.byte	0x4
 1259 03e5 E9030000 		.4byte	0x3e9
 1260 03e9 16       		.uleb128 0x16
 1261 03ea F4030000 		.4byte	0x3f4
 1262 03ee 17       		.uleb128 0x17
 1263 03ef F4030000 		.4byte	0x3f4
 1264 03f3 00       		.byte	0
 1265 03f4 0E       		.uleb128 0xe
 1266 03f5 04       		.byte	0x4
 1267 03f6 9D030000 		.4byte	0x39d
 1268 03fa 03       		.uleb128 0x3
 1269 03fb 27030000 		.4byte	.LASF48
 1270 03ff 02       		.byte	0x2
 1271 0400 C1       		.byte	0xc1
 1272 0401 77000000 		.4byte	0x77
 1273 0405 08       		.uleb128 0x8
 1274 0406 FA030000 		.4byte	0x3fa
 1275 040a 18       		.uleb128 0x18
 1276 040b 04       		.byte	0x4
 1277 040c 02       		.byte	0x2
 1278 040d DF       		.byte	0xdf
 1279 040e 1F040000 		.4byte	0x41f
 1280 0412 0D       		.uleb128 0xd
 1281 0413 73656D00 		.ascii	"sem\000"
 1282 0417 02       		.byte	0x2
 1283 0418 E0       		.byte	0xe0
 1284 0419 7C020000 		.4byte	0x27c
 1285 041d 00       		.byte	0
 1286 041e 00       		.byte	0
 1287 041f 03       		.uleb128 0x3
 1288 0420 00000000 		.4byte	.LASF49
 1289 0424 02       		.byte	0x2
 1290 0425 E1       		.byte	0xe1
 1291 0426 0A040000 		.4byte	0x40a
 1292 042a 19       		.uleb128 0x19
 1293 042b 2C000000 		.4byte	0x2c
 1294 042f 43040000 		.4byte	0x443
 1295 0433 17       		.uleb128 0x17
ARM GAS  /tmp/cckPztkN.s 			page 24


 1296 0434 F1010000 		.4byte	0x1f1
 1297 0438 17       		.uleb128 0x17
 1298 0439 43040000 		.4byte	0x443
 1299 043d 17       		.uleb128 0x17
 1300 043e 2C000000 		.4byte	0x2c
 1301 0442 00       		.byte	0
 1302 0443 0E       		.uleb128 0xe
 1303 0444 04       		.byte	0x4
 1304 0445 49040000 		.4byte	0x449
 1305 0449 0F       		.uleb128 0xf
 1306 044a 5E000000 		.4byte	0x5e
 1307 044e 0E       		.uleb128 0xe
 1308 044f 04       		.byte	0x4
 1309 0450 2A040000 		.4byte	0x42a
 1310 0454 19       		.uleb128 0x19
 1311 0455 2C000000 		.4byte	0x2c
 1312 0459 6D040000 		.4byte	0x46d
 1313 045d 17       		.uleb128 0x17
 1314 045e F1010000 		.4byte	0x1f1
 1315 0462 17       		.uleb128 0x17
 1316 0463 6D040000 		.4byte	0x46d
 1317 0467 17       		.uleb128 0x17
 1318 0468 2C000000 		.4byte	0x2c
 1319 046c 00       		.byte	0
 1320 046d 0E       		.uleb128 0xe
 1321 046e 04       		.byte	0x4
 1322 046f 5E000000 		.4byte	0x5e
 1323 0473 0E       		.uleb128 0xe
 1324 0474 04       		.byte	0x4
 1325 0475 54040000 		.4byte	0x454
 1326 0479 19       		.uleb128 0x19
 1327 047a 05010000 		.4byte	0x105
 1328 047e 8D040000 		.4byte	0x48d
 1329 0482 17       		.uleb128 0x17
 1330 0483 F1010000 		.4byte	0x1f1
 1331 0487 17       		.uleb128 0x17
 1332 0488 5E000000 		.4byte	0x5e
 1333 048c 00       		.byte	0
 1334 048d 0E       		.uleb128 0xe
 1335 048e 04       		.byte	0x4
 1336 048f 79040000 		.4byte	0x479
 1337 0493 19       		.uleb128 0x19
 1338 0494 05010000 		.4byte	0x105
 1339 0498 A2040000 		.4byte	0x4a2
 1340 049c 17       		.uleb128 0x17
 1341 049d F1010000 		.4byte	0x1f1
 1342 04a1 00       		.byte	0
 1343 04a2 0E       		.uleb128 0xe
 1344 04a3 04       		.byte	0x4
 1345 04a4 93040000 		.4byte	0x493
 1346 04a8 19       		.uleb128 0x19
 1347 04a9 05010000 		.4byte	0x105
 1348 04ad C1040000 		.4byte	0x4c1
 1349 04b1 17       		.uleb128 0x17
 1350 04b2 F1010000 		.4byte	0x1f1
 1351 04b6 17       		.uleb128 0x17
 1352 04b7 5E000000 		.4byte	0x5e
ARM GAS  /tmp/cckPztkN.s 			page 25


 1353 04bb 17       		.uleb128 0x17
 1354 04bc 26010000 		.4byte	0x126
 1355 04c0 00       		.byte	0
 1356 04c1 0E       		.uleb128 0xe
 1357 04c2 04       		.byte	0x4
 1358 04c3 A8040000 		.4byte	0x4a8
 1359 04c7 19       		.uleb128 0x19
 1360 04c8 05010000 		.4byte	0x105
 1361 04cc DB040000 		.4byte	0x4db
 1362 04d0 17       		.uleb128 0x17
 1363 04d1 F1010000 		.4byte	0x1f1
 1364 04d5 17       		.uleb128 0x17
 1365 04d6 26010000 		.4byte	0x126
 1366 04da 00       		.byte	0
 1367 04db 0E       		.uleb128 0xe
 1368 04dc 04       		.byte	0x4
 1369 04dd C7040000 		.4byte	0x4c7
 1370 04e1 19       		.uleb128 0x19
 1371 04e2 2C000000 		.4byte	0x2c
 1372 04e6 FF040000 		.4byte	0x4ff
 1373 04ea 17       		.uleb128 0x17
 1374 04eb F1010000 		.4byte	0x1f1
 1375 04ef 17       		.uleb128 0x17
 1376 04f0 43040000 		.4byte	0x443
 1377 04f4 17       		.uleb128 0x17
 1378 04f5 2C000000 		.4byte	0x2c
 1379 04f9 17       		.uleb128 0x17
 1380 04fa 26010000 		.4byte	0x126
 1381 04fe 00       		.byte	0
 1382 04ff 0E       		.uleb128 0xe
 1383 0500 04       		.byte	0x4
 1384 0501 E1040000 		.4byte	0x4e1
 1385 0505 19       		.uleb128 0x19
 1386 0506 2C000000 		.4byte	0x2c
 1387 050a 23050000 		.4byte	0x523
 1388 050e 17       		.uleb128 0x17
 1389 050f F1010000 		.4byte	0x1f1
 1390 0513 17       		.uleb128 0x17
 1391 0514 6D040000 		.4byte	0x46d
 1392 0518 17       		.uleb128 0x17
 1393 0519 2C000000 		.4byte	0x2c
 1394 051d 17       		.uleb128 0x17
 1395 051e 26010000 		.4byte	0x126
 1396 0522 00       		.byte	0
 1397 0523 0E       		.uleb128 0xe
 1398 0524 04       		.byte	0x4
 1399 0525 05050000 		.4byte	0x505
 1400 0529 04       		.uleb128 0x4
 1401 052a 01       		.byte	0x1
 1402 052b 02       		.byte	0x2
 1403 052c 2C020000 		.4byte	.LASF50
 1404 0530 08       		.uleb128 0x8
 1405 0531 2C000000 		.4byte	0x2c
 1406 0535 03       		.uleb128 0x3
 1407 0536 57000000 		.4byte	.LASF51
 1408 053a 0B       		.byte	0xb
 1409 053b 2F       		.byte	0x2f
ARM GAS  /tmp/cckPztkN.s 			page 26


 1410 053c 40050000 		.4byte	0x540
 1411 0540 0C       		.uleb128 0xc
 1412 0541 B4050000 		.4byte	.LASF52
 1413 0545 20       		.byte	0x20
 1414 0546 0B       		.byte	0xb
 1415 0547 40       		.byte	0x40
 1416 0548 AD050000 		.4byte	0x5ad
 1417 054c 15       		.uleb128 0x15
 1418 054d BE010000 		.4byte	.LASF53
 1419 0551 0B       		.byte	0xb
 1420 0552 41       		.byte	0x41
 1421 0553 1F040000 		.4byte	0x41f
 1422 0557 00       		.byte	0
 1423 0558 15       		.uleb128 0x15
 1424 0559 1C040000 		.4byte	.LASF54
 1425 055d 0B       		.byte	0xb
 1426 055e 42       		.byte	0x42
 1427 055f 30050000 		.4byte	0x530
 1428 0563 04       		.byte	0x4
 1429 0564 15       		.uleb128 0x15
 1430 0565 D0020000 		.4byte	.LASF55
 1431 0569 0B       		.byte	0xb
 1432 056a 43       		.byte	0x43
 1433 056b 6D040000 		.4byte	0x46d
 1434 056f 08       		.byte	0x8
 1435 0570 15       		.uleb128 0x15
 1436 0571 2B040000 		.4byte	.LASF56
 1437 0575 0B       		.byte	0xb
 1438 0576 44       		.byte	0x44
 1439 0577 6D040000 		.4byte	0x46d
 1440 057b 0C       		.byte	0xc
 1441 057c 15       		.uleb128 0x15
 1442 057d 88020000 		.4byte	.LASF57
 1443 0581 0B       		.byte	0xb
 1444 0582 46       		.byte	0x46
 1445 0583 6D040000 		.4byte	0x46d
 1446 0587 10       		.byte	0x10
 1447 0588 15       		.uleb128 0x15
 1448 0589 74000000 		.4byte	.LASF58
 1449 058d 0B       		.byte	0xb
 1450 058e 47       		.byte	0x47
 1451 058f 6D040000 		.4byte	0x46d
 1452 0593 14       		.byte	0x14
 1453 0594 15       		.uleb128 0x15
 1454 0595 3A040000 		.4byte	.LASF59
 1455 0599 0B       		.byte	0xb
 1456 059a 48       		.byte	0x48
 1457 059b AD050000 		.4byte	0x5ad
 1458 059f 18       		.byte	0x18
 1459 05a0 15       		.uleb128 0x15
 1460 05a1 A7000000 		.4byte	.LASF60
 1461 05a5 0B       		.byte	0xb
 1462 05a6 49       		.byte	0x49
 1463 05a7 F1010000 		.4byte	0x1f1
 1464 05ab 1C       		.byte	0x1c
 1465 05ac 00       		.byte	0
 1466 05ad 03       		.uleb128 0x3
ARM GAS  /tmp/cckPztkN.s 			page 27


 1467 05ae 7C000000 		.4byte	.LASF61
 1468 05b2 0B       		.byte	0xb
 1469 05b3 36       		.byte	0x36
 1470 05b4 B8050000 		.4byte	0x5b8
 1471 05b8 0E       		.uleb128 0xe
 1472 05b9 04       		.byte	0x4
 1473 05ba BE050000 		.4byte	0x5be
 1474 05be 16       		.uleb128 0x16
 1475 05bf C9050000 		.4byte	0x5c9
 1476 05c3 17       		.uleb128 0x17
 1477 05c4 C9050000 		.4byte	0x5c9
 1478 05c8 00       		.byte	0
 1479 05c9 0E       		.uleb128 0xe
 1480 05ca 04       		.byte	0x4
 1481 05cb 35050000 		.4byte	0x535
 1482 05cf 03       		.uleb128 0x3
 1483 05d0 AE020000 		.4byte	.LASF62
 1484 05d4 0B       		.byte	0xb
 1485 05d5 7F       		.byte	0x7f
 1486 05d6 35050000 		.4byte	0x535
 1487 05da 03       		.uleb128 0x3
 1488 05db F4020000 		.4byte	.LASF63
 1489 05df 0B       		.byte	0xb
 1490 05e0 CF       		.byte	0xcf
 1491 05e1 35050000 		.4byte	0x535
 1492 05e5 1A       		.uleb128 0x1a
 1493 05e6 04       		.byte	0x4
 1494 05e7 0C       		.byte	0xc
 1495 05e8 55       		.byte	0x55
 1496 05e9 00060000 		.4byte	0x600
 1497 05ed 1B       		.uleb128 0x1b
 1498 05ee 03040000 		.4byte	.LASF64
 1499 05f2 00       		.sleb128 0
 1500 05f3 1B       		.uleb128 0x1b
 1501 05f4 32020000 		.4byte	.LASF65
 1502 05f8 01       		.sleb128 1
 1503 05f9 1B       		.uleb128 0x1b
 1504 05fa 50030000 		.4byte	.LASF66
 1505 05fe 02       		.sleb128 2
 1506 05ff 00       		.byte	0
 1507 0600 03       		.uleb128 0x3
 1508 0601 4A010000 		.4byte	.LASF67
 1509 0605 0C       		.byte	0xc
 1510 0606 59       		.byte	0x59
 1511 0607 E5050000 		.4byte	0x5e5
 1512 060b 03       		.uleb128 0x3
 1513 060c 10000000 		.4byte	.LASF68
 1514 0610 0C       		.byte	0xc
 1515 0611 5E       		.byte	0x5e
 1516 0612 16060000 		.4byte	0x616
 1517 0616 0C       		.uleb128 0xc
 1518 0617 10000000 		.4byte	.LASF68
 1519 061b 78       		.byte	0x78
 1520 061c 0C       		.byte	0xc
 1521 061d 78       		.byte	0x78
 1522 061e 81060000 		.4byte	0x681
 1523 0622 0D       		.uleb128 0xd
ARM GAS  /tmp/cckPztkN.s 			page 28


 1524 0623 766D7400 		.ascii	"vmt\000"
 1525 0627 0C       		.byte	0xc
 1526 0628 7A       		.byte	0x7a
 1527 0629 0E070000 		.4byte	0x70e
 1528 062d 00       		.byte	0
 1529 062e 15       		.uleb128 0x15
 1530 062f 54010000 		.4byte	.LASF69
 1531 0633 0C       		.byte	0xc
 1532 0634 7B       		.byte	0x7b
 1533 0635 9D030000 		.4byte	0x39d
 1534 0639 04       		.byte	0x4
 1535 063a 15       		.uleb128 0x15
 1536 063b 8A050000 		.4byte	.LASF14
 1537 063f 0C       		.byte	0xc
 1538 0640 7B       		.byte	0x7b
 1539 0641 00060000 		.4byte	0x600
 1540 0645 10       		.byte	0x10
 1541 0646 15       		.uleb128 0x15
 1542 0647 12010000 		.4byte	.LASF70
 1543 064b 0C       		.byte	0xc
 1544 064c 7B       		.byte	0x7b
 1545 064d CF050000 		.4byte	0x5cf
 1546 0651 14       		.byte	0x14
 1547 0652 15       		.uleb128 0x15
 1548 0653 49030000 		.4byte	.LASF71
 1549 0657 0C       		.byte	0xc
 1550 0658 7B       		.byte	0x7b
 1551 0659 DA050000 		.4byte	0x5da
 1552 065d 34       		.byte	0x34
 1553 065e 0D       		.uleb128 0xd
 1554 065f 696200   		.ascii	"ib\000"
 1555 0662 0C       		.byte	0xc
 1556 0663 7B       		.byte	0x7b
 1557 0664 19070000 		.4byte	0x719
 1558 0668 54       		.byte	0x54
 1559 0669 0D       		.uleb128 0xd
 1560 066a 6F6200   		.ascii	"ob\000"
 1561 066d 0C       		.byte	0xc
 1562 066e 7B       		.byte	0x7b
 1563 066f 19070000 		.4byte	0x719
 1564 0673 64       		.byte	0x64
 1565 0674 15       		.uleb128 0x15
 1566 0675 2C000000 		.4byte	.LASF72
 1567 0679 0C       		.byte	0xc
 1568 067a 7B       		.byte	0x7b
 1569 067b 29070000 		.4byte	0x729
 1570 067f 74       		.byte	0x74
 1571 0680 00       		.byte	0
 1572 0681 18       		.uleb128 0x18
 1573 0682 04       		.byte	0x4
 1574 0683 0D       		.byte	0xd
 1575 0684 66       		.byte	0x66
 1576 0685 96060000 		.4byte	0x696
 1577 0689 15       		.uleb128 0x15
 1578 068a 78010000 		.4byte	.LASF73
 1579 068e 0D       		.byte	0xd
 1580 068f 6A       		.byte	0x6a
ARM GAS  /tmp/cckPztkN.s 			page 29


 1581 0690 77000000 		.4byte	0x77
 1582 0694 00       		.byte	0
 1583 0695 00       		.byte	0
 1584 0696 03       		.uleb128 0x3
 1585 0697 3D010000 		.4byte	.LASF74
 1586 069b 0D       		.byte	0xd
 1587 069c 6C       		.byte	0x6c
 1588 069d 81060000 		.4byte	0x681
 1589 06a1 0C       		.uleb128 0xc
 1590 06a2 59030000 		.4byte	.LASF75
 1591 06a6 20       		.byte	0x20
 1592 06a7 0C       		.byte	0xc
 1593 06a8 6D       		.byte	0x6d
 1594 06a9 0E070000 		.4byte	0x70e
 1595 06ad 15       		.uleb128 0x15
 1596 06ae CA020000 		.4byte	.LASF76
 1597 06b2 0C       		.byte	0xc
 1598 06b3 6E       		.byte	0x6e
 1599 06b4 4E040000 		.4byte	0x44e
 1600 06b8 00       		.byte	0
 1601 06b9 15       		.uleb128 0x15
 1602 06ba FE030000 		.4byte	.LASF77
 1603 06be 0C       		.byte	0xc
 1604 06bf 6E       		.byte	0x6e
 1605 06c0 73040000 		.4byte	0x473
 1606 06c4 04       		.byte	0x4
 1607 06c5 0D       		.uleb128 0xd
 1608 06c6 70757400 		.ascii	"put\000"
 1609 06ca 0C       		.byte	0xc
 1610 06cb 6E       		.byte	0x6e
 1611 06cc 8D040000 		.4byte	0x48d
 1612 06d0 08       		.byte	0x8
 1613 06d1 0D       		.uleb128 0xd
 1614 06d2 67657400 		.ascii	"get\000"
 1615 06d6 0C       		.byte	0xc
 1616 06d7 6E       		.byte	0x6e
 1617 06d8 A2040000 		.4byte	0x4a2
 1618 06dc 0C       		.byte	0xc
 1619 06dd 15       		.uleb128 0x15
 1620 06de D1010000 		.4byte	.LASF78
 1621 06e2 0C       		.byte	0xc
 1622 06e3 6E       		.byte	0x6e
 1623 06e4 C1040000 		.4byte	0x4c1
 1624 06e8 10       		.byte	0x10
 1625 06e9 15       		.uleb128 0x15
 1626 06ea 26040000 		.4byte	.LASF79
 1627 06ee 0C       		.byte	0xc
 1628 06ef 6E       		.byte	0x6e
 1629 06f0 DB040000 		.4byte	0x4db
 1630 06f4 14       		.byte	0x14
 1631 06f5 15       		.uleb128 0x15
 1632 06f6 E3000000 		.4byte	.LASF80
 1633 06fa 0C       		.byte	0xc
 1634 06fb 6E       		.byte	0x6e
 1635 06fc FF040000 		.4byte	0x4ff
 1636 0700 18       		.byte	0x18
 1637 0701 15       		.uleb128 0x15
ARM GAS  /tmp/cckPztkN.s 			page 30


 1638 0702 BD050000 		.4byte	.LASF81
 1639 0706 0C       		.byte	0xc
 1640 0707 6E       		.byte	0x6e
 1641 0708 23050000 		.4byte	0x523
 1642 070c 1C       		.byte	0x1c
 1643 070d 00       		.byte	0
 1644 070e 0E       		.uleb128 0xe
 1645 070f 04       		.byte	0x4
 1646 0710 14070000 		.4byte	0x714
 1647 0714 0F       		.uleb128 0xf
 1648 0715 A1060000 		.4byte	0x6a1
 1649 0719 13       		.uleb128 0x13
 1650 071a 5E000000 		.4byte	0x5e
 1651 071e 29070000 		.4byte	0x729
 1652 0722 14       		.uleb128 0x14
 1653 0723 31010000 		.4byte	0x131
 1654 0727 0F       		.byte	0xf
 1655 0728 00       		.byte	0
 1656 0729 0E       		.uleb128 0xe
 1657 072a 04       		.byte	0x4
 1658 072b DA010000 		.4byte	0x1da
 1659 072f 1C       		.uleb128 0x1c
 1660 0730 F3010000 		.4byte	.LASF82
 1661 0734 03       		.byte	0x3
 1662 0735 5601     		.2byte	0x156
 1663 0737 03       		.byte	0x3
 1664 0738 1C       		.uleb128 0x1c
 1665 0739 9B030000 		.4byte	.LASF83
 1666 073d 03       		.byte	0x3
 1667 073e 4B01     		.2byte	0x14b
 1668 0740 03       		.byte	0x3
 1669 0741 1C       		.uleb128 0x1c
 1670 0742 9D000000 		.4byte	.LASF84
 1671 0746 0A       		.byte	0xa
 1672 0747 4901     		.2byte	0x149
 1673 0749 03       		.byte	0x3
 1674 074a 1C       		.uleb128 0x1c
 1675 074b F2050000 		.4byte	.LASF85
 1676 074f 0A       		.byte	0xa
 1677 0750 5201     		.2byte	0x152
 1678 0752 03       		.byte	0x3
 1679 0753 1D       		.uleb128 0x1d
 1680 0754 CD030000 		.4byte	.LASF89
 1681 0758 02       		.byte	0x2
 1682 0759 2403     		.2byte	0x324
 1683 075b 03       		.byte	0x3
 1684 075c 7A070000 		.4byte	0x77a
 1685 0760 1E       		.uleb128 0x1e
 1686 0761 65737000 		.ascii	"esp\000"
 1687 0765 02       		.byte	0x2
 1688 0766 2403     		.2byte	0x324
 1689 0768 F4030000 		.4byte	0x3f4
 1690 076c 1F       		.uleb128 0x1f
 1691 076d E9050000 		.4byte	.LASF91
 1692 0771 8A070000 		.4byte	0x78a
 1693 0775 CD030000 		.4byte	.LASF89
 1694 0779 00       		.byte	0
ARM GAS  /tmp/cckPztkN.s 			page 31


 1695 077a 13       		.uleb128 0x13
 1696 077b B9020000 		.4byte	0x2b9
 1697 077f 8A070000 		.4byte	0x78a
 1698 0783 14       		.uleb128 0x14
 1699 0784 31010000 		.4byte	0x131
 1700 0788 13       		.byte	0x13
 1701 0789 00       		.byte	0
 1702 078a 0F       		.uleb128 0xf
 1703 078b 7A070000 		.4byte	0x77a
 1704 078f 1C       		.uleb128 0x1c
 1705 0790 4B040000 		.4byte	.LASF86
 1706 0794 02       		.byte	0x2
 1707 0795 F401     		.2byte	0x1f4
 1708 0797 03       		.byte	0x3
 1709 0798 1C       		.uleb128 0x1c
 1710 0799 96010000 		.4byte	.LASF87
 1711 079d 02       		.byte	0x2
 1712 079e FF01     		.2byte	0x1ff
 1713 07a0 03       		.byte	0x3
 1714 07a1 1C       		.uleb128 0x1c
 1715 07a2 01020000 		.4byte	.LASF88
 1716 07a6 02       		.byte	0x2
 1717 07a7 5F02     		.2byte	0x25f
 1718 07a9 03       		.byte	0x3
 1719 07aa 1D       		.uleb128 0x1d
 1720 07ab 13020000 		.4byte	.LASF90
 1721 07af 02       		.byte	0x2
 1722 07b0 3503     		.2byte	0x335
 1723 07b2 03       		.byte	0x3
 1724 07b3 DD070000 		.4byte	0x7dd
 1725 07b7 1E       		.uleb128 0x1e
 1726 07b8 65737000 		.ascii	"esp\000"
 1727 07bc 02       		.byte	0x2
 1728 07bd 3503     		.2byte	0x335
 1729 07bf F4030000 		.4byte	0x3f4
 1730 07c3 20       		.uleb128 0x20
 1731 07c4 47000000 		.4byte	.LASF45
 1732 07c8 02       		.byte	0x2
 1733 07c9 3603     		.2byte	0x336
 1734 07cb FA030000 		.4byte	0x3fa
 1735 07cf 1F       		.uleb128 0x1f
 1736 07d0 E9050000 		.4byte	.LASF91
 1737 07d4 ED070000 		.4byte	0x7ed
 1738 07d8 13020000 		.4byte	.LASF90
 1739 07dc 00       		.byte	0
 1740 07dd 13       		.uleb128 0x13
 1741 07de B9020000 		.4byte	0x2b9
 1742 07e2 ED070000 		.4byte	0x7ed
 1743 07e6 14       		.uleb128 0x14
 1744 07e7 31010000 		.4byte	0x131
 1745 07eb 18       		.byte	0x18
 1746 07ec 00       		.byte	0
 1747 07ed 0F       		.uleb128 0xf
 1748 07ee DD070000 		.4byte	0x7dd
 1749 07f2 21       		.uleb128 0x21
 1750 07f3 BD050000 		.4byte	.LASF81
 1751 07f7 01       		.byte	0x1
ARM GAS  /tmp/cckPztkN.s 			page 32


 1752 07f8 57       		.byte	0x57
 1753 07f9 2C000000 		.4byte	0x2c
 1754 07fd 00000000 		.4byte	.LFB88
 1755 0801 0A000000 		.4byte	.LFE88-.LFB88
 1756 0805 01       		.uleb128 0x1
 1757 0806 9C       		.byte	0x9c
 1758 0807 6C080000 		.4byte	0x86c
 1759 080b 22       		.uleb128 0x22
 1760 080c 697000   		.ascii	"ip\000"
 1761 080f 01       		.byte	0x1
 1762 0810 57       		.byte	0x57
 1763 0811 F1010000 		.4byte	0x1f1
 1764 0815 00000000 		.4byte	.LLST0
 1765 0819 22       		.uleb128 0x22
 1766 081a 627000   		.ascii	"bp\000"
 1767 081d 01       		.byte	0x1
 1768 081e 57       		.byte	0x57
 1769 081f 6D040000 		.4byte	0x46d
 1770 0823 2E000000 		.4byte	.LLST1
 1771 0827 22       		.uleb128 0x22
 1772 0828 6E00     		.ascii	"n\000"
 1773 082a 01       		.byte	0x1
 1774 082b 57       		.byte	0x57
 1775 082c 2C000000 		.4byte	0x2c
 1776 0830 4F000000 		.4byte	.LLST2
 1777 0834 23       		.uleb128 0x23
 1778 0835 75050000 		.4byte	.LASF15
 1779 0839 01       		.byte	0x1
 1780 083a 57       		.byte	0x57
 1781 083b 26010000 		.4byte	0x126
 1782 083f 70000000 		.4byte	.LLST3
 1783 0843 24       		.uleb128 0x24
 1784 0844 08000000 		.4byte	.LVL2
 1785 0848 91100000 		.4byte	0x1091
 1786 084c 25       		.uleb128 0x25
 1787 084d 01       		.uleb128 0x1
 1788 084e 53       		.byte	0x53
 1789 084f 03       		.uleb128 0x3
 1790 0850 F3       		.byte	0xf3
 1791 0851 01       		.uleb128 0x1
 1792 0852 53       		.byte	0x53
 1793 0853 25       		.uleb128 0x25
 1794 0854 01       		.uleb128 0x1
 1795 0855 52       		.byte	0x52
 1796 0856 03       		.uleb128 0x3
 1797 0857 F3       		.byte	0xf3
 1798 0858 01       		.uleb128 0x1
 1799 0859 52       		.byte	0x52
 1800 085a 25       		.uleb128 0x25
 1801 085b 01       		.uleb128 0x1
 1802 085c 51       		.byte	0x51
 1803 085d 03       		.uleb128 0x3
 1804 085e F3       		.byte	0xf3
 1805 085f 01       		.uleb128 0x1
 1806 0860 51       		.byte	0x51
 1807 0861 25       		.uleb128 0x25
 1808 0862 01       		.uleb128 0x1
ARM GAS  /tmp/cckPztkN.s 			page 33


 1809 0863 50       		.byte	0x50
 1810 0864 05       		.uleb128 0x5
 1811 0865 F3       		.byte	0xf3
 1812 0866 01       		.uleb128 0x1
 1813 0867 50       		.byte	0x50
 1814 0868 23       		.byte	0x23
 1815 0869 14       		.uleb128 0x14
 1816 086a 00       		.byte	0
 1817 086b 00       		.byte	0
 1818 086c 21       		.uleb128 0x21
 1819 086d FE030000 		.4byte	.LASF77
 1820 0871 01       		.byte	0x1
 1821 0872 38       		.byte	0x38
 1822 0873 2C000000 		.4byte	0x2c
 1823 0877 00000000 		.4byte	.LFB82
 1824 087b 0C000000 		.4byte	.LFE82-.LFB82
 1825 087f 01       		.uleb128 0x1
 1826 0880 9C       		.byte	0x9c
 1827 0881 D5080000 		.4byte	0x8d5
 1828 0885 22       		.uleb128 0x22
 1829 0886 697000   		.ascii	"ip\000"
 1830 0889 01       		.byte	0x1
 1831 088a 38       		.byte	0x38
 1832 088b F1010000 		.4byte	0x1f1
 1833 088f 91000000 		.4byte	.LLST4
 1834 0893 22       		.uleb128 0x22
 1835 0894 627000   		.ascii	"bp\000"
 1836 0897 01       		.byte	0x1
 1837 0898 38       		.byte	0x38
 1838 0899 6D040000 		.4byte	0x46d
 1839 089d BF000000 		.4byte	.LLST5
 1840 08a1 22       		.uleb128 0x22
 1841 08a2 6E00     		.ascii	"n\000"
 1842 08a4 01       		.byte	0x1
 1843 08a5 38       		.byte	0x38
 1844 08a6 2C000000 		.4byte	0x2c
 1845 08aa E0000000 		.4byte	.LLST6
 1846 08ae 24       		.uleb128 0x24
 1847 08af 0A000000 		.4byte	.LVL5
 1848 08b3 91100000 		.4byte	0x1091
 1849 08b7 25       		.uleb128 0x25
 1850 08b8 01       		.uleb128 0x1
 1851 08b9 53       		.byte	0x53
 1852 08ba 01       		.uleb128 0x1
 1853 08bb 30       		.byte	0x30
 1854 08bc 25       		.uleb128 0x25
 1855 08bd 01       		.uleb128 0x1
 1856 08be 52       		.byte	0x52
 1857 08bf 03       		.uleb128 0x3
 1858 08c0 F3       		.byte	0xf3
 1859 08c1 01       		.uleb128 0x1
 1860 08c2 52       		.byte	0x52
 1861 08c3 25       		.uleb128 0x25
 1862 08c4 01       		.uleb128 0x1
 1863 08c5 51       		.byte	0x51
 1864 08c6 03       		.uleb128 0x3
 1865 08c7 F3       		.byte	0xf3
ARM GAS  /tmp/cckPztkN.s 			page 34


 1866 08c8 01       		.uleb128 0x1
 1867 08c9 51       		.byte	0x51
 1868 08ca 25       		.uleb128 0x25
 1869 08cb 01       		.uleb128 0x1
 1870 08cc 50       		.byte	0x50
 1871 08cd 05       		.uleb128 0x5
 1872 08ce F3       		.byte	0xf3
 1873 08cf 01       		.uleb128 0x1
 1874 08d0 50       		.byte	0x50
 1875 08d1 23       		.byte	0x23
 1876 08d2 14       		.uleb128 0x14
 1877 08d3 00       		.byte	0
 1878 08d4 00       		.byte	0
 1879 08d5 21       		.uleb128 0x21
 1880 08d6 E3000000 		.4byte	.LASF80
 1881 08da 01       		.byte	0x1
 1882 08db 52       		.byte	0x52
 1883 08dc 2C000000 		.4byte	0x2c
 1884 08e0 00000000 		.4byte	.LFB87
 1885 08e4 0A000000 		.4byte	.LFE87-.LFB87
 1886 08e8 01       		.uleb128 0x1
 1887 08e9 9C       		.byte	0x9c
 1888 08ea 4F090000 		.4byte	0x94f
 1889 08ee 22       		.uleb128 0x22
 1890 08ef 697000   		.ascii	"ip\000"
 1891 08f2 01       		.byte	0x1
 1892 08f3 52       		.byte	0x52
 1893 08f4 F1010000 		.4byte	0x1f1
 1894 08f8 01010000 		.4byte	.LLST7
 1895 08fc 22       		.uleb128 0x22
 1896 08fd 627000   		.ascii	"bp\000"
 1897 0900 01       		.byte	0x1
 1898 0901 52       		.byte	0x52
 1899 0902 43040000 		.4byte	0x443
 1900 0906 2F010000 		.4byte	.LLST8
 1901 090a 22       		.uleb128 0x22
 1902 090b 6E00     		.ascii	"n\000"
 1903 090d 01       		.byte	0x1
 1904 090e 52       		.byte	0x52
 1905 090f 2C000000 		.4byte	0x2c
 1906 0913 50010000 		.4byte	.LLST9
 1907 0917 23       		.uleb128 0x23
 1908 0918 75050000 		.4byte	.LASF15
 1909 091c 01       		.byte	0x1
 1910 091d 52       		.byte	0x52
 1911 091e 26010000 		.4byte	0x126
 1912 0922 71010000 		.4byte	.LLST10
 1913 0926 24       		.uleb128 0x24
 1914 0927 08000000 		.4byte	.LVL8
 1915 092b BC100000 		.4byte	0x10bc
 1916 092f 25       		.uleb128 0x25
 1917 0930 01       		.uleb128 0x1
 1918 0931 53       		.byte	0x53
 1919 0932 03       		.uleb128 0x3
 1920 0933 F3       		.byte	0xf3
 1921 0934 01       		.uleb128 0x1
 1922 0935 53       		.byte	0x53
ARM GAS  /tmp/cckPztkN.s 			page 35


 1923 0936 25       		.uleb128 0x25
 1924 0937 01       		.uleb128 0x1
 1925 0938 52       		.byte	0x52
 1926 0939 03       		.uleb128 0x3
 1927 093a F3       		.byte	0xf3
 1928 093b 01       		.uleb128 0x1
 1929 093c 52       		.byte	0x52
 1930 093d 25       		.uleb128 0x25
 1931 093e 01       		.uleb128 0x1
 1932 093f 51       		.byte	0x51
 1933 0940 03       		.uleb128 0x3
 1934 0941 F3       		.byte	0xf3
 1935 0942 01       		.uleb128 0x1
 1936 0943 51       		.byte	0x51
 1937 0944 25       		.uleb128 0x25
 1938 0945 01       		.uleb128 0x1
 1939 0946 50       		.byte	0x50
 1940 0947 05       		.uleb128 0x5
 1941 0948 F3       		.byte	0xf3
 1942 0949 01       		.uleb128 0x1
 1943 094a 50       		.byte	0x50
 1944 094b 23       		.byte	0x23
 1945 094c 34       		.uleb128 0x34
 1946 094d 00       		.byte	0
 1947 094e 00       		.byte	0
 1948 094f 21       		.uleb128 0x21
 1949 0950 CA020000 		.4byte	.LASF76
 1950 0954 01       		.byte	0x1
 1951 0955 32       		.byte	0x32
 1952 0956 2C000000 		.4byte	0x2c
 1953 095a 00000000 		.4byte	.LFB81
 1954 095e 0C000000 		.4byte	.LFE81-.LFB81
 1955 0962 01       		.uleb128 0x1
 1956 0963 9C       		.byte	0x9c
 1957 0964 B8090000 		.4byte	0x9b8
 1958 0968 22       		.uleb128 0x22
 1959 0969 697000   		.ascii	"ip\000"
 1960 096c 01       		.byte	0x1
 1961 096d 32       		.byte	0x32
 1962 096e F1010000 		.4byte	0x1f1
 1963 0972 92010000 		.4byte	.LLST11
 1964 0976 22       		.uleb128 0x22
 1965 0977 627000   		.ascii	"bp\000"
 1966 097a 01       		.byte	0x1
 1967 097b 32       		.byte	0x32
 1968 097c 43040000 		.4byte	0x443
 1969 0980 C0010000 		.4byte	.LLST12
 1970 0984 22       		.uleb128 0x22
 1971 0985 6E00     		.ascii	"n\000"
 1972 0987 01       		.byte	0x1
 1973 0988 32       		.byte	0x32
 1974 0989 2C000000 		.4byte	0x2c
 1975 098d E1010000 		.4byte	.LLST13
 1976 0991 24       		.uleb128 0x24
 1977 0992 0A000000 		.4byte	.LVL11
 1978 0996 BC100000 		.4byte	0x10bc
 1979 099a 25       		.uleb128 0x25
ARM GAS  /tmp/cckPztkN.s 			page 36


 1980 099b 01       		.uleb128 0x1
 1981 099c 53       		.byte	0x53
 1982 099d 01       		.uleb128 0x1
 1983 099e 30       		.byte	0x30
 1984 099f 25       		.uleb128 0x25
 1985 09a0 01       		.uleb128 0x1
 1986 09a1 52       		.byte	0x52
 1987 09a2 03       		.uleb128 0x3
 1988 09a3 F3       		.byte	0xf3
 1989 09a4 01       		.uleb128 0x1
 1990 09a5 52       		.byte	0x52
 1991 09a6 25       		.uleb128 0x25
 1992 09a7 01       		.uleb128 0x1
 1993 09a8 51       		.byte	0x51
 1994 09a9 03       		.uleb128 0x3
 1995 09aa F3       		.byte	0xf3
 1996 09ab 01       		.uleb128 0x1
 1997 09ac 51       		.byte	0x51
 1998 09ad 25       		.uleb128 0x25
 1999 09ae 01       		.uleb128 0x1
 2000 09af 50       		.byte	0x50
 2001 09b0 05       		.uleb128 0x5
 2002 09b1 F3       		.byte	0xf3
 2003 09b2 01       		.uleb128 0x1
 2004 09b3 50       		.byte	0x50
 2005 09b4 23       		.byte	0x23
 2006 09b5 34       		.uleb128 0x34
 2007 09b6 00       		.byte	0
 2008 09b7 00       		.byte	0
 2009 09b8 21       		.uleb128 0x21
 2010 09b9 26040000 		.4byte	.LASF79
 2011 09bd 01       		.byte	0x1
 2012 09be 4D       		.byte	0x4d
 2013 09bf 05010000 		.4byte	0x105
 2014 09c3 00000000 		.4byte	.LFB86
 2015 09c7 0A000000 		.4byte	.LFE86-.LFB86
 2016 09cb 01       		.uleb128 0x1
 2017 09cc 9C       		.byte	0x9c
 2018 09cd 090A0000 		.4byte	0xa09
 2019 09d1 22       		.uleb128 0x22
 2020 09d2 697000   		.ascii	"ip\000"
 2021 09d5 01       		.byte	0x1
 2022 09d6 4D       		.byte	0x4d
 2023 09d7 F1010000 		.4byte	0x1f1
 2024 09db 02020000 		.4byte	.LLST14
 2025 09df 23       		.uleb128 0x23
 2026 09e0 75050000 		.4byte	.LASF15
 2027 09e4 01       		.byte	0x1
 2028 09e5 4D       		.byte	0x4d
 2029 09e6 26010000 		.4byte	0x126
 2030 09ea 30020000 		.4byte	.LLST15
 2031 09ee 24       		.uleb128 0x24
 2032 09ef 08000000 		.4byte	.LVL14
 2033 09f3 E7100000 		.4byte	0x10e7
 2034 09f7 25       		.uleb128 0x25
 2035 09f8 01       		.uleb128 0x1
 2036 09f9 51       		.byte	0x51
ARM GAS  /tmp/cckPztkN.s 			page 37


 2037 09fa 03       		.uleb128 0x3
 2038 09fb F3       		.byte	0xf3
 2039 09fc 01       		.uleb128 0x1
 2040 09fd 51       		.byte	0x51
 2041 09fe 25       		.uleb128 0x25
 2042 09ff 01       		.uleb128 0x1
 2043 0a00 50       		.byte	0x50
 2044 0a01 05       		.uleb128 0x5
 2045 0a02 F3       		.byte	0xf3
 2046 0a03 01       		.uleb128 0x1
 2047 0a04 50       		.byte	0x50
 2048 0a05 23       		.byte	0x23
 2049 0a06 14       		.uleb128 0x14
 2050 0a07 00       		.byte	0
 2051 0a08 00       		.byte	0
 2052 0a09 26       		.uleb128 0x26
 2053 0a0a 67657400 		.ascii	"get\000"
 2054 0a0e 01       		.byte	0x1
 2055 0a0f 43       		.byte	0x43
 2056 0a10 05010000 		.4byte	0x105
 2057 0a14 00000000 		.4byte	.LFB84
 2058 0a18 0C000000 		.4byte	.LFE84-.LFB84
 2059 0a1c 01       		.uleb128 0x1
 2060 0a1d 9C       		.byte	0x9c
 2061 0a1e 490A0000 		.4byte	0xa49
 2062 0a22 22       		.uleb128 0x22
 2063 0a23 697000   		.ascii	"ip\000"
 2064 0a26 01       		.byte	0x1
 2065 0a27 43       		.byte	0x43
 2066 0a28 F1010000 		.4byte	0x1f1
 2067 0a2c 51020000 		.4byte	.LLST16
 2068 0a30 24       		.uleb128 0x24
 2069 0a31 0A000000 		.4byte	.LVL17
 2070 0a35 E7100000 		.4byte	0x10e7
 2071 0a39 25       		.uleb128 0x25
 2072 0a3a 01       		.uleb128 0x1
 2073 0a3b 51       		.byte	0x51
 2074 0a3c 01       		.uleb128 0x1
 2075 0a3d 30       		.byte	0x30
 2076 0a3e 25       		.uleb128 0x25
 2077 0a3f 01       		.uleb128 0x1
 2078 0a40 50       		.byte	0x50
 2079 0a41 05       		.uleb128 0x5
 2080 0a42 F3       		.byte	0xf3
 2081 0a43 01       		.uleb128 0x1
 2082 0a44 50       		.byte	0x50
 2083 0a45 23       		.byte	0x23
 2084 0a46 14       		.uleb128 0x14
 2085 0a47 00       		.byte	0
 2086 0a48 00       		.byte	0
 2087 0a49 21       		.uleb128 0x21
 2088 0a4a D1010000 		.4byte	.LASF78
 2089 0a4e 01       		.byte	0x1
 2090 0a4f 48       		.byte	0x48
 2091 0a50 05010000 		.4byte	0x105
 2092 0a54 00000000 		.4byte	.LFB85
 2093 0a58 0A000000 		.4byte	.LFE85-.LFB85
ARM GAS  /tmp/cckPztkN.s 			page 38


 2094 0a5c 01       		.uleb128 0x1
 2095 0a5d 9C       		.byte	0x9c
 2096 0a5e A70A0000 		.4byte	0xaa7
 2097 0a62 22       		.uleb128 0x22
 2098 0a63 697000   		.ascii	"ip\000"
 2099 0a66 01       		.byte	0x1
 2100 0a67 48       		.byte	0x48
 2101 0a68 F1010000 		.4byte	0x1f1
 2102 0a6c 7F020000 		.4byte	.LLST17
 2103 0a70 22       		.uleb128 0x22
 2104 0a71 6200     		.ascii	"b\000"
 2105 0a73 01       		.byte	0x1
 2106 0a74 48       		.byte	0x48
 2107 0a75 5E000000 		.4byte	0x5e
 2108 0a79 AD020000 		.4byte	.LLST18
 2109 0a7d 23       		.uleb128 0x23
 2110 0a7e 75050000 		.4byte	.LASF15
 2111 0a82 01       		.byte	0x1
 2112 0a83 48       		.byte	0x48
 2113 0a84 26010000 		.4byte	0x126
 2114 0a88 CE020000 		.4byte	.LLST19
 2115 0a8c 24       		.uleb128 0x24
 2116 0a8d 08000000 		.4byte	.LVL20
 2117 0a91 02110000 		.4byte	0x1102
 2118 0a95 25       		.uleb128 0x25
 2119 0a96 01       		.uleb128 0x1
 2120 0a97 52       		.byte	0x52
 2121 0a98 03       		.uleb128 0x3
 2122 0a99 F3       		.byte	0xf3
 2123 0a9a 01       		.uleb128 0x1
 2124 0a9b 52       		.byte	0x52
 2125 0a9c 25       		.uleb128 0x25
 2126 0a9d 01       		.uleb128 0x1
 2127 0a9e 50       		.byte	0x50
 2128 0a9f 05       		.uleb128 0x5
 2129 0aa0 F3       		.byte	0xf3
 2130 0aa1 01       		.uleb128 0x1
 2131 0aa2 50       		.byte	0x50
 2132 0aa3 23       		.byte	0x23
 2133 0aa4 34       		.uleb128 0x34
 2134 0aa5 00       		.byte	0
 2135 0aa6 00       		.byte	0
 2136 0aa7 26       		.uleb128 0x26
 2137 0aa8 70757400 		.ascii	"put\000"
 2138 0aac 01       		.byte	0x1
 2139 0aad 3E       		.byte	0x3e
 2140 0aae 05010000 		.4byte	0x105
 2141 0ab2 00000000 		.4byte	.LFB83
 2142 0ab6 0C000000 		.4byte	.LFE83-.LFB83
 2143 0aba 01       		.uleb128 0x1
 2144 0abb 9C       		.byte	0x9c
 2145 0abc F40A0000 		.4byte	0xaf4
 2146 0ac0 22       		.uleb128 0x22
 2147 0ac1 697000   		.ascii	"ip\000"
 2148 0ac4 01       		.byte	0x1
 2149 0ac5 3E       		.byte	0x3e
 2150 0ac6 F1010000 		.4byte	0x1f1
ARM GAS  /tmp/cckPztkN.s 			page 39


 2151 0aca EF020000 		.4byte	.LLST20
 2152 0ace 22       		.uleb128 0x22
 2153 0acf 6200     		.ascii	"b\000"
 2154 0ad1 01       		.byte	0x1
 2155 0ad2 3E       		.byte	0x3e
 2156 0ad3 5E000000 		.4byte	0x5e
 2157 0ad7 1D030000 		.4byte	.LLST21
 2158 0adb 24       		.uleb128 0x24
 2159 0adc 0A000000 		.4byte	.LVL23
 2160 0ae0 02110000 		.4byte	0x1102
 2161 0ae4 25       		.uleb128 0x25
 2162 0ae5 01       		.uleb128 0x1
 2163 0ae6 52       		.byte	0x52
 2164 0ae7 01       		.uleb128 0x1
 2165 0ae8 30       		.byte	0x30
 2166 0ae9 25       		.uleb128 0x25
 2167 0aea 01       		.uleb128 0x1
 2168 0aeb 50       		.byte	0x50
 2169 0aec 05       		.uleb128 0x5
 2170 0aed F3       		.byte	0xf3
 2171 0aee 01       		.uleb128 0x1
 2172 0aef 50       		.byte	0x50
 2173 0af0 23       		.byte	0x23
 2174 0af1 34       		.uleb128 0x34
 2175 0af2 00       		.byte	0
 2176 0af3 00       		.byte	0
 2177 0af4 27       		.uleb128 0x27
 2178 0af5 25000000 		.4byte	.LASF92
 2179 0af9 01       		.byte	0x1
 2180 0afa 6C       		.byte	0x6c
 2181 0afb 00000000 		.4byte	.LFB89
 2182 0aff 08000000 		.4byte	.LFE89-.LFB89
 2183 0b03 01       		.uleb128 0x1
 2184 0b04 9C       		.byte	0x9c
 2185 0b05 130B0000 		.4byte	0xb13
 2186 0b09 28       		.uleb128 0x28
 2187 0b0a 06000000 		.4byte	.LVL24
 2188 0b0e 22110000 		.4byte	0x1122
 2189 0b12 00       		.byte	0
 2190 0b13 27       		.uleb128 0x27
 2191 0b14 7D050000 		.4byte	.LASF93
 2192 0b18 01       		.byte	0x1
 2193 0b19 80       		.byte	0x80
 2194 0b1a 00000000 		.4byte	.LFB90
 2195 0b1e 44000000 		.4byte	.LFE90-.LFB90
 2196 0b22 01       		.uleb128 0x1
 2197 0b23 9C       		.byte	0x9c
 2198 0b24 D50B0000 		.4byte	0xbd5
 2199 0b28 22       		.uleb128 0x22
 2200 0b29 73647000 		.ascii	"sdp\000"
 2201 0b2d 01       		.byte	0x1
 2202 0b2e 80       		.byte	0x80
 2203 0b2f D50B0000 		.4byte	0xbd5
 2204 0b33 3E030000 		.4byte	.LLST22
 2205 0b37 23       		.uleb128 0x23
 2206 0b38 EB010000 		.4byte	.LASF94
 2207 0b3c 01       		.byte	0x1
ARM GAS  /tmp/cckPztkN.s 			page 40


 2208 0b3d 80       		.byte	0x80
 2209 0b3e AD050000 		.4byte	0x5ad
 2210 0b42 6A030000 		.4byte	.LLST23
 2211 0b46 23       		.uleb128 0x23
 2212 0b47 A8030000 		.4byte	.LASF95
 2213 0b4b 01       		.byte	0x1
 2214 0b4c 80       		.byte	0x80
 2215 0b4d AD050000 		.4byte	0x5ad
 2216 0b51 96030000 		.4byte	.LLST24
 2217 0b55 29       		.uleb128 0x29
 2218 0b56 53070000 		.4byte	0x753
 2219 0b5a 0A000000 		.4byte	.LBB64
 2220 0b5e 00000000 		.4byte	.Ldebug_ranges0+0
 2221 0b62 01       		.byte	0x1
 2222 0b63 83       		.byte	0x83
 2223 0b64 7D0B0000 		.4byte	0xb7d
 2224 0b68 2A       		.uleb128 0x2a
 2225 0b69 60070000 		.4byte	0x760
 2226 0b6d C2030000 		.4byte	.LLST25
 2227 0b71 2B       		.uleb128 0x2b
 2228 0b72 00000000 		.4byte	.Ldebug_ranges0+0
 2229 0b76 2C       		.uleb128 0x2c
 2230 0b77 6C070000 		.4byte	0x76c
 2231 0b7b 00       		.byte	0
 2232 0b7c 00       		.byte	0
 2233 0b7d 2D       		.uleb128 0x2d
 2234 0b7e 2A000000 		.4byte	.LVL30
 2235 0b82 29110000 		.4byte	0x1129
 2236 0b86 AB0B0000 		.4byte	0xbab
 2237 0b8a 25       		.uleb128 0x25
 2238 0b8b 01       		.uleb128 0x1
 2239 0b8c 53       		.byte	0x53
 2240 0b8d 03       		.uleb128 0x3
 2241 0b8e F3       		.byte	0xf3
 2242 0b8f 01       		.uleb128 0x1
 2243 0b90 51       		.byte	0x51
 2244 0b91 25       		.uleb128 0x25
 2245 0b92 01       		.uleb128 0x1
 2246 0b93 52       		.byte	0x52
 2247 0b94 01       		.uleb128 0x1
 2248 0b95 40       		.byte	0x40
 2249 0b96 25       		.uleb128 0x25
 2250 0b97 01       		.uleb128 0x1
 2251 0b98 51       		.byte	0x51
 2252 0b99 03       		.uleb128 0x3
 2253 0b9a 74       		.byte	0x74
 2254 0b9b D400     		.sleb128 84
 2255 0b9d 25       		.uleb128 0x25
 2256 0b9e 01       		.uleb128 0x1
 2257 0b9f 50       		.byte	0x50
 2258 0ba0 02       		.uleb128 0x2
 2259 0ba1 74       		.byte	0x74
 2260 0ba2 14       		.sleb128 20
 2261 0ba3 25       		.uleb128 0x25
 2262 0ba4 02       		.uleb128 0x2
 2263 0ba5 7D       		.byte	0x7d
 2264 0ba6 00       		.sleb128 0
ARM GAS  /tmp/cckPztkN.s 			page 41


 2265 0ba7 02       		.uleb128 0x2
 2266 0ba8 74       		.byte	0x74
 2267 0ba9 00       		.sleb128 0
 2268 0baa 00       		.byte	0
 2269 0bab 24       		.uleb128 0x24
 2270 0bac 3C000000 		.4byte	.LVL31
 2271 0bb0 4F110000 		.4byte	0x114f
 2272 0bb4 25       		.uleb128 0x25
 2273 0bb5 01       		.uleb128 0x1
 2274 0bb6 53       		.byte	0x53
 2275 0bb7 02       		.uleb128 0x2
 2276 0bb8 75       		.byte	0x75
 2277 0bb9 00       		.sleb128 0
 2278 0bba 25       		.uleb128 0x25
 2279 0bbb 01       		.uleb128 0x1
 2280 0bbc 52       		.byte	0x52
 2281 0bbd 01       		.uleb128 0x1
 2282 0bbe 40       		.byte	0x40
 2283 0bbf 25       		.uleb128 0x25
 2284 0bc0 01       		.uleb128 0x1
 2285 0bc1 51       		.byte	0x51
 2286 0bc2 03       		.uleb128 0x3
 2287 0bc3 74       		.byte	0x74
 2288 0bc4 E400     		.sleb128 100
 2289 0bc6 25       		.uleb128 0x25
 2290 0bc7 01       		.uleb128 0x1
 2291 0bc8 50       		.byte	0x50
 2292 0bc9 02       		.uleb128 0x2
 2293 0bca 74       		.byte	0x74
 2294 0bcb 34       		.sleb128 52
 2295 0bcc 25       		.uleb128 0x25
 2296 0bcd 02       		.uleb128 0x2
 2297 0bce 7D       		.byte	0x7d
 2298 0bcf 00       		.sleb128 0
 2299 0bd0 02       		.uleb128 0x2
 2300 0bd1 74       		.byte	0x74
 2301 0bd2 00       		.sleb128 0
 2302 0bd3 00       		.byte	0
 2303 0bd4 00       		.byte	0
 2304 0bd5 0E       		.uleb128 0xe
 2305 0bd6 04       		.byte	0x4
 2306 0bd7 0B060000 		.4byte	0x60b
 2307 0bdb 27       		.uleb128 0x27
 2308 0bdc 1D000000 		.4byte	.LASF96
 2309 0be0 01       		.byte	0x1
 2310 0be1 93       		.byte	0x93
 2311 0be2 00000000 		.4byte	.LFB91
 2312 0be6 12000000 		.4byte	.LFE91-.LFB91
 2313 0bea 01       		.uleb128 0x1
 2314 0beb 9C       		.byte	0x9c
 2315 0bec 990C0000 		.4byte	0xc99
 2316 0bf0 22       		.uleb128 0x22
 2317 0bf1 73647000 		.ascii	"sdp\000"
 2318 0bf5 01       		.byte	0x1
 2319 0bf6 93       		.byte	0x93
 2320 0bf7 D50B0000 		.4byte	0xbd5
 2321 0bfb F4030000 		.4byte	.LLST26
ARM GAS  /tmp/cckPztkN.s 			page 42


 2322 0bff 23       		.uleb128 0x23
 2323 0c00 69030000 		.4byte	.LASF97
 2324 0c04 01       		.byte	0x1
 2325 0c05 93       		.byte	0x93
 2326 0c06 990C0000 		.4byte	0xc99
 2327 0c0a 20040000 		.4byte	.LLST27
 2328 0c0e 2E       		.uleb128 0x2e
 2329 0c0f E9050000 		.4byte	.LASF91
 2330 0c13 B40C0000 		.4byte	0xcb4
 2331 0c17 2F       		.uleb128 0x2f
 2332 0c18 8F070000 		.4byte	0x78f
 2333 0c1c 04000000 		.4byte	.LBB68
 2334 0c20 02000000 		.4byte	.LBE68-.LBB68
 2335 0c24 01       		.byte	0x1
 2336 0c25 97       		.byte	0x97
 2337 0c26 4C0C0000 		.4byte	0xc4c
 2338 0c2a 30       		.uleb128 0x30
 2339 0c2b 41070000 		.4byte	0x741
 2340 0c2f 04000000 		.4byte	.LBB69
 2341 0c33 02000000 		.4byte	.LBE69-.LBB69
 2342 0c37 02       		.byte	0x2
 2343 0c38 F601     		.2byte	0x1f6
 2344 0c3a 31       		.uleb128 0x31
 2345 0c3b 2F070000 		.4byte	0x72f
 2346 0c3f 04000000 		.4byte	.LBB70
 2347 0c43 02000000 		.4byte	.LBE70-.LBB70
 2348 0c47 0A       		.byte	0xa
 2349 0c48 4B01     		.2byte	0x14b
 2350 0c4a 00       		.byte	0
 2351 0c4b 00       		.byte	0
 2352 0c4c 2F       		.uleb128 0x2f
 2353 0c4d 98070000 		.4byte	0x798
 2354 0c51 0E000000 		.4byte	.LBB72
 2355 0c55 02000000 		.4byte	.LBE72-.LBB72
 2356 0c59 01       		.byte	0x1
 2357 0c5a 9C       		.byte	0x9c
 2358 0c5b 810C0000 		.4byte	0xc81
 2359 0c5f 30       		.uleb128 0x30
 2360 0c60 4A070000 		.4byte	0x74a
 2361 0c64 0E000000 		.4byte	.LBB73
 2362 0c68 02000000 		.4byte	.LBE73-.LBB73
 2363 0c6c 02       		.byte	0x2
 2364 0c6d 0102     		.2byte	0x201
 2365 0c6f 31       		.uleb128 0x31
 2366 0c70 38070000 		.4byte	0x738
 2367 0c74 0E000000 		.4byte	.LBB74
 2368 0c78 02000000 		.4byte	.LBE74-.LBB74
 2369 0c7c 0A       		.byte	0xa
 2370 0c7d 5401     		.2byte	0x154
 2371 0c7f 00       		.byte	0
 2372 0c80 00       		.byte	0
 2373 0c81 24       		.uleb128 0x24
 2374 0c82 0A000000 		.4byte	.LVL35
 2375 0c86 75110000 		.4byte	0x1175
 2376 0c8a 25       		.uleb128 0x25
 2377 0c8b 01       		.uleb128 0x1
 2378 0c8c 51       		.byte	0x51
ARM GAS  /tmp/cckPztkN.s 			page 43


 2379 0c8d 03       		.uleb128 0x3
 2380 0c8e F3       		.byte	0xf3
 2381 0c8f 01       		.uleb128 0x1
 2382 0c90 51       		.byte	0x51
 2383 0c91 25       		.uleb128 0x25
 2384 0c92 01       		.uleb128 0x1
 2385 0c93 50       		.byte	0x50
 2386 0c94 02       		.uleb128 0x2
 2387 0c95 74       		.byte	0x74
 2388 0c96 00       		.sleb128 0
 2389 0c97 00       		.byte	0
 2390 0c98 00       		.byte	0
 2391 0c99 0E       		.uleb128 0xe
 2392 0c9a 04       		.byte	0x4
 2393 0c9b 9F0C0000 		.4byte	0xc9f
 2394 0c9f 0F       		.uleb128 0xf
 2395 0ca0 96060000 		.4byte	0x696
 2396 0ca4 13       		.uleb128 0x13
 2397 0ca5 B9020000 		.4byte	0x2b9
 2398 0ca9 B40C0000 		.4byte	0xcb4
 2399 0cad 14       		.uleb128 0x14
 2400 0cae 31010000 		.4byte	0x131
 2401 0cb2 07       		.byte	0x7
 2402 0cb3 00       		.byte	0
 2403 0cb4 0F       		.uleb128 0xf
 2404 0cb5 A40C0000 		.4byte	0xca4
 2405 0cb9 27       		.uleb128 0x27
 2406 0cba 03030000 		.4byte	.LASF98
 2407 0cbe 01       		.byte	0x1
 2408 0cbf A8       		.byte	0xa8
 2409 0cc0 00000000 		.4byte	.LFB92
 2410 0cc4 26000000 		.4byte	.LFE92-.LFB92
 2411 0cc8 01       		.uleb128 0x1
 2412 0cc9 9C       		.byte	0x9c
 2413 0cca A60D0000 		.4byte	0xda6
 2414 0cce 22       		.uleb128 0x22
 2415 0ccf 73647000 		.ascii	"sdp\000"
 2416 0cd3 01       		.byte	0x1
 2417 0cd4 A8       		.byte	0xa8
 2418 0cd5 D50B0000 		.4byte	0xbd5
 2419 0cd9 41040000 		.4byte	.LLST28
 2420 0cdd 2E       		.uleb128 0x2e
 2421 0cde E9050000 		.4byte	.LASF91
 2422 0ce2 B60D0000 		.4byte	0xdb6
 2423 0ce6 2F       		.uleb128 0x2f
 2424 0ce7 8F070000 		.4byte	0x78f
 2425 0ceb 04000000 		.4byte	.LBB76
 2426 0cef 02000000 		.4byte	.LBE76-.LBB76
 2427 0cf3 01       		.byte	0x1
 2428 0cf4 AC       		.byte	0xac
 2429 0cf5 1B0D0000 		.4byte	0xd1b
 2430 0cf9 30       		.uleb128 0x30
 2431 0cfa 41070000 		.4byte	0x741
 2432 0cfe 04000000 		.4byte	.LBB77
 2433 0d02 02000000 		.4byte	.LBE77-.LBB77
 2434 0d06 02       		.byte	0x2
 2435 0d07 F601     		.2byte	0x1f6
ARM GAS  /tmp/cckPztkN.s 			page 44


 2436 0d09 31       		.uleb128 0x31
 2437 0d0a 2F070000 		.4byte	0x72f
 2438 0d0e 04000000 		.4byte	.LBB78
 2439 0d12 02000000 		.4byte	.LBE78-.LBB78
 2440 0d16 0A       		.byte	0xa
 2441 0d17 4B01     		.2byte	0x14b
 2442 0d19 00       		.byte	0
 2443 0d1a 00       		.byte	0
 2444 0d1b 2F       		.uleb128 0x2f
 2445 0d1c A1070000 		.4byte	0x7a1
 2446 0d20 1E000000 		.4byte	.LBB80
 2447 0d24 04000000 		.4byte	.LBE80-.LBB80
 2448 0d28 01       		.byte	0x1
 2449 0d29 B3       		.byte	0xb3
 2450 0d2a 380D0000 		.4byte	0xd38
 2451 0d2e 28       		.uleb128 0x28
 2452 0d2f 22000000 		.4byte	.LVL41
 2453 0d33 8B110000 		.4byte	0x118b
 2454 0d37 00       		.byte	0
 2455 0d38 2F       		.uleb128 0x2f
 2456 0d39 98070000 		.4byte	0x798
 2457 0d3d 22000000 		.4byte	.LBB82
 2458 0d41 02000000 		.4byte	.LBE82-.LBB82
 2459 0d45 01       		.byte	0x1
 2460 0d46 B4       		.byte	0xb4
 2461 0d47 6D0D0000 		.4byte	0xd6d
 2462 0d4b 30       		.uleb128 0x30
 2463 0d4c 4A070000 		.4byte	0x74a
 2464 0d50 22000000 		.4byte	.LBB83
 2465 0d54 02000000 		.4byte	.LBE83-.LBB83
 2466 0d58 02       		.byte	0x2
 2467 0d59 0102     		.2byte	0x201
 2468 0d5b 31       		.uleb128 0x31
 2469 0d5c 38070000 		.4byte	0x738
 2470 0d60 22000000 		.4byte	.LBB84
 2471 0d64 02000000 		.4byte	.LBE84-.LBB84
 2472 0d68 0A       		.byte	0xa
 2473 0d69 5401     		.2byte	0x154
 2474 0d6b 00       		.byte	0
 2475 0d6c 00       		.byte	0
 2476 0d6d 2D       		.uleb128 0x2d
 2477 0d6e 0A000000 		.4byte	.LVL38
 2478 0d72 93110000 		.4byte	0x1193
 2479 0d76 810D0000 		.4byte	0xd81
 2480 0d7a 25       		.uleb128 0x25
 2481 0d7b 01       		.uleb128 0x1
 2482 0d7c 50       		.byte	0x50
 2483 0d7d 02       		.uleb128 0x2
 2484 0d7e 74       		.byte	0x74
 2485 0d7f 00       		.sleb128 0
 2486 0d80 00       		.byte	0
 2487 0d81 2D       		.uleb128 0x2d
 2488 0d82 16000000 		.4byte	.LVL39
 2489 0d86 A4110000 		.4byte	0x11a4
 2490 0d8a 950D0000 		.4byte	0xd95
 2491 0d8e 25       		.uleb128 0x25
 2492 0d8f 01       		.uleb128 0x1
ARM GAS  /tmp/cckPztkN.s 			page 45


 2493 0d90 50       		.byte	0x50
 2494 0d91 02       		.uleb128 0x2
 2495 0d92 74       		.byte	0x74
 2496 0d93 34       		.sleb128 52
 2497 0d94 00       		.byte	0
 2498 0d95 24       		.uleb128 0x24
 2499 0d96 1E000000 		.4byte	.LVL40
 2500 0d9a B6110000 		.4byte	0x11b6
 2501 0d9e 25       		.uleb128 0x25
 2502 0d9f 01       		.uleb128 0x1
 2503 0da0 50       		.byte	0x50
 2504 0da1 02       		.uleb128 0x2
 2505 0da2 74       		.byte	0x74
 2506 0da3 14       		.sleb128 20
 2507 0da4 00       		.byte	0
 2508 0da5 00       		.byte	0
 2509 0da6 13       		.uleb128 0x13
 2510 0da7 B9020000 		.4byte	0x2b9
 2511 0dab B60D0000 		.4byte	0xdb6
 2512 0daf 14       		.uleb128 0x14
 2513 0db0 31010000 		.4byte	0x131
 2514 0db4 06       		.byte	0x6
 2515 0db5 00       		.byte	0
 2516 0db6 0F       		.uleb128 0xf
 2517 0db7 A60D0000 		.4byte	0xda6
 2518 0dbb 27       		.uleb128 0x27
 2519 0dbc C5000000 		.4byte	.LASF99
 2520 0dc0 01       		.byte	0x1
 2521 0dc1 C7       		.byte	0xc7
 2522 0dc2 00000000 		.4byte	.LFB93
 2523 0dc6 42000000 		.4byte	.LFE93-.LFB93
 2524 0dca 01       		.uleb128 0x1
 2525 0dcb 9C       		.byte	0x9c
 2526 0dcc 830E0000 		.4byte	0xe83
 2527 0dd0 22       		.uleb128 0x22
 2528 0dd1 73647000 		.ascii	"sdp\000"
 2529 0dd5 01       		.byte	0x1
 2530 0dd6 C7       		.byte	0xc7
 2531 0dd7 D50B0000 		.4byte	0xbd5
 2532 0ddb 6D040000 		.4byte	.LLST29
 2533 0ddf 22       		.uleb128 0x22
 2534 0de0 6200     		.ascii	"b\000"
 2535 0de2 01       		.byte	0x1
 2536 0de3 C7       		.byte	0xc7
 2537 0de4 5E000000 		.4byte	0x5e
 2538 0de8 A4040000 		.4byte	.LLST30
 2539 0dec 2E       		.uleb128 0x2e
 2540 0ded E9050000 		.4byte	.LASF91
 2541 0df1 930E0000 		.4byte	0xe93
 2542 0df5 29       		.uleb128 0x29
 2543 0df6 AA070000 		.4byte	0x7aa
 2544 0dfa 0C000000 		.4byte	.LBB86
 2545 0dfe 18000000 		.4byte	.Ldebug_ranges0+0x18
 2546 0e02 01       		.byte	0x1
 2547 0e03 CD       		.byte	0xcd
 2548 0e04 320E0000 		.4byte	0xe32
 2549 0e08 2A       		.uleb128 0x2a
ARM GAS  /tmp/cckPztkN.s 			page 46


 2550 0e09 C3070000 		.4byte	0x7c3
 2551 0e0d C5040000 		.4byte	.LLST31
 2552 0e11 2A       		.uleb128 0x2a
 2553 0e12 B7070000 		.4byte	0x7b7
 2554 0e16 D9040000 		.4byte	.LLST32
 2555 0e1a 2B       		.uleb128 0x2b
 2556 0e1b 18000000 		.4byte	.Ldebug_ranges0+0x18
 2557 0e1f 2C       		.uleb128 0x2c
 2558 0e20 CF070000 		.4byte	0x7cf
 2559 0e24 32       		.uleb128 0x32
 2560 0e25 1E000000 		.4byte	.LVL46
 2561 0e29 25       		.uleb128 0x25
 2562 0e2a 01       		.uleb128 0x1
 2563 0e2b 50       		.byte	0x50
 2564 0e2c 02       		.uleb128 0x2
 2565 0e2d 74       		.byte	0x74
 2566 0e2e 04       		.sleb128 4
 2567 0e2f 00       		.byte	0
 2568 0e30 00       		.byte	0
 2569 0e31 00       		.byte	0
 2570 0e32 29       		.uleb128 0x29
 2571 0e33 AA070000 		.4byte	0x7aa
 2572 0e37 2E000000 		.4byte	.LBB90
 2573 0e3b 30000000 		.4byte	.Ldebug_ranges0+0x30
 2574 0e3f 01       		.byte	0x1
 2575 0e40 CF       		.byte	0xcf
 2576 0e41 6C0E0000 		.4byte	0xe6c
 2577 0e45 33       		.uleb128 0x33
 2578 0e46 C3070000 		.4byte	0x7c3
 2579 0e4a 80       		.byte	0x80
 2580 0e4b 2A       		.uleb128 0x2a
 2581 0e4c B7070000 		.4byte	0x7b7
 2582 0e50 06050000 		.4byte	.LLST33
 2583 0e54 2B       		.uleb128 0x2b
 2584 0e55 30000000 		.4byte	.Ldebug_ranges0+0x30
 2585 0e59 2C       		.uleb128 0x2c
 2586 0e5a CF070000 		.4byte	0x7cf
 2587 0e5e 32       		.uleb128 0x32
 2588 0e5f 40000000 		.4byte	.LVL51
 2589 0e63 25       		.uleb128 0x25
 2590 0e64 01       		.uleb128 0x1
 2591 0e65 50       		.byte	0x50
 2592 0e66 02       		.uleb128 0x2
 2593 0e67 74       		.byte	0x74
 2594 0e68 04       		.sleb128 4
 2595 0e69 00       		.byte	0
 2596 0e6a 00       		.byte	0
 2597 0e6b 00       		.byte	0
 2598 0e6c 24       		.uleb128 0x24
 2599 0e6d 28000000 		.4byte	.LVL47
 2600 0e71 C8110000 		.4byte	0x11c8
 2601 0e75 25       		.uleb128 0x25
 2602 0e76 01       		.uleb128 0x1
 2603 0e77 51       		.byte	0x51
 2604 0e78 02       		.uleb128 0x2
 2605 0e79 75       		.byte	0x75
 2606 0e7a 00       		.sleb128 0
ARM GAS  /tmp/cckPztkN.s 			page 47


 2607 0e7b 25       		.uleb128 0x25
 2608 0e7c 01       		.uleb128 0x1
 2609 0e7d 50       		.byte	0x50
 2610 0e7e 02       		.uleb128 0x2
 2611 0e7f 74       		.byte	0x74
 2612 0e80 14       		.sleb128 20
 2613 0e81 00       		.byte	0
 2614 0e82 00       		.byte	0
 2615 0e83 13       		.uleb128 0x13
 2616 0e84 B9020000 		.4byte	0x2b9
 2617 0e88 930E0000 		.4byte	0xe93
 2618 0e8c 14       		.uleb128 0x14
 2619 0e8d 31010000 		.4byte	0x131
 2620 0e91 0F       		.byte	0xf
 2621 0e92 00       		.byte	0
 2622 0e93 0F       		.uleb128 0xf
 2623 0e94 830E0000 		.4byte	0xe83
 2624 0e98 34       		.uleb128 0x34
 2625 0e99 22010000 		.4byte	.LASF100
 2626 0e9d 01       		.byte	0x1
 2627 0e9e E1       		.byte	0xe1
 2628 0e9f 05010000 		.4byte	0x105
 2629 0ea3 00000000 		.4byte	.LFB94
 2630 0ea7 26000000 		.4byte	.LFE94-.LFB94
 2631 0eab 01       		.uleb128 0x1
 2632 0eac 9C       		.byte	0x9c
 2633 0ead 210F0000 		.4byte	0xf21
 2634 0eb1 22       		.uleb128 0x22
 2635 0eb2 73647000 		.ascii	"sdp\000"
 2636 0eb6 01       		.byte	0x1
 2637 0eb7 E1       		.byte	0xe1
 2638 0eb8 D50B0000 		.4byte	0xbd5
 2639 0ebc 26050000 		.4byte	.LLST34
 2640 0ec0 35       		.uleb128 0x35
 2641 0ec1 6200     		.ascii	"b\000"
 2642 0ec3 01       		.byte	0x1
 2643 0ec4 E2       		.byte	0xe2
 2644 0ec5 05010000 		.4byte	0x105
 2645 0ec9 5D050000 		.4byte	.LLST35
 2646 0ecd 2E       		.uleb128 0x2e
 2647 0ece E9050000 		.4byte	.LASF91
 2648 0ed2 310F0000 		.4byte	0xf31
 2649 0ed6 29       		.uleb128 0x29
 2650 0ed7 AA070000 		.4byte	0x7aa
 2651 0edb 12000000 		.4byte	.LBB94
 2652 0edf 48000000 		.4byte	.Ldebug_ranges0+0x48
 2653 0ee3 01       		.byte	0x1
 2654 0ee4 E9       		.byte	0xe9
 2655 0ee5 100F0000 		.4byte	0xf10
 2656 0ee9 33       		.uleb128 0x33
 2657 0eea C3070000 		.4byte	0x7c3
 2658 0eee 08       		.byte	0x8
 2659 0eef 2A       		.uleb128 0x2a
 2660 0ef0 B7070000 		.4byte	0x7b7
 2661 0ef4 91050000 		.4byte	.LLST36
 2662 0ef8 2B       		.uleb128 0x2b
 2663 0ef9 48000000 		.4byte	.Ldebug_ranges0+0x48
ARM GAS  /tmp/cckPztkN.s 			page 48


 2664 0efd 2C       		.uleb128 0x2c
 2665 0efe CF070000 		.4byte	0x7cf
 2666 0f02 32       		.uleb128 0x32
 2667 0f03 24000000 		.4byte	.LVL61
 2668 0f07 25       		.uleb128 0x25
 2669 0f08 01       		.uleb128 0x1
 2670 0f09 50       		.byte	0x50
 2671 0f0a 02       		.uleb128 0x2
 2672 0f0b 74       		.byte	0x74
 2673 0f0c 04       		.sleb128 4
 2674 0f0d 00       		.byte	0
 2675 0f0e 00       		.byte	0
 2676 0f0f 00       		.byte	0
 2677 0f10 24       		.uleb128 0x24
 2678 0f11 0A000000 		.4byte	.LVL54
 2679 0f15 E3110000 		.4byte	0x11e3
 2680 0f19 25       		.uleb128 0x25
 2681 0f1a 01       		.uleb128 0x1
 2682 0f1b 50       		.byte	0x50
 2683 0f1c 02       		.uleb128 0x2
 2684 0f1d 74       		.byte	0x74
 2685 0f1e 34       		.sleb128 52
 2686 0f1f 00       		.byte	0
 2687 0f20 00       		.byte	0
 2688 0f21 13       		.uleb128 0x13
 2689 0f22 B9020000 		.4byte	0x2b9
 2690 0f26 310F0000 		.4byte	0xf31
 2691 0f2a 14       		.uleb128 0x14
 2692 0f2b 31010000 		.4byte	0x131
 2693 0f2f 0E       		.byte	0xe
 2694 0f30 00       		.byte	0
 2695 0f31 0F       		.uleb128 0xf
 2696 0f32 210F0000 		.4byte	0xf21
 2697 0f36 34       		.uleb128 0x34
 2698 0f37 B0030000 		.4byte	.LASF101
 2699 0f3b 01       		.byte	0x1
 2700 0f3c FC       		.byte	0xfc
 2701 0f3d 29050000 		.4byte	0x529
 2702 0f41 00000000 		.4byte	.LFB95
 2703 0f45 0E000000 		.4byte	.LFE95-.LFB95
 2704 0f49 01       		.uleb128 0x1
 2705 0f4a 9C       		.byte	0x9c
 2706 0f4b D30F0000 		.4byte	0xfd3
 2707 0f4f 22       		.uleb128 0x22
 2708 0f50 73647000 		.ascii	"sdp\000"
 2709 0f54 01       		.byte	0x1
 2710 0f55 FC       		.byte	0xfc
 2711 0f56 D50B0000 		.4byte	0xbd5
 2712 0f5a B1050000 		.4byte	.LLST37
 2713 0f5e 35       		.uleb128 0x35
 2714 0f5f 6200     		.ascii	"b\000"
 2715 0f61 01       		.byte	0x1
 2716 0f62 FD       		.byte	0xfd
 2717 0f63 29050000 		.4byte	0x529
 2718 0f67 D2050000 		.4byte	.LLST38
 2719 0f6b 2F       		.uleb128 0x2f
 2720 0f6c 8F070000 		.4byte	0x78f
ARM GAS  /tmp/cckPztkN.s 			page 49


 2721 0f70 00000000 		.4byte	.LBB98
 2722 0f74 02000000 		.4byte	.LBE98-.LBB98
 2723 0f78 01       		.byte	0x1
 2724 0f79 FF       		.byte	0xff
 2725 0f7a A00F0000 		.4byte	0xfa0
 2726 0f7e 30       		.uleb128 0x30
 2727 0f7f 41070000 		.4byte	0x741
 2728 0f83 00000000 		.4byte	.LBB99
 2729 0f87 02000000 		.4byte	.LBE99-.LBB99
 2730 0f8b 02       		.byte	0x2
 2731 0f8c F601     		.2byte	0x1f6
 2732 0f8e 31       		.uleb128 0x31
 2733 0f8f 2F070000 		.4byte	0x72f
 2734 0f93 00000000 		.4byte	.LBB100
 2735 0f97 02000000 		.4byte	.LBE100-.LBB100
 2736 0f9b 0A       		.byte	0xa
 2737 0f9c 4B01     		.2byte	0x14b
 2738 0f9e 00       		.byte	0
 2739 0f9f 00       		.byte	0
 2740 0fa0 30       		.uleb128 0x30
 2741 0fa1 98070000 		.4byte	0x798
 2742 0fa5 04000000 		.4byte	.LBB102
 2743 0fa9 02000000 		.4byte	.LBE102-.LBB102
 2744 0fad 01       		.byte	0x1
 2745 0fae 0101     		.2byte	0x101
 2746 0fb0 30       		.uleb128 0x30
 2747 0fb1 4A070000 		.4byte	0x74a
 2748 0fb5 04000000 		.4byte	.LBB103
 2749 0fb9 02000000 		.4byte	.LBE103-.LBB103
 2750 0fbd 02       		.byte	0x2
 2751 0fbe 0102     		.2byte	0x201
 2752 0fc0 31       		.uleb128 0x31
 2753 0fc1 38070000 		.4byte	0x738
 2754 0fc5 04000000 		.4byte	.LBB104
 2755 0fc9 02000000 		.4byte	.LBE104-.LBB104
 2756 0fcd 0A       		.byte	0xa
 2757 0fce 5401     		.2byte	0x154
 2758 0fd0 00       		.byte	0
 2759 0fd1 00       		.byte	0
 2760 0fd2 00       		.byte	0
 2761 0fd3 36       		.uleb128 0x36
 2762 0fd4 7A030000 		.4byte	.LASF102
 2763 0fd8 01       		.byte	0x1
 2764 0fd9 1501     		.2byte	0x115
 2765 0fdb 29050000 		.4byte	0x529
 2766 0fdf 00000000 		.4byte	.LFB96
 2767 0fe3 0E000000 		.4byte	.LFE96-.LFB96
 2768 0fe7 01       		.uleb128 0x1
 2769 0fe8 9C       		.byte	0x9c
 2770 0fe9 74100000 		.4byte	0x1074
 2771 0fed 37       		.uleb128 0x37
 2772 0fee 73647000 		.ascii	"sdp\000"
 2773 0ff2 01       		.byte	0x1
 2774 0ff3 1501     		.2byte	0x115
 2775 0ff5 D50B0000 		.4byte	0xbd5
 2776 0ff9 E9050000 		.4byte	.LLST39
 2777 0ffd 38       		.uleb128 0x38
ARM GAS  /tmp/cckPztkN.s 			page 50


 2778 0ffe 6200     		.ascii	"b\000"
 2779 1000 01       		.byte	0x1
 2780 1001 1601     		.2byte	0x116
 2781 1003 29050000 		.4byte	0x529
 2782 1007 0A060000 		.4byte	.LLST40
 2783 100b 39       		.uleb128 0x39
 2784 100c 8F070000 		.4byte	0x78f
 2785 1010 00000000 		.4byte	.LBB106
 2786 1014 02000000 		.4byte	.LBE106-.LBB106
 2787 1018 01       		.byte	0x1
 2788 1019 1801     		.2byte	0x118
 2789 101b 41100000 		.4byte	0x1041
 2790 101f 30       		.uleb128 0x30
 2791 1020 41070000 		.4byte	0x741
 2792 1024 00000000 		.4byte	.LBB107
 2793 1028 02000000 		.4byte	.LBE107-.LBB107
 2794 102c 02       		.byte	0x2
 2795 102d F601     		.2byte	0x1f6
 2796 102f 31       		.uleb128 0x31
 2797 1030 2F070000 		.4byte	0x72f
 2798 1034 00000000 		.4byte	.LBB108
 2799 1038 02000000 		.4byte	.LBE108-.LBB108
 2800 103c 0A       		.byte	0xa
 2801 103d 4B01     		.2byte	0x14b
 2802 103f 00       		.byte	0
 2803 1040 00       		.byte	0
 2804 1041 30       		.uleb128 0x30
 2805 1042 98070000 		.4byte	0x798
 2806 1046 04000000 		.4byte	.LBB110
 2807 104a 02000000 		.4byte	.LBE110-.LBB110
 2808 104e 01       		.byte	0x1
 2809 104f 1A01     		.2byte	0x11a
 2810 1051 30       		.uleb128 0x30
 2811 1052 4A070000 		.4byte	0x74a
 2812 1056 04000000 		.4byte	.LBB111
 2813 105a 02000000 		.4byte	.LBE111-.LBB111
 2814 105e 02       		.byte	0x2
 2815 105f 0102     		.2byte	0x201
 2816 1061 31       		.uleb128 0x31
 2817 1062 38070000 		.4byte	0x738
 2818 1066 04000000 		.4byte	.LBB112
 2819 106a 02000000 		.4byte	.LBE112-.LBB112
 2820 106e 0A       		.byte	0xa
 2821 106f 5401     		.2byte	0x154
 2822 1071 00       		.byte	0
 2823 1072 00       		.byte	0
 2824 1073 00       		.byte	0
 2825 1074 3A       		.uleb128 0x3a
 2826 1075 766D7400 		.ascii	"vmt\000"
 2827 1079 01       		.byte	0x1
 2828 107a 5C       		.byte	0x5c
 2829 107b 14070000 		.4byte	0x714
 2830 107f 05       		.uleb128 0x5
 2831 1080 03       		.byte	0x3
 2832 1081 00000000 		.4byte	vmt
 2833 1085 3B       		.uleb128 0x3b
 2834 1086 6E696C00 		.ascii	"nil\000"
ARM GAS  /tmp/cckPztkN.s 			page 51


 2835 108a 06       		.byte	0x6
 2836 108b C203     		.2byte	0x3c2
 2837 108d 2D030000 		.4byte	0x32d
 2838 1091 3C       		.uleb128 0x3c
 2839 1092 D6010000 		.4byte	.LASF103
 2840 1096 0B       		.byte	0xb
 2841 1097 1F01     		.2byte	0x11f
 2842 1099 2C000000 		.4byte	0x2c
 2843 109d B6100000 		.4byte	0x10b6
 2844 10a1 17       		.uleb128 0x17
 2845 10a2 B6100000 		.4byte	0x10b6
 2846 10a6 17       		.uleb128 0x17
 2847 10a7 6D040000 		.4byte	0x46d
 2848 10ab 17       		.uleb128 0x17
 2849 10ac 2C000000 		.4byte	0x2c
 2850 10b0 17       		.uleb128 0x17
 2851 10b1 26010000 		.4byte	0x126
 2852 10b5 00       		.byte	0
 2853 10b6 0E       		.uleb128 0xe
 2854 10b7 04       		.byte	0x4
 2855 10b8 CF050000 		.4byte	0x5cf
 2856 10bc 3C       		.uleb128 0x3c
 2857 10bd 61020000 		.4byte	.LASF104
 2858 10c1 0B       		.byte	0xb
 2859 10c2 2701     		.2byte	0x127
 2860 10c4 2C000000 		.4byte	0x2c
 2861 10c8 E1100000 		.4byte	0x10e1
 2862 10cc 17       		.uleb128 0x17
 2863 10cd E1100000 		.4byte	0x10e1
 2864 10d1 17       		.uleb128 0x17
 2865 10d2 43040000 		.4byte	0x443
 2866 10d6 17       		.uleb128 0x17
 2867 10d7 2C000000 		.4byte	0x2c
 2868 10db 17       		.uleb128 0x17
 2869 10dc 26010000 		.4byte	0x126
 2870 10e0 00       		.byte	0
 2871 10e1 0E       		.uleb128 0xe
 2872 10e2 04       		.byte	0x4
 2873 10e3 DA050000 		.4byte	0x5da
 2874 10e7 3C       		.uleb128 0x3c
 2875 10e8 90050000 		.4byte	.LASF105
 2876 10ec 0B       		.byte	0xb
 2877 10ed 1E01     		.2byte	0x11e
 2878 10ef 05010000 		.4byte	0x105
 2879 10f3 02110000 		.4byte	0x1102
 2880 10f7 17       		.uleb128 0x17
 2881 10f8 B6100000 		.4byte	0x10b6
 2882 10fc 17       		.uleb128 0x17
 2883 10fd 26010000 		.4byte	0x126
 2884 1101 00       		.byte	0
 2885 1102 3C       		.uleb128 0x3c
 2886 1103 C0030000 		.4byte	.LASF106
 2887 1107 0B       		.byte	0xb
 2888 1108 2501     		.2byte	0x125
 2889 110a 05010000 		.4byte	0x105
 2890 110e 22110000 		.4byte	0x1122
 2891 1112 17       		.uleb128 0x17
ARM GAS  /tmp/cckPztkN.s 			page 52


 2892 1113 E1100000 		.4byte	0x10e1
 2893 1117 17       		.uleb128 0x17
 2894 1118 5E000000 		.4byte	0x5e
 2895 111c 17       		.uleb128 0x17
 2896 111d 26010000 		.4byte	0x126
 2897 1121 00       		.byte	0
 2898 1122 3D       		.uleb128 0x3d
 2899 1123 FE050000 		.4byte	.LASF110
 2900 1127 0D       		.byte	0xd
 2901 1128 98       		.byte	0x98
 2902 1129 3E       		.uleb128 0x3e
 2903 112a 54020000 		.4byte	.LASF107
 2904 112e 0B       		.byte	0xb
 2905 112f 1A01     		.2byte	0x11a
 2906 1131 4F110000 		.4byte	0x114f
 2907 1135 17       		.uleb128 0x17
 2908 1136 B6100000 		.4byte	0x10b6
 2909 113a 17       		.uleb128 0x17
 2910 113b 6D040000 		.4byte	0x46d
 2911 113f 17       		.uleb128 0x17
 2912 1140 2C000000 		.4byte	0x2c
 2913 1144 17       		.uleb128 0x17
 2914 1145 AD050000 		.4byte	0x5ad
 2915 1149 17       		.uleb128 0x17
 2916 114a F1010000 		.4byte	0x1f1
 2917 114e 00       		.byte	0
 2918 114f 3E       		.uleb128 0x3e
 2919 1150 A1020000 		.4byte	.LASF108
 2920 1154 0B       		.byte	0xb
 2921 1155 2201     		.2byte	0x122
 2922 1157 75110000 		.4byte	0x1175
 2923 115b 17       		.uleb128 0x17
 2924 115c E1100000 		.4byte	0x10e1
 2925 1160 17       		.uleb128 0x17
 2926 1161 6D040000 		.4byte	0x46d
 2927 1165 17       		.uleb128 0x17
 2928 1166 2C000000 		.4byte	0x2c
 2929 116a 17       		.uleb128 0x17
 2930 116b AD050000 		.4byte	0x5ad
 2931 116f 17       		.uleb128 0x17
 2932 1170 F1010000 		.4byte	0x1f1
 2933 1174 00       		.byte	0
 2934 1175 3F       		.uleb128 0x3f
 2935 1176 34030000 		.4byte	.LASF109
 2936 117a 0D       		.byte	0xd
 2937 117b 99       		.byte	0x99
 2938 117c 8B110000 		.4byte	0x118b
 2939 1180 17       		.uleb128 0x17
 2940 1181 D50B0000 		.4byte	0xbd5
 2941 1185 17       		.uleb128 0x17
 2942 1186 990C0000 		.4byte	0xc99
 2943 118a 00       		.byte	0
 2944 118b 40       		.uleb128 0x40
 2945 118c 43020000 		.4byte	.LASF111
 2946 1190 06       		.byte	0x6
 2947 1191 D303     		.2byte	0x3d3
 2948 1193 3F       		.uleb128 0x3f
ARM GAS  /tmp/cckPztkN.s 			page 53


 2949 1194 DF020000 		.4byte	.LASF112
 2950 1198 0D       		.byte	0xd
 2951 1199 9A       		.byte	0x9a
 2952 119a A4110000 		.4byte	0x11a4
 2953 119e 17       		.uleb128 0x17
 2954 119f D50B0000 		.4byte	0xbd5
 2955 11a3 00       		.byte	0
 2956 11a4 3E       		.uleb128 0x3e
 2957 11a5 3A020000 		.4byte	.LASF113
 2958 11a9 0B       		.byte	0xb
 2959 11aa 2401     		.2byte	0x124
 2960 11ac B6110000 		.4byte	0x11b6
 2961 11b0 17       		.uleb128 0x17
 2962 11b1 E1100000 		.4byte	0x10e1
 2963 11b5 00       		.byte	0
 2964 11b6 3E       		.uleb128 0x3e
 2965 11b7 6D040000 		.4byte	.LASF114
 2966 11bb 0B       		.byte	0xb
 2967 11bc 1C01     		.2byte	0x11c
 2968 11be C8110000 		.4byte	0x11c8
 2969 11c2 17       		.uleb128 0x17
 2970 11c3 B6100000 		.4byte	0x10b6
 2971 11c7 00       		.byte	0
 2972 11c8 3C       		.uleb128 0x3c
 2973 11c9 EA030000 		.4byte	.LASF115
 2974 11cd 0B       		.byte	0xb
 2975 11ce 1D01     		.2byte	0x11d
 2976 11d0 05010000 		.4byte	0x105
 2977 11d4 E3110000 		.4byte	0x11e3
 2978 11d8 17       		.uleb128 0x17
 2979 11d9 B6100000 		.4byte	0x10b6
 2980 11dd 17       		.uleb128 0x17
 2981 11de 5E000000 		.4byte	0x5e
 2982 11e2 00       		.byte	0
 2983 11e3 41       		.uleb128 0x41
 2984 11e4 0A060000 		.4byte	.LASF116
 2985 11e8 0B       		.byte	0xb
 2986 11e9 2601     		.2byte	0x126
 2987 11eb 05010000 		.4byte	0x105
 2988 11ef 17       		.uleb128 0x17
 2989 11f0 E1100000 		.4byte	0x10e1
 2990 11f4 00       		.byte	0
 2991 11f5 00       		.byte	0
 2992              		.section	.debug_abbrev,"",%progbits
 2993              	.Ldebug_abbrev0:
 2994 0000 01       		.uleb128 0x1
 2995 0001 11       		.uleb128 0x11
 2996 0002 01       		.byte	0x1
 2997 0003 25       		.uleb128 0x25
 2998 0004 0E       		.uleb128 0xe
 2999 0005 13       		.uleb128 0x13
 3000 0006 0B       		.uleb128 0xb
 3001 0007 03       		.uleb128 0x3
 3002 0008 0E       		.uleb128 0xe
 3003 0009 1B       		.uleb128 0x1b
 3004 000a 0E       		.uleb128 0xe
 3005 000b 55       		.uleb128 0x55
ARM GAS  /tmp/cckPztkN.s 			page 54


 3006 000c 17       		.uleb128 0x17
 3007 000d 11       		.uleb128 0x11
 3008 000e 01       		.uleb128 0x1
 3009 000f 10       		.uleb128 0x10
 3010 0010 17       		.uleb128 0x17
 3011 0011 00       		.byte	0
 3012 0012 00       		.byte	0
 3013 0013 02       		.uleb128 0x2
 3014 0014 24       		.uleb128 0x24
 3015 0015 00       		.byte	0
 3016 0016 0B       		.uleb128 0xb
 3017 0017 0B       		.uleb128 0xb
 3018 0018 3E       		.uleb128 0x3e
 3019 0019 0B       		.uleb128 0xb
 3020 001a 03       		.uleb128 0x3
 3021 001b 08       		.uleb128 0x8
 3022 001c 00       		.byte	0
 3023 001d 00       		.byte	0
 3024 001e 03       		.uleb128 0x3
 3025 001f 16       		.uleb128 0x16
 3026 0020 00       		.byte	0
 3027 0021 03       		.uleb128 0x3
 3028 0022 0E       		.uleb128 0xe
 3029 0023 3A       		.uleb128 0x3a
 3030 0024 0B       		.uleb128 0xb
 3031 0025 3B       		.uleb128 0x3b
 3032 0026 0B       		.uleb128 0xb
 3033 0027 49       		.uleb128 0x49
 3034 0028 13       		.uleb128 0x13
 3035 0029 00       		.byte	0
 3036 002a 00       		.byte	0
 3037 002b 04       		.uleb128 0x4
 3038 002c 24       		.uleb128 0x24
 3039 002d 00       		.byte	0
 3040 002e 0B       		.uleb128 0xb
 3041 002f 0B       		.uleb128 0xb
 3042 0030 3E       		.uleb128 0x3e
 3043 0031 0B       		.uleb128 0xb
 3044 0032 03       		.uleb128 0x3
 3045 0033 0E       		.uleb128 0xe
 3046 0034 00       		.byte	0
 3047 0035 00       		.byte	0
 3048 0036 05       		.uleb128 0x5
 3049 0037 13       		.uleb128 0x13
 3050 0038 01       		.byte	0x1
 3051 0039 03       		.uleb128 0x3
 3052 003a 0E       		.uleb128 0xe
 3053 003b 0B       		.uleb128 0xb
 3054 003c 0B       		.uleb128 0xb
 3055 003d 3A       		.uleb128 0x3a
 3056 003e 0B       		.uleb128 0xb
 3057 003f 3B       		.uleb128 0x3b
 3058 0040 05       		.uleb128 0x5
 3059 0041 01       		.uleb128 0x1
 3060 0042 13       		.uleb128 0x13
 3061 0043 00       		.byte	0
 3062 0044 00       		.byte	0
ARM GAS  /tmp/cckPztkN.s 			page 55


 3063 0045 06       		.uleb128 0x6
 3064 0046 0D       		.uleb128 0xd
 3065 0047 00       		.byte	0
 3066 0048 03       		.uleb128 0x3
 3067 0049 0E       		.uleb128 0xe
 3068 004a 3A       		.uleb128 0x3a
 3069 004b 0B       		.uleb128 0xb
 3070 004c 3B       		.uleb128 0x3b
 3071 004d 05       		.uleb128 0x5
 3072 004e 49       		.uleb128 0x49
 3073 004f 13       		.uleb128 0x13
 3074 0050 38       		.uleb128 0x38
 3075 0051 0B       		.uleb128 0xb
 3076 0052 00       		.byte	0
 3077 0053 00       		.byte	0
 3078 0054 07       		.uleb128 0x7
 3079 0055 0D       		.uleb128 0xd
 3080 0056 00       		.byte	0
 3081 0057 03       		.uleb128 0x3
 3082 0058 08       		.uleb128 0x8
 3083 0059 3A       		.uleb128 0x3a
 3084 005a 0B       		.uleb128 0xb
 3085 005b 3B       		.uleb128 0x3b
 3086 005c 05       		.uleb128 0x5
 3087 005d 49       		.uleb128 0x49
 3088 005e 13       		.uleb128 0x13
 3089 005f 38       		.uleb128 0x38
 3090 0060 0B       		.uleb128 0xb
 3091 0061 00       		.byte	0
 3092 0062 00       		.byte	0
 3093 0063 08       		.uleb128 0x8
 3094 0064 35       		.uleb128 0x35
 3095 0065 00       		.byte	0
 3096 0066 49       		.uleb128 0x49
 3097 0067 13       		.uleb128 0x13
 3098 0068 00       		.byte	0
 3099 0069 00       		.byte	0
 3100 006a 09       		.uleb128 0x9
 3101 006b 13       		.uleb128 0x13
 3102 006c 01       		.byte	0x1
 3103 006d 0B       		.uleb128 0xb
 3104 006e 0B       		.uleb128 0xb
 3105 006f 3A       		.uleb128 0x3a
 3106 0070 0B       		.uleb128 0xb
 3107 0071 3B       		.uleb128 0x3b
 3108 0072 05       		.uleb128 0x5
 3109 0073 01       		.uleb128 0x1
 3110 0074 13       		.uleb128 0x13
 3111 0075 00       		.byte	0
 3112 0076 00       		.byte	0
 3113 0077 0A       		.uleb128 0xa
 3114 0078 16       		.uleb128 0x16
 3115 0079 00       		.byte	0
 3116 007a 03       		.uleb128 0x3
 3117 007b 0E       		.uleb128 0xe
 3118 007c 3A       		.uleb128 0x3a
 3119 007d 0B       		.uleb128 0xb
ARM GAS  /tmp/cckPztkN.s 			page 56


 3120 007e 3B       		.uleb128 0x3b
 3121 007f 05       		.uleb128 0x5
 3122 0080 49       		.uleb128 0x49
 3123 0081 13       		.uleb128 0x13
 3124 0082 00       		.byte	0
 3125 0083 00       		.byte	0
 3126 0084 0B       		.uleb128 0xb
 3127 0085 0F       		.uleb128 0xf
 3128 0086 00       		.byte	0
 3129 0087 0B       		.uleb128 0xb
 3130 0088 0B       		.uleb128 0xb
 3131 0089 00       		.byte	0
 3132 008a 00       		.byte	0
 3133 008b 0C       		.uleb128 0xc
 3134 008c 13       		.uleb128 0x13
 3135 008d 01       		.byte	0x1
 3136 008e 03       		.uleb128 0x3
 3137 008f 0E       		.uleb128 0xe
 3138 0090 0B       		.uleb128 0xb
 3139 0091 0B       		.uleb128 0xb
 3140 0092 3A       		.uleb128 0x3a
 3141 0093 0B       		.uleb128 0xb
 3142 0094 3B       		.uleb128 0x3b
 3143 0095 0B       		.uleb128 0xb
 3144 0096 01       		.uleb128 0x1
 3145 0097 13       		.uleb128 0x13
 3146 0098 00       		.byte	0
 3147 0099 00       		.byte	0
 3148 009a 0D       		.uleb128 0xd
 3149 009b 0D       		.uleb128 0xd
 3150 009c 00       		.byte	0
 3151 009d 03       		.uleb128 0x3
 3152 009e 08       		.uleb128 0x8
 3153 009f 3A       		.uleb128 0x3a
 3154 00a0 0B       		.uleb128 0xb
 3155 00a1 3B       		.uleb128 0x3b
 3156 00a2 0B       		.uleb128 0xb
 3157 00a3 49       		.uleb128 0x49
 3158 00a4 13       		.uleb128 0x13
 3159 00a5 38       		.uleb128 0x38
 3160 00a6 0B       		.uleb128 0xb
 3161 00a7 00       		.byte	0
 3162 00a8 00       		.byte	0
 3163 00a9 0E       		.uleb128 0xe
 3164 00aa 0F       		.uleb128 0xf
 3165 00ab 00       		.byte	0
 3166 00ac 0B       		.uleb128 0xb
 3167 00ad 0B       		.uleb128 0xb
 3168 00ae 49       		.uleb128 0x49
 3169 00af 13       		.uleb128 0x13
 3170 00b0 00       		.byte	0
 3171 00b1 00       		.byte	0
 3172 00b2 0F       		.uleb128 0xf
 3173 00b3 26       		.uleb128 0x26
 3174 00b4 00       		.byte	0
 3175 00b5 49       		.uleb128 0x49
 3176 00b6 13       		.uleb128 0x13
ARM GAS  /tmp/cckPztkN.s 			page 57


 3177 00b7 00       		.byte	0
 3178 00b8 00       		.byte	0
 3179 00b9 10       		.uleb128 0x10
 3180 00ba 17       		.uleb128 0x17
 3181 00bb 01       		.byte	0x1
 3182 00bc 0B       		.uleb128 0xb
 3183 00bd 0B       		.uleb128 0xb
 3184 00be 3A       		.uleb128 0x3a
 3185 00bf 0B       		.uleb128 0xb
 3186 00c0 3B       		.uleb128 0x3b
 3187 00c1 05       		.uleb128 0x5
 3188 00c2 01       		.uleb128 0x1
 3189 00c3 13       		.uleb128 0x13
 3190 00c4 00       		.byte	0
 3191 00c5 00       		.byte	0
 3192 00c6 11       		.uleb128 0x11
 3193 00c7 0D       		.uleb128 0xd
 3194 00c8 00       		.byte	0
 3195 00c9 03       		.uleb128 0x3
 3196 00ca 08       		.uleb128 0x8
 3197 00cb 3A       		.uleb128 0x3a
 3198 00cc 0B       		.uleb128 0xb
 3199 00cd 3B       		.uleb128 0x3b
 3200 00ce 05       		.uleb128 0x5
 3201 00cf 49       		.uleb128 0x49
 3202 00d0 13       		.uleb128 0x13
 3203 00d1 00       		.byte	0
 3204 00d2 00       		.byte	0
 3205 00d3 12       		.uleb128 0x12
 3206 00d4 0D       		.uleb128 0xd
 3207 00d5 00       		.byte	0
 3208 00d6 03       		.uleb128 0x3
 3209 00d7 0E       		.uleb128 0xe
 3210 00d8 3A       		.uleb128 0x3a
 3211 00d9 0B       		.uleb128 0xb
 3212 00da 3B       		.uleb128 0x3b
 3213 00db 05       		.uleb128 0x5
 3214 00dc 49       		.uleb128 0x49
 3215 00dd 13       		.uleb128 0x13
 3216 00de 00       		.byte	0
 3217 00df 00       		.byte	0
 3218 00e0 13       		.uleb128 0x13
 3219 00e1 01       		.uleb128 0x1
 3220 00e2 01       		.byte	0x1
 3221 00e3 49       		.uleb128 0x49
 3222 00e4 13       		.uleb128 0x13
 3223 00e5 01       		.uleb128 0x1
 3224 00e6 13       		.uleb128 0x13
 3225 00e7 00       		.byte	0
 3226 00e8 00       		.byte	0
 3227 00e9 14       		.uleb128 0x14
 3228 00ea 21       		.uleb128 0x21
 3229 00eb 00       		.byte	0
 3230 00ec 49       		.uleb128 0x49
 3231 00ed 13       		.uleb128 0x13
 3232 00ee 2F       		.uleb128 0x2f
 3233 00ef 0B       		.uleb128 0xb
ARM GAS  /tmp/cckPztkN.s 			page 58


 3234 00f0 00       		.byte	0
 3235 00f1 00       		.byte	0
 3236 00f2 15       		.uleb128 0x15
 3237 00f3 0D       		.uleb128 0xd
 3238 00f4 00       		.byte	0
 3239 00f5 03       		.uleb128 0x3
 3240 00f6 0E       		.uleb128 0xe
 3241 00f7 3A       		.uleb128 0x3a
 3242 00f8 0B       		.uleb128 0xb
 3243 00f9 3B       		.uleb128 0x3b
 3244 00fa 0B       		.uleb128 0xb
 3245 00fb 49       		.uleb128 0x49
 3246 00fc 13       		.uleb128 0x13
 3247 00fd 38       		.uleb128 0x38
 3248 00fe 0B       		.uleb128 0xb
 3249 00ff 00       		.byte	0
 3250 0100 00       		.byte	0
 3251 0101 16       		.uleb128 0x16
 3252 0102 15       		.uleb128 0x15
 3253 0103 01       		.byte	0x1
 3254 0104 27       		.uleb128 0x27
 3255 0105 19       		.uleb128 0x19
 3256 0106 01       		.uleb128 0x1
 3257 0107 13       		.uleb128 0x13
 3258 0108 00       		.byte	0
 3259 0109 00       		.byte	0
 3260 010a 17       		.uleb128 0x17
 3261 010b 05       		.uleb128 0x5
 3262 010c 00       		.byte	0
 3263 010d 49       		.uleb128 0x49
 3264 010e 13       		.uleb128 0x13
 3265 010f 00       		.byte	0
 3266 0110 00       		.byte	0
 3267 0111 18       		.uleb128 0x18
 3268 0112 13       		.uleb128 0x13
 3269 0113 01       		.byte	0x1
 3270 0114 0B       		.uleb128 0xb
 3271 0115 0B       		.uleb128 0xb
 3272 0116 3A       		.uleb128 0x3a
 3273 0117 0B       		.uleb128 0xb
 3274 0118 3B       		.uleb128 0x3b
 3275 0119 0B       		.uleb128 0xb
 3276 011a 01       		.uleb128 0x1
 3277 011b 13       		.uleb128 0x13
 3278 011c 00       		.byte	0
 3279 011d 00       		.byte	0
 3280 011e 19       		.uleb128 0x19
 3281 011f 15       		.uleb128 0x15
 3282 0120 01       		.byte	0x1
 3283 0121 27       		.uleb128 0x27
 3284 0122 19       		.uleb128 0x19
 3285 0123 49       		.uleb128 0x49
 3286 0124 13       		.uleb128 0x13
 3287 0125 01       		.uleb128 0x1
 3288 0126 13       		.uleb128 0x13
 3289 0127 00       		.byte	0
 3290 0128 00       		.byte	0
ARM GAS  /tmp/cckPztkN.s 			page 59


 3291 0129 1A       		.uleb128 0x1a
 3292 012a 04       		.uleb128 0x4
 3293 012b 01       		.byte	0x1
 3294 012c 0B       		.uleb128 0xb
 3295 012d 0B       		.uleb128 0xb
 3296 012e 3A       		.uleb128 0x3a
 3297 012f 0B       		.uleb128 0xb
 3298 0130 3B       		.uleb128 0x3b
 3299 0131 0B       		.uleb128 0xb
 3300 0132 01       		.uleb128 0x1
 3301 0133 13       		.uleb128 0x13
 3302 0134 00       		.byte	0
 3303 0135 00       		.byte	0
 3304 0136 1B       		.uleb128 0x1b
 3305 0137 28       		.uleb128 0x28
 3306 0138 00       		.byte	0
 3307 0139 03       		.uleb128 0x3
 3308 013a 0E       		.uleb128 0xe
 3309 013b 1C       		.uleb128 0x1c
 3310 013c 0D       		.uleb128 0xd
 3311 013d 00       		.byte	0
 3312 013e 00       		.byte	0
 3313 013f 1C       		.uleb128 0x1c
 3314 0140 2E       		.uleb128 0x2e
 3315 0141 00       		.byte	0
 3316 0142 03       		.uleb128 0x3
 3317 0143 0E       		.uleb128 0xe
 3318 0144 3A       		.uleb128 0x3a
 3319 0145 0B       		.uleb128 0xb
 3320 0146 3B       		.uleb128 0x3b
 3321 0147 05       		.uleb128 0x5
 3322 0148 27       		.uleb128 0x27
 3323 0149 19       		.uleb128 0x19
 3324 014a 20       		.uleb128 0x20
 3325 014b 0B       		.uleb128 0xb
 3326 014c 00       		.byte	0
 3327 014d 00       		.byte	0
 3328 014e 1D       		.uleb128 0x1d
 3329 014f 2E       		.uleb128 0x2e
 3330 0150 01       		.byte	0x1
 3331 0151 03       		.uleb128 0x3
 3332 0152 0E       		.uleb128 0xe
 3333 0153 3A       		.uleb128 0x3a
 3334 0154 0B       		.uleb128 0xb
 3335 0155 3B       		.uleb128 0x3b
 3336 0156 05       		.uleb128 0x5
 3337 0157 27       		.uleb128 0x27
 3338 0158 19       		.uleb128 0x19
 3339 0159 20       		.uleb128 0x20
 3340 015a 0B       		.uleb128 0xb
 3341 015b 01       		.uleb128 0x1
 3342 015c 13       		.uleb128 0x13
 3343 015d 00       		.byte	0
 3344 015e 00       		.byte	0
 3345 015f 1E       		.uleb128 0x1e
 3346 0160 05       		.uleb128 0x5
 3347 0161 00       		.byte	0
ARM GAS  /tmp/cckPztkN.s 			page 60


 3348 0162 03       		.uleb128 0x3
 3349 0163 08       		.uleb128 0x8
 3350 0164 3A       		.uleb128 0x3a
 3351 0165 0B       		.uleb128 0xb
 3352 0166 3B       		.uleb128 0x3b
 3353 0167 05       		.uleb128 0x5
 3354 0168 49       		.uleb128 0x49
 3355 0169 13       		.uleb128 0x13
 3356 016a 00       		.byte	0
 3357 016b 00       		.byte	0
 3358 016c 1F       		.uleb128 0x1f
 3359 016d 34       		.uleb128 0x34
 3360 016e 00       		.byte	0
 3361 016f 03       		.uleb128 0x3
 3362 0170 0E       		.uleb128 0xe
 3363 0171 49       		.uleb128 0x49
 3364 0172 13       		.uleb128 0x13
 3365 0173 34       		.uleb128 0x34
 3366 0174 19       		.uleb128 0x19
 3367 0175 1C       		.uleb128 0x1c
 3368 0176 0E       		.uleb128 0xe
 3369 0177 00       		.byte	0
 3370 0178 00       		.byte	0
 3371 0179 20       		.uleb128 0x20
 3372 017a 05       		.uleb128 0x5
 3373 017b 00       		.byte	0
 3374 017c 03       		.uleb128 0x3
 3375 017d 0E       		.uleb128 0xe
 3376 017e 3A       		.uleb128 0x3a
 3377 017f 0B       		.uleb128 0xb
 3378 0180 3B       		.uleb128 0x3b
 3379 0181 05       		.uleb128 0x5
 3380 0182 49       		.uleb128 0x49
 3381 0183 13       		.uleb128 0x13
 3382 0184 00       		.byte	0
 3383 0185 00       		.byte	0
 3384 0186 21       		.uleb128 0x21
 3385 0187 2E       		.uleb128 0x2e
 3386 0188 01       		.byte	0x1
 3387 0189 03       		.uleb128 0x3
 3388 018a 0E       		.uleb128 0xe
 3389 018b 3A       		.uleb128 0x3a
 3390 018c 0B       		.uleb128 0xb
 3391 018d 3B       		.uleb128 0x3b
 3392 018e 0B       		.uleb128 0xb
 3393 018f 27       		.uleb128 0x27
 3394 0190 19       		.uleb128 0x19
 3395 0191 49       		.uleb128 0x49
 3396 0192 13       		.uleb128 0x13
 3397 0193 11       		.uleb128 0x11
 3398 0194 01       		.uleb128 0x1
 3399 0195 12       		.uleb128 0x12
 3400 0196 06       		.uleb128 0x6
 3401 0197 40       		.uleb128 0x40
 3402 0198 18       		.uleb128 0x18
 3403 0199 9742     		.uleb128 0x2117
 3404 019b 19       		.uleb128 0x19
ARM GAS  /tmp/cckPztkN.s 			page 61


 3405 019c 01       		.uleb128 0x1
 3406 019d 13       		.uleb128 0x13
 3407 019e 00       		.byte	0
 3408 019f 00       		.byte	0
 3409 01a0 22       		.uleb128 0x22
 3410 01a1 05       		.uleb128 0x5
 3411 01a2 00       		.byte	0
 3412 01a3 03       		.uleb128 0x3
 3413 01a4 08       		.uleb128 0x8
 3414 01a5 3A       		.uleb128 0x3a
 3415 01a6 0B       		.uleb128 0xb
 3416 01a7 3B       		.uleb128 0x3b
 3417 01a8 0B       		.uleb128 0xb
 3418 01a9 49       		.uleb128 0x49
 3419 01aa 13       		.uleb128 0x13
 3420 01ab 02       		.uleb128 0x2
 3421 01ac 17       		.uleb128 0x17
 3422 01ad 00       		.byte	0
 3423 01ae 00       		.byte	0
 3424 01af 23       		.uleb128 0x23
 3425 01b0 05       		.uleb128 0x5
 3426 01b1 00       		.byte	0
 3427 01b2 03       		.uleb128 0x3
 3428 01b3 0E       		.uleb128 0xe
 3429 01b4 3A       		.uleb128 0x3a
 3430 01b5 0B       		.uleb128 0xb
 3431 01b6 3B       		.uleb128 0x3b
 3432 01b7 0B       		.uleb128 0xb
 3433 01b8 49       		.uleb128 0x49
 3434 01b9 13       		.uleb128 0x13
 3435 01ba 02       		.uleb128 0x2
 3436 01bb 17       		.uleb128 0x17
 3437 01bc 00       		.byte	0
 3438 01bd 00       		.byte	0
 3439 01be 24       		.uleb128 0x24
 3440 01bf 898201   		.uleb128 0x4109
 3441 01c2 01       		.byte	0x1
 3442 01c3 11       		.uleb128 0x11
 3443 01c4 01       		.uleb128 0x1
 3444 01c5 31       		.uleb128 0x31
 3445 01c6 13       		.uleb128 0x13
 3446 01c7 00       		.byte	0
 3447 01c8 00       		.byte	0
 3448 01c9 25       		.uleb128 0x25
 3449 01ca 8A8201   		.uleb128 0x410a
 3450 01cd 00       		.byte	0
 3451 01ce 02       		.uleb128 0x2
 3452 01cf 18       		.uleb128 0x18
 3453 01d0 9142     		.uleb128 0x2111
 3454 01d2 18       		.uleb128 0x18
 3455 01d3 00       		.byte	0
 3456 01d4 00       		.byte	0
 3457 01d5 26       		.uleb128 0x26
 3458 01d6 2E       		.uleb128 0x2e
 3459 01d7 01       		.byte	0x1
 3460 01d8 03       		.uleb128 0x3
 3461 01d9 08       		.uleb128 0x8
ARM GAS  /tmp/cckPztkN.s 			page 62


 3462 01da 3A       		.uleb128 0x3a
 3463 01db 0B       		.uleb128 0xb
 3464 01dc 3B       		.uleb128 0x3b
 3465 01dd 0B       		.uleb128 0xb
 3466 01de 27       		.uleb128 0x27
 3467 01df 19       		.uleb128 0x19
 3468 01e0 49       		.uleb128 0x49
 3469 01e1 13       		.uleb128 0x13
 3470 01e2 11       		.uleb128 0x11
 3471 01e3 01       		.uleb128 0x1
 3472 01e4 12       		.uleb128 0x12
 3473 01e5 06       		.uleb128 0x6
 3474 01e6 40       		.uleb128 0x40
 3475 01e7 18       		.uleb128 0x18
 3476 01e8 9742     		.uleb128 0x2117
 3477 01ea 19       		.uleb128 0x19
 3478 01eb 01       		.uleb128 0x1
 3479 01ec 13       		.uleb128 0x13
 3480 01ed 00       		.byte	0
 3481 01ee 00       		.byte	0
 3482 01ef 27       		.uleb128 0x27
 3483 01f0 2E       		.uleb128 0x2e
 3484 01f1 01       		.byte	0x1
 3485 01f2 3F       		.uleb128 0x3f
 3486 01f3 19       		.uleb128 0x19
 3487 01f4 03       		.uleb128 0x3
 3488 01f5 0E       		.uleb128 0xe
 3489 01f6 3A       		.uleb128 0x3a
 3490 01f7 0B       		.uleb128 0xb
 3491 01f8 3B       		.uleb128 0x3b
 3492 01f9 0B       		.uleb128 0xb
 3493 01fa 27       		.uleb128 0x27
 3494 01fb 19       		.uleb128 0x19
 3495 01fc 11       		.uleb128 0x11
 3496 01fd 01       		.uleb128 0x1
 3497 01fe 12       		.uleb128 0x12
 3498 01ff 06       		.uleb128 0x6
 3499 0200 40       		.uleb128 0x40
 3500 0201 18       		.uleb128 0x18
 3501 0202 9742     		.uleb128 0x2117
 3502 0204 19       		.uleb128 0x19
 3503 0205 01       		.uleb128 0x1
 3504 0206 13       		.uleb128 0x13
 3505 0207 00       		.byte	0
 3506 0208 00       		.byte	0
 3507 0209 28       		.uleb128 0x28
 3508 020a 898201   		.uleb128 0x4109
 3509 020d 00       		.byte	0
 3510 020e 11       		.uleb128 0x11
 3511 020f 01       		.uleb128 0x1
 3512 0210 31       		.uleb128 0x31
 3513 0211 13       		.uleb128 0x13
 3514 0212 00       		.byte	0
 3515 0213 00       		.byte	0
 3516 0214 29       		.uleb128 0x29
 3517 0215 1D       		.uleb128 0x1d
 3518 0216 01       		.byte	0x1
ARM GAS  /tmp/cckPztkN.s 			page 63


 3519 0217 31       		.uleb128 0x31
 3520 0218 13       		.uleb128 0x13
 3521 0219 52       		.uleb128 0x52
 3522 021a 01       		.uleb128 0x1
 3523 021b 55       		.uleb128 0x55
 3524 021c 17       		.uleb128 0x17
 3525 021d 58       		.uleb128 0x58
 3526 021e 0B       		.uleb128 0xb
 3527 021f 59       		.uleb128 0x59
 3528 0220 0B       		.uleb128 0xb
 3529 0221 01       		.uleb128 0x1
 3530 0222 13       		.uleb128 0x13
 3531 0223 00       		.byte	0
 3532 0224 00       		.byte	0
 3533 0225 2A       		.uleb128 0x2a
 3534 0226 05       		.uleb128 0x5
 3535 0227 00       		.byte	0
 3536 0228 31       		.uleb128 0x31
 3537 0229 13       		.uleb128 0x13
 3538 022a 02       		.uleb128 0x2
 3539 022b 17       		.uleb128 0x17
 3540 022c 00       		.byte	0
 3541 022d 00       		.byte	0
 3542 022e 2B       		.uleb128 0x2b
 3543 022f 0B       		.uleb128 0xb
 3544 0230 01       		.byte	0x1
 3545 0231 55       		.uleb128 0x55
 3546 0232 17       		.uleb128 0x17
 3547 0233 00       		.byte	0
 3548 0234 00       		.byte	0
 3549 0235 2C       		.uleb128 0x2c
 3550 0236 34       		.uleb128 0x34
 3551 0237 00       		.byte	0
 3552 0238 31       		.uleb128 0x31
 3553 0239 13       		.uleb128 0x13
 3554 023a 00       		.byte	0
 3555 023b 00       		.byte	0
 3556 023c 2D       		.uleb128 0x2d
 3557 023d 898201   		.uleb128 0x4109
 3558 0240 01       		.byte	0x1
 3559 0241 11       		.uleb128 0x11
 3560 0242 01       		.uleb128 0x1
 3561 0243 31       		.uleb128 0x31
 3562 0244 13       		.uleb128 0x13
 3563 0245 01       		.uleb128 0x1
 3564 0246 13       		.uleb128 0x13
 3565 0247 00       		.byte	0
 3566 0248 00       		.byte	0
 3567 0249 2E       		.uleb128 0x2e
 3568 024a 34       		.uleb128 0x34
 3569 024b 00       		.byte	0
 3570 024c 03       		.uleb128 0x3
 3571 024d 0E       		.uleb128 0xe
 3572 024e 49       		.uleb128 0x49
 3573 024f 13       		.uleb128 0x13
 3574 0250 34       		.uleb128 0x34
 3575 0251 19       		.uleb128 0x19
ARM GAS  /tmp/cckPztkN.s 			page 64


 3576 0252 00       		.byte	0
 3577 0253 00       		.byte	0
 3578 0254 2F       		.uleb128 0x2f
 3579 0255 1D       		.uleb128 0x1d
 3580 0256 01       		.byte	0x1
 3581 0257 31       		.uleb128 0x31
 3582 0258 13       		.uleb128 0x13
 3583 0259 11       		.uleb128 0x11
 3584 025a 01       		.uleb128 0x1
 3585 025b 12       		.uleb128 0x12
 3586 025c 06       		.uleb128 0x6
 3587 025d 58       		.uleb128 0x58
 3588 025e 0B       		.uleb128 0xb
 3589 025f 59       		.uleb128 0x59
 3590 0260 0B       		.uleb128 0xb
 3591 0261 01       		.uleb128 0x1
 3592 0262 13       		.uleb128 0x13
 3593 0263 00       		.byte	0
 3594 0264 00       		.byte	0
 3595 0265 30       		.uleb128 0x30
 3596 0266 1D       		.uleb128 0x1d
 3597 0267 01       		.byte	0x1
 3598 0268 31       		.uleb128 0x31
 3599 0269 13       		.uleb128 0x13
 3600 026a 11       		.uleb128 0x11
 3601 026b 01       		.uleb128 0x1
 3602 026c 12       		.uleb128 0x12
 3603 026d 06       		.uleb128 0x6
 3604 026e 58       		.uleb128 0x58
 3605 026f 0B       		.uleb128 0xb
 3606 0270 59       		.uleb128 0x59
 3607 0271 05       		.uleb128 0x5
 3608 0272 00       		.byte	0
 3609 0273 00       		.byte	0
 3610 0274 31       		.uleb128 0x31
 3611 0275 1D       		.uleb128 0x1d
 3612 0276 00       		.byte	0
 3613 0277 31       		.uleb128 0x31
 3614 0278 13       		.uleb128 0x13
 3615 0279 11       		.uleb128 0x11
 3616 027a 01       		.uleb128 0x1
 3617 027b 12       		.uleb128 0x12
 3618 027c 06       		.uleb128 0x6
 3619 027d 58       		.uleb128 0x58
 3620 027e 0B       		.uleb128 0xb
 3621 027f 59       		.uleb128 0x59
 3622 0280 05       		.uleb128 0x5
 3623 0281 00       		.byte	0
 3624 0282 00       		.byte	0
 3625 0283 32       		.uleb128 0x32
 3626 0284 898201   		.uleb128 0x4109
 3627 0287 01       		.byte	0x1
 3628 0288 11       		.uleb128 0x11
 3629 0289 01       		.uleb128 0x1
 3630 028a 00       		.byte	0
 3631 028b 00       		.byte	0
 3632 028c 33       		.uleb128 0x33
ARM GAS  /tmp/cckPztkN.s 			page 65


 3633 028d 05       		.uleb128 0x5
 3634 028e 00       		.byte	0
 3635 028f 31       		.uleb128 0x31
 3636 0290 13       		.uleb128 0x13
 3637 0291 1C       		.uleb128 0x1c
 3638 0292 0B       		.uleb128 0xb
 3639 0293 00       		.byte	0
 3640 0294 00       		.byte	0
 3641 0295 34       		.uleb128 0x34
 3642 0296 2E       		.uleb128 0x2e
 3643 0297 01       		.byte	0x1
 3644 0298 3F       		.uleb128 0x3f
 3645 0299 19       		.uleb128 0x19
 3646 029a 03       		.uleb128 0x3
 3647 029b 0E       		.uleb128 0xe
 3648 029c 3A       		.uleb128 0x3a
 3649 029d 0B       		.uleb128 0xb
 3650 029e 3B       		.uleb128 0x3b
 3651 029f 0B       		.uleb128 0xb
 3652 02a0 27       		.uleb128 0x27
 3653 02a1 19       		.uleb128 0x19
 3654 02a2 49       		.uleb128 0x49
 3655 02a3 13       		.uleb128 0x13
 3656 02a4 11       		.uleb128 0x11
 3657 02a5 01       		.uleb128 0x1
 3658 02a6 12       		.uleb128 0x12
 3659 02a7 06       		.uleb128 0x6
 3660 02a8 40       		.uleb128 0x40
 3661 02a9 18       		.uleb128 0x18
 3662 02aa 9742     		.uleb128 0x2117
 3663 02ac 19       		.uleb128 0x19
 3664 02ad 01       		.uleb128 0x1
 3665 02ae 13       		.uleb128 0x13
 3666 02af 00       		.byte	0
 3667 02b0 00       		.byte	0
 3668 02b1 35       		.uleb128 0x35
 3669 02b2 34       		.uleb128 0x34
 3670 02b3 00       		.byte	0
 3671 02b4 03       		.uleb128 0x3
 3672 02b5 08       		.uleb128 0x8
 3673 02b6 3A       		.uleb128 0x3a
 3674 02b7 0B       		.uleb128 0xb
 3675 02b8 3B       		.uleb128 0x3b
 3676 02b9 0B       		.uleb128 0xb
 3677 02ba 49       		.uleb128 0x49
 3678 02bb 13       		.uleb128 0x13
 3679 02bc 02       		.uleb128 0x2
 3680 02bd 17       		.uleb128 0x17
 3681 02be 00       		.byte	0
 3682 02bf 00       		.byte	0
 3683 02c0 36       		.uleb128 0x36
 3684 02c1 2E       		.uleb128 0x2e
 3685 02c2 01       		.byte	0x1
 3686 02c3 3F       		.uleb128 0x3f
 3687 02c4 19       		.uleb128 0x19
 3688 02c5 03       		.uleb128 0x3
 3689 02c6 0E       		.uleb128 0xe
ARM GAS  /tmp/cckPztkN.s 			page 66


 3690 02c7 3A       		.uleb128 0x3a
 3691 02c8 0B       		.uleb128 0xb
 3692 02c9 3B       		.uleb128 0x3b
 3693 02ca 05       		.uleb128 0x5
 3694 02cb 27       		.uleb128 0x27
 3695 02cc 19       		.uleb128 0x19
 3696 02cd 49       		.uleb128 0x49
 3697 02ce 13       		.uleb128 0x13
 3698 02cf 11       		.uleb128 0x11
 3699 02d0 01       		.uleb128 0x1
 3700 02d1 12       		.uleb128 0x12
 3701 02d2 06       		.uleb128 0x6
 3702 02d3 40       		.uleb128 0x40
 3703 02d4 18       		.uleb128 0x18
 3704 02d5 9742     		.uleb128 0x2117
 3705 02d7 19       		.uleb128 0x19
 3706 02d8 01       		.uleb128 0x1
 3707 02d9 13       		.uleb128 0x13
 3708 02da 00       		.byte	0
 3709 02db 00       		.byte	0
 3710 02dc 37       		.uleb128 0x37
 3711 02dd 05       		.uleb128 0x5
 3712 02de 00       		.byte	0
 3713 02df 03       		.uleb128 0x3
 3714 02e0 08       		.uleb128 0x8
 3715 02e1 3A       		.uleb128 0x3a
 3716 02e2 0B       		.uleb128 0xb
 3717 02e3 3B       		.uleb128 0x3b
 3718 02e4 05       		.uleb128 0x5
 3719 02e5 49       		.uleb128 0x49
 3720 02e6 13       		.uleb128 0x13
 3721 02e7 02       		.uleb128 0x2
 3722 02e8 17       		.uleb128 0x17
 3723 02e9 00       		.byte	0
 3724 02ea 00       		.byte	0
 3725 02eb 38       		.uleb128 0x38
 3726 02ec 34       		.uleb128 0x34
 3727 02ed 00       		.byte	0
 3728 02ee 03       		.uleb128 0x3
 3729 02ef 08       		.uleb128 0x8
 3730 02f0 3A       		.uleb128 0x3a
 3731 02f1 0B       		.uleb128 0xb
 3732 02f2 3B       		.uleb128 0x3b
 3733 02f3 05       		.uleb128 0x5
 3734 02f4 49       		.uleb128 0x49
 3735 02f5 13       		.uleb128 0x13
 3736 02f6 02       		.uleb128 0x2
 3737 02f7 17       		.uleb128 0x17
 3738 02f8 00       		.byte	0
 3739 02f9 00       		.byte	0
 3740 02fa 39       		.uleb128 0x39
 3741 02fb 1D       		.uleb128 0x1d
 3742 02fc 01       		.byte	0x1
 3743 02fd 31       		.uleb128 0x31
 3744 02fe 13       		.uleb128 0x13
 3745 02ff 11       		.uleb128 0x11
 3746 0300 01       		.uleb128 0x1
ARM GAS  /tmp/cckPztkN.s 			page 67


 3747 0301 12       		.uleb128 0x12
 3748 0302 06       		.uleb128 0x6
 3749 0303 58       		.uleb128 0x58
 3750 0304 0B       		.uleb128 0xb
 3751 0305 59       		.uleb128 0x59
 3752 0306 05       		.uleb128 0x5
 3753 0307 01       		.uleb128 0x1
 3754 0308 13       		.uleb128 0x13
 3755 0309 00       		.byte	0
 3756 030a 00       		.byte	0
 3757 030b 3A       		.uleb128 0x3a
 3758 030c 34       		.uleb128 0x34
 3759 030d 00       		.byte	0
 3760 030e 03       		.uleb128 0x3
 3761 030f 08       		.uleb128 0x8
 3762 0310 3A       		.uleb128 0x3a
 3763 0311 0B       		.uleb128 0xb
 3764 0312 3B       		.uleb128 0x3b
 3765 0313 0B       		.uleb128 0xb
 3766 0314 49       		.uleb128 0x49
 3767 0315 13       		.uleb128 0x13
 3768 0316 02       		.uleb128 0x2
 3769 0317 18       		.uleb128 0x18
 3770 0318 00       		.byte	0
 3771 0319 00       		.byte	0
 3772 031a 3B       		.uleb128 0x3b
 3773 031b 34       		.uleb128 0x34
 3774 031c 00       		.byte	0
 3775 031d 03       		.uleb128 0x3
 3776 031e 08       		.uleb128 0x8
 3777 031f 3A       		.uleb128 0x3a
 3778 0320 0B       		.uleb128 0xb
 3779 0321 3B       		.uleb128 0x3b
 3780 0322 05       		.uleb128 0x5
 3781 0323 49       		.uleb128 0x49
 3782 0324 13       		.uleb128 0x13
 3783 0325 3F       		.uleb128 0x3f
 3784 0326 19       		.uleb128 0x19
 3785 0327 3C       		.uleb128 0x3c
 3786 0328 19       		.uleb128 0x19
 3787 0329 00       		.byte	0
 3788 032a 00       		.byte	0
 3789 032b 3C       		.uleb128 0x3c
 3790 032c 2E       		.uleb128 0x2e
 3791 032d 01       		.byte	0x1
 3792 032e 3F       		.uleb128 0x3f
 3793 032f 19       		.uleb128 0x19
 3794 0330 03       		.uleb128 0x3
 3795 0331 0E       		.uleb128 0xe
 3796 0332 3A       		.uleb128 0x3a
 3797 0333 0B       		.uleb128 0xb
 3798 0334 3B       		.uleb128 0x3b
 3799 0335 05       		.uleb128 0x5
 3800 0336 27       		.uleb128 0x27
 3801 0337 19       		.uleb128 0x19
 3802 0338 49       		.uleb128 0x49
 3803 0339 13       		.uleb128 0x13
ARM GAS  /tmp/cckPztkN.s 			page 68


 3804 033a 3C       		.uleb128 0x3c
 3805 033b 19       		.uleb128 0x19
 3806 033c 01       		.uleb128 0x1
 3807 033d 13       		.uleb128 0x13
 3808 033e 00       		.byte	0
 3809 033f 00       		.byte	0
 3810 0340 3D       		.uleb128 0x3d
 3811 0341 2E       		.uleb128 0x2e
 3812 0342 00       		.byte	0
 3813 0343 3F       		.uleb128 0x3f
 3814 0344 19       		.uleb128 0x19
 3815 0345 03       		.uleb128 0x3
 3816 0346 0E       		.uleb128 0xe
 3817 0347 3A       		.uleb128 0x3a
 3818 0348 0B       		.uleb128 0xb
 3819 0349 3B       		.uleb128 0x3b
 3820 034a 0B       		.uleb128 0xb
 3821 034b 27       		.uleb128 0x27
 3822 034c 19       		.uleb128 0x19
 3823 034d 3C       		.uleb128 0x3c
 3824 034e 19       		.uleb128 0x19
 3825 034f 00       		.byte	0
 3826 0350 00       		.byte	0
 3827 0351 3E       		.uleb128 0x3e
 3828 0352 2E       		.uleb128 0x2e
 3829 0353 01       		.byte	0x1
 3830 0354 3F       		.uleb128 0x3f
 3831 0355 19       		.uleb128 0x19
 3832 0356 03       		.uleb128 0x3
 3833 0357 0E       		.uleb128 0xe
 3834 0358 3A       		.uleb128 0x3a
 3835 0359 0B       		.uleb128 0xb
 3836 035a 3B       		.uleb128 0x3b
 3837 035b 05       		.uleb128 0x5
 3838 035c 27       		.uleb128 0x27
 3839 035d 19       		.uleb128 0x19
 3840 035e 3C       		.uleb128 0x3c
 3841 035f 19       		.uleb128 0x19
 3842 0360 01       		.uleb128 0x1
 3843 0361 13       		.uleb128 0x13
 3844 0362 00       		.byte	0
 3845 0363 00       		.byte	0
 3846 0364 3F       		.uleb128 0x3f
 3847 0365 2E       		.uleb128 0x2e
 3848 0366 01       		.byte	0x1
 3849 0367 3F       		.uleb128 0x3f
 3850 0368 19       		.uleb128 0x19
 3851 0369 03       		.uleb128 0x3
 3852 036a 0E       		.uleb128 0xe
 3853 036b 3A       		.uleb128 0x3a
 3854 036c 0B       		.uleb128 0xb
 3855 036d 3B       		.uleb128 0x3b
 3856 036e 0B       		.uleb128 0xb
 3857 036f 27       		.uleb128 0x27
 3858 0370 19       		.uleb128 0x19
 3859 0371 3C       		.uleb128 0x3c
 3860 0372 19       		.uleb128 0x19
ARM GAS  /tmp/cckPztkN.s 			page 69


 3861 0373 01       		.uleb128 0x1
 3862 0374 13       		.uleb128 0x13
 3863 0375 00       		.byte	0
 3864 0376 00       		.byte	0
 3865 0377 40       		.uleb128 0x40
 3866 0378 2E       		.uleb128 0x2e
 3867 0379 00       		.byte	0
 3868 037a 3F       		.uleb128 0x3f
 3869 037b 19       		.uleb128 0x19
 3870 037c 03       		.uleb128 0x3
 3871 037d 0E       		.uleb128 0xe
 3872 037e 3A       		.uleb128 0x3a
 3873 037f 0B       		.uleb128 0xb
 3874 0380 3B       		.uleb128 0x3b
 3875 0381 05       		.uleb128 0x5
 3876 0382 27       		.uleb128 0x27
 3877 0383 19       		.uleb128 0x19
 3878 0384 3C       		.uleb128 0x3c
 3879 0385 19       		.uleb128 0x19
 3880 0386 00       		.byte	0
 3881 0387 00       		.byte	0
 3882 0388 41       		.uleb128 0x41
 3883 0389 2E       		.uleb128 0x2e
 3884 038a 01       		.byte	0x1
 3885 038b 3F       		.uleb128 0x3f
 3886 038c 19       		.uleb128 0x19
 3887 038d 03       		.uleb128 0x3
 3888 038e 0E       		.uleb128 0xe
 3889 038f 3A       		.uleb128 0x3a
 3890 0390 0B       		.uleb128 0xb
 3891 0391 3B       		.uleb128 0x3b
 3892 0392 05       		.uleb128 0x5
 3893 0393 27       		.uleb128 0x27
 3894 0394 19       		.uleb128 0x19
 3895 0395 49       		.uleb128 0x49
 3896 0396 13       		.uleb128 0x13
 3897 0397 3C       		.uleb128 0x3c
 3898 0398 19       		.uleb128 0x19
 3899 0399 00       		.byte	0
 3900 039a 00       		.byte	0
 3901 039b 00       		.byte	0
 3902              		.section	.debug_loc,"",%progbits
 3903              	.Ldebug_loc0:
 3904              	.LLST0:
 3905 0000 00000000 		.4byte	.LVL0
 3906 0004 04000000 		.4byte	.LVL1
 3907 0008 0100     		.2byte	0x1
 3908 000a 50       		.byte	0x50
 3909 000b 04000000 		.4byte	.LVL1
 3910 000f 07000000 		.4byte	.LVL2-1
 3911 0013 0300     		.2byte	0x3
 3912 0015 70       		.byte	0x70
 3913 0016 6C       		.sleb128 -20
 3914 0017 9F       		.byte	0x9f
 3915 0018 07000000 		.4byte	.LVL2-1
 3916 001c 0A000000 		.4byte	.LFE88
 3917 0020 0400     		.2byte	0x4
ARM GAS  /tmp/cckPztkN.s 			page 70


 3918 0022 F3       		.byte	0xf3
 3919 0023 01       		.uleb128 0x1
 3920 0024 50       		.byte	0x50
 3921 0025 9F       		.byte	0x9f
 3922 0026 00000000 		.4byte	0
 3923 002a 00000000 		.4byte	0
 3924              	.LLST1:
 3925 002e 00000000 		.4byte	.LVL0
 3926 0032 07000000 		.4byte	.LVL2-1
 3927 0036 0100     		.2byte	0x1
 3928 0038 51       		.byte	0x51
 3929 0039 07000000 		.4byte	.LVL2-1
 3930 003d 0A000000 		.4byte	.LFE88
 3931 0041 0400     		.2byte	0x4
 3932 0043 F3       		.byte	0xf3
 3933 0044 01       		.uleb128 0x1
 3934 0045 51       		.byte	0x51
 3935 0046 9F       		.byte	0x9f
 3936 0047 00000000 		.4byte	0
 3937 004b 00000000 		.4byte	0
 3938              	.LLST2:
 3939 004f 00000000 		.4byte	.LVL0
 3940 0053 07000000 		.4byte	.LVL2-1
 3941 0057 0100     		.2byte	0x1
 3942 0059 52       		.byte	0x52
 3943 005a 07000000 		.4byte	.LVL2-1
 3944 005e 0A000000 		.4byte	.LFE88
 3945 0062 0400     		.2byte	0x4
 3946 0064 F3       		.byte	0xf3
 3947 0065 01       		.uleb128 0x1
 3948 0066 52       		.byte	0x52
 3949 0067 9F       		.byte	0x9f
 3950 0068 00000000 		.4byte	0
 3951 006c 00000000 		.4byte	0
 3952              	.LLST3:
 3953 0070 00000000 		.4byte	.LVL0
 3954 0074 07000000 		.4byte	.LVL2-1
 3955 0078 0100     		.2byte	0x1
 3956 007a 53       		.byte	0x53
 3957 007b 07000000 		.4byte	.LVL2-1
 3958 007f 0A000000 		.4byte	.LFE88
 3959 0083 0400     		.2byte	0x4
 3960 0085 F3       		.byte	0xf3
 3961 0086 01       		.uleb128 0x1
 3962 0087 53       		.byte	0x53
 3963 0088 9F       		.byte	0x9f
 3964 0089 00000000 		.4byte	0
 3965 008d 00000000 		.4byte	0
 3966              	.LLST4:
 3967 0091 00000000 		.4byte	.LVL3
 3968 0095 04000000 		.4byte	.LVL4
 3969 0099 0100     		.2byte	0x1
 3970 009b 50       		.byte	0x50
 3971 009c 04000000 		.4byte	.LVL4
 3972 00a0 09000000 		.4byte	.LVL5-1
 3973 00a4 0300     		.2byte	0x3
 3974 00a6 70       		.byte	0x70
ARM GAS  /tmp/cckPztkN.s 			page 71


 3975 00a7 6C       		.sleb128 -20
 3976 00a8 9F       		.byte	0x9f
 3977 00a9 09000000 		.4byte	.LVL5-1
 3978 00ad 0C000000 		.4byte	.LFE82
 3979 00b1 0400     		.2byte	0x4
 3980 00b3 F3       		.byte	0xf3
 3981 00b4 01       		.uleb128 0x1
 3982 00b5 50       		.byte	0x50
 3983 00b6 9F       		.byte	0x9f
 3984 00b7 00000000 		.4byte	0
 3985 00bb 00000000 		.4byte	0
 3986              	.LLST5:
 3987 00bf 00000000 		.4byte	.LVL3
 3988 00c3 09000000 		.4byte	.LVL5-1
 3989 00c7 0100     		.2byte	0x1
 3990 00c9 51       		.byte	0x51
 3991 00ca 09000000 		.4byte	.LVL5-1
 3992 00ce 0C000000 		.4byte	.LFE82
 3993 00d2 0400     		.2byte	0x4
 3994 00d4 F3       		.byte	0xf3
 3995 00d5 01       		.uleb128 0x1
 3996 00d6 51       		.byte	0x51
 3997 00d7 9F       		.byte	0x9f
 3998 00d8 00000000 		.4byte	0
 3999 00dc 00000000 		.4byte	0
 4000              	.LLST6:
 4001 00e0 00000000 		.4byte	.LVL3
 4002 00e4 09000000 		.4byte	.LVL5-1
 4003 00e8 0100     		.2byte	0x1
 4004 00ea 52       		.byte	0x52
 4005 00eb 09000000 		.4byte	.LVL5-1
 4006 00ef 0C000000 		.4byte	.LFE82
 4007 00f3 0400     		.2byte	0x4
 4008 00f5 F3       		.byte	0xf3
 4009 00f6 01       		.uleb128 0x1
 4010 00f7 52       		.byte	0x52
 4011 00f8 9F       		.byte	0x9f
 4012 00f9 00000000 		.4byte	0
 4013 00fd 00000000 		.4byte	0
 4014              	.LLST7:
 4015 0101 00000000 		.4byte	.LVL6
 4016 0105 04000000 		.4byte	.LVL7
 4017 0109 0100     		.2byte	0x1
 4018 010b 50       		.byte	0x50
 4019 010c 04000000 		.4byte	.LVL7
 4020 0110 07000000 		.4byte	.LVL8-1
 4021 0114 0300     		.2byte	0x3
 4022 0116 70       		.byte	0x70
 4023 0117 4C       		.sleb128 -52
 4024 0118 9F       		.byte	0x9f
 4025 0119 07000000 		.4byte	.LVL8-1
 4026 011d 0A000000 		.4byte	.LFE87
 4027 0121 0400     		.2byte	0x4
 4028 0123 F3       		.byte	0xf3
 4029 0124 01       		.uleb128 0x1
 4030 0125 50       		.byte	0x50
 4031 0126 9F       		.byte	0x9f
ARM GAS  /tmp/cckPztkN.s 			page 72


 4032 0127 00000000 		.4byte	0
 4033 012b 00000000 		.4byte	0
 4034              	.LLST8:
 4035 012f 00000000 		.4byte	.LVL6
 4036 0133 07000000 		.4byte	.LVL8-1
 4037 0137 0100     		.2byte	0x1
 4038 0139 51       		.byte	0x51
 4039 013a 07000000 		.4byte	.LVL8-1
 4040 013e 0A000000 		.4byte	.LFE87
 4041 0142 0400     		.2byte	0x4
 4042 0144 F3       		.byte	0xf3
 4043 0145 01       		.uleb128 0x1
 4044 0146 51       		.byte	0x51
 4045 0147 9F       		.byte	0x9f
 4046 0148 00000000 		.4byte	0
 4047 014c 00000000 		.4byte	0
 4048              	.LLST9:
 4049 0150 00000000 		.4byte	.LVL6
 4050 0154 07000000 		.4byte	.LVL8-1
 4051 0158 0100     		.2byte	0x1
 4052 015a 52       		.byte	0x52
 4053 015b 07000000 		.4byte	.LVL8-1
 4054 015f 0A000000 		.4byte	.LFE87
 4055 0163 0400     		.2byte	0x4
 4056 0165 F3       		.byte	0xf3
 4057 0166 01       		.uleb128 0x1
 4058 0167 52       		.byte	0x52
 4059 0168 9F       		.byte	0x9f
 4060 0169 00000000 		.4byte	0
 4061 016d 00000000 		.4byte	0
 4062              	.LLST10:
 4063 0171 00000000 		.4byte	.LVL6
 4064 0175 07000000 		.4byte	.LVL8-1
 4065 0179 0100     		.2byte	0x1
 4066 017b 53       		.byte	0x53
 4067 017c 07000000 		.4byte	.LVL8-1
 4068 0180 0A000000 		.4byte	.LFE87
 4069 0184 0400     		.2byte	0x4
 4070 0186 F3       		.byte	0xf3
 4071 0187 01       		.uleb128 0x1
 4072 0188 53       		.byte	0x53
 4073 0189 9F       		.byte	0x9f
 4074 018a 00000000 		.4byte	0
 4075 018e 00000000 		.4byte	0
 4076              	.LLST11:
 4077 0192 00000000 		.4byte	.LVL9
 4078 0196 04000000 		.4byte	.LVL10
 4079 019a 0100     		.2byte	0x1
 4080 019c 50       		.byte	0x50
 4081 019d 04000000 		.4byte	.LVL10
 4082 01a1 09000000 		.4byte	.LVL11-1
 4083 01a5 0300     		.2byte	0x3
 4084 01a7 70       		.byte	0x70
 4085 01a8 4C       		.sleb128 -52
 4086 01a9 9F       		.byte	0x9f
 4087 01aa 09000000 		.4byte	.LVL11-1
 4088 01ae 0C000000 		.4byte	.LFE81
ARM GAS  /tmp/cckPztkN.s 			page 73


 4089 01b2 0400     		.2byte	0x4
 4090 01b4 F3       		.byte	0xf3
 4091 01b5 01       		.uleb128 0x1
 4092 01b6 50       		.byte	0x50
 4093 01b7 9F       		.byte	0x9f
 4094 01b8 00000000 		.4byte	0
 4095 01bc 00000000 		.4byte	0
 4096              	.LLST12:
 4097 01c0 00000000 		.4byte	.LVL9
 4098 01c4 09000000 		.4byte	.LVL11-1
 4099 01c8 0100     		.2byte	0x1
 4100 01ca 51       		.byte	0x51
 4101 01cb 09000000 		.4byte	.LVL11-1
 4102 01cf 0C000000 		.4byte	.LFE81
 4103 01d3 0400     		.2byte	0x4
 4104 01d5 F3       		.byte	0xf3
 4105 01d6 01       		.uleb128 0x1
 4106 01d7 51       		.byte	0x51
 4107 01d8 9F       		.byte	0x9f
 4108 01d9 00000000 		.4byte	0
 4109 01dd 00000000 		.4byte	0
 4110              	.LLST13:
 4111 01e1 00000000 		.4byte	.LVL9
 4112 01e5 09000000 		.4byte	.LVL11-1
 4113 01e9 0100     		.2byte	0x1
 4114 01eb 52       		.byte	0x52
 4115 01ec 09000000 		.4byte	.LVL11-1
 4116 01f0 0C000000 		.4byte	.LFE81
 4117 01f4 0400     		.2byte	0x4
 4118 01f6 F3       		.byte	0xf3
 4119 01f7 01       		.uleb128 0x1
 4120 01f8 52       		.byte	0x52
 4121 01f9 9F       		.byte	0x9f
 4122 01fa 00000000 		.4byte	0
 4123 01fe 00000000 		.4byte	0
 4124              	.LLST14:
 4125 0202 00000000 		.4byte	.LVL12
 4126 0206 04000000 		.4byte	.LVL13
 4127 020a 0100     		.2byte	0x1
 4128 020c 50       		.byte	0x50
 4129 020d 04000000 		.4byte	.LVL13
 4130 0211 07000000 		.4byte	.LVL14-1
 4131 0215 0300     		.2byte	0x3
 4132 0217 70       		.byte	0x70
 4133 0218 6C       		.sleb128 -20
 4134 0219 9F       		.byte	0x9f
 4135 021a 07000000 		.4byte	.LVL14-1
 4136 021e 0A000000 		.4byte	.LFE86
 4137 0222 0400     		.2byte	0x4
 4138 0224 F3       		.byte	0xf3
 4139 0225 01       		.uleb128 0x1
 4140 0226 50       		.byte	0x50
 4141 0227 9F       		.byte	0x9f
 4142 0228 00000000 		.4byte	0
 4143 022c 00000000 		.4byte	0
 4144              	.LLST15:
 4145 0230 00000000 		.4byte	.LVL12
ARM GAS  /tmp/cckPztkN.s 			page 74


 4146 0234 07000000 		.4byte	.LVL14-1
 4147 0238 0100     		.2byte	0x1
 4148 023a 51       		.byte	0x51
 4149 023b 07000000 		.4byte	.LVL14-1
 4150 023f 0A000000 		.4byte	.LFE86
 4151 0243 0400     		.2byte	0x4
 4152 0245 F3       		.byte	0xf3
 4153 0246 01       		.uleb128 0x1
 4154 0247 51       		.byte	0x51
 4155 0248 9F       		.byte	0x9f
 4156 0249 00000000 		.4byte	0
 4157 024d 00000000 		.4byte	0
 4158              	.LLST16:
 4159 0251 00000000 		.4byte	.LVL15
 4160 0255 04000000 		.4byte	.LVL16
 4161 0259 0100     		.2byte	0x1
 4162 025b 50       		.byte	0x50
 4163 025c 04000000 		.4byte	.LVL16
 4164 0260 09000000 		.4byte	.LVL17-1
 4165 0264 0300     		.2byte	0x3
 4166 0266 70       		.byte	0x70
 4167 0267 6C       		.sleb128 -20
 4168 0268 9F       		.byte	0x9f
 4169 0269 09000000 		.4byte	.LVL17-1
 4170 026d 0C000000 		.4byte	.LFE84
 4171 0271 0400     		.2byte	0x4
 4172 0273 F3       		.byte	0xf3
 4173 0274 01       		.uleb128 0x1
 4174 0275 50       		.byte	0x50
 4175 0276 9F       		.byte	0x9f
 4176 0277 00000000 		.4byte	0
 4177 027b 00000000 		.4byte	0
 4178              	.LLST17:
 4179 027f 00000000 		.4byte	.LVL18
 4180 0283 04000000 		.4byte	.LVL19
 4181 0287 0100     		.2byte	0x1
 4182 0289 50       		.byte	0x50
 4183 028a 04000000 		.4byte	.LVL19
 4184 028e 07000000 		.4byte	.LVL20-1
 4185 0292 0300     		.2byte	0x3
 4186 0294 70       		.byte	0x70
 4187 0295 4C       		.sleb128 -52
 4188 0296 9F       		.byte	0x9f
 4189 0297 07000000 		.4byte	.LVL20-1
 4190 029b 0A000000 		.4byte	.LFE85
 4191 029f 0400     		.2byte	0x4
 4192 02a1 F3       		.byte	0xf3
 4193 02a2 01       		.uleb128 0x1
 4194 02a3 50       		.byte	0x50
 4195 02a4 9F       		.byte	0x9f
 4196 02a5 00000000 		.4byte	0
 4197 02a9 00000000 		.4byte	0
 4198              	.LLST18:
 4199 02ad 00000000 		.4byte	.LVL18
 4200 02b1 07000000 		.4byte	.LVL20-1
 4201 02b5 0100     		.2byte	0x1
 4202 02b7 51       		.byte	0x51
ARM GAS  /tmp/cckPztkN.s 			page 75


 4203 02b8 07000000 		.4byte	.LVL20-1
 4204 02bc 0A000000 		.4byte	.LFE85
 4205 02c0 0400     		.2byte	0x4
 4206 02c2 F3       		.byte	0xf3
 4207 02c3 01       		.uleb128 0x1
 4208 02c4 51       		.byte	0x51
 4209 02c5 9F       		.byte	0x9f
 4210 02c6 00000000 		.4byte	0
 4211 02ca 00000000 		.4byte	0
 4212              	.LLST19:
 4213 02ce 00000000 		.4byte	.LVL18
 4214 02d2 07000000 		.4byte	.LVL20-1
 4215 02d6 0100     		.2byte	0x1
 4216 02d8 52       		.byte	0x52
 4217 02d9 07000000 		.4byte	.LVL20-1
 4218 02dd 0A000000 		.4byte	.LFE85
 4219 02e1 0400     		.2byte	0x4
 4220 02e3 F3       		.byte	0xf3
 4221 02e4 01       		.uleb128 0x1
 4222 02e5 52       		.byte	0x52
 4223 02e6 9F       		.byte	0x9f
 4224 02e7 00000000 		.4byte	0
 4225 02eb 00000000 		.4byte	0
 4226              	.LLST20:
 4227 02ef 00000000 		.4byte	.LVL21
 4228 02f3 04000000 		.4byte	.LVL22
 4229 02f7 0100     		.2byte	0x1
 4230 02f9 50       		.byte	0x50
 4231 02fa 04000000 		.4byte	.LVL22
 4232 02fe 09000000 		.4byte	.LVL23-1
 4233 0302 0300     		.2byte	0x3
 4234 0304 70       		.byte	0x70
 4235 0305 4C       		.sleb128 -52
 4236 0306 9F       		.byte	0x9f
 4237 0307 09000000 		.4byte	.LVL23-1
 4238 030b 0C000000 		.4byte	.LFE83
 4239 030f 0400     		.2byte	0x4
 4240 0311 F3       		.byte	0xf3
 4241 0312 01       		.uleb128 0x1
 4242 0313 50       		.byte	0x50
 4243 0314 9F       		.byte	0x9f
 4244 0315 00000000 		.4byte	0
 4245 0319 00000000 		.4byte	0
 4246              	.LLST21:
 4247 031d 00000000 		.4byte	.LVL21
 4248 0321 09000000 		.4byte	.LVL23-1
 4249 0325 0100     		.2byte	0x1
 4250 0327 51       		.byte	0x51
 4251 0328 09000000 		.4byte	.LVL23-1
 4252 032c 0C000000 		.4byte	.LFE83
 4253 0330 0400     		.2byte	0x4
 4254 0332 F3       		.byte	0xf3
 4255 0333 01       		.uleb128 0x1
 4256 0334 51       		.byte	0x51
 4257 0335 9F       		.byte	0x9f
 4258 0336 00000000 		.4byte	0
 4259 033a 00000000 		.4byte	0
ARM GAS  /tmp/cckPztkN.s 			page 76


 4260              	.LLST22:
 4261 033e 00000000 		.4byte	.LVL25
 4262 0342 0C000000 		.4byte	.LVL28
 4263 0346 0100     		.2byte	0x1
 4264 0348 50       		.byte	0x50
 4265 0349 0C000000 		.4byte	.LVL28
 4266 034d 3E000000 		.4byte	.LVL32
 4267 0351 0100     		.2byte	0x1
 4268 0353 54       		.byte	0x54
 4269 0354 3E000000 		.4byte	.LVL32
 4270 0358 44000000 		.4byte	.LFE90
 4271 035c 0400     		.2byte	0x4
 4272 035e F3       		.byte	0xf3
 4273 035f 01       		.uleb128 0x1
 4274 0360 50       		.byte	0x50
 4275 0361 9F       		.byte	0x9f
 4276 0362 00000000 		.4byte	0
 4277 0366 00000000 		.4byte	0
 4278              	.LLST23:
 4279 036a 00000000 		.4byte	.LVL25
 4280 036e 1A000000 		.4byte	.LVL29
 4281 0372 0100     		.2byte	0x1
 4282 0374 51       		.byte	0x51
 4283 0375 1A000000 		.4byte	.LVL29
 4284 0379 29000000 		.4byte	.LVL30-1
 4285 037d 0100     		.2byte	0x1
 4286 037f 53       		.byte	0x53
 4287 0380 29000000 		.4byte	.LVL30-1
 4288 0384 44000000 		.4byte	.LFE90
 4289 0388 0400     		.2byte	0x4
 4290 038a F3       		.byte	0xf3
 4291 038b 01       		.uleb128 0x1
 4292 038c 51       		.byte	0x51
 4293 038d 9F       		.byte	0x9f
 4294 038e 00000000 		.4byte	0
 4295 0392 00000000 		.4byte	0
 4296              	.LLST24:
 4297 0396 00000000 		.4byte	.LVL25
 4298 039a 06000000 		.4byte	.LVL26
 4299 039e 0100     		.2byte	0x1
 4300 03a0 52       		.byte	0x52
 4301 03a1 06000000 		.4byte	.LVL26
 4302 03a5 3E000000 		.4byte	.LVL33
 4303 03a9 0100     		.2byte	0x1
 4304 03ab 55       		.byte	0x55
 4305 03ac 3E000000 		.4byte	.LVL33
 4306 03b0 44000000 		.4byte	.LFE90
 4307 03b4 0400     		.2byte	0x4
 4308 03b6 F3       		.byte	0xf3
 4309 03b7 01       		.uleb128 0x1
 4310 03b8 52       		.byte	0x52
 4311 03b9 9F       		.byte	0x9f
 4312 03ba 00000000 		.4byte	0
 4313 03be 00000000 		.4byte	0
 4314              	.LLST25:
 4315 03c2 0A000000 		.4byte	.LVL27
 4316 03c6 0C000000 		.4byte	.LVL28
ARM GAS  /tmp/cckPztkN.s 			page 77


 4317 03ca 0300     		.2byte	0x3
 4318 03cc 70       		.byte	0x70
 4319 03cd 04       		.sleb128 4
 4320 03ce 9F       		.byte	0x9f
 4321 03cf 0C000000 		.4byte	.LVL28
 4322 03d3 3E000000 		.4byte	.LVL32
 4323 03d7 0300     		.2byte	0x3
 4324 03d9 74       		.byte	0x74
 4325 03da 04       		.sleb128 4
 4326 03db 9F       		.byte	0x9f
 4327 03dc 3E000000 		.4byte	.LVL32
 4328 03e0 44000000 		.4byte	.LFE90
 4329 03e4 0600     		.2byte	0x6
 4330 03e6 F3       		.byte	0xf3
 4331 03e7 01       		.uleb128 0x1
 4332 03e8 50       		.byte	0x50
 4333 03e9 23       		.byte	0x23
 4334 03ea 04       		.uleb128 0x4
 4335 03eb 9F       		.byte	0x9f
 4336 03ec 00000000 		.4byte	0
 4337 03f0 00000000 		.4byte	0
 4338              	.LLST26:
 4339 03f4 00000000 		.4byte	.LVL34
 4340 03f8 09000000 		.4byte	.LVL35-1
 4341 03fc 0100     		.2byte	0x1
 4342 03fe 50       		.byte	0x50
 4343 03ff 09000000 		.4byte	.LVL35-1
 4344 0403 10000000 		.4byte	.LVL36
 4345 0407 0100     		.2byte	0x1
 4346 0409 54       		.byte	0x54
 4347 040a 10000000 		.4byte	.LVL36
 4348 040e 12000000 		.4byte	.LFE91
 4349 0412 0400     		.2byte	0x4
 4350 0414 F3       		.byte	0xf3
 4351 0415 01       		.uleb128 0x1
 4352 0416 50       		.byte	0x50
 4353 0417 9F       		.byte	0x9f
 4354 0418 00000000 		.4byte	0
 4355 041c 00000000 		.4byte	0
 4356              	.LLST27:
 4357 0420 00000000 		.4byte	.LVL34
 4358 0424 09000000 		.4byte	.LVL35-1
 4359 0428 0100     		.2byte	0x1
 4360 042a 51       		.byte	0x51
 4361 042b 09000000 		.4byte	.LVL35-1
 4362 042f 12000000 		.4byte	.LFE91
 4363 0433 0400     		.2byte	0x4
 4364 0435 F3       		.byte	0xf3
 4365 0436 01       		.uleb128 0x1
 4366 0437 51       		.byte	0x51
 4367 0438 9F       		.byte	0x9f
 4368 0439 00000000 		.4byte	0
 4369 043d 00000000 		.4byte	0
 4370              	.LLST28:
 4371 0441 00000000 		.4byte	.LVL37
 4372 0445 09000000 		.4byte	.LVL38-1
 4373 0449 0100     		.2byte	0x1
ARM GAS  /tmp/cckPztkN.s 			page 78


 4374 044b 50       		.byte	0x50
 4375 044c 09000000 		.4byte	.LVL38-1
 4376 0450 24000000 		.4byte	.LVL42
 4377 0454 0100     		.2byte	0x1
 4378 0456 54       		.byte	0x54
 4379 0457 24000000 		.4byte	.LVL42
 4380 045b 26000000 		.4byte	.LFE92
 4381 045f 0400     		.2byte	0x4
 4382 0461 F3       		.byte	0xf3
 4383 0462 01       		.uleb128 0x1
 4384 0463 50       		.byte	0x50
 4385 0464 9F       		.byte	0x9f
 4386 0465 00000000 		.4byte	0
 4387 0469 00000000 		.4byte	0
 4388              	.LLST29:
 4389 046d 00000000 		.4byte	.LVL43
 4390 0471 1C000000 		.4byte	.LVL45
 4391 0475 0100     		.2byte	0x1
 4392 0477 50       		.byte	0x50
 4393 0478 1C000000 		.4byte	.LVL45
 4394 047c 2C000000 		.4byte	.LVL48
 4395 0480 0100     		.2byte	0x1
 4396 0482 54       		.byte	0x54
 4397 0483 2C000000 		.4byte	.LVL48
 4398 0487 2E000000 		.4byte	.LVL49
 4399 048b 0400     		.2byte	0x4
 4400 048d F3       		.byte	0xf3
 4401 048e 01       		.uleb128 0x1
 4402 048f 50       		.byte	0x50
 4403 0490 9F       		.byte	0x9f
 4404 0491 2E000000 		.4byte	.LVL49
 4405 0495 42000000 		.4byte	.LFE93
 4406 0499 0100     		.2byte	0x1
 4407 049b 54       		.byte	0x54
 4408 049c 00000000 		.4byte	0
 4409 04a0 00000000 		.4byte	0
 4410              	.LLST30:
 4411 04a4 00000000 		.4byte	.LVL43
 4412 04a8 1D000000 		.4byte	.LVL46-1
 4413 04ac 0100     		.2byte	0x1
 4414 04ae 51       		.byte	0x51
 4415 04af 1D000000 		.4byte	.LVL46-1
 4416 04b3 42000000 		.4byte	.LFE93
 4417 04b7 0400     		.2byte	0x4
 4418 04b9 F3       		.byte	0xf3
 4419 04ba 01       		.uleb128 0x1
 4420 04bb 51       		.byte	0x51
 4421 04bc 9F       		.byte	0x9f
 4422 04bd 00000000 		.4byte	0
 4423 04c1 00000000 		.4byte	0
 4424              	.LLST31:
 4425 04c5 0C000000 		.4byte	.LVL44
 4426 04c9 1E000000 		.4byte	.LVL46
 4427 04cd 0200     		.2byte	0x2
 4428 04cf 34       		.byte	0x34
 4429 04d0 9F       		.byte	0x9f
 4430 04d1 00000000 		.4byte	0
ARM GAS  /tmp/cckPztkN.s 			page 79


 4431 04d5 00000000 		.4byte	0
 4432              	.LLST32:
 4433 04d9 0C000000 		.4byte	.LVL44
 4434 04dd 1C000000 		.4byte	.LVL45
 4435 04e1 0300     		.2byte	0x3
 4436 04e3 70       		.byte	0x70
 4437 04e4 04       		.sleb128 4
 4438 04e5 9F       		.byte	0x9f
 4439 04e6 1C000000 		.4byte	.LVL45
 4440 04ea 1D000000 		.4byte	.LVL46-1
 4441 04ee 0100     		.2byte	0x1
 4442 04f0 50       		.byte	0x50
 4443 04f1 1D000000 		.4byte	.LVL46-1
 4444 04f5 1E000000 		.4byte	.LVL46
 4445 04f9 0300     		.2byte	0x3
 4446 04fb 74       		.byte	0x74
 4447 04fc 04       		.sleb128 4
 4448 04fd 9F       		.byte	0x9f
 4449 04fe 00000000 		.4byte	0
 4450 0502 00000000 		.4byte	0
 4451              	.LLST33:
 4452 0506 34000000 		.4byte	.LVL50
 4453 050a 3F000000 		.4byte	.LVL51-1
 4454 050e 0100     		.2byte	0x1
 4455 0510 50       		.byte	0x50
 4456 0511 3F000000 		.4byte	.LVL51-1
 4457 0515 42000000 		.4byte	.LFE93
 4458 0519 0300     		.2byte	0x3
 4459 051b 74       		.byte	0x74
 4460 051c 04       		.sleb128 4
 4461 051d 9F       		.byte	0x9f
 4462 051e 00000000 		.4byte	0
 4463 0522 00000000 		.4byte	0
 4464              	.LLST34:
 4465 0526 00000000 		.4byte	.LVL52
 4466 052a 06000000 		.4byte	.LVL53
 4467 052e 0100     		.2byte	0x1
 4468 0530 50       		.byte	0x50
 4469 0531 06000000 		.4byte	.LVL53
 4470 0535 10000000 		.4byte	.LVL57
 4471 0539 0100     		.2byte	0x1
 4472 053b 54       		.byte	0x54
 4473 053c 10000000 		.4byte	.LVL57
 4474 0540 12000000 		.4byte	.LVL59
 4475 0544 0400     		.2byte	0x4
 4476 0546 F3       		.byte	0xf3
 4477 0547 01       		.uleb128 0x1
 4478 0548 50       		.byte	0x50
 4479 0549 9F       		.byte	0x9f
 4480 054a 12000000 		.4byte	.LVL59
 4481 054e 26000000 		.4byte	.LFE94
 4482 0552 0100     		.2byte	0x1
 4483 0554 54       		.byte	0x54
 4484 0555 00000000 		.4byte	0
 4485 0559 00000000 		.4byte	0
 4486              	.LLST35:
 4487 055d 0C000000 		.4byte	.LVL55
ARM GAS  /tmp/cckPztkN.s 			page 80


 4488 0561 0E000000 		.4byte	.LVL56
 4489 0565 0100     		.2byte	0x1
 4490 0567 50       		.byte	0x50
 4491 0568 0E000000 		.4byte	.LVL56
 4492 056c 10000000 		.4byte	.LVL58
 4493 0570 0100     		.2byte	0x1
 4494 0572 55       		.byte	0x55
 4495 0573 10000000 		.4byte	.LVL58
 4496 0577 18000000 		.4byte	.LVL60
 4497 057b 0100     		.2byte	0x1
 4498 057d 50       		.byte	0x50
 4499 057e 18000000 		.4byte	.LVL60
 4500 0582 26000000 		.4byte	.LFE94
 4501 0586 0100     		.2byte	0x1
 4502 0588 55       		.byte	0x55
 4503 0589 00000000 		.4byte	0
 4504 058d 00000000 		.4byte	0
 4505              	.LLST36:
 4506 0591 18000000 		.4byte	.LVL60
 4507 0595 23000000 		.4byte	.LVL61-1
 4508 0599 0100     		.2byte	0x1
 4509 059b 50       		.byte	0x50
 4510 059c 23000000 		.4byte	.LVL61-1
 4511 05a0 26000000 		.4byte	.LFE94
 4512 05a4 0300     		.2byte	0x3
 4513 05a6 74       		.byte	0x74
 4514 05a7 04       		.sleb128 4
 4515 05a8 9F       		.byte	0x9f
 4516 05a9 00000000 		.4byte	0
 4517 05ad 00000000 		.4byte	0
 4518              	.LLST37:
 4519 05b1 00000000 		.4byte	.LVL62
 4520 05b5 04000000 		.4byte	.LVL63
 4521 05b9 0100     		.2byte	0x1
 4522 05bb 50       		.byte	0x50
 4523 05bc 04000000 		.4byte	.LVL63
 4524 05c0 0E000000 		.4byte	.LFE95
 4525 05c4 0400     		.2byte	0x4
 4526 05c6 F3       		.byte	0xf3
 4527 05c7 01       		.uleb128 0x1
 4528 05c8 50       		.byte	0x50
 4529 05c9 9F       		.byte	0x9f
 4530 05ca 00000000 		.4byte	0
 4531 05ce 00000000 		.4byte	0
 4532              	.LLST38:
 4533 05d2 04000000 		.4byte	.LVL63
 4534 05d6 0A000000 		.4byte	.LVL64
 4535 05da 0500     		.2byte	0x5
 4536 05dc 70       		.byte	0x70
 4537 05dd 00       		.sleb128 0
 4538 05de 30       		.byte	0x30
 4539 05df 29       		.byte	0x29
 4540 05e0 9F       		.byte	0x9f
 4541 05e1 00000000 		.4byte	0
 4542 05e5 00000000 		.4byte	0
 4543              	.LLST39:
 4544 05e9 00000000 		.4byte	.LVL65
ARM GAS  /tmp/cckPztkN.s 			page 81


 4545 05ed 04000000 		.4byte	.LVL66
 4546 05f1 0100     		.2byte	0x1
 4547 05f3 50       		.byte	0x50
 4548 05f4 04000000 		.4byte	.LVL66
 4549 05f8 0E000000 		.4byte	.LFE96
 4550 05fc 0400     		.2byte	0x4
 4551 05fe F3       		.byte	0xf3
 4552 05ff 01       		.uleb128 0x1
 4553 0600 50       		.byte	0x50
 4554 0601 9F       		.byte	0x9f
 4555 0602 00000000 		.4byte	0
 4556 0606 00000000 		.4byte	0
 4557              	.LLST40:
 4558 060a 04000000 		.4byte	.LVL66
 4559 060e 0A000000 		.4byte	.LVL67
 4560 0612 0500     		.2byte	0x5
 4561 0614 70       		.byte	0x70
 4562 0615 00       		.sleb128 0
 4563 0616 30       		.byte	0x30
 4564 0617 29       		.byte	0x29
 4565 0618 9F       		.byte	0x9f
 4566 0619 00000000 		.4byte	0
 4567 061d 00000000 		.4byte	0
 4568              		.section	.debug_aranges,"",%progbits
 4569 0000 94000000 		.4byte	0x94
 4570 0004 0200     		.2byte	0x2
 4571 0006 00000000 		.4byte	.Ldebug_info0
 4572 000a 04       		.byte	0x4
 4573 000b 00       		.byte	0
 4574 000c 0000     		.2byte	0
 4575 000e 0000     		.2byte	0
 4576 0010 00000000 		.4byte	.LFB88
 4577 0014 0A000000 		.4byte	.LFE88-.LFB88
 4578 0018 00000000 		.4byte	.LFB82
 4579 001c 0C000000 		.4byte	.LFE82-.LFB82
 4580 0020 00000000 		.4byte	.LFB87
 4581 0024 0A000000 		.4byte	.LFE87-.LFB87
 4582 0028 00000000 		.4byte	.LFB81
 4583 002c 0C000000 		.4byte	.LFE81-.LFB81
 4584 0030 00000000 		.4byte	.LFB86
 4585 0034 0A000000 		.4byte	.LFE86-.LFB86
 4586 0038 00000000 		.4byte	.LFB84
 4587 003c 0C000000 		.4byte	.LFE84-.LFB84
 4588 0040 00000000 		.4byte	.LFB85
 4589 0044 0A000000 		.4byte	.LFE85-.LFB85
 4590 0048 00000000 		.4byte	.LFB83
 4591 004c 0C000000 		.4byte	.LFE83-.LFB83
 4592 0050 00000000 		.4byte	.LFB89
 4593 0054 08000000 		.4byte	.LFE89-.LFB89
 4594 0058 00000000 		.4byte	.LFB90
 4595 005c 44000000 		.4byte	.LFE90-.LFB90
 4596 0060 00000000 		.4byte	.LFB91
 4597 0064 12000000 		.4byte	.LFE91-.LFB91
 4598 0068 00000000 		.4byte	.LFB92
 4599 006c 26000000 		.4byte	.LFE92-.LFB92
 4600 0070 00000000 		.4byte	.LFB93
 4601 0074 42000000 		.4byte	.LFE93-.LFB93
ARM GAS  /tmp/cckPztkN.s 			page 82


 4602 0078 00000000 		.4byte	.LFB94
 4603 007c 26000000 		.4byte	.LFE94-.LFB94
 4604 0080 00000000 		.4byte	.LFB95
 4605 0084 0E000000 		.4byte	.LFE95-.LFB95
 4606 0088 00000000 		.4byte	.LFB96
 4607 008c 0E000000 		.4byte	.LFE96-.LFB96
 4608 0090 00000000 		.4byte	0
 4609 0094 00000000 		.4byte	0
 4610              		.section	.debug_ranges,"",%progbits
 4611              	.Ldebug_ranges0:
 4612 0000 0A000000 		.4byte	.LBB64
 4613 0004 0C000000 		.4byte	.LBE64
 4614 0008 0E000000 		.4byte	.LBB67
 4615 000c 14000000 		.4byte	.LBE67
 4616 0010 00000000 		.4byte	0
 4617 0014 00000000 		.4byte	0
 4618 0018 0C000000 		.4byte	.LBB86
 4619 001c 1A000000 		.4byte	.LBE86
 4620 0020 1C000000 		.4byte	.LBB89
 4621 0024 1E000000 		.4byte	.LBE89
 4622 0028 00000000 		.4byte	0
 4623 002c 00000000 		.4byte	0
 4624 0030 2E000000 		.4byte	.LBB90
 4625 0034 32000000 		.4byte	.LBE90
 4626 0038 34000000 		.4byte	.LBB93
 4627 003c 42000000 		.4byte	.LBE93
 4628 0040 00000000 		.4byte	0
 4629 0044 00000000 		.4byte	0
 4630 0048 12000000 		.4byte	.LBB94
 4631 004c 16000000 		.4byte	.LBE94
 4632 0050 18000000 		.4byte	.LBB97
 4633 0054 26000000 		.4byte	.LBE97
 4634 0058 00000000 		.4byte	0
 4635 005c 00000000 		.4byte	0
 4636 0060 00000000 		.4byte	.LFB88
 4637 0064 0A000000 		.4byte	.LFE88
 4638 0068 00000000 		.4byte	.LFB82
 4639 006c 0C000000 		.4byte	.LFE82
 4640 0070 00000000 		.4byte	.LFB87
 4641 0074 0A000000 		.4byte	.LFE87
 4642 0078 00000000 		.4byte	.LFB81
 4643 007c 0C000000 		.4byte	.LFE81
 4644 0080 00000000 		.4byte	.LFB86
 4645 0084 0A000000 		.4byte	.LFE86
 4646 0088 00000000 		.4byte	.LFB84
 4647 008c 0C000000 		.4byte	.LFE84
 4648 0090 00000000 		.4byte	.LFB85
 4649 0094 0A000000 		.4byte	.LFE85
 4650 0098 00000000 		.4byte	.LFB83
 4651 009c 0C000000 		.4byte	.LFE83
 4652 00a0 00000000 		.4byte	.LFB89
 4653 00a4 08000000 		.4byte	.LFE89
 4654 00a8 00000000 		.4byte	.LFB90
 4655 00ac 44000000 		.4byte	.LFE90
 4656 00b0 00000000 		.4byte	.LFB91
 4657 00b4 12000000 		.4byte	.LFE91
 4658 00b8 00000000 		.4byte	.LFB92
ARM GAS  /tmp/cckPztkN.s 			page 83


 4659 00bc 26000000 		.4byte	.LFE92
 4660 00c0 00000000 		.4byte	.LFB93
 4661 00c4 42000000 		.4byte	.LFE93
 4662 00c8 00000000 		.4byte	.LFB94
 4663 00cc 26000000 		.4byte	.LFE94
 4664 00d0 00000000 		.4byte	.LFB95
 4665 00d4 0E000000 		.4byte	.LFE95
 4666 00d8 00000000 		.4byte	.LFB96
 4667 00dc 0E000000 		.4byte	.LFE96
 4668 00e0 00000000 		.4byte	0
 4669 00e4 00000000 		.4byte	0
 4670              		.section	.debug_line,"",%progbits
 4671              	.Ldebug_line0:
 4672 0000 B9030000 		.section	.debug_str,"MS",%progbits,1
 4672      0200C701 
 4672      00000201 
 4672      FB0E0D00 
 4672      01010101 
 4673              	.LASF49:
 4674 0000 74687265 		.ascii	"threads_queue_t\000"
 4674      6164735F 
 4674      71756575 
 4674      655F7400 
 4675              	.LASF68:
 4676 0010 53657269 		.ascii	"SerialDriver\000"
 4676      616C4472 
 4676      69766572 
 4676      00
 4677              	.LASF96:
 4678 001d 73645374 		.ascii	"sdStart\000"
 4678      61727400 
 4679              	.LASF92:
 4680 0025 7364496E 		.ascii	"sdInit\000"
 4680      697400
 4681              	.LASF72:
 4682 002c 75617274 		.ascii	"uart\000"
 4682      00
 4683              	.LASF25:
 4684 0031 72656761 		.ascii	"regarm_t\000"
 4684      726D5F74 
 4684      00
 4685              	.LASF44:
 4686 003a 6576656E 		.ascii	"event_source\000"
 4686      745F736F 
 4686      75726365 
 4686      00
 4687              	.LASF45:
 4688 0047 666C6167 		.ascii	"flags\000"
 4688      7300
 4689              	.LASF22:
 4690 004d 73797374 		.ascii	"systime_t\000"
 4690      696D655F 
 4690      7400
 4691              	.LASF51:
 4692 0057 696F5F71 		.ascii	"io_queue_t\000"
 4692      75657565 
 4692      5F7400
ARM GAS  /tmp/cckPztkN.s 			page 84


 4693              	.LASF0:
 4694 0062 756E7369 		.ascii	"unsigned int\000"
 4694      676E6564 
 4694      20696E74 
 4694      00
 4695              	.LASF39:
 4696 006f 6E657874 		.ascii	"next\000"
 4696      00
 4697              	.LASF58:
 4698 0074 715F7264 		.ascii	"q_rdptr\000"
 4698      70747200 
 4699              	.LASF61:
 4700 007c 716E6F74 		.ascii	"qnotify_t\000"
 4700      6966795F 
 4700      7400
 4701              	.LASF118:
 4702 0086 2E2E2F6F 		.ascii	"../os/hal/src/serial.c\000"
 4702      732F6861 
 4702      6C2F7372 
 4702      632F7365 
 4702      7269616C 
 4703              	.LASF84:
 4704 009d 706F7274 		.ascii	"port_lock\000"
 4704      5F6C6F63 
 4704      6B00
 4705              	.LASF60:
 4706 00a7 715F6C69 		.ascii	"q_link\000"
 4706      6E6B00
 4707              	.LASF34:
 4708 00ae 73656D70 		.ascii	"semp\000"
 4708      00
 4709              	.LASF37:
 4710 00b3 6E696C5F 		.ascii	"nil_system\000"
 4710      73797374 
 4710      656D00
 4711              	.LASF35:
 4712 00be 65776D61 		.ascii	"ewmask\000"
 4712      736B00
 4713              	.LASF99:
 4714 00c5 7364496E 		.ascii	"sdIncomingDataI\000"
 4714      636F6D69 
 4714      6E674461 
 4714      74614900 
 4715              	.LASF31:
 4716 00d5 6E696C5F 		.ascii	"nil_semaphore\000"
 4716      73656D61 
 4716      70686F72 
 4716      6500
 4717              	.LASF80:
 4718 00e3 77726974 		.ascii	"writet\000"
 4718      657400
 4719              	.LASF119:
 4720 00ea 2F686F6D 		.ascii	"/home/bunnie/code/chibi-chibios/orchard\000"
 4720      652F6275 
 4720      6E6E6965 
 4720      2F636F64 
 4720      652F6368 
ARM GAS  /tmp/cckPztkN.s 			page 85


 4721              	.LASF70:
 4722 0112 69717565 		.ascii	"iqueue\000"
 4722      756500
 4723              	.LASF9:
 4724 0119 75696E74 		.ascii	"uint32_t\000"
 4724      33325F74 
 4724      00
 4725              	.LASF100:
 4726 0122 73645265 		.ascii	"sdRequestDataI\000"
 4726      71756573 
 4726      74446174 
 4726      614900
 4727              	.LASF20:
 4728 0131 6576656E 		.ascii	"eventmask_t\000"
 4728      746D6173 
 4728      6B5F7400 
 4729              	.LASF74:
 4730 013d 53657269 		.ascii	"SerialConfig\000"
 4730      616C436F 
 4730      6E666967 
 4730      00
 4731              	.LASF67:
 4732 014a 73647374 		.ascii	"sdstate_t\000"
 4732      6174655F 
 4732      7400
 4733              	.LASF69:
 4734 0154 6576656E 		.ascii	"event\000"
 4734      7400
 4735              	.LASF11:
 4736 015a 6C6F6E67 		.ascii	"long long unsigned int\000"
 4736      206C6F6E 
 4736      6720756E 
 4736      7369676E 
 4736      65642069 
 4737              	.LASF17:
 4738 0171 73746B6C 		.ascii	"stklim\000"
 4738      696D00
 4739              	.LASF73:
 4740 0178 73635F73 		.ascii	"sc_speed\000"
 4740      70656564 
 4740      00
 4741              	.LASF43:
 4742 0181 6576656E 		.ascii	"event_source_t\000"
 4742      745F736F 
 4742      75726365 
 4742      5F7400
 4743              	.LASF21:
 4744 0190 636E745F 		.ascii	"cnt_t\000"
 4744      7400
 4745              	.LASF87:
 4746 0196 6F73616C 		.ascii	"osalSysUnlock\000"
 4746      53797355 
 4746      6E6C6F63 
 4746      6B00
 4747              	.LASF42:
 4748 01a4 6462675F 		.ascii	"dbg_panic_msg\000"
 4748      70616E69 
ARM GAS  /tmp/cckPztkN.s 			page 86


 4748      635F6D73 
 4748      6700
 4749              	.LASF30:
 4750 01b2 73656D61 		.ascii	"semaphore_t\000"
 4750      70686F72 
 4750      655F7400 
 4751              	.LASF53:
 4752 01be 715F7761 		.ascii	"q_waiting\000"
 4752      6974696E 
 4752      6700
 4753              	.LASF12:
 4754 01c8 74687265 		.ascii	"thread_t\000"
 4754      61645F74 
 4754      00
 4755              	.LASF78:
 4756 01d1 70757474 		.ascii	"putt\000"
 4756      00
 4757              	.LASF103:
 4758 01d6 69715265 		.ascii	"iqReadTimeout\000"
 4758      61645469 
 4758      6D656F75 
 4758      7400
 4759              	.LASF3:
 4760 01e4 73697A65 		.ascii	"size_t\000"
 4760      5F7400
 4761              	.LASF94:
 4762 01eb 696E6F74 		.ascii	"inotify\000"
 4762      69667900 
 4763              	.LASF82:
 4764 01f3 5F5F6469 		.ascii	"__disable_irq\000"
 4764      7361626C 
 4764      655F6972 
 4764      7100
 4765              	.LASF88:
 4766 0201 6F73616C 		.ascii	"osalOsRescheduleS\000"
 4766      4F735265 
 4766      73636865 
 4766      64756C65 
 4766      5300
 4767              	.LASF90:
 4768 0213 6F73616C 		.ascii	"osalEventBroadcastFlagsI\000"
 4768      4576656E 
 4768      7442726F 
 4768      61646361 
 4768      7374466C 
 4769              	.LASF50:
 4770 022c 5F426F6F 		.ascii	"_Bool\000"
 4770      6C00
 4771              	.LASF65:
 4772 0232 53445F53 		.ascii	"SD_STOP\000"
 4772      544F5000 
 4773              	.LASF113:
 4774 023a 6F715265 		.ascii	"oqResetI\000"
 4774      73657449 
 4774      00
 4775              	.LASF111:
 4776 0243 63685363 		.ascii	"chSchRescheduleS\000"
ARM GAS  /tmp/cckPztkN.s 			page 87


 4776      68526573 
 4776      63686564 
 4776      756C6553 
 4776      00
 4777              	.LASF107:
 4778 0254 69714F62 		.ascii	"iqObjectInit\000"
 4778      6A656374 
 4778      496E6974 
 4778      00
 4779              	.LASF104:
 4780 0261 6F715772 		.ascii	"oqWriteTimeout\000"
 4780      69746554 
 4780      696D656F 
 4780      757400
 4781              	.LASF32:
 4782 0270 63686172 		.ascii	"char\000"
 4782      00
 4783              	.LASF33:
 4784 0275 74687265 		.ascii	"thread_reference_t\000"
 4784      61645F72 
 4784      65666572 
 4784      656E6365 
 4784      5F7400
 4785              	.LASF57:
 4786 0288 715F7772 		.ascii	"q_wrptr\000"
 4786      70747200 
 4787              	.LASF18:
 4788 0290 74737461 		.ascii	"tstate_t\000"
 4788      74655F74 
 4788      00
 4789              	.LASF6:
 4790 0299 75696E74 		.ascii	"uint8_t\000"
 4790      385F7400 
 4791              	.LASF108:
 4792 02a1 6F714F62 		.ascii	"oqObjectInit\000"
 4792      6A656374 
 4792      496E6974 
 4792      00
 4793              	.LASF62:
 4794 02ae 696E7075 		.ascii	"input_queue_t\000"
 4794      745F7175 
 4794      6575655F 
 4794      7400
 4795              	.LASF5:
 4796 02bc 6C6F6E67 		.ascii	"long long int\000"
 4796      206C6F6E 
 4796      6720696E 
 4796      7400
 4797              	.LASF76:
 4798 02ca 77726974 		.ascii	"write\000"
 4798      6500
 4799              	.LASF55:
 4800 02d0 715F6275 		.ascii	"q_buffer\000"
 4800      66666572 
 4800      00
 4801              	.LASF19:
 4802 02d9 6D73675F 		.ascii	"msg_t\000"
ARM GAS  /tmp/cckPztkN.s 			page 88


 4802      7400
 4803              	.LASF112:
 4804 02df 73645F6C 		.ascii	"sd_lld_stop\000"
 4804      6C645F73 
 4804      746F7000 
 4805              	.LASF29:
 4806 02eb 696E7463 		.ascii	"intctx_t\000"
 4806      74785F74 
 4806      00
 4807              	.LASF63:
 4808 02f4 6F757470 		.ascii	"output_queue_t\000"
 4808      75745F71 
 4808      75657565 
 4808      5F7400
 4809              	.LASF98:
 4810 0303 73645374 		.ascii	"sdStop\000"
 4810      6F7000
 4811              	.LASF46:
 4812 030a 70617261 		.ascii	"param\000"
 4812      6D00
 4813              	.LASF47:
 4814 0310 6576656E 		.ascii	"eventcallback_t\000"
 4814      7463616C 
 4814      6C626163 
 4814      6B5F7400 
 4815              	.LASF16:
 4816 0320 65706D61 		.ascii	"epmask\000"
 4816      736B00
 4817              	.LASF48:
 4818 0327 6576656E 		.ascii	"eventflags_t\000"
 4818      74666C61 
 4818      67735F74 
 4818      00
 4819              	.LASF109:
 4820 0334 73645F6C 		.ascii	"sd_lld_start\000"
 4820      6C645F73 
 4820      74617274 
 4820      00
 4821              	.LASF40:
 4822 0341 73797374 		.ascii	"systime\000"
 4822      696D6500 
 4823              	.LASF71:
 4824 0349 6F717565 		.ascii	"oqueue\000"
 4824      756500
 4825              	.LASF66:
 4826 0350 53445F52 		.ascii	"SD_READY\000"
 4826      45414459 
 4826      00
 4827              	.LASF75:
 4828 0359 53657269 		.ascii	"SerialDriverVMT\000"
 4828      616C4472 
 4828      69766572 
 4828      564D5400 
 4829              	.LASF97:
 4830 0369 636F6E66 		.ascii	"config\000"
 4830      696700
 4831              	.LASF2:
ARM GAS  /tmp/cckPztkN.s 			page 89


 4832 0370 73686F72 		.ascii	"short int\000"
 4832      7420696E 
 4832      7400
 4833              	.LASF102:
 4834 037a 73644765 		.ascii	"sdGetWouldBlock\000"
 4834      74576F75 
 4834      6C64426C 
 4834      6F636B00 
 4835              	.LASF13:
 4836 038a 63747870 		.ascii	"ctxp\000"
 4836      00
 4837              	.LASF28:
 4838 038f 706F7274 		.ascii	"port_intctx\000"
 4838      5F696E74 
 4838      63747800 
 4839              	.LASF83:
 4840 039b 5F5F656E 		.ascii	"__enable_irq\000"
 4840      61626C65 
 4840      5F697271 
 4840      00
 4841              	.LASF95:
 4842 03a8 6F6E6F74 		.ascii	"onotify\000"
 4842      69667900 
 4843              	.LASF101:
 4844 03b0 73645075 		.ascii	"sdPutWouldBlock\000"
 4844      74576F75 
 4844      6C64426C 
 4844      6F636B00 
 4845              	.LASF106:
 4846 03c0 6F715075 		.ascii	"oqPutTimeout\000"
 4846      7454696D 
 4846      656F7574 
 4846      00
 4847              	.LASF89:
 4848 03cd 6F73616C 		.ascii	"osalEventObjectInit\000"
 4848      4576656E 
 4848      744F626A 
 4848      65637449 
 4848      6E697400 
 4849              	.LASF10:
 4850 03e1 75696E74 		.ascii	"uint64_t\000"
 4850      36345F74 
 4850      00
 4851              	.LASF115:
 4852 03ea 69715075 		.ascii	"iqPutI\000"
 4852      744900
 4853              	.LASF36:
 4854 03f1 6E696C5F 		.ascii	"nil_system_t\000"
 4854      73797374 
 4854      656D5F74 
 4854      00
 4855              	.LASF77:
 4856 03fe 72656164 		.ascii	"read\000"
 4856      00
 4857              	.LASF64:
 4858 0403 53445F55 		.ascii	"SD_UNINIT\000"
 4858      4E494E49 
ARM GAS  /tmp/cckPztkN.s 			page 90


 4858      5400
 4859              	.LASF24:
 4860 040d 55415254 		.ascii	"UARTLP_TypeDef\000"
 4860      4C505F54 
 4860      79706544 
 4860      656600
 4861              	.LASF54:
 4862 041c 715F636F 		.ascii	"q_counter\000"
 4862      756E7465 
 4862      7200
 4863              	.LASF79:
 4864 0426 67657474 		.ascii	"gett\000"
 4864      00
 4865              	.LASF56:
 4866 042b 715F746F 		.ascii	"q_top\000"
 4866      7000
 4867              	.LASF23:
 4868 0431 73697A65 		.ascii	"sizetype\000"
 4868      74797065 
 4868      00
 4869              	.LASF59:
 4870 043a 715F6E6F 		.ascii	"q_notify\000"
 4870      74696679 
 4870      00
 4871              	.LASF41:
 4872 0443 74687265 		.ascii	"threads\000"
 4872      61647300 
 4873              	.LASF86:
 4874 044b 6F73616C 		.ascii	"osalSysLock\000"
 4874      5379734C 
 4874      6F636B00 
 4875              	.LASF4:
 4876 0457 696E7433 		.ascii	"int32_t\000"
 4876      325F7400 
 4877              	.LASF7:
 4878 045f 756E7369 		.ascii	"unsigned char\000"
 4878      676E6564 
 4878      20636861 
 4878      7200
 4879              	.LASF114:
 4880 046d 69715265 		.ascii	"iqResetI\000"
 4880      73657449 
 4880      00
 4881              	.LASF117:
 4882 0476 474E5520 		.ascii	"GNU C 4.9.2 -mcpu=cortex-m0 -mfloat-abi=soft -mfp16"
 4882      4320342E 
 4882      392E3220 
 4882      2D6D6370 
 4882      753D636F 
 4883 04a9 2D666F72 		.ascii	"-format=none -mno-thumb-interwork -mthumb -mfloat-a"
 4883      6D61743D 
 4883      6E6F6E65 
 4883      202D6D6E 
 4883      6F2D7468 
 4884 04dc 62693D73 		.ascii	"bi=soft -mfpu=vfpv3-d16 -mtls-dialect=gnu -ggdb -O3"
 4884      6F667420 
 4884      2D6D6670 
ARM GAS  /tmp/cckPztkN.s 			page 91


 4884      753D7666 
 4884      7076332D 
 4885 050f 202D7374 		.ascii	" -std=gnu99 -fomit-frame-pointer -falign-functions="
 4885      643D676E 
 4885      75393920 
 4885      2D666F6D 
 4885      69742D66 
 4886 0542 3136202D 		.ascii	"16 -ffunction-sections -fdata-sections -fno-common\000"
 4886      6666756E 
 4886      6374696F 
 4886      6E2D7365 
 4886      6374696F 
 4887              	.LASF15:
 4888 0575 74696D65 		.ascii	"timeout\000"
 4888      6F757400 
 4889              	.LASF93:
 4890 057d 73644F62 		.ascii	"sdObjectInit\000"
 4890      6A656374 
 4890      496E6974 
 4890      00
 4891              	.LASF14:
 4892 058a 73746174 		.ascii	"state\000"
 4892      6500
 4893              	.LASF105:
 4894 0590 69714765 		.ascii	"iqGetTimeout\000"
 4894      7454696D 
 4894      656F7574 
 4894      00
 4895              	.LASF27:
 4896 059d 6E696C5F 		.ascii	"nil_thread\000"
 4896      74687265 
 4896      616400
 4897              	.LASF1:
 4898 05a8 7369676E 		.ascii	"signed char\000"
 4898      65642063 
 4898      68617200 
 4899              	.LASF52:
 4900 05b4 696F5F71 		.ascii	"io_queue\000"
 4900      75657565 
 4900      00
 4901              	.LASF81:
 4902 05bd 72656164 		.ascii	"readt\000"
 4902      7400
 4903              	.LASF8:
 4904 05c3 73686F72 		.ascii	"short unsigned int\000"
 4904      7420756E 
 4904      7369676E 
 4904      65642069 
 4904      6E7400
 4905              	.LASF26:
 4906 05d6 73746B61 		.ascii	"stkalign_t\000"
 4906      6C69676E 
 4906      5F7400
 4907              	.LASF38:
 4908 05e1 63757272 		.ascii	"current\000"
 4908      656E7400 
 4909              	.LASF91:
ARM GAS  /tmp/cckPztkN.s 			page 92


 4910 05e9 5F5F6675 		.ascii	"__func__\000"
 4910      6E635F5F 
 4910      00
 4911              	.LASF85:
 4912 05f2 706F7274 		.ascii	"port_unlock\000"
 4912      5F756E6C 
 4912      6F636B00 
 4913              	.LASF110:
 4914 05fe 73645F6C 		.ascii	"sd_lld_init\000"
 4914      6C645F69 
 4914      6E697400 
 4915              	.LASF116:
 4916 060a 6F714765 		.ascii	"oqGetI\000"
 4916      744900
 4917              		.ident	"GCC: (Debian 4.9.2-10) 4.9.2"
 4918              		.section	.note.GNU-stack,"",%progbits
ARM GAS  /tmp/cckPztkN.s 			page 93


DEFINED SYMBOLS
                            *ABS*:00000000 serial.c
     /tmp/cckPztkN.s:18     .text.readt:00000000 $t
     /tmp/cckPztkN.s:23     .text.readt:00000000 readt
     /tmp/cckPztkN.s:45     .text.read:00000000 $t
     /tmp/cckPztkN.s:50     .text.read:00000000 read
     /tmp/cckPztkN.s:72     .text.writet:00000000 $t
     /tmp/cckPztkN.s:77     .text.writet:00000000 writet
     /tmp/cckPztkN.s:98     .text.write:00000000 $t
     /tmp/cckPztkN.s:103    .text.write:00000000 write
     /tmp/cckPztkN.s:125    .text.gett:00000000 $t
     /tmp/cckPztkN.s:130    .text.gett:00000000 gett
     /tmp/cckPztkN.s:151    .text.get:00000000 $t
     /tmp/cckPztkN.s:156    .text.get:00000000 get
     /tmp/cckPztkN.s:178    .text.putt:00000000 $t
     /tmp/cckPztkN.s:183    .text.putt:00000000 putt
     /tmp/cckPztkN.s:204    .text.put:00000000 $t
     /tmp/cckPztkN.s:209    .text.put:00000000 put
     /tmp/cckPztkN.s:231    .text.sdInit:00000000 $t
     /tmp/cckPztkN.s:237    .text.sdInit:00000000 sdInit
     /tmp/cckPztkN.s:255    .text.sdObjectInit:00000000 $t
     /tmp/cckPztkN.s:261    .text.sdObjectInit:00000000 sdObjectInit
     /tmp/cckPztkN.s:337    .text.sdObjectInit:00000040 $d
     /tmp/cckPztkN.s:342    .text.sdStart:00000000 $t
     /tmp/cckPztkN.s:348    .text.sdStart:00000000 sdStart
     /tmp/cckPztkN.s:402    .text.sdStop:00000000 $t
     /tmp/cckPztkN.s:408    .text.sdStop:00000000 sdStop
     /tmp/cckPztkN.s:480    .text.sdIncomingDataI:00000000 $t
     /tmp/cckPztkN.s:486    .text.sdIncomingDataI:00000000 sdIncomingDataI
     /tmp/cckPztkN.s:574    .text.sdRequestDataI:00000000 $t
     /tmp/cckPztkN.s:580    .text.sdRequestDataI:00000000 sdRequestDataI
     /tmp/cckPztkN.s:641    .text.sdPutWouldBlock:00000000 $t
     /tmp/cckPztkN.s:647    .text.sdPutWouldBlock:00000000 sdPutWouldBlock
     /tmp/cckPztkN.s:697    .text.sdGetWouldBlock:00000000 $t
     /tmp/cckPztkN.s:703    .text.sdGetWouldBlock:00000000 sdGetWouldBlock
     /tmp/cckPztkN.s:753    .rodata.vmt:00000000 $d
     /tmp/cckPztkN.s:757    .rodata.vmt:00000000 vmt
                     .debug_frame:00000010 $d
     /tmp/cckPztkN.s:341    .text.sdObjectInit:00000044 $t

UNDEFINED SYMBOLS
iqReadTimeout
oqWriteTimeout
iqGetTimeout
oqPutTimeout
sd_lld_init
iqObjectInit
oqObjectInit
sd_lld_start
sd_lld_stop
oqResetI
iqResetI
chSchRescheduleS
iqPutI
oqGetI
