ARM GAS  /tmp/cckPztkN.s 			page 1


   1              		.cpu cortex-m0
   2              		.fpu softvfp
   3              		.eabi_attribute 20, 1
   4              		.eabi_attribute 21, 1
   5              		.eabi_attribute 23, 3
   6              		.eabi_attribute 24, 1
   7              		.eabi_attribute 25, 1
   8              		.eabi_attribute 26, 2
   9              		.eabi_attribute 30, 2
  10              		.eabi_attribute 34, 0
  11              		.eabi_attribute 18, 4
  12              		.code	16
  13              		.file	"serial.c"
  14              		.text
  15              	.Ltext0:
  16              		.cfi_sections	.debug_frame
  17              		.section	.text.readt,"ax",%progbits
  18              		.align	2
  19              		.p2align 4,,15
  20              		.code	16
  21              		.thumb_func
  22              		.type	readt, %function
  23              	readt:
  24              	.LFB88:
  25              		.file 1 "../os/hal/src/serial.c"
  26              		.loc 1 87 0
  27              		.cfi_startproc
  28              	.LVL0:
  29 0000 08B5     		push	{r3, lr}
  30              		.cfi_def_cfa_offset 8
  31              		.cfi_offset 3, -8
  32              		.cfi_offset 14, -4
  33              		.loc 1 89 0
  34 0002 1430     		add	r0, r0, #20
  35              	.LVL1:
  36 0004 FFF7FEFF 		bl	iqReadTimeout
  37              	.LVL2:
  38              		.loc 1 90 0
  39              		@ sp needed
  40 0008 08BD     		pop	{r3, pc}
  41              		.cfi_endproc
  42              	.LFE88:
  43              		.size	readt, .-readt
  44 000a C046C046 		.section	.text.read,"ax",%progbits
  44      C046
  45              		.align	2
  46              		.p2align 4,,15
  47              		.code	16
  48              		.thumb_func
  49              		.type	read, %function
  50              	read:
  51              	.LFB82:
  52              		.loc 1 56 0
  53              		.cfi_startproc
  54              	.LVL3:
  55 0000 08B5     		push	{r3, lr}
  56              		.cfi_def_cfa_offset 8
ARM GAS  /tmp/cckPztkN.s 			page 2


  57              		.cfi_offset 3, -8
  58              		.cfi_offset 14, -4
  59              		.loc 1 58 0
  60 0002 1430     		add	r0, r0, #20
  61              	.LVL4:
  62 0004 0023     		mov	r3, #0
  63 0006 FFF7FEFF 		bl	iqReadTimeout
  64              	.LVL5:
  65              		.loc 1 60 0
  66              		@ sp needed
  67 000a 08BD     		pop	{r3, pc}
  68              		.cfi_endproc
  69              	.LFE82:
  70              		.size	read, .-read
  71 000c C046C046 		.section	.text.writet,"ax",%progbits
  72              		.align	2
  73              		.p2align 4,,15
  74              		.code	16
  75              		.thumb_func
  76              		.type	writet, %function
  77              	writet:
  78              	.LFB87:
  79              		.loc 1 82 0
  80              		.cfi_startproc
  81              	.LVL6:
  82 0000 08B5     		push	{r3, lr}
  83              		.cfi_def_cfa_offset 8
  84              		.cfi_offset 3, -8
  85              		.cfi_offset 14, -4
  86              		.loc 1 84 0
  87 0002 3430     		add	r0, r0, #52
  88              	.LVL7:
  89 0004 FFF7FEFF 		bl	oqWriteTimeout
  90              	.LVL8:
  91              		.loc 1 85 0
  92              		@ sp needed
  93 0008 08BD     		pop	{r3, pc}
  94              		.cfi_endproc
  95              	.LFE87:
  96              		.size	writet, .-writet
  97 000a C046C046 		.section	.text.write,"ax",%progbits
  97      C046
  98              		.align	2
  99              		.p2align 4,,15
 100              		.code	16
 101              		.thumb_func
 102              		.type	write, %function
 103              	write:
 104              	.LFB81:
 105              		.loc 1 50 0
 106              		.cfi_startproc
 107              	.LVL9:
 108 0000 08B5     		push	{r3, lr}
 109              		.cfi_def_cfa_offset 8
 110              		.cfi_offset 3, -8
 111              		.cfi_offset 14, -4
 112              		.loc 1 52 0
ARM GAS  /tmp/cckPztkN.s 			page 3


 113 0002 3430     		add	r0, r0, #52
 114              	.LVL10:
 115 0004 0023     		mov	r3, #0
 116 0006 FFF7FEFF 		bl	oqWriteTimeout
 117              	.LVL11:
 118              		.loc 1 54 0
 119              		@ sp needed
 120 000a 08BD     		pop	{r3, pc}
 121              		.cfi_endproc
 122              	.LFE81:
 123              		.size	write, .-write
 124 000c C046C046 		.section	.text.gett,"ax",%progbits
 125              		.align	2
 126              		.p2align 4,,15
 127              		.code	16
 128              		.thumb_func
 129              		.type	gett, %function
 130              	gett:
 131              	.LFB86:
 132              		.loc 1 77 0
 133              		.cfi_startproc
 134              	.LVL12:
 135 0000 08B5     		push	{r3, lr}
 136              		.cfi_def_cfa_offset 8
 137              		.cfi_offset 3, -8
 138              		.cfi_offset 14, -4
 139              		.loc 1 79 0
 140 0002 1430     		add	r0, r0, #20
 141              	.LVL13:
 142 0004 FFF7FEFF 		bl	iqGetTimeout
 143              	.LVL14:
 144              		.loc 1 80 0
 145              		@ sp needed
 146 0008 08BD     		pop	{r3, pc}
 147              		.cfi_endproc
 148              	.LFE86:
 149              		.size	gett, .-gett
 150 000a C046C046 		.section	.text.get,"ax",%progbits
 150      C046
 151              		.align	2
 152              		.p2align 4,,15
 153              		.code	16
 154              		.thumb_func
 155              		.type	get, %function
 156              	get:
 157              	.LFB84:
 158              		.loc 1 67 0
 159              		.cfi_startproc
 160              	.LVL15:
 161 0000 08B5     		push	{r3, lr}
 162              		.cfi_def_cfa_offset 8
 163              		.cfi_offset 3, -8
 164              		.cfi_offset 14, -4
 165              		.loc 1 69 0
 166 0002 1430     		add	r0, r0, #20
 167              	.LVL16:
 168 0004 0021     		mov	r1, #0
ARM GAS  /tmp/cckPztkN.s 			page 4


 169 0006 FFF7FEFF 		bl	iqGetTimeout
 170              	.LVL17:
 171              		.loc 1 70 0
 172              		@ sp needed
 173 000a 08BD     		pop	{r3, pc}
 174              		.cfi_endproc
 175              	.LFE84:
 176              		.size	get, .-get
 177 000c C046C046 		.section	.text.putt,"ax",%progbits
 178              		.align	2
 179              		.p2align 4,,15
 180              		.code	16
 181              		.thumb_func
 182              		.type	putt, %function
 183              	putt:
 184              	.LFB85:
 185              		.loc 1 72 0
 186              		.cfi_startproc
 187              	.LVL18:
 188 0000 08B5     		push	{r3, lr}
 189              		.cfi_def_cfa_offset 8
 190              		.cfi_offset 3, -8
 191              		.cfi_offset 14, -4
 192              		.loc 1 74 0
 193 0002 3430     		add	r0, r0, #52
 194              	.LVL19:
 195 0004 FFF7FEFF 		bl	oqPutTimeout
 196              	.LVL20:
 197              		.loc 1 75 0
 198              		@ sp needed
 199 0008 08BD     		pop	{r3, pc}
 200              		.cfi_endproc
 201              	.LFE85:
 202              		.size	putt, .-putt
 203 000a C046C046 		.section	.text.put,"ax",%progbits
 203      C046
 204              		.align	2
 205              		.p2align 4,,15
 206              		.code	16
 207              		.thumb_func
 208              		.type	put, %function
 209              	put:
 210              	.LFB83:
 211              		.loc 1 62 0
 212              		.cfi_startproc
 213              	.LVL21:
 214 0000 08B5     		push	{r3, lr}
 215              		.cfi_def_cfa_offset 8
 216              		.cfi_offset 3, -8
 217              		.cfi_offset 14, -4
 218              		.loc 1 64 0
 219 0002 3430     		add	r0, r0, #52
 220              	.LVL22:
 221 0004 0022     		mov	r2, #0
 222 0006 FFF7FEFF 		bl	oqPutTimeout
 223              	.LVL23:
 224              		.loc 1 65 0
ARM GAS  /tmp/cckPztkN.s 			page 5


 225              		@ sp needed
 226 000a 08BD     		pop	{r3, pc}
 227              		.cfi_endproc
 228              	.LFE83:
 229              		.size	put, .-put
 230 000c C046C046 		.section	.text.sdInit,"ax",%progbits
 231              		.align	2
 232              		.p2align 4,,15
 233              		.global	sdInit
 234              		.code	16
 235              		.thumb_func
 236              		.type	sdInit, %function
 237              	sdInit:
 238              	.LFB89:
 239              		.loc 1 108 0
 240              		.cfi_startproc
 241 0000 08B5     		push	{r3, lr}
 242              		.cfi_def_cfa_offset 8
 243              		.cfi_offset 3, -8
 244              		.cfi_offset 14, -4
 245              		.loc 1 110 0
 246 0002 FFF7FEFF 		bl	sd_lld_init
 247              	.LVL24:
 248              		.loc 1 111 0
 249              		@ sp needed
 250 0006 08BD     		pop	{r3, pc}
 251              		.cfi_endproc
 252              	.LFE89:
 253              		.size	sdInit, .-sdInit
 254              		.section	.text.sdObjectInit,"ax",%progbits
 255              		.align	2
 256              		.p2align 4,,15
 257              		.global	sdObjectInit
 258              		.code	16
 259              		.thumb_func
 260              		.type	sdObjectInit, %function
 261              	sdObjectInit:
 262              	.LFB90:
 263              		.loc 1 128 0
 264              		.cfi_startproc
 265              	.LVL25:
 266 0000 30B5     		push	{r4, r5, lr}
 267              		.cfi_def_cfa_offset 12
 268              		.cfi_offset 4, -12
 269              		.cfi_offset 5, -8
 270              		.cfi_offset 14, -4
 271 0002 151C     		mov	r5, r2
 272              		.loc 1 130 0
 273 0004 0E4A     		ldr	r2, .L11
 274              	.LVL26:
 275              		.loc 1 128 0
 276 0006 041C     		mov	r4, r0
 277              		.loc 1 130 0
 278 0008 0260     		str	r2, [r0]
 279              	.LVL27:
 280              	.LBB64:
 281              	.LBB65:
ARM GAS  /tmp/cckPztkN.s 			page 6


 282              		.file 2 "../os/hal/osal/nil/osal.h"
 283              		.loc 2 808 0
 284 000a 0020     		mov	r0, #0
 285              	.LVL28:
 286              	.LBE65:
 287              	.LBE64:
 288              		.loc 1 128 0
 289 000c 0B1C     		mov	r3, r1
 290              	.LBB67:
 291              	.LBB66:
 292              		.loc 2 808 0
 293 000e 6060     		str	r0, [r4, #4]
 294              		.loc 2 809 0
 295 0010 A060     		str	r0, [r4, #8]
 296              		.loc 2 810 0
 297 0012 E060     		str	r0, [r4, #12]
 298              	.LBE66:
 299              	.LBE67:
 300              		.loc 1 132 0
 301 0014 0122     		mov	r2, #1
 302              		.loc 1 133 0
 303 0016 201C     		mov	r0, r4
 304 0018 211C     		mov	r1, r4
 305              	.LVL29:
 306              		.loc 1 128 0
 307 001a 83B0     		sub	sp, sp, #12
 308              		.cfi_def_cfa_offset 24
 309              		.loc 1 132 0
 310 001c 2261     		str	r2, [r4, #16]
 311              		.loc 1 133 0
 312 001e 1430     		add	r0, r0, #20
 313 0020 5431     		add	r1, r1, #84
 314 0022 0094     		str	r4, [sp]
 315 0024 1022     		mov	r2, #16
 316 0026 FFF7FEFF 		bl	iqObjectInit
 317              	.LVL30:
 318              		.loc 1 134 0
 319 002a 201C     		mov	r0, r4
 320 002c 211C     		mov	r1, r4
 321 002e 3430     		add	r0, r0, #52
 322 0030 6431     		add	r1, r1, #100
 323 0032 0094     		str	r4, [sp]
 324 0034 1022     		mov	r2, #16
 325 0036 2B1C     		mov	r3, r5
 326 0038 FFF7FEFF 		bl	oqObjectInit
 327              	.LVL31:
 328              		.loc 1 135 0
 329 003c 03B0     		add	sp, sp, #12
 330              		@ sp needed
 331              	.LVL32:
 332              	.LVL33:
 333 003e 30BD     		pop	{r4, r5, pc}
 334              	.L12:
 335              		.align	2
 336              	.L11:
 337 0040 00000000 		.word	.LANCHOR0
 338              		.cfi_endproc
ARM GAS  /tmp/cckPztkN.s 			page 7


 339              	.LFE90:
 340              		.size	sdObjectInit, .-sdObjectInit
 341 0044 C046C046 		.section	.text.sdStart,"ax",%progbits
 341      C046C046 
 341      C046C046 
 342              		.align	2
 343              		.p2align 4,,15
 344              		.global	sdStart
 345              		.code	16
 346              		.thumb_func
 347              		.type	sdStart, %function
 348              	sdStart:
 349              	.LFB91:
 350              		.loc 1 147 0
 351              		.cfi_startproc
 352              	.LVL34:
 353 0000 10B5     		push	{r4, lr}
 354              		.cfi_def_cfa_offset 8
 355              		.cfi_offset 4, -8
 356              		.cfi_offset 14, -4
 357              		.loc 1 147 0
 358 0002 041C     		mov	r4, r0
 359              	.LBB68:
 360              	.LBB69:
 361              	.LBB70:
 362              	.LBB71:
 363              		.file 3 "../os/ext/CMSIS/include/core_cmFunc.h"
 364              		.loc 3 344 0
 365              	#APP
 366              	@ 344 "../os/ext/CMSIS/include/core_cmFunc.h" 1
 367 0004 72B6     		cpsid i
 368              	@ 0 "" 2
 369              		.code	16
 370              	.LBE71:
 371              	.LBE70:
 372              	.LBE69:
 373              	.LBE68:
 374              		.loc 1 154 0
 375 0006 FFF7FEFF 		bl	sd_lld_start
 376              	.LVL35:
 377              		.loc 1 155 0
 378 000a 0223     		mov	r3, #2
 379 000c 2361     		str	r3, [r4, #16]
 380              	.LBB72:
 381              	.LBB73:
 382              	.LBB74:
 383              	.LBB75:
 384              		.loc 3 333 0
 385              	#APP
 386              	@ 333 "../os/ext/CMSIS/include/core_cmFunc.h" 1
 387 000e 62B6     		cpsie i
 388              	@ 0 "" 2
 389              		.code	16
 390              	.LBE75:
 391              	.LBE74:
 392              	.LBE73:
 393              	.LBE72:
ARM GAS  /tmp/cckPztkN.s 			page 8


 394              		.loc 1 157 0
 395              		@ sp needed
 396              	.LVL36:
 397 0010 10BD     		pop	{r4, pc}
 398              		.cfi_endproc
 399              	.LFE91:
 400              		.size	sdStart, .-sdStart
 401 0012 C046C046 		.section	.text.sdStop,"ax",%progbits
 401      C046C046 
 401      C046C046 
 401      C046
 402              		.align	2
 403              		.p2align 4,,15
 404              		.global	sdStop
 405              		.code	16
 406              		.thumb_func
 407              		.type	sdStop, %function
 408              	sdStop:
 409              	.LFB92:
 410              		.loc 1 168 0
 411              		.cfi_startproc
 412              	.LVL37:
 413 0000 10B5     		push	{r4, lr}
 414              		.cfi_def_cfa_offset 8
 415              		.cfi_offset 4, -8
 416              		.cfi_offset 14, -4
 417              		.loc 1 168 0
 418 0002 041C     		mov	r4, r0
 419              	.LBB76:
 420              	.LBB77:
 421              	.LBB78:
 422              	.LBB79:
 423              		.loc 3 344 0
 424              	#APP
 425              	@ 344 "../os/ext/CMSIS/include/core_cmFunc.h" 1
 426 0004 72B6     		cpsid i
 427              	@ 0 "" 2
 428              		.code	16
 429              	.LBE79:
 430              	.LBE78:
 431              	.LBE77:
 432              	.LBE76:
 433              		.loc 1 175 0
 434 0006 FFF7FEFF 		bl	sd_lld_stop
 435              	.LVL38:
 436              		.loc 1 176 0
 437 000a 0123     		mov	r3, #1
 438              		.loc 1 177 0
 439 000c 201C     		mov	r0, r4
 440              		.loc 1 176 0
 441 000e 2361     		str	r3, [r4, #16]
 442              		.loc 1 177 0
 443 0010 3430     		add	r0, r0, #52
 444 0012 FFF7FEFF 		bl	oqResetI
 445              	.LVL39:
 446              		.loc 1 178 0
 447 0016 201C     		mov	r0, r4
ARM GAS  /tmp/cckPztkN.s 			page 9


 448 0018 1430     		add	r0, r0, #20
 449 001a FFF7FEFF 		bl	iqResetI
 450              	.LVL40:
 451              	.LBB80:
 452              	.LBB81:
 453              		.loc 2 609 0
 454 001e FFF7FEFF 		bl	chSchRescheduleS
 455              	.LVL41:
 456              	.LBE81:
 457              	.LBE80:
 458              	.LBB82:
 459              	.LBB83:
 460              	.LBB84:
 461              	.LBB85:
 462              		.loc 3 333 0
 463              	#APP
 464              	@ 333 "../os/ext/CMSIS/include/core_cmFunc.h" 1
 465 0022 62B6     		cpsie i
 466              	@ 0 "" 2
 467              		.code	16
 468              	.LBE85:
 469              	.LBE84:
 470              	.LBE83:
 471              	.LBE82:
 472              		.loc 1 181 0
 473              		@ sp needed
 474              	.LVL42:
 475 0024 10BD     		pop	{r4, pc}
 476              		.cfi_endproc
 477              	.LFE92:
 478              		.size	sdStop, .-sdStop
 479 0026 C046C046 		.section	.text.sdIncomingDataI,"ax",%progbits
 479      C046C046 
 479      C046
 480              		.align	2
 481              		.p2align 4,,15
 482              		.global	sdIncomingDataI
 483              		.code	16
 484              		.thumb_func
 485              		.type	sdIncomingDataI, %function
 486              	sdIncomingDataI:
 487              	.LFB93:
 488              		.loc 1 199 0
 489              		.cfi_startproc
 490              	.LVL43:
 491 0000 38B5     		push	{r3, r4, r5, lr}
 492              		.cfi_def_cfa_offset 16
 493              		.cfi_offset 3, -16
 494              		.cfi_offset 4, -12
 495              		.cfi_offset 5, -8
 496              		.cfi_offset 14, -4
 497              		.loc 1 204 0
 498 0002 8369     		ldr	r3, [r0, #24]
 499              		.loc 1 199 0
 500 0004 041C     		mov	r4, r0
 501 0006 0D1C     		mov	r5, r1
 502              		.loc 1 204 0
ARM GAS  /tmp/cckPztkN.s 			page 10


 503 0008 002B     		cmp	r3, #0
 504 000a 08D1     		bne	.L17
 505              	.LVL44:
 506              	.LBB86:
 507              	.LBB87:
 508              		.loc 2 826 0
 509 000c 0423     		mov	r3, #4
 510 000e 4268     		ldr	r2, [r0, #4]
 511 0010 1343     		orr	r3, r2
 512 0012 4360     		str	r3, [r0, #4]
 513              		.loc 2 827 0
 514 0014 8368     		ldr	r3, [r0, #8]
 515 0016 002B     		cmp	r3, #0
 516 0018 01D0     		beq	.L17
 517              	.LBE87:
 518              	.LBE86:
 519              		.loc 1 205 0
 520 001a 0430     		add	r0, r0, #4
 521              	.LVL45:
 522              	.LBB89:
 523              	.LBB88:
 524              		.loc 2 828 0
 525 001c 9847     		blx	r3
 526              	.LVL46:
 527              	.L17:
 528              	.LBE88:
 529              	.LBE89:
 530              		.loc 1 206 0
 531 001e 201C     		mov	r0, r4
 532 0020 291C     		mov	r1, r5
 533 0022 1430     		add	r0, r0, #20
 534 0024 FFF7FEFF 		bl	iqPutI
 535              	.LVL47:
 536 0028 0028     		cmp	r0, #0
 537 002a 00DB     		blt	.L29
 538              	.L15:
 539              		.loc 1 208 0
 540              		@ sp needed
 541              	.LVL48:
 542 002c 38BD     		pop	{r3, r4, r5, pc}
 543              	.LVL49:
 544              	.L29:
 545              	.LBB90:
 546              	.LBB91:
 547              		.loc 2 826 0
 548 002e 8023     		mov	r3, #128
 549 0030 6268     		ldr	r2, [r4, #4]
 550              	.LBE91:
 551              	.LBE90:
 552              		.loc 1 207 0
 553 0032 201D     		add	r0, r4, #4
 554              	.LVL50:
 555              	.LBB93:
 556              	.LBB92:
 557              		.loc 2 826 0
 558 0034 1343     		orr	r3, r2
 559 0036 6360     		str	r3, [r4, #4]
ARM GAS  /tmp/cckPztkN.s 			page 11


 560              		.loc 2 827 0
 561 0038 A368     		ldr	r3, [r4, #8]
 562 003a 002B     		cmp	r3, #0
 563 003c F6D0     		beq	.L15
 564              		.loc 2 828 0
 565 003e 9847     		blx	r3
 566              	.LVL51:
 567 0040 F4E7     		b	.L15
 568              	.LBE92:
 569              	.LBE93:
 570              		.cfi_endproc
 571              	.LFE93:
 572              		.size	sdIncomingDataI, .-sdIncomingDataI
 573 0042 C046C046 		.section	.text.sdRequestDataI,"ax",%progbits
 573      C046C046 
 573      C046C046 
 573      C046
 574              		.align	2
 575              		.p2align 4,,15
 576              		.global	sdRequestDataI
 577              		.code	16
 578              		.thumb_func
 579              		.type	sdRequestDataI, %function
 580              	sdRequestDataI:
 581              	.LFB94:
 582              		.loc 1 225 0
 583              		.cfi_startproc
 584              	.LVL52:
 585 0000 38B5     		push	{r3, r4, r5, lr}
 586              		.cfi_def_cfa_offset 16
 587              		.cfi_offset 3, -16
 588              		.cfi_offset 4, -12
 589              		.cfi_offset 5, -8
 590              		.cfi_offset 14, -4
 591              		.loc 1 225 0
 592 0002 041C     		mov	r4, r0
 593              		.loc 1 231 0
 594 0004 3430     		add	r0, r0, #52
 595              	.LVL53:
 596 0006 FFF7FEFF 		bl	oqGetI
 597              	.LVL54:
 598 000a 051E     		sub	r5, r0, #0
 599              	.LVL55:
 600              		.loc 1 232 0
 601 000c 01DB     		blt	.L37
 602              	.LVL56:
 603              	.L32:
 604              		.loc 1 235 0
 605 000e 281C     		mov	r0, r5
 606              		@ sp needed
 607              	.LVL57:
 608              	.LVL58:
 609 0010 38BD     		pop	{r3, r4, r5, pc}
 610              	.LVL59:
 611              	.L37:
 612              	.LBB94:
 613              	.LBB95:
ARM GAS  /tmp/cckPztkN.s 			page 12


 614              		.loc 2 826 0
 615 0012 0823     		mov	r3, #8
 616 0014 6268     		ldr	r2, [r4, #4]
 617              	.LBE95:
 618              	.LBE94:
 619              		.loc 1 233 0
 620 0016 201D     		add	r0, r4, #4
 621              	.LVL60:
 622              	.LBB97:
 623              	.LBB96:
 624              		.loc 2 826 0
 625 0018 1343     		orr	r3, r2
 626 001a 6360     		str	r3, [r4, #4]
 627              		.loc 2 827 0
 628 001c A368     		ldr	r3, [r4, #8]
 629 001e 002B     		cmp	r3, #0
 630 0020 F5D0     		beq	.L32
 631              		.loc 2 828 0
 632 0022 9847     		blx	r3
 633              	.LVL61:
 634 0024 F3E7     		b	.L32
 635              	.LBE96:
 636              	.LBE97:
 637              		.cfi_endproc
 638              	.LFE94:
 639              		.size	sdRequestDataI, .-sdRequestDataI
 640 0026 C046C046 		.section	.text.sdPutWouldBlock,"ax",%progbits
 640      C046C046 
 640      C046
 641              		.align	2
 642              		.p2align 4,,15
 643              		.global	sdPutWouldBlock
 644              		.code	16
 645              		.thumb_func
 646              		.type	sdPutWouldBlock, %function
 647              	sdPutWouldBlock:
 648              	.LFB95:
 649              		.loc 1 252 0
 650              		.cfi_startproc
 651              	.LVL62:
 652              	.LBB98:
 653              	.LBB99:
 654              	.LBB100:
 655              	.LBB101:
 656              		.loc 3 344 0
 657              	#APP
 658              	@ 344 "../os/ext/CMSIS/include/core_cmFunc.h" 1
 659 0000 72B6     		cpsid i
 660              	@ 0 "" 2
 661              		.code	16
 662              	.LBE101:
 663              	.LBE100:
 664              	.LBE99:
 665              	.LBE98:
 666              		.loc 1 256 0
 667 0002 806B     		ldr	r0, [r0, #56]
 668              	.LVL63:
ARM GAS  /tmp/cckPztkN.s 			page 13


 669              	.LBB102:
 670              	.LBB103:
 671              	.LBB104:
 672              	.LBB105:
 673              		.loc 3 333 0
 674              	#APP
 675              	@ 333 "../os/ext/CMSIS/include/core_cmFunc.h" 1
 676 0004 62B6     		cpsie i
 677              	@ 0 "" 2
 678              		.code	16
 679              	.LBE105:
 680              	.LBE104:
 681              	.LBE103:
 682              	.LBE102:
 683              		.loc 1 256 0
 684 0006 4342     		neg	r3, r0
 685 0008 5841     		adc	r0, r0, r3
 686              	.LVL64:
 687              		.loc 1 260 0
 688              		@ sp needed
 689              		.loc 1 259 0
 690 000a C0B2     		uxtb	r0, r0
 691              		.loc 1 260 0
 692 000c 7047     		bx	lr
 693              		.cfi_endproc
 694              	.LFE95:
 695              		.size	sdPutWouldBlock, .-sdPutWouldBlock
 696 000e C046     		.section	.text.sdGetWouldBlock,"ax",%progbits
 697              		.align	2
 698              		.p2align 4,,15
 699              		.global	sdGetWouldBlock
 700              		.code	16
 701              		.thumb_func
 702              		.type	sdGetWouldBlock, %function
 703              	sdGetWouldBlock:
 704              	.LFB96:
 705              		.loc 1 277 0
 706              		.cfi_startproc
 707              	.LVL65:
 708              	.LBB106:
 709              	.LBB107:
 710              	.LBB108:
 711              	.LBB109:
 712              		.loc 3 344 0
 713              	#APP
 714              	@ 344 "../os/ext/CMSIS/include/core_cmFunc.h" 1
 715 0000 72B6     		cpsid i
 716              	@ 0 "" 2
 717              		.code	16
 718              	.LBE109:
 719              	.LBE108:
 720              	.LBE107:
 721              	.LBE106:
 722              		.loc 1 281 0
 723 0002 8069     		ldr	r0, [r0, #24]
 724              	.LVL66:
 725              	.LBB110:
ARM GAS  /tmp/cckPztkN.s 			page 14


 726              	.LBB111:
 727              	.LBB112:
 728              	.LBB113:
 729              		.loc 3 333 0
 730              	#APP
 731              	@ 333 "../os/ext/CMSIS/include/core_cmFunc.h" 1
 732 0004 62B6     		cpsie i
 733              	@ 0 "" 2
 734              		.code	16
 735              	.LBE113:
 736              	.LBE112:
 737              	.LBE111:
 738              	.LBE110:
 739              		.loc 1 281 0
 740 0006 4342     		neg	r3, r0
 741 0008 5841     		adc	r0, r0, r3
 742              	.LVL67:
 743              		.loc 1 285 0
 744              		@ sp needed
 745              		.loc 1 284 0
 746 000a C0B2     		uxtb	r0, r0
 747              		.loc 1 285 0
 748 000c 7047     		bx	lr
 749              		.cfi_endproc
 750              	.LFE96:
 751              		.size	sdGetWouldBlock, .-sdGetWouldBlock
 752 000e C046     		.section	.rodata.vmt,"a",%progbits
 753              		.align	2
 754              	.LANCHOR0 = . + 0
 755              		.type	vmt, %object
 756              		.size	vmt, 32
 757              	vmt:
 758 0000 00000000 		.word	write
 759 0004 00000000 		.word	read
 760 0008 00000000 		.word	put
 761 000c 00000000 		.word	get
 762 0010 00000000 		.word	putt
 763 0014 00000000 		.word	gett
 764 0018 00000000 		.word	writet
 765 001c 00000000 		.word	readt
 766              		.text
 767              	.Letext0:
 768              		.file 4 "/usr/lib/gcc/arm-linux-gnueabihf/4.9/include/stddef.h"
 769              		.file 5 "/usr/include/stdint.h"
 770              		.file 6 "../os/nil/include/nil.h"
 771              		.file 7 "../os/nil/ports/ARMCMx/compilers/GCC/niltypes.h"
 772              		.file 8 "../os/ext/CMSIS/KINETIS/kl02x.h"
 773              		.file 9 "../os/nil/ports/ARMCMx/nilcore.h"
 774              		.file 10 "../os/nil/ports/ARMCMx/nilcore_v6m.h"
 775              		.file 11 "../os/hal/include/hal_queues.h"
 776              		.file 12 "../os/hal/include/serial.h"
 777              		.file 13 "../os/hal/ports/KINETIS/KL02x/serial_lld.h"
 4918              		.section	.note.GNU-stack,"",%progbits
ARM GAS  /tmp/cckPztkN.s 			page 93

