ARM GAS  /tmp/ccP3etwi.s 			page 1


   1              		.cpu cortex-m0
   2              		.fpu softvfp
   3              		.eabi_attribute 20, 1
   4              		.eabi_attribute 21, 1
   5              		.eabi_attribute 23, 3
   6              		.eabi_attribute 24, 1
   7              		.eabi_attribute 25, 1
   8              		.eabi_attribute 26, 2
   9              		.eabi_attribute 30, 2
  10              		.eabi_attribute 34, 0
  11              		.eabi_attribute 18, 4
  12              		.code	16
  13              		.file	"st_lld.c"
  14              		.text
  15              	.Ltext0:
  16              		.cfi_sections	.debug_frame
  17              		.section	.text.SysTick_Handler,"ax",%progbits
  18              		.align	2
  19              		.p2align 4,,15
  20              		.global	SysTick_Handler
  21              		.code	16
  22              		.thumb_func
  23              		.type	SysTick_Handler, %function
  24              	SysTick_Handler:
  25              	.LFB81:
  26              		.file 1 "../os/hal/ports/KINETIS/KL02x/st_lld.c"
  27              		.loc 1 60 0
  28              		.cfi_startproc
  29              	.LVL0:
  30 0000 10B5     		push	{r4, lr}
  31              		.cfi_def_cfa_offset 8
  32              		.cfi_offset 4, -8
  33              		.cfi_offset 14, -4
  34 0002 7446     		mov	r4, lr
  35              	.LBB38:
  36              	.LBB39:
  37              	.LBB40:
  38              	.LBB41:
  39              	.LBB42:
  40              		.file 2 "../os/ext/CMSIS/include/core_cmFunc.h"
  41              		.loc 2 344 0
  42              	#APP
  43              	@ 344 "../os/ext/CMSIS/include/core_cmFunc.h" 1
  44 0004 72B6     		cpsid i
  45              	@ 0 "" 2
  46              		.code	16
  47              	.LBE42:
  48              	.LBE41:
  49              	.LBE40:
  50              	.LBE39:
  51              	.LBE38:
  52              	.LBB43:
  53              	.LBB44:
  54              		.file 3 "../os/hal/osal/nil/osal.h"
  55              		.loc 3 594 0
  56 0006 FFF7FEFF 		bl	chSysTimerHandlerI
  57              	.LVL1:
ARM GAS  /tmp/ccP3etwi.s 			page 2


  58              	.LBE44:
  59              	.LBE43:
  60              	.LBB45:
  61              	.LBB46:
  62              	.LBB47:
  63              	.LBB48:
  64              	.LBB49:
  65              		.loc 2 333 0
  66              	#APP
  67              	@ 333 "../os/ext/CMSIS/include/core_cmFunc.h" 1
  68 000a 62B6     		cpsie i
  69              	@ 0 "" 2
  70              		.code	16
  71              	.LBE49:
  72              	.LBE48:
  73              	.LBE47:
  74              	.LBE46:
  75              	.LBE45:
  76              		.loc 1 90 0
  77 000c 201C     		mov	r0, r4
  78 000e FFF7FEFF 		bl	_port_irq_epilogue
  79              	.LVL2:
  80              		.loc 1 92 0
  81              		@ sp needed
  82 0012 10BD     		pop	{r4, pc}
  83              		.cfi_endproc
  84              	.LFE81:
  85              		.size	SysTick_Handler, .-SysTick_Handler
  86 0014 C046C046 		.section	.text.st_lld_init,"ax",%progbits
  86      C046C046 
  86      C046C046 
  87              		.align	2
  88              		.p2align 4,,15
  89              		.global	st_lld_init
  90              		.code	16
  91              		.thumb_func
  92              		.type	st_lld_init, %function
  93              	st_lld_init:
  94              	.LFB82:
  95              		.loc 1 104 0
  96              		.cfi_startproc
  97 0000 08B5     		push	{r3, lr}
  98              		.cfi_def_cfa_offset 8
  99              		.cfi_offset 3, -8
 100              		.cfi_offset 14, -4
 101              		.loc 1 108 0
 102 0002 064A     		ldr	r2, .L3
 103 0004 064B     		ldr	r3, .L3+4
 104              		.loc 1 115 0
 105 0006 0B20     		mov	r0, #11
 106              		.loc 1 108 0
 107 0008 5A60     		str	r2, [r3, #4]
 108              		.loc 1 109 0
 109 000a 0022     		mov	r2, #0
 110 000c 9A60     		str	r2, [r3, #8]
 111              		.loc 1 110 0
 112 000e 0722     		mov	r2, #7
ARM GAS  /tmp/ccP3etwi.s 			page 3


 113              		.loc 1 115 0
 114 0010 0821     		mov	r1, #8
 115              		.loc 1 110 0
 116 0012 1A60     		str	r2, [r3]
 117              		.loc 1 115 0
 118 0014 FFF7FEFF 		bl	nvicSetSystemHandlerPriority
 119              	.LVL3:
 120              		.loc 1 117 0
 121              		@ sp needed
 122 0018 08BD     		pop	{r3, pc}
 123              	.L4:
 124 001a C046     		.align	2
 125              	.L3:
 126 001c 63BB0000 		.word	47971
 127 0020 10E000E0 		.word	-536813552
 128              		.cfi_endproc
 129              	.LFE82:
 130              		.size	st_lld_init, .-st_lld_init
 131 0024 C046C046 		.text
 131      C046C046 
 131      C046C046 
 132              	.Letext0:
 133              		.file 4 "/usr/include/stdint.h"
 134              		.file 5 "../os/nil/include/nil.h"
 135              		.file 6 "../os/nil/ports/ARMCMx/compilers/GCC/niltypes.h"
 136              		.file 7 "../os/ext/CMSIS/include/core_cm0plus.h"
 137              		.file 8 "../os/nil/ports/ARMCMx/nilcore.h"
 138              		.file 9 "../os/nil/ports/ARMCMx/nilcore_v6m.h"
 139              		.file 10 "../os/hal/ports/common/ARMCMx/nvic.h"
 1332              		.section	.note.GNU-stack,"",%progbits
ARM GAS  /tmp/ccP3etwi.s 			page 28

