ARM GAS  /tmp/ccKnk30r.s 			page 1


   1              		.cpu cortex-m0
   2              		.fpu softvfp
   3              		.eabi_attribute 20, 1
   4              		.eabi_attribute 21, 1
   5              		.eabi_attribute 23, 3
   6              		.eabi_attribute 24, 1
   7              		.eabi_attribute 25, 1
   8              		.eabi_attribute 26, 2
   9              		.eabi_attribute 30, 2
  10              		.eabi_attribute 34, 0
  11              		.eabi_attribute 18, 4
  12              		.code	16
  13              		.file	"updater.c"
  14              		.text
  15              	.Ltext0:
  16              		.cfi_sections	.debug_frame
  17              		.section	.text.bootToUserApp,"ax",%progbits
  18              		.align	2
  19              		.p2align 4,,15
  20              		.global	bootToUserApp
  21              		.code	16
  22              		.thumb_func
  23              		.type	bootToUserApp, %function
  24              	bootToUserApp:
  25              	.LFB104:
  26              		.file 1 "updater.c"
  27              		.loc 1 93 0
  28              		.cfi_startproc
  29 0000 08B5     		push	{r3, lr}
  30              		.cfi_def_cfa_offset 8
  31              		.cfi_offset 3, -8
  32              		.cfi_offset 14, -4
  33              		.loc 1 94 0
  34 0002 0B48     		ldr	r0, .L5
  35 0004 FFF7FEFF 		bl	tfp_printf
  36              	.LVL0:
  37              		.loc 1 95 0
  38 0008 4023     		mov	r3, #64
  39              		.loc 1 106 0
  40 000a B220     		mov	r0, #178
  41              		.loc 1 95 0
  42 000c 094A     		ldr	r2, .L5+4
  43              		.loc 1 106 0
  44 000e C001     		lsl	r0, r0, #7
  45              		.loc 1 95 0
  46 0010 9168     		ldr	r1, [r2, #8]
  47 0012 0B43     		orr	r3, r1
  48 0014 9360     		str	r3, [r2, #8]
  49              	.LVL1:
  50              		.loc 1 106 0
  51 0016 8269     		ldr	r2, [r0, #24]
  52 0018 074B     		ldr	r3, .L5+8
  53 001a 9A42     		cmp	r2, r3
  54 001c 00D0     		beq	.L4
  55              	.L1:
  56              		.loc 1 108 0
  57              		@ sp needed
ARM GAS  /tmp/ccKnk30r.s 			page 2


  58 001e 08BD     		pop	{r3, pc}
  59              	.L4:
  60              	.LBB4:
  61              	.LBB5:
  62              		.loc 1 106 0
  63 0020 8023     		mov	r3, #128
  64 0022 C269     		ldr	r2, [r0, #28]
  65 0024 5B00     		lsl	r3, r3, #1
  66 0026 9A42     		cmp	r2, r3
  67 0028 F9D1     		bne	.L1
  68              		.loc 1 107 0
  69 002a FFF7FEFF 		bl	Run_App
  70              	.LVL2:
  71              	.L6:
  72 002e C046     		.align	2
  73              	.L5:
  74 0030 00000000 		.word	.LC0
  75 0034 40F00F40 		.word	1074786368
  76 0038 7AF6FBD3 		.word	-738462086
  77              	.LBE5:
  78              	.LBE4:
  79              		.cfi_endproc
  80              	.LFE104:
  81              		.size	bootToUserApp, .-bootToUserApp
  82 003c C046C046 		.section	.text.init_storage_header,"ax",%progbits
  83              		.align	2
  84              		.p2align 4,,15
  85              		.global	init_storage_header
  86              		.code	16
  87              		.thumb_func
  88              		.type	init_storage_header, %function
  89              	init_storage_header:
  90              	.LFB105:
  91              		.loc 1 110 0
  92              		.cfi_startproc
  93              	.LVL3:
  94              		.loc 1 114 0
  95 0000 0023     		mov	r3, #0
  96              		.loc 1 119 0
  97 0002 011C     		mov	r1, r0
  98              		.loc 1 110 0
  99 0004 00B5     		push	{lr}
 100              		.cfi_def_cfa_offset 4
 101              		.cfi_offset 14, -4
 102 0006 89B0     		sub	sp, sp, #36
 103              		.cfi_def_cfa_offset 40
 104              		.loc 1 114 0
 105 0008 0093     		str	r3, [sp]
 106              		.loc 1 115 0
 107 000a 124B     		ldr	r3, .L8
 108              		.loc 1 119 0
 109 000c 0931     		add	r1, r1, #9
 110              		.loc 1 115 0
 111 000e 0193     		str	r3, [sp, #4]
 112              		.loc 1 116 0
 113 0010 8379     		ldrb	r3, [r0, #6]
 114 0012 1A02     		lsl	r2, r3, #8
ARM GAS  /tmp/ccKnk30r.s 			page 3


 115 0014 C379     		ldrb	r3, [r0, #7]
 116 0016 1B04     		lsl	r3, r3, #16
 117 0018 1343     		orr	r3, r2
 118 001a 4279     		ldrb	r2, [r0, #5]
 119 001c 1343     		orr	r3, r2
 120 001e 027A     		ldrb	r2, [r0, #8]
 121 0020 1206     		lsl	r2, r2, #24
 122 0022 1343     		orr	r3, r2
 123 0024 0293     		str	r3, [sp, #8]
 124              		.loc 1 117 0
 125 0026 8378     		ldrb	r3, [r0, #2]
 126 0028 1A02     		lsl	r2, r3, #8
 127 002a C378     		ldrb	r3, [r0, #3]
 128 002c 1B04     		lsl	r3, r3, #16
 129 002e 1343     		orr	r3, r2
 130 0030 4278     		ldrb	r2, [r0, #1]
 131 0032 1343     		orr	r3, r2
 132 0034 0279     		ldrb	r2, [r0, #4]
 133 0036 04A8     		add	r0, sp, #16
 134              	.LVL4:
 135 0038 1206     		lsl	r2, r2, #24
 136 003a 1343     		orr	r3, r2
 137 003c 1022     		mov	r2, #16
 138 003e 0393     		str	r3, [sp, #12]
 139              	.LVL5:
 140 0040 FFF7FEFF 		bl	memcpy
 141              	.LVL6:
 142              		.loc 1 123 0
 143 0044 6846     		mov	r0, sp
 144 0046 0449     		ldr	r1, .L8+4
 145 0048 2022     		mov	r2, #32
 146 004a FFF7FEFF 		bl	flashProgram
 147              	.LVL7:
 148              		.loc 1 124 0
 149 004e 09B0     		add	sp, sp, #36
 150              		@ sp needed
 151 0050 00BD     		pop	{pc}
 152              	.L9:
 153 0052 C046     		.align	2
 154              	.L8:
 155 0054 43686962 		.word	1651075139
 156 0058 00000000 		.word	__storage_start__
 157              		.cfi_endproc
 158              	.LFE105:
 159              		.size	init_storage_header, .-init_storage_header
 160 005c C046C046 		.section	.text.updaterPacketProcess,"ax",%progbits
 161              		.align	2
 162              		.p2align 4,,15
 163              		.global	updaterPacketProcess
 164              		.code	16
 165              		.thumb_func
 166              		.type	updaterPacketProcess, %function
 167              	updaterPacketProcess:
 168              	.LFB106:
 169              		.loc 1 131 0
 170              		.cfi_startproc
 171              	.LVL8:
ARM GAS  /tmp/ccKnk30r.s 			page 4


 172 0000 F0B5     		push	{r4, r5, r6, r7, lr}
 173              		.cfi_def_cfa_offset 20
 174              		.cfi_offset 4, -20
 175              		.cfi_offset 5, -16
 176              		.cfi_offset 6, -12
 177              		.cfi_offset 7, -8
 178              		.cfi_offset 14, -4
 179 0002 4F46     		mov	r7, r9
 180 0004 4646     		mov	r6, r8
 181 0006 C0B4     		push	{r6, r7}
 182              		.cfi_def_cfa_offset 28
 183              		.cfi_offset 8, -28
 184              		.cfi_offset 9, -24
 185              		.loc 1 137 0
 186 0008 924D     		ldr	r5, .L41
 187              		.loc 1 131 0
 188 000a 8DB0     		sub	sp, sp, #52
 189              		.cfi_def_cfa_offset 80
 190              		.loc 1 131 0
 191 000c 071C     		mov	r7, r0
 192 000e 2978     		ldrb	r1, [r5]
 193              		.loc 1 137 0
 194 0010 9148     		ldr	r0, .L41+4
 195              	.LVL9:
 196 0012 FFF7FEFF 		bl	tfp_printf
 197              	.LVL10:
 198              		.loc 1 138 0
 199 0016 2E68     		ldr	r6, [r5]
 200 0018 022E     		cmp	r6, #2
 201 001a 39D0     		beq	.L12
 202 001c 032E     		cmp	r6, #3
 203 001e 25D0     		beq	.L13
 204              		.loc 1 135 0
 205 0020 0024     		mov	r4, #0
 206              		.loc 1 138 0
 207 0022 002E     		cmp	r6, #0
 208 0024 08D0     		beq	.L36
 209              	.LVL11:
 210              	.L11:
 211              		.loc 1 240 0 discriminator 2
 212 0026 0022     		mov	r2, #0
 213 0028 8C4B     		ldr	r3, .L41+8
 214              		.loc 1 242 0 discriminator 2
 215 002a 60B2     		sxtb	r0, r4
 216              		.loc 1 240 0 discriminator 2
 217 002c 1A70     		strb	r2, [r3]
 218              		.loc 1 243 0 discriminator 2
 219 002e 0DB0     		add	sp, sp, #52
 220              		@ sp needed
 221              	.LVL12:
 222 0030 0CBC     		pop	{r2, r3}
 223 0032 9046     		mov	r8, r2
 224 0034 9946     		mov	r9, r3
 225 0036 F0BD     		pop	{r4, r5, r6, r7, pc}
 226              	.LVL13:
 227              	.L36:
 228              	.LBB19:
ARM GAS  /tmp/ccKnk30r.s 			page 5


 229              		.loc 1 142 0
 230 0038 3B78     		ldrb	r3, [r7]
 231              	.LBE19:
 232              		.loc 1 135 0
 233 003a 0024     		mov	r4, #0
 234              	.LBB41:
 235              		.loc 1 142 0
 236 003c 7F2B     		cmp	r3, #127
 237 003e F2D9     		bls	.L11
 238              		.loc 1 146 0
 239 0040 874B     		ldr	r3, .L41+12
 240 0042 1022     		mov	r2, #16
 241 0044 1B68     		ldr	r3, [r3]
 242 0046 181C     		mov	r0, r3
 243 0048 9846     		mov	r8, r3
 244 004a 0923     		mov	r3, #9
 245 004c 9946     		mov	r9, r3
 246 004e B944     		add	r9, r9, r7
 247 0050 1030     		add	r0, r0, #16
 248 0052 4946     		mov	r1, r9
 249 0054 FFF7FEFF 		bl	memcmp
 250              	.LVL14:
 251 0058 0028     		cmp	r0, #0
 252 005a 00D0     		beq	.LCB203
 253 005c C2E0     		b	.L15	@long jump
 254              	.LCB203:
 255              		.loc 1 147 0
 256 005e 4346     		mov	r3, r8
 257 0060 1B6A     		ldr	r3, [r3, #32]
 258 0062 0133     		add	r3, r3, #1
 259 0064 DFD1     		bne	.L11
 260              	.LVL15:
 261              	.L35:
 262              		.loc 1 162 0
 263 0066 0223     		mov	r3, #2
 264 0068 2B60     		str	r3, [r5]
 265              		.loc 1 163 0
 266 006a DCE7     		b	.L11
 267              	.LVL16:
 268              	.L13:
 269              	.LBB20:
 270              	.LBB21:
 271              		.loc 1 94 0
 272 006c 7D48     		ldr	r0, .L41+16
 273 006e FFF7FEFF 		bl	tfp_printf
 274              	.LVL17:
 275              		.loc 1 95 0
 276 0072 4023     		mov	r3, #64
 277 0074 7C4A     		ldr	r2, .L41+20
 278 0076 9168     		ldr	r1, [r2, #8]
 279 0078 0B43     		orr	r3, r1
 280 007a 9360     		str	r3, [r2, #8]
 281              	.LVL18:
 282              		.loc 1 106 0
 283 007c B223     		mov	r3, #178
 284 007e DB01     		lsl	r3, r3, #7
 285 0080 7A4A     		ldr	r2, .L41+24
ARM GAS  /tmp/ccKnk30r.s 			page 6


 286 0082 9969     		ldr	r1, [r3, #24]
 287 0084 9142     		cmp	r1, r2
 288 0086 6CD0     		beq	.L37
 289              	.L24:
 290              	.LBE21:
 291              	.LBE20:
 292              		.loc 1 233 0
 293 0088 0423     		mov	r3, #4
 294              	.LBE41:
 295              		.loc 1 135 0
 296 008a 0024     		mov	r4, #0
 297              	.LBB42:
 298              		.loc 1 233 0
 299 008c 2B60     		str	r3, [r5]
 300              		.loc 1 234 0
 301 008e CAE7     		b	.L11
 302              	.LVL19:
 303              	.L12:
 304              		.loc 1 166 0
 305 0090 734E     		ldr	r6, .L41+12
 306              	.LBE42:
 307              		.loc 1 135 0
 308 0092 0024     		mov	r4, #0
 309              	.LBB43:
 310              		.loc 1 166 0
 311 0094 3368     		ldr	r3, [r6]
 312 0096 5A68     		ldr	r2, [r3, #4]
 313 0098 754B     		ldr	r3, .L41+28
 314 009a 9A42     		cmp	r2, r3
 315 009c 0BD0     		beq	.L16
 316              		.loc 1 168 0
 317 009e 7549     		ldr	r1, .L41+32
 318 00a0 7548     		ldr	r0, .L41+36
 319 00a2 890A     		lsr	r1, r1, #10
 320 00a4 800A     		lsr	r0, r0, #10
 321 00a6 0131     		add	r1, r1, #1
 322 00a8 091A     		sub	r1, r1, r0
 323 00aa 89B2     		uxth	r1, r1
 324 00ac FFF7FEFF 		bl	flashEraseSectors
 325              	.LVL20:
 326              		.loc 1 169 0
 327 00b0 0023     		mov	r3, #0
 328              		.loc 1 168 0
 329 00b2 041C     		mov	r4, r0
 330              	.LVL21:
 331              		.loc 1 169 0
 332 00b4 2B60     		str	r3, [r5]
 333              	.LVL22:
 334              	.L16:
 335              		.loc 1 172 0
 336 00b6 3B78     		ldrb	r3, [r7]
 337 00b8 7F2B     		cmp	r3, #127
 338 00ba B4D8     		bhi	.L11
 339              		.loc 1 178 0
 340 00bc 6A46     		mov	r2, sp
 341              		.loc 1 177 0
 342 00be B978     		ldrb	r1, [r7, #2]
ARM GAS  /tmp/ccKnk30r.s 			page 7


 343 00c0 7B78     		ldrb	r3, [r7, #1]
 344 00c2 0902     		lsl	r1, r1, #8
 345 00c4 0B43     		orr	r3, r1
 346              		.loc 1 178 0
 347 00c6 D380     		strh	r3, [r2, #6]
 348              		.loc 1 177 0
 349 00c8 9846     		mov	r8, r3
 350              	.LVL23:
 351              		.loc 1 178 0
 352 00ca D388     		ldrh	r3, [r2, #6]
 353              	.LVL24:
 354 00cc 191C     		mov	r1, r3
 355 00ce 9946     		mov	r9, r3
 356 00d0 3368     		ldr	r3, [r6]
 357 00d2 0831     		add	r1, r1, #8
 358 00d4 9C46     		mov	ip, r3
 359 00d6 8900     		lsl	r1, r1, #2
 360 00d8 6144     		add	r1, r1, ip
 361 00da 4B68     		ldr	r3, [r1, #4]
 362 00dc 0133     		add	r3, r3, #1
 363 00de 46D0     		beq	.L38
 364              		.loc 1 193 0
 365 00e0 6A46     		mov	r2, sp
 366 00e2 4346     		mov	r3, r8
 367 00e4 9371     		strb	r3, [r2, #6]
 368              	.LVL25:
 369 00e6 9179     		ldrb	r1, [r2, #6]
 370 00e8 6448     		ldr	r0, .L41+40
 371 00ea FFF7FEFF 		bl	tfp_printf
 372              	.LVL26:
 373              	.L18:
 374              		.loc 1 203 0
 375 00ee 3368     		ldr	r3, [r6]
 376 00f0 0120     		mov	r0, #1
 377 00f2 DA68     		ldr	r2, [r3, #12]
 378 00f4 9446     		mov	ip, r2
 379 00f6 6146     		mov	r1, ip
 380 00f8 1A1C     		mov	r2, r3
 381 00fa 4F1E     		sub	r7, r1, #1
 382              	.LVL27:
 383 00fc 3F0A     		lsr	r7, r7, #8
 384 00fe 0A37     		add	r7, r7, #10
 385 0100 BF00     		lsl	r7, r7, #2
 386 0102 2432     		add	r2, r2, #36
 387 0104 DF19     		add	r7, r3, r7
 388              	.LVL28:
 389              	.L21:
 390 0106 08CA     		ldmia	r2!, {r3}
 391 0108 0133     		add	r3, r3, #1
 392 010a 591E     		sub	r1, r3, #1
 393 010c 8B41     		sbc	r3, r3, r1
 394 010e 5B42     		neg	r3, r3
 395 0110 1840     		and	r0, r3
 396 0112 BA42     		cmp	r2, r7
 397 0114 F7D1     		bne	.L21
 398              		.loc 1 207 0
 399 0116 0028     		cmp	r0, #0
ARM GAS  /tmp/ccKnk30r.s 			page 8


 400 0118 00D1     		bne	.LCB354
 401 011a 84E7     		b	.L11	@long jump
 402              	.LCB354:
 403              		.loc 1 212 0
 404 011c 584C     		ldr	r4, .L41+44
 405              	.LVL29:
 406 011e 594A     		ldr	r2, .L41+48
 407 0120 201C     		mov	r0, r4
 408 0122 03AB     		add	r3, sp, #12
 409 0124 6146     		mov	r1, ip
 410 0126 FFF7FEFF 		bl	MurmurHash3_x86_32
 411              	.LVL30:
 412              		.loc 1 213 0
 413 012a 3068     		ldr	r0, [r6]
 414 012c 039A     		ldr	r2, [sp, #12]
 415 012e 8368     		ldr	r3, [r0, #8]
 416 0130 9342     		cmp	r3, r2
 417 0132 3CD0     		beq	.L39
 418              		.loc 1 221 0
 419 0134 5448     		ldr	r0, .L41+52
 420 0136 FFF7FEFF 		bl	tfp_printf
 421              	.LVL31:
 422              		.loc 1 222 0
 423 013a 3368     		ldr	r3, [r6]
 424 013c 5348     		ldr	r0, .L41+56
 425 013e 9968     		ldr	r1, [r3, #8]
 426 0140 039A     		ldr	r2, [sp, #12]
 427 0142 FFF7FEFF 		bl	tfp_printf
 428              	.LVL32:
 429              		.loc 1 226 0
 430 0146 4B49     		ldr	r1, .L41+32
 431 0148 601E     		sub	r0, r4, #1
 432 014a FF38     		sub	r0, r0, #255
 433 014c 890A     		lsr	r1, r1, #10
 434 014e 800A     		lsr	r0, r0, #10
 435 0150 0131     		add	r1, r1, #1
 436 0152 091A     		sub	r1, r1, r0
 437 0154 89B2     		uxth	r1, r1
 438 0156 FFF7FEFF 		bl	flashEraseSectors
 439              	.LVL33:
 440              		.loc 1 227 0
 441 015a 0023     		mov	r3, #0
 442              		.loc 1 226 0
 443 015c 041C     		mov	r4, r0
 444              	.LVL34:
 445              		.loc 1 227 0
 446 015e 2B60     		str	r3, [r5]
 447 0160 61E7     		b	.L11
 448              	.LVL35:
 449              	.L37:
 450              	.LBB25:
 451              	.LBB24:
 452              	.LBB22:
 453              	.LBB23:
 454              		.loc 1 106 0
 455 0162 DA69     		ldr	r2, [r3, #28]
 456 0164 8023     		mov	r3, #128
ARM GAS  /tmp/ccKnk30r.s 			page 9


 457 0166 5B00     		lsl	r3, r3, #1
 458 0168 9A42     		cmp	r2, r3
 459 016a 8DD1     		bne	.L24
 460 016c 6EE0     		b	.L25
 461              	.LVL36:
 462              	.L38:
 463              	.LBE23:
 464              	.LBE22:
 465              	.LBE24:
 466              	.LBE25:
 467              	.LBB26:
 468              		.loc 1 184 0
 469 016e 0023     		mov	r3, #0
 470              		.loc 1 186 0
 471 0170 0431     		add	r1, r1, #4
 472 0172 04A8     		add	r0, sp, #16
 473 0174 0422     		mov	r2, #4
 474              	.LVL37:
 475              		.loc 1 184 0
 476 0176 0493     		str	r3, [sp, #16]
 477              		.loc 1 186 0
 478 0178 FFF7FEFF 		bl	flashProgram
 479              	.LVL38:
 480              		.loc 1 187 0
 481 017c 4346     		mov	r3, r8
 482 017e 6946     		mov	r1, sp
 483 0180 8B71     		strb	r3, [r1, #6]
 484              	.LVL39:
 485              		.loc 1 186 0
 486 0182 021C     		mov	r2, r0
 487              	.LVL40:
 488              		.loc 1 187 0
 489 0184 8979     		ldrb	r1, [r1, #6]
 490 0186 4248     		ldr	r0, .L41+60
 491 0188 FFF7FEFF 		bl	tfp_printf
 492              	.LVL41:
 493              		.loc 1 190 0
 494 018c 4B46     		mov	r3, r9
 495 018e 8022     		mov	r2, #128
 496 0190 1B02     		lsl	r3, r3, #8
 497 0192 3949     		ldr	r1, .L41+36
 498 0194 0133     		add	r3, r3, #1
 499 0196 FF33     		add	r3, r3, #255
 500 0198 5918     		add	r1, r3, r1
 501 019a F81C     		add	r0, r7, #3
 502 019c 5200     		lsl	r2, r2, #1
 503 019e FFF7FEFF 		bl	flashProgram
 504              	.LVL42:
 505 01a2 041C     		mov	r4, r0
 506              	.LVL43:
 507              		.loc 1 191 0
 508 01a4 3B48     		ldr	r0, .L41+64
 509 01a6 211C     		mov	r1, r4
 510 01a8 FFF7FEFF 		bl	tfp_printf
 511              	.LVL44:
 512              	.LBE26:
 513 01ac 9FE7     		b	.L18
ARM GAS  /tmp/ccKnk30r.s 			page 10


 514              	.LVL45:
 515              	.L39:
 516              	.LBB27:
 517              		.loc 1 215 0
 518 01ae 0023     		mov	r3, #0
 519              		.loc 1 216 0
 520 01b0 04A9     		add	r1, sp, #16
 521 01b2 0422     		mov	r2, #4
 522 01b4 2030     		add	r0, r0, #32
 523              		.loc 1 215 0
 524 01b6 0493     		str	r3, [sp, #16]
 525              		.loc 1 216 0
 526 01b8 FFF7FEFF 		bl	flashProgram
 527              	.LVL46:
 528              		.loc 1 217 0
 529 01bc 0323     		mov	r3, #3
 530              		.loc 1 216 0
 531 01be 041C     		mov	r4, r0
 532              	.LVL47:
 533              	.LBB28:
 534              	.LBB29:
 535              		.loc 1 94 0
 536 01c0 2848     		ldr	r0, .L41+16
 537              	.LVL48:
 538              	.LBE29:
 539              	.LBE28:
 540              		.loc 1 217 0
 541 01c2 2B60     		str	r3, [r5]
 542              	.LBB34:
 543              	.LBB32:
 544              		.loc 1 94 0
 545 01c4 FFF7FEFF 		bl	tfp_printf
 546              	.LVL49:
 547              		.loc 1 95 0
 548 01c8 4023     		mov	r3, #64
 549 01ca 274A     		ldr	r2, .L41+20
 550 01cc 9168     		ldr	r1, [r2, #8]
 551 01ce 0B43     		orr	r3, r1
 552 01d0 9360     		str	r3, [r2, #8]
 553              	.LVL50:
 554              		.loc 1 106 0
 555 01d2 B223     		mov	r3, #178
 556 01d4 DB01     		lsl	r3, r3, #7
 557 01d6 254A     		ldr	r2, .L41+24
 558 01d8 9969     		ldr	r1, [r3, #24]
 559 01da 9142     		cmp	r1, r2
 560 01dc 31D0     		beq	.L40
 561              	.L23:
 562              	.LBE32:
 563              	.LBE34:
 564              		.loc 1 219 0
 565 01de 0423     		mov	r3, #4
 566 01e0 2B60     		str	r3, [r5]
 567              	.LBE27:
 568 01e2 20E7     		b	.L11
 569              	.LVL51:
 570              	.L15:
ARM GAS  /tmp/ccKnk30r.s 			page 11


 571              		.loc 1 158 0
 572 01e4 244B     		ldr	r3, .L41+36
 573 01e6 9846     		mov	r8, r3
 574 01e8 980A     		lsr	r0, r3, #10
 575 01ea 224B     		ldr	r3, .L41+32
 576 01ec 9B0A     		lsr	r3, r3, #10
 577 01ee 0133     		add	r3, r3, #1
 578 01f0 1B1A     		sub	r3, r3, r0
 579 01f2 99B2     		uxth	r1, r3
 580 01f4 FFF7FEFF 		bl	flashEraseSectors
 581              	.LVL52:
 582              	.LBB36:
 583              	.LBB37:
 584              		.loc 1 115 0
 585 01f8 1D4B     		ldr	r3, .L41+28
 586              		.loc 1 114 0
 587 01fa 0496     		str	r6, [sp, #16]
 588              		.loc 1 115 0
 589 01fc 0593     		str	r3, [sp, #20]
 590              		.loc 1 116 0
 591 01fe BB79     		ldrb	r3, [r7, #6]
 592 0200 4946     		mov	r1, r9
 593 0202 1A02     		lsl	r2, r3, #8
 594 0204 FB79     		ldrb	r3, [r7, #7]
 595              	.LBE37:
 596              	.LBE36:
 597              		.loc 1 158 0
 598 0206 041C     		mov	r4, r0
 599              	.LVL53:
 600              	.LBB39:
 601              	.LBB38:
 602              		.loc 1 116 0
 603 0208 1B04     		lsl	r3, r3, #16
 604 020a 1343     		orr	r3, r2
 605 020c 7A79     		ldrb	r2, [r7, #5]
 606 020e 08A8     		add	r0, sp, #32
 607              	.LVL54:
 608 0210 1A43     		orr	r2, r3
 609 0212 3B7A     		ldrb	r3, [r7, #8]
 610 0214 1B06     		lsl	r3, r3, #24
 611 0216 1343     		orr	r3, r2
 612 0218 0693     		str	r3, [sp, #24]
 613              		.loc 1 117 0
 614 021a BB78     		ldrb	r3, [r7, #2]
 615 021c 1A02     		lsl	r2, r3, #8
 616 021e FB78     		ldrb	r3, [r7, #3]
 617 0220 1B04     		lsl	r3, r3, #16
 618 0222 1343     		orr	r3, r2
 619 0224 7A78     		ldrb	r2, [r7, #1]
 620 0226 1A43     		orr	r2, r3
 621 0228 3B79     		ldrb	r3, [r7, #4]
 622 022a 1B06     		lsl	r3, r3, #24
 623 022c 1343     		orr	r3, r2
 624 022e 1022     		mov	r2, #16
 625 0230 0793     		str	r3, [sp, #28]
 626              	.LVL55:
 627 0232 FFF7FEFF 		bl	memcpy
ARM GAS  /tmp/ccKnk30r.s 			page 12


 628              	.LVL56:
 629              		.loc 1 123 0
 630 0236 04A8     		add	r0, sp, #16
 631 0238 4146     		mov	r1, r8
 632 023a 2022     		mov	r2, #32
 633 023c FFF7FEFF 		bl	flashProgram
 634              	.LVL57:
 635 0240 11E7     		b	.L35
 636              	.LVL58:
 637              	.L40:
 638              	.LBE38:
 639              	.LBE39:
 640              	.LBB40:
 641              	.LBB35:
 642              	.LBB33:
 643              	.LBB30:
 644              	.LBB31:
 645              		.loc 1 106 0
 646 0242 DA69     		ldr	r2, [r3, #28]
 647 0244 8023     		mov	r3, #128
 648 0246 5B00     		lsl	r3, r3, #1
 649 0248 9A42     		cmp	r2, r3
 650 024a C8D1     		bne	.L23
 651              	.LVL59:
 652              	.L25:
 653              		.loc 1 107 0
 654 024c B220     		mov	r0, #178
 655 024e C001     		lsl	r0, r0, #7
 656 0250 FFF7FEFF 		bl	Run_App
 657              	.LVL60:
 658              	.L42:
 659              		.align	2
 660              	.L41:
 661 0254 00000000 		.word	.LANCHOR0
 662 0258 24000000 		.word	.LC5
 663 025c 00000000 		.word	pktReady
 664 0260 00000000 		.word	.LANCHOR1
 665 0264 00000000 		.word	.LC0
 666 0268 40F00F40 		.word	1074786368
 667 026c 7AF6FBD3 		.word	-738462086
 668 0270 43686962 		.word	1651075139
 669 0274 00000000 		.word	__storage_end__
 670 0278 00000000 		.word	__storage_start__
 671 027c 40000000 		.word	.LC15
 672 0280 00010000 		.word	__storage_start__+256
 673 0284 BEBAD032 		.word	852540094
 674 0288 48000000 		.word	.LC19
 675 028c 80000000 		.word	.LC21
 676 0290 2C000000 		.word	.LC11
 677 0294 38000000 		.word	.LC13
 678              	.LBE31:
 679              	.LBE30:
 680              	.LBE33:
 681              	.LBE35:
 682              	.LBE40:
 683              	.LBE43:
 684              		.cfi_endproc
ARM GAS  /tmp/ccKnk30r.s 			page 13


 685              	.LFE106:
 686              		.size	updaterPacketProcess, .-updaterPacketProcess
 687              		.global	storageHdr
 688              		.section	.data.storageHdr,"aw",%progbits
 689              		.align	2
 690              	.LANCHOR1 = . + 0
 691              		.type	storageHdr, %object
 692              		.size	storageHdr, 4
 693              	storageHdr:
 694 0000 00000000 		.word	__storage_start__
 695              		.section	.rodata.str1.4,"aMS",%progbits,1
 696              		.align	2
 697              	.LC0:
 698 0000 0A0D2052 		.ascii	"\012\015 Reached boot to user app!!!\012\015\000"
 698      65616368 
 698      65642062 
 698      6F6F7420 
 698      746F2075 
 699 0021 000000   		.space	3
 700              	.LC5:
 701 0024 53256420 		.ascii	"S%d \000"
 701      00
 702 0029 000000   		.space	3
 703              	.LC11:
 704 002c 0A0D2050 		.ascii	"\012\015 P%d b%d\000"
 704      25642062 
 704      256400
 705 0037 00       		.space	1
 706              	.LC13:
 707 0038 20642564 		.ascii	" d%d\000"
 707      00
 708 003d 000000   		.space	3
 709              	.LC15:
 710 0040 205F2564 		.ascii	" _%d\000"
 710      00
 711 0045 000000   		.space	3
 712              	.LC19:
 713 0048 0A0D2054 		.ascii	"\012\015 Transfer complete but corrupted. Erase & r"
 713      72616E73 
 713      66657220 
 713      636F6D70 
 713      6C657465 
 714 0075 65747279 		.ascii	"etry.\012\015\000"
 714      2E0A0D00 
 715 007d 000000   		.space	3
 716              	.LC21:
 717 0080 0A0D2053 		.ascii	"\012\015 Source hash: %08x local hash: %08x\012\015"
 717      6F757263 
 717      65206861 
 717      73683A20 
 717      25303878 
 718 00a7 00       		.ascii	"\000"
 719              		.section	.bss.astate,"aw",%nobits
 720              		.align	2
 721              	.LANCHOR0 = . + 0
 722              		.type	astate, %object
 723              		.size	astate, 4
ARM GAS  /tmp/ccKnk30r.s 			page 14


 724              	astate:
 725 0000 00000000 		.space	4
 726              		.text
 727              	.Letext0:
 728              		.file 2 "/usr/lib/gcc/arm-linux-gnueabihf/4.9/include/stddef.h"
 729              		.file 3 "/usr/include/stdint.h"
 730              		.file 4 "../os/nil/include/nil.h"
 731              		.file 5 "../os/nil/ports/ARMCMx/compilers/GCC/niltypes.h"
 732              		.file 6 "../os/ext/CMSIS/KINETIS/kl02x.h"
 733              		.file 7 "../os/nil/ports/ARMCMx/nilcore.h"
 734              		.file 8 "../os/nil/ports/ARMCMx/nilcore_v6m.h"
 735              		.file 9 "mac.h"
 736              		.file 10 "updater.h"
 737              		.file 11 "app.h"
 738              		.file 12 "../os/hal/boards/CHIBITRONICS_ESPLANADE/board.h"
 739              		.file 13 "printf.h"
 740              		.file 14 "flash.h"
 741              		.file 15 "/usr/include/string.h"
 742              		.file 16 "murmur3.h"
 3557              		.section	.note.GNU-stack,"",%progbits
ARM GAS  /tmp/ccKnk30r.s 			page 68


ARM GAS  /tmp/ccKnk30r.s 			page 69

