ARM GAS  /tmp/ccKnk30r.s 			page 1


   1              		.cpu cortex-m0
   2              		.fpu softvfp
   3              		.eabi_attribute 20, 1
   4              		.eabi_attribute 21, 1
   5              		.eabi_attribute 23, 3
   6              		.eabi_attribute 24, 1
   7              		.eabi_attribute 25, 1
   8              		.eabi_attribute 26, 2
   9              		.eabi_attribute 30, 2
  10              		.eabi_attribute 34, 0
  11              		.eabi_attribute 18, 4
  12              		.code	16
  13              		.file	"updater.c"
  14              		.text
  15              	.Ltext0:
  16              		.cfi_sections	.debug_frame
  17              		.section	.text.bootToUserApp,"ax",%progbits
  18              		.align	2
  19              		.p2align 4,,15
  20              		.global	bootToUserApp
  21              		.code	16
  22              		.thumb_func
  23              		.type	bootToUserApp, %function
  24              	bootToUserApp:
  25              	.LFB104:
  26              		.file 1 "updater.c"
  27              		.loc 1 93 0
  28              		.cfi_startproc
  29 0000 08B5     		push	{r3, lr}
  30              		.cfi_def_cfa_offset 8
  31              		.cfi_offset 3, -8
  32              		.cfi_offset 14, -4
  33              		.loc 1 94 0
  34 0002 0B48     		ldr	r0, .L5
  35 0004 FFF7FEFF 		bl	tfp_printf
  36              	.LVL0:
  37              		.loc 1 95 0
  38 0008 4023     		mov	r3, #64
  39              		.loc 1 106 0
  40 000a B220     		mov	r0, #178
  41              		.loc 1 95 0
  42 000c 094A     		ldr	r2, .L5+4
  43              		.loc 1 106 0
  44 000e C001     		lsl	r0, r0, #7
  45              		.loc 1 95 0
  46 0010 9168     		ldr	r1, [r2, #8]
  47 0012 0B43     		orr	r3, r1
  48 0014 9360     		str	r3, [r2, #8]
  49              	.LVL1:
  50              		.loc 1 106 0
  51 0016 8269     		ldr	r2, [r0, #24]
  52 0018 074B     		ldr	r3, .L5+8
  53 001a 9A42     		cmp	r2, r3
  54 001c 00D0     		beq	.L4
  55              	.L1:
  56              		.loc 1 108 0
  57              		@ sp needed
ARM GAS  /tmp/ccKnk30r.s 			page 2


  58 001e 08BD     		pop	{r3, pc}
  59              	.L4:
  60              	.LBB4:
  61              	.LBB5:
  62              		.loc 1 106 0
  63 0020 8023     		mov	r3, #128
  64 0022 C269     		ldr	r2, [r0, #28]
  65 0024 5B00     		lsl	r3, r3, #1
  66 0026 9A42     		cmp	r2, r3
  67 0028 F9D1     		bne	.L1
  68              		.loc 1 107 0
  69 002a FFF7FEFF 		bl	Run_App
  70              	.LVL2:
  71              	.L6:
  72 002e C046     		.align	2
  73              	.L5:
  74 0030 00000000 		.word	.LC0
  75 0034 40F00F40 		.word	1074786368
  76 0038 7AF6FBD3 		.word	-738462086
  77              	.LBE5:
  78              	.LBE4:
  79              		.cfi_endproc
  80              	.LFE104:
  81              		.size	bootToUserApp, .-bootToUserApp
  82 003c C046C046 		.section	.text.init_storage_header,"ax",%progbits
  83              		.align	2
  84              		.p2align 4,,15
  85              		.global	init_storage_header
  86              		.code	16
  87              		.thumb_func
  88              		.type	init_storage_header, %function
  89              	init_storage_header:
  90              	.LFB105:
  91              		.loc 1 110 0
  92              		.cfi_startproc
  93              	.LVL3:
  94              		.loc 1 114 0
  95 0000 0023     		mov	r3, #0
  96              		.loc 1 119 0
  97 0002 011C     		mov	r1, r0
  98              		.loc 1 110 0
  99 0004 00B5     		push	{lr}
 100              		.cfi_def_cfa_offset 4
 101              		.cfi_offset 14, -4
 102 0006 89B0     		sub	sp, sp, #36
 103              		.cfi_def_cfa_offset 40
 104              		.loc 1 114 0
 105 0008 0093     		str	r3, [sp]
 106              		.loc 1 115 0
 107 000a 124B     		ldr	r3, .L8
 108              		.loc 1 119 0
 109 000c 0931     		add	r1, r1, #9
 110              		.loc 1 115 0
 111 000e 0193     		str	r3, [sp, #4]
 112              		.loc 1 116 0
 113 0010 8379     		ldrb	r3, [r0, #6]
 114 0012 1A02     		lsl	r2, r3, #8
ARM GAS  /tmp/ccKnk30r.s 			page 3


 115 0014 C379     		ldrb	r3, [r0, #7]
 116 0016 1B04     		lsl	r3, r3, #16
 117 0018 1343     		orr	r3, r2
 118 001a 4279     		ldrb	r2, [r0, #5]
 119 001c 1343     		orr	r3, r2
 120 001e 027A     		ldrb	r2, [r0, #8]
 121 0020 1206     		lsl	r2, r2, #24
 122 0022 1343     		orr	r3, r2
 123 0024 0293     		str	r3, [sp, #8]
 124              		.loc 1 117 0
 125 0026 8378     		ldrb	r3, [r0, #2]
 126 0028 1A02     		lsl	r2, r3, #8
 127 002a C378     		ldrb	r3, [r0, #3]
 128 002c 1B04     		lsl	r3, r3, #16
 129 002e 1343     		orr	r3, r2
 130 0030 4278     		ldrb	r2, [r0, #1]
 131 0032 1343     		orr	r3, r2
 132 0034 0279     		ldrb	r2, [r0, #4]
 133 0036 04A8     		add	r0, sp, #16
 134              	.LVL4:
 135 0038 1206     		lsl	r2, r2, #24
 136 003a 1343     		orr	r3, r2
 137 003c 1022     		mov	r2, #16
 138 003e 0393     		str	r3, [sp, #12]
 139              	.LVL5:
 140 0040 FFF7FEFF 		bl	memcpy
 141              	.LVL6:
 142              		.loc 1 123 0
 143 0044 6846     		mov	r0, sp
 144 0046 0449     		ldr	r1, .L8+4
 145 0048 2022     		mov	r2, #32
 146 004a FFF7FEFF 		bl	flashProgram
 147              	.LVL7:
 148              		.loc 1 124 0
 149 004e 09B0     		add	sp, sp, #36
 150              		@ sp needed
 151 0050 00BD     		pop	{pc}
 152              	.L9:
 153 0052 C046     		.align	2
 154              	.L8:
 155 0054 43686962 		.word	1651075139
 156 0058 00000000 		.word	__storage_start__
 157              		.cfi_endproc
 158              	.LFE105:
 159              		.size	init_storage_header, .-init_storage_header
 160 005c C046C046 		.section	.text.updaterPacketProcess,"ax",%progbits
 161              		.align	2
 162              		.p2align 4,,15
 163              		.global	updaterPacketProcess
 164              		.code	16
 165              		.thumb_func
 166              		.type	updaterPacketProcess, %function
 167              	updaterPacketProcess:
 168              	.LFB106:
 169              		.loc 1 131 0
 170              		.cfi_startproc
 171              	.LVL8:
ARM GAS  /tmp/ccKnk30r.s 			page 4


 172 0000 F0B5     		push	{r4, r5, r6, r7, lr}
 173              		.cfi_def_cfa_offset 20
 174              		.cfi_offset 4, -20
 175              		.cfi_offset 5, -16
 176              		.cfi_offset 6, -12
 177              		.cfi_offset 7, -8
 178              		.cfi_offset 14, -4
 179 0002 4F46     		mov	r7, r9
 180 0004 4646     		mov	r6, r8
 181 0006 C0B4     		push	{r6, r7}
 182              		.cfi_def_cfa_offset 28
 183              		.cfi_offset 8, -28
 184              		.cfi_offset 9, -24
 185              		.loc 1 137 0
 186 0008 924D     		ldr	r5, .L41
 187              		.loc 1 131 0
 188 000a 8DB0     		sub	sp, sp, #52
 189              		.cfi_def_cfa_offset 80
 190              		.loc 1 131 0
 191 000c 071C     		mov	r7, r0
 192 000e 2978     		ldrb	r1, [r5]
 193              		.loc 1 137 0
 194 0010 9148     		ldr	r0, .L41+4
 195              	.LVL9:
 196 0012 FFF7FEFF 		bl	tfp_printf
 197              	.LVL10:
 198              		.loc 1 138 0
 199 0016 2E68     		ldr	r6, [r5]
 200 0018 022E     		cmp	r6, #2
 201 001a 39D0     		beq	.L12
 202 001c 032E     		cmp	r6, #3
 203 001e 25D0     		beq	.L13
 204              		.loc 1 135 0
 205 0020 0024     		mov	r4, #0
 206              		.loc 1 138 0
 207 0022 002E     		cmp	r6, #0
 208 0024 08D0     		beq	.L36
 209              	.LVL11:
 210              	.L11:
 211              		.loc 1 240 0 discriminator 2
 212 0026 0022     		mov	r2, #0
 213 0028 8C4B     		ldr	r3, .L41+8
 214              		.loc 1 242 0 discriminator 2
 215 002a 60B2     		sxtb	r0, r4
 216              		.loc 1 240 0 discriminator 2
 217 002c 1A70     		strb	r2, [r3]
 218              		.loc 1 243 0 discriminator 2
 219 002e 0DB0     		add	sp, sp, #52
 220              		@ sp needed
 221              	.LVL12:
 222 0030 0CBC     		pop	{r2, r3}
 223 0032 9046     		mov	r8, r2
 224 0034 9946     		mov	r9, r3
 225 0036 F0BD     		pop	{r4, r5, r6, r7, pc}
 226              	.LVL13:
 227              	.L36:
 228              	.LBB19:
ARM GAS  /tmp/ccKnk30r.s 			page 5


 229              		.loc 1 142 0
 230 0038 3B78     		ldrb	r3, [r7]
 231              	.LBE19:
 232              		.loc 1 135 0
 233 003a 0024     		mov	r4, #0
 234              	.LBB41:
 235              		.loc 1 142 0
 236 003c 7F2B     		cmp	r3, #127
 237 003e F2D9     		bls	.L11
 238              		.loc 1 146 0
 239 0040 874B     		ldr	r3, .L41+12
 240 0042 1022     		mov	r2, #16
 241 0044 1B68     		ldr	r3, [r3]
 242 0046 181C     		mov	r0, r3
 243 0048 9846     		mov	r8, r3
 244 004a 0923     		mov	r3, #9
 245 004c 9946     		mov	r9, r3
 246 004e B944     		add	r9, r9, r7
 247 0050 1030     		add	r0, r0, #16
 248 0052 4946     		mov	r1, r9
 249 0054 FFF7FEFF 		bl	memcmp
 250              	.LVL14:
 251 0058 0028     		cmp	r0, #0
 252 005a 00D0     		beq	.LCB203
 253 005c C2E0     		b	.L15	@long jump
 254              	.LCB203:
 255              		.loc 1 147 0
 256 005e 4346     		mov	r3, r8
 257 0060 1B6A     		ldr	r3, [r3, #32]
 258 0062 0133     		add	r3, r3, #1
 259 0064 DFD1     		bne	.L11
 260              	.LVL15:
 261              	.L35:
 262              		.loc 1 162 0
 263 0066 0223     		mov	r3, #2
 264 0068 2B60     		str	r3, [r5]
 265              		.loc 1 163 0
 266 006a DCE7     		b	.L11
 267              	.LVL16:
 268              	.L13:
 269              	.LBB20:
 270              	.LBB21:
 271              		.loc 1 94 0
 272 006c 7D48     		ldr	r0, .L41+16
 273 006e FFF7FEFF 		bl	tfp_printf
 274              	.LVL17:
 275              		.loc 1 95 0
 276 0072 4023     		mov	r3, #64
 277 0074 7C4A     		ldr	r2, .L41+20
 278 0076 9168     		ldr	r1, [r2, #8]
 279 0078 0B43     		orr	r3, r1
 280 007a 9360     		str	r3, [r2, #8]
 281              	.LVL18:
 282              		.loc 1 106 0
 283 007c B223     		mov	r3, #178
 284 007e DB01     		lsl	r3, r3, #7
 285 0080 7A4A     		ldr	r2, .L41+24
ARM GAS  /tmp/ccKnk30r.s 			page 6


 286 0082 9969     		ldr	r1, [r3, #24]
 287 0084 9142     		cmp	r1, r2
 288 0086 6CD0     		beq	.L37
 289              	.L24:
 290              	.LBE21:
 291              	.LBE20:
 292              		.loc 1 233 0
 293 0088 0423     		mov	r3, #4
 294              	.LBE41:
 295              		.loc 1 135 0
 296 008a 0024     		mov	r4, #0
 297              	.LBB42:
 298              		.loc 1 233 0
 299 008c 2B60     		str	r3, [r5]
 300              		.loc 1 234 0
 301 008e CAE7     		b	.L11
 302              	.LVL19:
 303              	.L12:
 304              		.loc 1 166 0
 305 0090 734E     		ldr	r6, .L41+12
 306              	.LBE42:
 307              		.loc 1 135 0
 308 0092 0024     		mov	r4, #0
 309              	.LBB43:
 310              		.loc 1 166 0
 311 0094 3368     		ldr	r3, [r6]
 312 0096 5A68     		ldr	r2, [r3, #4]
 313 0098 754B     		ldr	r3, .L41+28
 314 009a 9A42     		cmp	r2, r3
 315 009c 0BD0     		beq	.L16
 316              		.loc 1 168 0
 317 009e 7549     		ldr	r1, .L41+32
 318 00a0 7548     		ldr	r0, .L41+36
 319 00a2 890A     		lsr	r1, r1, #10
 320 00a4 800A     		lsr	r0, r0, #10
 321 00a6 0131     		add	r1, r1, #1
 322 00a8 091A     		sub	r1, r1, r0
 323 00aa 89B2     		uxth	r1, r1
 324 00ac FFF7FEFF 		bl	flashEraseSectors
 325              	.LVL20:
 326              		.loc 1 169 0
 327 00b0 0023     		mov	r3, #0
 328              		.loc 1 168 0
 329 00b2 041C     		mov	r4, r0
 330              	.LVL21:
 331              		.loc 1 169 0
 332 00b4 2B60     		str	r3, [r5]
 333              	.LVL22:
 334              	.L16:
 335              		.loc 1 172 0
 336 00b6 3B78     		ldrb	r3, [r7]
 337 00b8 7F2B     		cmp	r3, #127
 338 00ba B4D8     		bhi	.L11
 339              		.loc 1 178 0
 340 00bc 6A46     		mov	r2, sp
 341              		.loc 1 177 0
 342 00be B978     		ldrb	r1, [r7, #2]
ARM GAS  /tmp/ccKnk30r.s 			page 7


 343 00c0 7B78     		ldrb	r3, [r7, #1]
 344 00c2 0902     		lsl	r1, r1, #8
 345 00c4 0B43     		orr	r3, r1
 346              		.loc 1 178 0
 347 00c6 D380     		strh	r3, [r2, #6]
 348              		.loc 1 177 0
 349 00c8 9846     		mov	r8, r3
 350              	.LVL23:
 351              		.loc 1 178 0
 352 00ca D388     		ldrh	r3, [r2, #6]
 353              	.LVL24:
 354 00cc 191C     		mov	r1, r3
 355 00ce 9946     		mov	r9, r3
 356 00d0 3368     		ldr	r3, [r6]
 357 00d2 0831     		add	r1, r1, #8
 358 00d4 9C46     		mov	ip, r3
 359 00d6 8900     		lsl	r1, r1, #2
 360 00d8 6144     		add	r1, r1, ip
 361 00da 4B68     		ldr	r3, [r1, #4]
 362 00dc 0133     		add	r3, r3, #1
 363 00de 46D0     		beq	.L38
 364              		.loc 1 193 0
 365 00e0 6A46     		mov	r2, sp
 366 00e2 4346     		mov	r3, r8
 367 00e4 9371     		strb	r3, [r2, #6]
 368              	.LVL25:
 369 00e6 9179     		ldrb	r1, [r2, #6]
 370 00e8 6448     		ldr	r0, .L41+40
 371 00ea FFF7FEFF 		bl	tfp_printf
 372              	.LVL26:
 373              	.L18:
 374              		.loc 1 203 0
 375 00ee 3368     		ldr	r3, [r6]
 376 00f0 0120     		mov	r0, #1
 377 00f2 DA68     		ldr	r2, [r3, #12]
 378 00f4 9446     		mov	ip, r2
 379 00f6 6146     		mov	r1, ip
 380 00f8 1A1C     		mov	r2, r3
 381 00fa 4F1E     		sub	r7, r1, #1
 382              	.LVL27:
 383 00fc 3F0A     		lsr	r7, r7, #8
 384 00fe 0A37     		add	r7, r7, #10
 385 0100 BF00     		lsl	r7, r7, #2
 386 0102 2432     		add	r2, r2, #36
 387 0104 DF19     		add	r7, r3, r7
 388              	.LVL28:
 389              	.L21:
 390 0106 08CA     		ldmia	r2!, {r3}
 391 0108 0133     		add	r3, r3, #1
 392 010a 591E     		sub	r1, r3, #1
 393 010c 8B41     		sbc	r3, r3, r1
 394 010e 5B42     		neg	r3, r3
 395 0110 1840     		and	r0, r3
 396 0112 BA42     		cmp	r2, r7
 397 0114 F7D1     		bne	.L21
 398              		.loc 1 207 0
 399 0116 0028     		cmp	r0, #0
ARM GAS  /tmp/ccKnk30r.s 			page 8


 400 0118 00D1     		bne	.LCB354
 401 011a 84E7     		b	.L11	@long jump
 402              	.LCB354:
 403              		.loc 1 212 0
 404 011c 584C     		ldr	r4, .L41+44
 405              	.LVL29:
 406 011e 594A     		ldr	r2, .L41+48
 407 0120 201C     		mov	r0, r4
 408 0122 03AB     		add	r3, sp, #12
 409 0124 6146     		mov	r1, ip
 410 0126 FFF7FEFF 		bl	MurmurHash3_x86_32
 411              	.LVL30:
 412              		.loc 1 213 0
 413 012a 3068     		ldr	r0, [r6]
 414 012c 039A     		ldr	r2, [sp, #12]
 415 012e 8368     		ldr	r3, [r0, #8]
 416 0130 9342     		cmp	r3, r2
 417 0132 3CD0     		beq	.L39
 418              		.loc 1 221 0
 419 0134 5448     		ldr	r0, .L41+52
 420 0136 FFF7FEFF 		bl	tfp_printf
 421              	.LVL31:
 422              		.loc 1 222 0
 423 013a 3368     		ldr	r3, [r6]
 424 013c 5348     		ldr	r0, .L41+56
 425 013e 9968     		ldr	r1, [r3, #8]
 426 0140 039A     		ldr	r2, [sp, #12]
 427 0142 FFF7FEFF 		bl	tfp_printf
 428              	.LVL32:
 429              		.loc 1 226 0
 430 0146 4B49     		ldr	r1, .L41+32
 431 0148 601E     		sub	r0, r4, #1
 432 014a FF38     		sub	r0, r0, #255
 433 014c 890A     		lsr	r1, r1, #10
 434 014e 800A     		lsr	r0, r0, #10
 435 0150 0131     		add	r1, r1, #1
 436 0152 091A     		sub	r1, r1, r0
 437 0154 89B2     		uxth	r1, r1
 438 0156 FFF7FEFF 		bl	flashEraseSectors
 439              	.LVL33:
 440              		.loc 1 227 0
 441 015a 0023     		mov	r3, #0
 442              		.loc 1 226 0
 443 015c 041C     		mov	r4, r0
 444              	.LVL34:
 445              		.loc 1 227 0
 446 015e 2B60     		str	r3, [r5]
 447 0160 61E7     		b	.L11
 448              	.LVL35:
 449              	.L37:
 450              	.LBB25:
 451              	.LBB24:
 452              	.LBB22:
 453              	.LBB23:
 454              		.loc 1 106 0
 455 0162 DA69     		ldr	r2, [r3, #28]
 456 0164 8023     		mov	r3, #128
ARM GAS  /tmp/ccKnk30r.s 			page 9


 457 0166 5B00     		lsl	r3, r3, #1
 458 0168 9A42     		cmp	r2, r3
 459 016a 8DD1     		bne	.L24
 460 016c 6EE0     		b	.L25
 461              	.LVL36:
 462              	.L38:
 463              	.LBE23:
 464              	.LBE22:
 465              	.LBE24:
 466              	.LBE25:
 467              	.LBB26:
 468              		.loc 1 184 0
 469 016e 0023     		mov	r3, #0
 470              		.loc 1 186 0
 471 0170 0431     		add	r1, r1, #4
 472 0172 04A8     		add	r0, sp, #16
 473 0174 0422     		mov	r2, #4
 474              	.LVL37:
 475              		.loc 1 184 0
 476 0176 0493     		str	r3, [sp, #16]
 477              		.loc 1 186 0
 478 0178 FFF7FEFF 		bl	flashProgram
 479              	.LVL38:
 480              		.loc 1 187 0
 481 017c 4346     		mov	r3, r8
 482 017e 6946     		mov	r1, sp
 483 0180 8B71     		strb	r3, [r1, #6]
 484              	.LVL39:
 485              		.loc 1 186 0
 486 0182 021C     		mov	r2, r0
 487              	.LVL40:
 488              		.loc 1 187 0
 489 0184 8979     		ldrb	r1, [r1, #6]
 490 0186 4248     		ldr	r0, .L41+60
 491 0188 FFF7FEFF 		bl	tfp_printf
 492              	.LVL41:
 493              		.loc 1 190 0
 494 018c 4B46     		mov	r3, r9
 495 018e 8022     		mov	r2, #128
 496 0190 1B02     		lsl	r3, r3, #8
 497 0192 3949     		ldr	r1, .L41+36
 498 0194 0133     		add	r3, r3, #1
 499 0196 FF33     		add	r3, r3, #255
 500 0198 5918     		add	r1, r3, r1
 501 019a F81C     		add	r0, r7, #3
 502 019c 5200     		lsl	r2, r2, #1
 503 019e FFF7FEFF 		bl	flashProgram
 504              	.LVL42:
 505 01a2 041C     		mov	r4, r0
 506              	.LVL43:
 507              		.loc 1 191 0
 508 01a4 3B48     		ldr	r0, .L41+64
 509 01a6 211C     		mov	r1, r4
 510 01a8 FFF7FEFF 		bl	tfp_printf
 511              	.LVL44:
 512              	.LBE26:
 513 01ac 9FE7     		b	.L18
ARM GAS  /tmp/ccKnk30r.s 			page 10


 514              	.LVL45:
 515              	.L39:
 516              	.LBB27:
 517              		.loc 1 215 0
 518 01ae 0023     		mov	r3, #0
 519              		.loc 1 216 0
 520 01b0 04A9     		add	r1, sp, #16
 521 01b2 0422     		mov	r2, #4
 522 01b4 2030     		add	r0, r0, #32
 523              		.loc 1 215 0
 524 01b6 0493     		str	r3, [sp, #16]
 525              		.loc 1 216 0
 526 01b8 FFF7FEFF 		bl	flashProgram
 527              	.LVL46:
 528              		.loc 1 217 0
 529 01bc 0323     		mov	r3, #3
 530              		.loc 1 216 0
 531 01be 041C     		mov	r4, r0
 532              	.LVL47:
 533              	.LBB28:
 534              	.LBB29:
 535              		.loc 1 94 0
 536 01c0 2848     		ldr	r0, .L41+16
 537              	.LVL48:
 538              	.LBE29:
 539              	.LBE28:
 540              		.loc 1 217 0
 541 01c2 2B60     		str	r3, [r5]
 542              	.LBB34:
 543              	.LBB32:
 544              		.loc 1 94 0
 545 01c4 FFF7FEFF 		bl	tfp_printf
 546              	.LVL49:
 547              		.loc 1 95 0
 548 01c8 4023     		mov	r3, #64
 549 01ca 274A     		ldr	r2, .L41+20
 550 01cc 9168     		ldr	r1, [r2, #8]
 551 01ce 0B43     		orr	r3, r1
 552 01d0 9360     		str	r3, [r2, #8]
 553              	.LVL50:
 554              		.loc 1 106 0
 555 01d2 B223     		mov	r3, #178
 556 01d4 DB01     		lsl	r3, r3, #7
 557 01d6 254A     		ldr	r2, .L41+24
 558 01d8 9969     		ldr	r1, [r3, #24]
 559 01da 9142     		cmp	r1, r2
 560 01dc 31D0     		beq	.L40
 561              	.L23:
 562              	.LBE32:
 563              	.LBE34:
 564              		.loc 1 219 0
 565 01de 0423     		mov	r3, #4
 566 01e0 2B60     		str	r3, [r5]
 567              	.LBE27:
 568 01e2 20E7     		b	.L11
 569              	.LVL51:
 570              	.L15:
ARM GAS  /tmp/ccKnk30r.s 			page 11


 571              		.loc 1 158 0
 572 01e4 244B     		ldr	r3, .L41+36
 573 01e6 9846     		mov	r8, r3
 574 01e8 980A     		lsr	r0, r3, #10
 575 01ea 224B     		ldr	r3, .L41+32
 576 01ec 9B0A     		lsr	r3, r3, #10
 577 01ee 0133     		add	r3, r3, #1
 578 01f0 1B1A     		sub	r3, r3, r0
 579 01f2 99B2     		uxth	r1, r3
 580 01f4 FFF7FEFF 		bl	flashEraseSectors
 581              	.LVL52:
 582              	.LBB36:
 583              	.LBB37:
 584              		.loc 1 115 0
 585 01f8 1D4B     		ldr	r3, .L41+28
 586              		.loc 1 114 0
 587 01fa 0496     		str	r6, [sp, #16]
 588              		.loc 1 115 0
 589 01fc 0593     		str	r3, [sp, #20]
 590              		.loc 1 116 0
 591 01fe BB79     		ldrb	r3, [r7, #6]
 592 0200 4946     		mov	r1, r9
 593 0202 1A02     		lsl	r2, r3, #8
 594 0204 FB79     		ldrb	r3, [r7, #7]
 595              	.LBE37:
 596              	.LBE36:
 597              		.loc 1 158 0
 598 0206 041C     		mov	r4, r0
 599              	.LVL53:
 600              	.LBB39:
 601              	.LBB38:
 602              		.loc 1 116 0
 603 0208 1B04     		lsl	r3, r3, #16
 604 020a 1343     		orr	r3, r2
 605 020c 7A79     		ldrb	r2, [r7, #5]
 606 020e 08A8     		add	r0, sp, #32
 607              	.LVL54:
 608 0210 1A43     		orr	r2, r3
 609 0212 3B7A     		ldrb	r3, [r7, #8]
 610 0214 1B06     		lsl	r3, r3, #24
 611 0216 1343     		orr	r3, r2
 612 0218 0693     		str	r3, [sp, #24]
 613              		.loc 1 117 0
 614 021a BB78     		ldrb	r3, [r7, #2]
 615 021c 1A02     		lsl	r2, r3, #8
 616 021e FB78     		ldrb	r3, [r7, #3]
 617 0220 1B04     		lsl	r3, r3, #16
 618 0222 1343     		orr	r3, r2
 619 0224 7A78     		ldrb	r2, [r7, #1]
 620 0226 1A43     		orr	r2, r3
 621 0228 3B79     		ldrb	r3, [r7, #4]
 622 022a 1B06     		lsl	r3, r3, #24
 623 022c 1343     		orr	r3, r2
 624 022e 1022     		mov	r2, #16
 625 0230 0793     		str	r3, [sp, #28]
 626              	.LVL55:
 627 0232 FFF7FEFF 		bl	memcpy
ARM GAS  /tmp/ccKnk30r.s 			page 12


 628              	.LVL56:
 629              		.loc 1 123 0
 630 0236 04A8     		add	r0, sp, #16
 631 0238 4146     		mov	r1, r8
 632 023a 2022     		mov	r2, #32
 633 023c FFF7FEFF 		bl	flashProgram
 634              	.LVL57:
 635 0240 11E7     		b	.L35
 636              	.LVL58:
 637              	.L40:
 638              	.LBE38:
 639              	.LBE39:
 640              	.LBB40:
 641              	.LBB35:
 642              	.LBB33:
 643              	.LBB30:
 644              	.LBB31:
 645              		.loc 1 106 0
 646 0242 DA69     		ldr	r2, [r3, #28]
 647 0244 8023     		mov	r3, #128
 648 0246 5B00     		lsl	r3, r3, #1
 649 0248 9A42     		cmp	r2, r3
 650 024a C8D1     		bne	.L23
 651              	.LVL59:
 652              	.L25:
 653              		.loc 1 107 0
 654 024c B220     		mov	r0, #178
 655 024e C001     		lsl	r0, r0, #7
 656 0250 FFF7FEFF 		bl	Run_App
 657              	.LVL60:
 658              	.L42:
 659              		.align	2
 660              	.L41:
 661 0254 00000000 		.word	.LANCHOR0
 662 0258 24000000 		.word	.LC5
 663 025c 00000000 		.word	pktReady
 664 0260 00000000 		.word	.LANCHOR1
 665 0264 00000000 		.word	.LC0
 666 0268 40F00F40 		.word	1074786368
 667 026c 7AF6FBD3 		.word	-738462086
 668 0270 43686962 		.word	1651075139
 669 0274 00000000 		.word	__storage_end__
 670 0278 00000000 		.word	__storage_start__
 671 027c 40000000 		.word	.LC15
 672 0280 00010000 		.word	__storage_start__+256
 673 0284 BEBAD032 		.word	852540094
 674 0288 48000000 		.word	.LC19
 675 028c 80000000 		.word	.LC21
 676 0290 2C000000 		.word	.LC11
 677 0294 38000000 		.word	.LC13
 678              	.LBE31:
 679              	.LBE30:
 680              	.LBE33:
 681              	.LBE35:
 682              	.LBE40:
 683              	.LBE43:
 684              		.cfi_endproc
ARM GAS  /tmp/ccKnk30r.s 			page 13


 685              	.LFE106:
 686              		.size	updaterPacketProcess, .-updaterPacketProcess
 687              		.global	storageHdr
 688              		.section	.data.storageHdr,"aw",%progbits
 689              		.align	2
 690              	.LANCHOR1 = . + 0
 691              		.type	storageHdr, %object
 692              		.size	storageHdr, 4
 693              	storageHdr:
 694 0000 00000000 		.word	__storage_start__
 695              		.section	.rodata.str1.4,"aMS",%progbits,1
 696              		.align	2
 697              	.LC0:
 698 0000 0A0D2052 		.ascii	"\012\015 Reached boot to user app!!!\012\015\000"
 698      65616368 
 698      65642062 
 698      6F6F7420 
 698      746F2075 
 699 0021 000000   		.space	3
 700              	.LC5:
 701 0024 53256420 		.ascii	"S%d \000"
 701      00
 702 0029 000000   		.space	3
 703              	.LC11:
 704 002c 0A0D2050 		.ascii	"\012\015 P%d b%d\000"
 704      25642062 
 704      256400
 705 0037 00       		.space	1
 706              	.LC13:
 707 0038 20642564 		.ascii	" d%d\000"
 707      00
 708 003d 000000   		.space	3
 709              	.LC15:
 710 0040 205F2564 		.ascii	" _%d\000"
 710      00
 711 0045 000000   		.space	3
 712              	.LC19:
 713 0048 0A0D2054 		.ascii	"\012\015 Transfer complete but corrupted. Erase & r"
 713      72616E73 
 713      66657220 
 713      636F6D70 
 713      6C657465 
 714 0075 65747279 		.ascii	"etry.\012\015\000"
 714      2E0A0D00 
 715 007d 000000   		.space	3
 716              	.LC21:
 717 0080 0A0D2053 		.ascii	"\012\015 Source hash: %08x local hash: %08x\012\015"
 717      6F757263 
 717      65206861 
 717      73683A20 
 717      25303878 
 718 00a7 00       		.ascii	"\000"
 719              		.section	.bss.astate,"aw",%nobits
 720              		.align	2
 721              	.LANCHOR0 = . + 0
 722              		.type	astate, %object
 723              		.size	astate, 4
ARM GAS  /tmp/ccKnk30r.s 			page 14


 724              	astate:
 725 0000 00000000 		.space	4
 726              		.text
 727              	.Letext0:
 728              		.file 2 "/usr/lib/gcc/arm-linux-gnueabihf/4.9/include/stddef.h"
 729              		.file 3 "/usr/include/stdint.h"
 730              		.file 4 "../os/nil/include/nil.h"
 731              		.file 5 "../os/nil/ports/ARMCMx/compilers/GCC/niltypes.h"
 732              		.file 6 "../os/ext/CMSIS/KINETIS/kl02x.h"
 733              		.file 7 "../os/nil/ports/ARMCMx/nilcore.h"
 734              		.file 8 "../os/nil/ports/ARMCMx/nilcore_v6m.h"
 735              		.file 9 "mac.h"
 736              		.file 10 "updater.h"
 737              		.file 11 "app.h"
 738              		.file 12 "../os/hal/boards/CHIBITRONICS_ESPLANADE/board.h"
 739              		.file 13 "printf.h"
 740              		.file 14 "flash.h"
 741              		.file 15 "/usr/include/string.h"
 742              		.file 16 "murmur3.h"
 743              		.section	.debug_info,"",%progbits
 744              	.Ldebug_info0:
 745 0000 770B0000 		.4byte	0xb77
 746 0004 0400     		.2byte	0x4
 747 0006 00000000 		.4byte	.Ldebug_abbrev0
 748 000a 04       		.byte	0x4
 749 000b 01       		.uleb128 0x1
 750 000c 28010000 		.4byte	.LASF107
 751 0010 01       		.byte	0x1
 752 0011 5D030000 		.4byte	.LASF108
 753 0015 00010000 		.4byte	.LASF109
 754 0019 90000000 		.4byte	.Ldebug_ranges0+0x90
 755 001d 00000000 		.4byte	0
 756 0021 00000000 		.4byte	.Ldebug_line0
 757 0025 02       		.uleb128 0x2
 758 0026 04       		.byte	0x4
 759 0027 05       		.byte	0x5
 760 0028 696E7400 		.ascii	"int\000"
 761 002c 03       		.uleb128 0x3
 762 002d 00000000 		.4byte	.LASF1
 763 0031 02       		.byte	0x2
 764 0032 D4       		.byte	0xd4
 765 0033 37000000 		.4byte	0x37
 766 0037 04       		.uleb128 0x4
 767 0038 04       		.byte	0x4
 768 0039 07       		.byte	0x7
 769 003a 35020000 		.4byte	.LASF0
 770 003e 03       		.uleb128 0x3
 771 003f CF040000 		.4byte	.LASF2
 772 0043 03       		.byte	0x3
 773 0044 24       		.byte	0x24
 774 0045 49000000 		.4byte	0x49
 775 0049 04       		.uleb128 0x4
 776 004a 01       		.byte	0x1
 777 004b 06       		.byte	0x6
 778 004c 86000000 		.4byte	.LASF3
 779 0050 04       		.uleb128 0x4
 780 0051 02       		.byte	0x2
ARM GAS  /tmp/ccKnk30r.s 			page 15


 781 0052 05       		.byte	0x5
 782 0053 D6030000 		.4byte	.LASF4
 783 0057 03       		.uleb128 0x3
 784 0058 8E030000 		.4byte	.LASF5
 785 005c 03       		.byte	0x3
 786 005d 26       		.byte	0x26
 787 005e 25000000 		.4byte	0x25
 788 0062 04       		.uleb128 0x4
 789 0063 08       		.byte	0x8
 790 0064 05       		.byte	0x5
 791 0065 78000000 		.4byte	.LASF6
 792 0069 03       		.uleb128 0x3
 793 006a 1D050000 		.4byte	.LASF7
 794 006e 03       		.byte	0x3
 795 006f 30       		.byte	0x30
 796 0070 74000000 		.4byte	0x74
 797 0074 04       		.uleb128 0x4
 798 0075 01       		.byte	0x1
 799 0076 08       		.byte	0x8
 800 0077 96030000 		.4byte	.LASF8
 801 007b 03       		.uleb128 0x3
 802 007c BF000000 		.4byte	.LASF9
 803 0080 03       		.byte	0x3
 804 0081 31       		.byte	0x31
 805 0082 86000000 		.4byte	0x86
 806 0086 04       		.uleb128 0x4
 807 0087 02       		.byte	0x2
 808 0088 07       		.byte	0x7
 809 0089 7F020000 		.4byte	.LASF10
 810 008d 03       		.uleb128 0x3
 811 008e 31040000 		.4byte	.LASF11
 812 0092 03       		.byte	0x3
 813 0093 33       		.byte	0x33
 814 0094 37000000 		.4byte	0x37
 815 0098 03       		.uleb128 0x3
 816 0099 0C000000 		.4byte	.LASF12
 817 009d 03       		.byte	0x3
 818 009e 3A       		.byte	0x3a
 819 009f A3000000 		.4byte	0xa3
 820 00a3 04       		.uleb128 0x4
 821 00a4 08       		.byte	0x8
 822 00a5 07       		.byte	0x7
 823 00a6 34000000 		.4byte	.LASF13
 824 00aa 03       		.uleb128 0x3
 825 00ab 8B040000 		.4byte	.LASF14
 826 00af 04       		.byte	0x4
 827 00b0 25       		.byte	0x25
 828 00b1 B5000000 		.4byte	0xb5
 829 00b5 05       		.uleb128 0x5
 830 00b6 74020000 		.4byte	.LASF35
 831 00ba 18       		.byte	0x18
 832 00bb 04       		.byte	0x4
 833 00bc 6201     		.2byte	0x162
 834 00be 10010000 		.4byte	0x110
 835 00c2 06       		.uleb128 0x6
 836 00c3 58030000 		.4byte	.LASF15
 837 00c7 04       		.byte	0x4
ARM GAS  /tmp/ccKnk30r.s 			page 16


 838 00c8 6301     		.2byte	0x163
 839 00ca FD020000 		.4byte	0x2fd
 840 00ce 00       		.byte	0
 841 00cf 06       		.uleb128 0x6
 842 00d0 9B000000 		.4byte	.LASF16
 843 00d4 04       		.byte	0x4
 844 00d5 6401     		.2byte	0x164
 845 00d7 10010000 		.4byte	0x110
 846 00db 04       		.byte	0x4
 847 00dc 07       		.uleb128 0x7
 848 00dd 753100   		.ascii	"u1\000"
 849 00e0 04       		.byte	0x4
 850 00e1 6F01     		.2byte	0x16f
 851 00e3 AD020000 		.4byte	0x2ad
 852 00e7 08       		.byte	0x8
 853 00e8 06       		.uleb128 0x6
 854 00e9 61020000 		.4byte	.LASF17
 855 00ed 04       		.byte	0x4
 856 00ee 7001     		.2byte	0x170
 857 00f0 03030000 		.4byte	0x303
 858 00f4 0C       		.byte	0xc
 859 00f5 06       		.uleb128 0x6
 860 00f6 25050000 		.4byte	.LASF18
 861 00fa 04       		.byte	0x4
 862 00fb 7301     		.2byte	0x173
 863 00fd 26010000 		.4byte	0x126
 864 0101 10       		.byte	0x10
 865 0102 06       		.uleb128 0x6
 866 0103 EE030000 		.4byte	.LASF19
 867 0107 04       		.byte	0x4
 868 0108 7601     		.2byte	0x176
 869 010a 83020000 		.4byte	0x283
 870 010e 14       		.byte	0x14
 871 010f 00       		.byte	0
 872 0110 03       		.uleb128 0x3
 873 0111 AA000000 		.4byte	.LASF20
 874 0115 05       		.byte	0x5
 875 0116 37       		.byte	0x37
 876 0117 69000000 		.4byte	0x69
 877 011b 03       		.uleb128 0x3
 878 011c 92020000 		.4byte	.LASF21
 879 0120 05       		.byte	0x5
 880 0121 38       		.byte	0x38
 881 0122 57000000 		.4byte	0x57
 882 0126 03       		.uleb128 0x3
 883 0127 B4020000 		.4byte	.LASF22
 884 012b 05       		.byte	0x5
 885 012c 39       		.byte	0x39
 886 012d 8D000000 		.4byte	0x8d
 887 0131 03       		.uleb128 0x3
 888 0132 24030000 		.4byte	.LASF23
 889 0136 05       		.byte	0x5
 890 0137 3A       		.byte	0x3a
 891 0138 57000000 		.4byte	0x57
 892 013c 03       		.uleb128 0x3
 893 013d A4040000 		.4byte	.LASF24
 894 0141 05       		.byte	0x5
ARM GAS  /tmp/ccKnk30r.s 			page 17


 895 0142 41       		.byte	0x41
 896 0143 8D000000 		.4byte	0x8d
 897 0147 04       		.uleb128 0x4
 898 0148 04       		.byte	0x4
 899 0149 07       		.byte	0x7
 900 014a FA020000 		.4byte	.LASF25
 901 014e 08       		.uleb128 0x8
 902 014f 8D000000 		.4byte	0x8d
 903 0153 09       		.uleb128 0x9
 904 0154 69000000 		.4byte	0x69
 905 0158 63010000 		.4byte	0x163
 906 015c 0A       		.uleb128 0xa
 907 015d 47010000 		.4byte	0x147
 908 0161 03       		.byte	0x3
 909 0162 00       		.byte	0
 910 0163 0B       		.uleb128 0xb
 911 0164 18       		.byte	0x18
 912 0165 06       		.byte	0x6
 913 0166 F9       		.byte	0xf9
 914 0167 B5010000 		.4byte	0x1b5
 915 016b 0C       		.uleb128 0xc
 916 016c 41050000 		.4byte	.LASF26
 917 0170 06       		.byte	0x6
 918 0171 FB       		.byte	0xfb
 919 0172 4E010000 		.4byte	0x14e
 920 0176 00       		.byte	0
 921 0177 0C       		.uleb128 0xc
 922 0178 B3000000 		.4byte	.LASF27
 923 017c 06       		.byte	0x6
 924 017d FC       		.byte	0xfc
 925 017e 4E010000 		.4byte	0x14e
 926 0182 04       		.byte	0x4
 927 0183 0C       		.uleb128 0xc
 928 0184 56000000 		.4byte	.LASF28
 929 0188 06       		.byte	0x6
 930 0189 FD       		.byte	0xfd
 931 018a 4E010000 		.4byte	0x14e
 932 018e 08       		.byte	0x8
 933 018f 0C       		.uleb128 0xc
 934 0190 07000000 		.4byte	.LASF29
 935 0194 06       		.byte	0x6
 936 0195 FE       		.byte	0xfe
 937 0196 4E010000 		.4byte	0x14e
 938 019a 0C       		.byte	0xc
 939 019b 0C       		.uleb128 0xc
 940 019c 73000000 		.4byte	.LASF30
 941 01a0 06       		.byte	0x6
 942 01a1 FF       		.byte	0xff
 943 01a2 4E010000 		.4byte	0x14e
 944 01a6 10       		.byte	0x10
 945 01a7 06       		.uleb128 0x6
 946 01a8 ED020000 		.4byte	.LASF31
 947 01ac 06       		.byte	0x6
 948 01ad 0001     		.2byte	0x100
 949 01af 4E010000 		.4byte	0x14e
 950 01b3 14       		.byte	0x14
 951 01b4 00       		.byte	0
ARM GAS  /tmp/ccKnk30r.s 			page 18


 952 01b5 0D       		.uleb128 0xd
 953 01b6 54020000 		.4byte	.LASF32
 954 01ba 06       		.byte	0x6
 955 01bb 0101     		.2byte	0x101
 956 01bd 63010000 		.4byte	0x163
 957 01c1 03       		.uleb128 0x3
 958 01c2 D6000000 		.4byte	.LASF33
 959 01c6 07       		.byte	0x7
 960 01c7 65       		.byte	0x65
 961 01c8 CC010000 		.4byte	0x1cc
 962 01cc 0E       		.uleb128 0xe
 963 01cd 04       		.byte	0x4
 964 01ce 03       		.uleb128 0x3
 965 01cf E2020000 		.4byte	.LASF34
 966 01d3 07       		.byte	0x7
 967 01d4 6D       		.byte	0x6d
 968 01d5 98000000 		.4byte	0x98
 969 01d9 0F       		.uleb128 0xf
 970 01da 15000000 		.4byte	.LASF36
 971 01de 24       		.byte	0x24
 972 01df 08       		.byte	0x8
 973 01e0 A4       		.byte	0xa4
 974 01e1 4B020000 		.4byte	0x24b
 975 01e5 10       		.uleb128 0x10
 976 01e6 723800   		.ascii	"r8\000"
 977 01e9 08       		.byte	0x8
 978 01ea A5       		.byte	0xa5
 979 01eb C1010000 		.4byte	0x1c1
 980 01ef 00       		.byte	0
 981 01f0 10       		.uleb128 0x10
 982 01f1 723900   		.ascii	"r9\000"
 983 01f4 08       		.byte	0x8
 984 01f5 A6       		.byte	0xa6
 985 01f6 C1010000 		.4byte	0x1c1
 986 01fa 04       		.byte	0x4
 987 01fb 10       		.uleb128 0x10
 988 01fc 72313000 		.ascii	"r10\000"
 989 0200 08       		.byte	0x8
 990 0201 A7       		.byte	0xa7
 991 0202 C1010000 		.4byte	0x1c1
 992 0206 08       		.byte	0x8
 993 0207 10       		.uleb128 0x10
 994 0208 72313100 		.ascii	"r11\000"
 995 020c 08       		.byte	0x8
 996 020d A8       		.byte	0xa8
 997 020e C1010000 		.4byte	0x1c1
 998 0212 0C       		.byte	0xc
 999 0213 10       		.uleb128 0x10
 1000 0214 723400   		.ascii	"r4\000"
 1001 0217 08       		.byte	0x8
 1002 0218 A9       		.byte	0xa9
 1003 0219 C1010000 		.4byte	0x1c1
 1004 021d 10       		.byte	0x10
 1005 021e 10       		.uleb128 0x10
 1006 021f 723500   		.ascii	"r5\000"
 1007 0222 08       		.byte	0x8
 1008 0223 AA       		.byte	0xaa
ARM GAS  /tmp/ccKnk30r.s 			page 19


 1009 0224 C1010000 		.4byte	0x1c1
 1010 0228 14       		.byte	0x14
 1011 0229 10       		.uleb128 0x10
 1012 022a 723600   		.ascii	"r6\000"
 1013 022d 08       		.byte	0x8
 1014 022e AB       		.byte	0xab
 1015 022f C1010000 		.4byte	0x1c1
 1016 0233 18       		.byte	0x18
 1017 0234 10       		.uleb128 0x10
 1018 0235 723700   		.ascii	"r7\000"
 1019 0238 08       		.byte	0x8
 1020 0239 AC       		.byte	0xac
 1021 023a C1010000 		.4byte	0x1c1
 1022 023e 1C       		.byte	0x1c
 1023 023f 10       		.uleb128 0x10
 1024 0240 6C7200   		.ascii	"lr\000"
 1025 0243 08       		.byte	0x8
 1026 0244 AD       		.byte	0xad
 1027 0245 C1010000 		.4byte	0x1c1
 1028 0249 20       		.byte	0x20
 1029 024a 00       		.byte	0
 1030 024b 0D       		.uleb128 0xd
 1031 024c 92000000 		.4byte	.LASF37
 1032 0250 04       		.byte	0x4
 1033 0251 3701     		.2byte	0x137
 1034 0253 D9010000 		.4byte	0x1d9
 1035 0257 0D       		.uleb128 0xd
 1036 0258 0B040000 		.4byte	.LASF38
 1037 025c 04       		.byte	0x4
 1038 025d 3C01     		.2byte	0x13c
 1039 025f 63020000 		.4byte	0x263
 1040 0263 05       		.uleb128 0x5
 1041 0264 B2030000 		.4byte	.LASF39
 1042 0268 04       		.byte	0x4
 1043 0269 04       		.byte	0x4
 1044 026a 4101     		.2byte	0x141
 1045 026c 7E020000 		.4byte	0x27e
 1046 0270 07       		.uleb128 0x7
 1047 0271 636E7400 		.ascii	"cnt\000"
 1048 0275 04       		.byte	0x4
 1049 0276 4201     		.2byte	0x142
 1050 0278 7E020000 		.4byte	0x27e
 1051 027c 00       		.byte	0
 1052 027d 00       		.byte	0
 1053 027e 08       		.uleb128 0x8
 1054 027f 31010000 		.4byte	0x131
 1055 0283 11       		.uleb128 0x11
 1056 0284 04       		.byte	0x4
 1057 0285 CE010000 		.4byte	0x1ce
 1058 0289 11       		.uleb128 0x11
 1059 028a 04       		.byte	0x4
 1060 028b 8F020000 		.4byte	0x28f
 1061 028f 12       		.uleb128 0x12
 1062 0290 94020000 		.4byte	0x294
 1063 0294 04       		.uleb128 0x4
 1064 0295 01       		.byte	0x1
 1065 0296 08       		.byte	0x8
ARM GAS  /tmp/ccKnk30r.s 			page 20


 1066 0297 6D040000 		.4byte	.LASF40
 1067 029b 0D       		.uleb128 0xd
 1068 029c 03030000 		.4byte	.LASF41
 1069 02a0 04       		.byte	0x4
 1070 02a1 5D01     		.2byte	0x15d
 1071 02a3 A7020000 		.4byte	0x2a7
 1072 02a7 11       		.uleb128 0x11
 1073 02a8 04       		.byte	0x4
 1074 02a9 AA000000 		.4byte	0xaa
 1075 02ad 13       		.uleb128 0x13
 1076 02ae 04       		.byte	0x4
 1077 02af 04       		.byte	0x4
 1078 02b0 6701     		.2byte	0x167
 1079 02b2 F1020000 		.4byte	0x2f1
 1080 02b6 14       		.uleb128 0x14
 1081 02b7 6D736700 		.ascii	"msg\000"
 1082 02bb 04       		.byte	0x4
 1083 02bc 6801     		.2byte	0x168
 1084 02be 1B010000 		.4byte	0x11b
 1085 02c2 14       		.uleb128 0x14
 1086 02c3 7000     		.ascii	"p\000"
 1087 02c5 04       		.byte	0x4
 1088 02c6 6901     		.2byte	0x169
 1089 02c8 CC010000 		.4byte	0x1cc
 1090 02cc 14       		.uleb128 0x14
 1091 02cd 74727000 		.ascii	"trp\000"
 1092 02d1 04       		.byte	0x4
 1093 02d2 6A01     		.2byte	0x16a
 1094 02d4 F1020000 		.4byte	0x2f1
 1095 02d8 15       		.uleb128 0x15
 1096 02d9 98020000 		.4byte	.LASF42
 1097 02dd 04       		.byte	0x4
 1098 02de 6B01     		.2byte	0x16b
 1099 02e0 F7020000 		.4byte	0x2f7
 1100 02e4 15       		.uleb128 0x15
 1101 02e5 F5030000 		.4byte	.LASF43
 1102 02e9 04       		.byte	0x4
 1103 02ea 6D01     		.2byte	0x16d
 1104 02ec 26010000 		.4byte	0x126
 1105 02f0 00       		.byte	0
 1106 02f1 11       		.uleb128 0x11
 1107 02f2 04       		.byte	0x4
 1108 02f3 9B020000 		.4byte	0x29b
 1109 02f7 11       		.uleb128 0x11
 1110 02f8 04       		.byte	0x4
 1111 02f9 57020000 		.4byte	0x257
 1112 02fd 11       		.uleb128 0x11
 1113 02fe 04       		.byte	0x4
 1114 02ff 4B020000 		.4byte	0x24b
 1115 0303 08       		.uleb128 0x8
 1116 0304 3C010000 		.4byte	0x13c
 1117 0308 0D       		.uleb128 0xd
 1118 0309 67030000 		.4byte	.LASF44
 1119 030d 04       		.byte	0x4
 1120 030e 7F01     		.2byte	0x17f
 1121 0310 14030000 		.4byte	0x314
 1122 0314 05       		.uleb128 0x5
ARM GAS  /tmp/ccKnk30r.s 			page 21


 1123 0315 C0030000 		.4byte	.LASF45
 1124 0319 40       		.byte	0x40
 1125 031a 04       		.byte	0x4
 1126 031b 8601     		.2byte	0x186
 1127 031d 63030000 		.4byte	0x363
 1128 0321 06       		.uleb128 0x6
 1129 0322 3D030000 		.4byte	.LASF46
 1130 0326 04       		.byte	0x4
 1131 0327 8A01     		.2byte	0x18a
 1132 0329 A7020000 		.4byte	0x2a7
 1133 032d 00       		.byte	0
 1134 032e 06       		.uleb128 0x6
 1135 032f 5B000000 		.4byte	.LASF47
 1136 0333 04       		.byte	0x4
 1137 0334 9001     		.2byte	0x190
 1138 0336 A7020000 		.4byte	0x2a7
 1139 033a 04       		.byte	0x4
 1140 033b 06       		.uleb128 0x6
 1141 033c A4020000 		.4byte	.LASF48
 1142 0340 04       		.byte	0x4
 1143 0341 9501     		.2byte	0x195
 1144 0343 03030000 		.4byte	0x303
 1145 0347 08       		.byte	0x8
 1146 0348 06       		.uleb128 0x6
 1147 0349 E6030000 		.4byte	.LASF49
 1148 034d 04       		.byte	0x4
 1149 034e A401     		.2byte	0x1a4
 1150 0350 63030000 		.4byte	0x363
 1151 0354 0C       		.byte	0xc
 1152 0355 06       		.uleb128 0x6
 1153 0356 A4030000 		.4byte	.LASF50
 1154 035a 04       		.byte	0x4
 1155 035b AD01     		.2byte	0x1ad
 1156 035d 73030000 		.4byte	0x373
 1157 0361 3C       		.byte	0x3c
 1158 0362 00       		.byte	0
 1159 0363 09       		.uleb128 0x9
 1160 0364 AA000000 		.4byte	0xaa
 1161 0368 73030000 		.4byte	0x373
 1162 036c 0A       		.uleb128 0xa
 1163 036d 47010000 		.4byte	0x147
 1164 0371 01       		.byte	0x1
 1165 0372 00       		.byte	0
 1166 0373 08       		.uleb128 0x8
 1167 0374 89020000 		.4byte	0x289
 1168 0378 11       		.uleb128 0x11
 1169 0379 04       		.byte	0x4
 1170 037a 69000000 		.4byte	0x69
 1171 037e 04       		.uleb128 0x4
 1172 037f 01       		.byte	0x1
 1173 0380 02       		.byte	0x2
 1174 0381 4E040000 		.4byte	.LASF51
 1175 0385 09       		.uleb128 0x9
 1176 0386 69000000 		.4byte	0x69
 1177 038a 95030000 		.4byte	0x395
 1178 038e 0A       		.uleb128 0xa
 1179 038f 47010000 		.4byte	0x147
ARM GAS  /tmp/ccKnk30r.s 			page 22


 1180 0393 0F       		.byte	0xf
 1181 0394 00       		.byte	0
 1182 0395 16       		.uleb128 0x16
 1183 0396 82040000 		.4byte	.LASF52
 1184 039a 0701     		.2byte	0x107
 1185 039c 09       		.byte	0x9
 1186 039d 09       		.byte	0x9
 1187 039e D4030000 		.4byte	0x3d4
 1188 03a2 0C       		.uleb128 0xc
 1189 03a3 F2020000 		.4byte	.LASF53
 1190 03a7 09       		.byte	0x9
 1191 03a8 0A       		.byte	0xa
 1192 03a9 69000000 		.4byte	0x69
 1193 03ad 00       		.byte	0
 1194 03ae 0C       		.uleb128 0xc
 1195 03af 2F020000 		.4byte	.LASF54
 1196 03b3 09       		.byte	0x9
 1197 03b4 0B       		.byte	0xb
 1198 03b5 D4030000 		.4byte	0x3d4
 1199 03b9 01       		.byte	0x1
 1200 03ba 0C       		.uleb128 0xc
 1201 03bb 2A030000 		.4byte	.LASF55
 1202 03bf 09       		.byte	0x9
 1203 03c0 0C       		.byte	0xc
 1204 03c1 E4030000 		.4byte	0x3e4
 1205 03c5 03       		.byte	0x3
 1206 03c6 17       		.uleb128 0x17
 1207 03c7 C0040000 		.4byte	.LASF56
 1208 03cb 09       		.byte	0x9
 1209 03cc 0D       		.byte	0xd
 1210 03cd 53010000 		.4byte	0x153
 1211 03d1 0301     		.2byte	0x103
 1212 03d3 00       		.byte	0
 1213 03d4 09       		.uleb128 0x9
 1214 03d5 69000000 		.4byte	0x69
 1215 03d9 E4030000 		.4byte	0x3e4
 1216 03dd 0A       		.uleb128 0xa
 1217 03de 47010000 		.4byte	0x147
 1218 03e2 01       		.byte	0x1
 1219 03e3 00       		.byte	0
 1220 03e4 09       		.uleb128 0x9
 1221 03e5 69000000 		.4byte	0x69
 1222 03e9 F4030000 		.4byte	0x3f4
 1223 03ed 0A       		.uleb128 0xa
 1224 03ee 47010000 		.4byte	0x147
 1225 03f2 FF       		.byte	0xff
 1226 03f3 00       		.byte	0
 1227 03f4 03       		.uleb128 0x3
 1228 03f5 FC030000 		.4byte	.LASF57
 1229 03f9 09       		.byte	0x9
 1230 03fa 0E       		.byte	0xe
 1231 03fb 95030000 		.4byte	0x395
 1232 03ff 0F       		.uleb128 0xf
 1233 0400 85030000 		.4byte	.LASF58
 1234 0404 1D       		.byte	0x1d
 1235 0405 09       		.byte	0x9
 1236 0406 10       		.byte	0x10
ARM GAS  /tmp/ccKnk30r.s 			page 23


 1237 0407 48040000 		.4byte	0x448
 1238 040b 0C       		.uleb128 0xc
 1239 040c F2020000 		.4byte	.LASF53
 1240 0410 09       		.byte	0x9
 1241 0411 11       		.byte	0x11
 1242 0412 69000000 		.4byte	0x69
 1243 0416 00       		.byte	0
 1244 0417 0C       		.uleb128 0xc
 1245 0418 66040000 		.4byte	.LASF59
 1246 041c 09       		.byte	0x9
 1247 041d 12       		.byte	0x12
 1248 041e 53010000 		.4byte	0x153
 1249 0422 01       		.byte	0x1
 1250 0423 0C       		.uleb128 0xc
 1251 0424 D6040000 		.4byte	.LASF60
 1252 0428 09       		.byte	0x9
 1253 0429 13       		.byte	0x13
 1254 042a 53010000 		.4byte	0x153
 1255 042e 05       		.byte	0x5
 1256 042f 0C       		.uleb128 0xc
 1257 0430 88050000 		.4byte	.LASF61
 1258 0434 09       		.byte	0x9
 1259 0435 14       		.byte	0x14
 1260 0436 85030000 		.4byte	0x385
 1261 043a 09       		.byte	0x9
 1262 043b 0C       		.uleb128 0xc
 1263 043c C0040000 		.4byte	.LASF56
 1264 0440 09       		.byte	0x9
 1265 0441 15       		.byte	0x15
 1266 0442 53010000 		.4byte	0x153
 1267 0446 19       		.byte	0x19
 1268 0447 00       		.byte	0
 1269 0448 03       		.uleb128 0x3
 1270 0449 C0020000 		.4byte	.LASF62
 1271 044d 09       		.byte	0x9
 1272 044e 16       		.byte	0x16
 1273 044f FF030000 		.4byte	0x3ff
 1274 0453 11       		.uleb128 0x11
 1275 0454 04       		.byte	0x4
 1276 0455 59040000 		.4byte	0x459
 1277 0459 18       		.uleb128 0x18
 1278 045a 11       		.uleb128 0x11
 1279 045b 04       		.byte	0x4
 1280 045c 8D000000 		.4byte	0x8d
 1281 0460 04       		.uleb128 0x4
 1282 0461 04       		.byte	0x4
 1283 0462 07       		.byte	0x7
 1284 0463 42020000 		.4byte	.LASF63
 1285 0467 04       		.uleb128 0x4
 1286 0468 04       		.byte	0x4
 1287 0469 05       		.byte	0x5
 1288 046a A1000000 		.4byte	.LASF64
 1289 046e 11       		.uleb128 0x11
 1290 046f 04       		.byte	0x4
 1291 0470 94020000 		.4byte	0x294
 1292 0474 11       		.uleb128 0x11
 1293 0475 04       		.byte	0x4
ARM GAS  /tmp/ccKnk30r.s 			page 24


 1294 0476 7A040000 		.4byte	0x47a
 1295 047a 19       		.uleb128 0x19
 1296 047b 0F       		.uleb128 0xf
 1297 047c 72040000 		.4byte	.LASF65
 1298 0480 C4       		.byte	0xc4
 1299 0481 0A       		.byte	0xa
 1300 0482 25       		.byte	0x25
 1301 0483 DC040000 		.4byte	0x4dc
 1302 0487 0C       		.uleb128 0xc
 1303 0488 F2020000 		.4byte	.LASF53
 1304 048c 0A       		.byte	0xa
 1305 048d 27       		.byte	0x27
 1306 048e 8D000000 		.4byte	0x8d
 1307 0492 00       		.byte	0
 1308 0493 0C       		.uleb128 0xc
 1309 0494 E0030000 		.4byte	.LASF66
 1310 0498 0A       		.byte	0xa
 1311 0499 28       		.byte	0x28
 1312 049a 8D000000 		.4byte	0x8d
 1313 049e 04       		.byte	0x4
 1314 049f 0C       		.uleb128 0xc
 1315 04a0 D6040000 		.4byte	.LASF60
 1316 04a4 0A       		.byte	0xa
 1317 04a5 29       		.byte	0x29
 1318 04a6 8D000000 		.4byte	0x8d
 1319 04aa 08       		.byte	0x8
 1320 04ab 0C       		.uleb128 0xc
 1321 04ac 66040000 		.4byte	.LASF59
 1322 04b0 0A       		.byte	0xa
 1323 04b1 2A       		.byte	0x2a
 1324 04b2 8D000000 		.4byte	0x8d
 1325 04b6 0C       		.byte	0xc
 1326 04b7 0C       		.uleb128 0xc
 1327 04b8 88050000 		.4byte	.LASF61
 1328 04bc 0A       		.byte	0xa
 1329 04bd 2B       		.byte	0x2b
 1330 04be 85030000 		.4byte	0x385
 1331 04c2 10       		.byte	0x10
 1332 04c3 0C       		.uleb128 0xc
 1333 04c4 72050000 		.4byte	.LASF67
 1334 04c8 0A       		.byte	0xa
 1335 04c9 2D       		.byte	0x2d
 1336 04ca 8D000000 		.4byte	0x8d
 1337 04ce 20       		.byte	0x20
 1338 04cf 0C       		.uleb128 0xc
 1339 04d0 DF000000 		.4byte	.LASF68
 1340 04d4 0A       		.byte	0xa
 1341 04d5 2E       		.byte	0x2e
 1342 04d6 DC040000 		.4byte	0x4dc
 1343 04da 24       		.byte	0x24
 1344 04db 00       		.byte	0
 1345 04dc 09       		.uleb128 0x9
 1346 04dd 8D000000 		.4byte	0x8d
 1347 04e1 EC040000 		.4byte	0x4ec
 1348 04e5 0A       		.uleb128 0xa
 1349 04e6 47010000 		.4byte	0x147
 1350 04ea 27       		.byte	0x27
ARM GAS  /tmp/ccKnk30r.s 			page 25


 1351 04eb 00       		.byte	0
 1352 04ec 03       		.uleb128 0x3
 1353 04ed 57050000 		.4byte	.LASF69
 1354 04f1 0A       		.byte	0xa
 1355 04f2 30       		.byte	0x30
 1356 04f3 7B040000 		.4byte	0x47b
 1357 04f7 0F       		.uleb128 0xf
 1358 04f8 3A040000 		.4byte	.LASF70
 1359 04fc 20       		.byte	0x20
 1360 04fd 0A       		.byte	0xa
 1361 04fe 35       		.byte	0x35
 1362 04ff 40050000 		.4byte	0x540
 1363 0503 0C       		.uleb128 0xc
 1364 0504 F2020000 		.4byte	.LASF53
 1365 0508 0A       		.byte	0xa
 1366 0509 36       		.byte	0x36
 1367 050a 8D000000 		.4byte	0x8d
 1368 050e 00       		.byte	0
 1369 050f 0C       		.uleb128 0xc
 1370 0510 E0030000 		.4byte	.LASF66
 1371 0514 0A       		.byte	0xa
 1372 0515 37       		.byte	0x37
 1373 0516 8D000000 		.4byte	0x8d
 1374 051a 04       		.byte	0x4
 1375 051b 0C       		.uleb128 0xc
 1376 051c D6040000 		.4byte	.LASF60
 1377 0520 0A       		.byte	0xa
 1378 0521 38       		.byte	0x38
 1379 0522 8D000000 		.4byte	0x8d
 1380 0526 08       		.byte	0x8
 1381 0527 0C       		.uleb128 0xc
 1382 0528 66040000 		.4byte	.LASF59
 1383 052c 0A       		.byte	0xa
 1384 052d 39       		.byte	0x39
 1385 052e 8D000000 		.4byte	0x8d
 1386 0532 0C       		.byte	0xc
 1387 0533 0C       		.uleb128 0xc
 1388 0534 88050000 		.4byte	.LASF61
 1389 0538 0A       		.byte	0xa
 1390 0539 3A       		.byte	0x3a
 1391 053a 85030000 		.4byte	0x385
 1392 053e 10       		.byte	0x10
 1393 053f 00       		.byte	0
 1394 0540 03       		.uleb128 0x3
 1395 0541 CF020000 		.4byte	.LASF71
 1396 0545 0A       		.byte	0xa
 1397 0546 3B       		.byte	0x3b
 1398 0547 F7040000 		.4byte	0x4f7
 1399 054b 0F       		.uleb128 0xf
 1400 054c B5040000 		.4byte	.LASF72
 1401 0550 30       		.byte	0x30
 1402 0551 0B       		.byte	0xb
 1403 0552 06       		.byte	0x6
 1404 0553 E8050000 		.4byte	0x5e8
 1405 0557 0C       		.uleb128 0xc
 1406 0558 94040000 		.4byte	.LASF73
 1407 055c 0B       		.byte	0xb
ARM GAS  /tmp/ccKnk30r.s 			page 26


 1408 055d 09       		.byte	0x9
 1409 055e 5A040000 		.4byte	0x45a
 1410 0562 00       		.byte	0
 1411 0563 0C       		.uleb128 0xc
 1412 0564 69020000 		.4byte	.LASF74
 1413 0568 0B       		.byte	0xb
 1414 0569 0A       		.byte	0xa
 1415 056a 5A040000 		.4byte	0x45a
 1416 056e 04       		.byte	0x4
 1417 056f 0C       		.uleb128 0xc
 1418 0570 60000000 		.4byte	.LASF75
 1419 0574 0B       		.byte	0xb
 1420 0575 0B       		.byte	0xb
 1421 0576 5A040000 		.4byte	0x45a
 1422 057a 08       		.byte	0x8
 1423 057b 0C       		.uleb128 0xc
 1424 057c 69000000 		.4byte	.LASF76
 1425 0580 0B       		.byte	0xb
 1426 0581 0C       		.byte	0xc
 1427 0582 5A040000 		.4byte	0x45a
 1428 0586 0C       		.byte	0xc
 1429 0587 0C       		.uleb128 0xc
 1430 0588 AC020000 		.4byte	.LASF77
 1431 058c 0B       		.byte	0xb
 1432 058d 0F       		.byte	0xf
 1433 058e 5A040000 		.4byte	0x45a
 1434 0592 10       		.byte	0x10
 1435 0593 0C       		.uleb128 0xc
 1436 0594 2E000000 		.4byte	.LASF78
 1437 0598 0B       		.byte	0xb
 1438 0599 10       		.byte	0x10
 1439 059a 53040000 		.4byte	0x453
 1440 059e 14       		.byte	0x14
 1441 059f 0C       		.uleb128 0xc
 1442 05a0 E0030000 		.4byte	.LASF66
 1443 05a4 0B       		.byte	0xb
 1444 05a5 11       		.byte	0x11
 1445 05a6 8D000000 		.4byte	0x8d
 1446 05aa 18       		.byte	0x18
 1447 05ab 0C       		.uleb128 0xc
 1448 05ac F2020000 		.4byte	.LASF53
 1449 05b0 0B       		.byte	0xb
 1450 05b1 12       		.byte	0x12
 1451 05b2 8D000000 		.4byte	0x8d
 1452 05b6 1C       		.byte	0x1c
 1453 05b7 0C       		.uleb128 0xc
 1454 05b8 66050000 		.4byte	.LASF79
 1455 05bc 0B       		.byte	0xb
 1456 05bd 15       		.byte	0x15
 1457 05be 5A040000 		.4byte	0x45a
 1458 05c2 20       		.byte	0x20
 1459 05c3 0C       		.uleb128 0xc
 1460 05c4 C5040000 		.4byte	.LASF80
 1461 05c8 0B       		.byte	0xb
 1462 05c9 16       		.byte	0x16
 1463 05ca 5A040000 		.4byte	0x45a
 1464 05ce 24       		.byte	0x24
ARM GAS  /tmp/ccKnk30r.s 			page 27


 1465 05cf 0C       		.uleb128 0xc
 1466 05d0 4D050000 		.4byte	.LASF81
 1467 05d4 0B       		.byte	0xb
 1468 05d5 17       		.byte	0x17
 1469 05d6 8D000000 		.4byte	0x8d
 1470 05da 28       		.byte	0x28
 1471 05db 0C       		.uleb128 0xc
 1472 05dc 00050000 		.4byte	.LASF82
 1473 05e0 0B       		.byte	0xb
 1474 05e1 18       		.byte	0x18
 1475 05e2 8D000000 		.4byte	0x8d
 1476 05e6 2C       		.byte	0x2c
 1477 05e7 00       		.byte	0
 1478 05e8 1A       		.uleb128 0x1a
 1479 05e9 46050000 		.4byte	.LASF110
 1480 05ed 04       		.byte	0x4
 1481 05ee 01       		.byte	0x1
 1482 05ef 52       		.byte	0x52
 1483 05f0 13060000 		.4byte	0x613
 1484 05f4 1B       		.uleb128 0x1b
 1485 05f5 DF040000 		.4byte	.LASF83
 1486 05f9 00       		.sleb128 0
 1487 05fa 1B       		.uleb128 0x1b
 1488 05fb CB030000 		.4byte	.LASF84
 1489 05ff 01       		.sleb128 1
 1490 0600 1B       		.uleb128 0x1b
 1491 0601 7B050000 		.4byte	.LASF85
 1492 0605 02       		.sleb128 2
 1493 0606 1B       		.uleb128 0x1b
 1494 0607 79030000 		.4byte	.LASF86
 1495 060b 03       		.sleb128 3
 1496 060c 1B       		.uleb128 0x1b
 1497 060d 16030000 		.4byte	.LASF87
 1498 0611 04       		.sleb128 4
 1499 0612 00       		.byte	0
 1500 0613 03       		.uleb128 0x3
 1501 0614 45030000 		.4byte	.LASF88
 1502 0618 01       		.byte	0x1
 1503 0619 58       		.byte	0x58
 1504 061a E8050000 		.4byte	0x5e8
 1505 061e 1C       		.uleb128 0x1c
 1506 061f C8000000 		.4byte	.LASF89
 1507 0623 01       		.byte	0x1
 1508 0624 5D       		.byte	0x5d
 1509 0625 01       		.byte	0x1
 1510 0626 36060000 		.4byte	0x636
 1511 062a 1D       		.uleb128 0x1d
 1512 062b 61707000 		.ascii	"app\000"
 1513 062f 01       		.byte	0x1
 1514 0630 68       		.byte	0x68
 1515 0631 36060000 		.4byte	0x636
 1516 0635 00       		.byte	0
 1517 0636 11       		.uleb128 0x11
 1518 0637 04       		.byte	0x4
 1519 0638 4B050000 		.4byte	0x54b
 1520 063c 1E       		.uleb128 0x1e
 1521 063d 1E060000 		.4byte	0x61e
ARM GAS  /tmp/ccKnk30r.s 			page 28


 1522 0641 00000000 		.4byte	.LFB104
 1523 0645 3C000000 		.4byte	.LFE104-.LFB104
 1524 0649 01       		.uleb128 0x1
 1525 064a 9C       		.byte	0x9c
 1526 064b 8E060000 		.4byte	0x68e
 1527 064f 1F       		.uleb128 0x1f
 1528 0650 2A060000 		.4byte	0x62a
 1529 0654 0059     		.2byte	0x5900
 1530 0656 20       		.uleb128 0x20
 1531 0657 20000000 		.4byte	.LBB5
 1532 065b 1C000000 		.4byte	.LBE5-.LBB5
 1533 065f 7A060000 		.4byte	0x67a
 1534 0663 21       		.uleb128 0x21
 1535 0664 2A060000 		.4byte	0x62a
 1536 0668 22       		.uleb128 0x22
 1537 0669 2E000000 		.4byte	.LVL2
 1538 066d C60A0000 		.4byte	0xac6
 1539 0671 23       		.uleb128 0x23
 1540 0672 01       		.uleb128 0x1
 1541 0673 50       		.byte	0x50
 1542 0674 03       		.uleb128 0x3
 1543 0675 0A       		.byte	0xa
 1544 0676 0059     		.2byte	0x5900
 1545 0678 00       		.byte	0
 1546 0679 00       		.byte	0
 1547 067a 22       		.uleb128 0x22
 1548 067b 08000000 		.4byte	.LVL0
 1549 067f D70A0000 		.4byte	0xad7
 1550 0683 23       		.uleb128 0x23
 1551 0684 01       		.uleb128 0x1
 1552 0685 50       		.byte	0x50
 1553 0686 05       		.uleb128 0x5
 1554 0687 03       		.byte	0x3
 1555 0688 00000000 		.4byte	.LC0
 1556 068c 00       		.byte	0
 1557 068d 00       		.byte	0
 1558 068e 1C       		.uleb128 0x1c
 1559 068f 1D040000 		.4byte	.LASF90
 1560 0693 01       		.byte	0x1
 1561 0694 6E       		.byte	0x6e
 1562 0695 01       		.byte	0x1
 1563 0696 BA060000 		.4byte	0x6ba
 1564 069a 24       		.uleb128 0x24
 1565 069b 74030000 		.4byte	.LASF93
 1566 069f 01       		.byte	0x1
 1567 06a0 6E       		.byte	0x6e
 1568 06a1 BA060000 		.4byte	0x6ba
 1569 06a5 25       		.uleb128 0x25
 1570 06a6 17040000 		.4byte	.LASF91
 1571 06aa 01       		.byte	0x1
 1572 06ab 6F       		.byte	0x6f
 1573 06ac 40050000 		.4byte	0x540
 1574 06b0 1D       		.uleb128 0x1d
 1575 06b1 6900     		.ascii	"i\000"
 1576 06b3 01       		.byte	0x1
 1577 06b4 70       		.byte	0x70
 1578 06b5 8D000000 		.4byte	0x8d
ARM GAS  /tmp/ccKnk30r.s 			page 29


 1579 06b9 00       		.byte	0
 1580 06ba 11       		.uleb128 0x11
 1581 06bb 04       		.byte	0x4
 1582 06bc 48040000 		.4byte	0x448
 1583 06c0 1E       		.uleb128 0x1e
 1584 06c1 8E060000 		.4byte	0x68e
 1585 06c5 00000000 		.4byte	.LFB105
 1586 06c9 5C000000 		.4byte	.LFE105-.LFB105
 1587 06cd 01       		.uleb128 0x1
 1588 06ce 9C       		.byte	0x9c
 1589 06cf 23070000 		.4byte	0x723
 1590 06d3 26       		.uleb128 0x26
 1591 06d4 9A060000 		.4byte	0x69a
 1592 06d8 00000000 		.4byte	.LLST0
 1593 06dc 27       		.uleb128 0x27
 1594 06dd A5060000 		.4byte	0x6a5
 1595 06e1 02       		.uleb128 0x2
 1596 06e2 91       		.byte	0x91
 1597 06e3 58       		.sleb128 -40
 1598 06e4 28       		.uleb128 0x28
 1599 06e5 B0060000 		.4byte	0x6b0
 1600 06e9 00       		.byte	0
 1601 06ea 29       		.uleb128 0x29
 1602 06eb 44000000 		.4byte	.LVL6
 1603 06ef E90A0000 		.4byte	0xae9
 1604 06f3 0C070000 		.4byte	0x70c
 1605 06f7 23       		.uleb128 0x23
 1606 06f8 01       		.uleb128 0x1
 1607 06f9 52       		.byte	0x52
 1608 06fa 01       		.uleb128 0x1
 1609 06fb 40       		.byte	0x40
 1610 06fc 23       		.uleb128 0x23
 1611 06fd 01       		.uleb128 0x1
 1612 06fe 51       		.byte	0x51
 1613 06ff 05       		.uleb128 0x5
 1614 0700 F3       		.byte	0xf3
 1615 0701 01       		.uleb128 0x1
 1616 0702 50       		.byte	0x50
 1617 0703 23       		.byte	0x23
 1618 0704 09       		.uleb128 0x9
 1619 0705 23       		.uleb128 0x23
 1620 0706 01       		.uleb128 0x1
 1621 0707 50       		.byte	0x50
 1622 0708 02       		.uleb128 0x2
 1623 0709 91       		.byte	0x91
 1624 070a 68       		.sleb128 -24
 1625 070b 00       		.byte	0
 1626 070c 22       		.uleb128 0x22
 1627 070d 4E000000 		.4byte	.LVL7
 1628 0711 060B0000 		.4byte	0xb06
 1629 0715 23       		.uleb128 0x23
 1630 0716 01       		.uleb128 0x1
 1631 0717 52       		.byte	0x52
 1632 0718 02       		.uleb128 0x2
 1633 0719 08       		.byte	0x8
 1634 071a 20       		.byte	0x20
 1635 071b 23       		.uleb128 0x23
ARM GAS  /tmp/ccKnk30r.s 			page 30


 1636 071c 01       		.uleb128 0x1
 1637 071d 50       		.byte	0x50
 1638 071e 02       		.uleb128 0x2
 1639 071f 7D       		.byte	0x7d
 1640 0720 00       		.sleb128 0
 1641 0721 00       		.byte	0
 1642 0722 00       		.byte	0
 1643 0723 2A       		.uleb128 0x2a
 1644 0724 2C050000 		.4byte	.LASF111
 1645 0728 01       		.byte	0x1
 1646 0729 83       		.byte	0x83
 1647 072a 3E000000 		.4byte	0x3e
 1648 072e 00000000 		.4byte	.LFB106
 1649 0732 98020000 		.4byte	.LFE106-.LFB106
 1650 0736 01       		.uleb128 0x1
 1651 0737 9C       		.byte	0x9c
 1652 0738 5B0A0000 		.4byte	0xa5b
 1653 073c 2B       		.uleb128 0x2b
 1654 073d 706B7400 		.ascii	"pkt\000"
 1655 0741 01       		.byte	0x1
 1656 0742 83       		.byte	0x83
 1657 0743 78030000 		.4byte	0x378
 1658 0747 2E000000 		.4byte	.LLST1
 1659 074b 2C       		.uleb128 0x2c
 1660 074c 1F030000 		.4byte	.LASF92
 1661 0750 01       		.byte	0x1
 1662 0751 84       		.byte	0x84
 1663 0752 5B0A0000 		.4byte	0xa5b
 1664 0756 A5000000 		.4byte	.LLST2
 1665 075a 2C       		.uleb128 0x2c
 1666 075b 74030000 		.4byte	.LASF93
 1667 075f 01       		.byte	0x1
 1668 0760 85       		.byte	0x85
 1669 0761 BA060000 		.4byte	0x6ba
 1670 0765 ED000000 		.4byte	.LLST3
 1671 0769 2D       		.uleb128 0x2d
 1672 076a 6900     		.ascii	"i\000"
 1673 076c 01       		.byte	0x1
 1674 076d 86       		.byte	0x86
 1675 076e 8D000000 		.4byte	0x8d
 1676 0772 0B010000 		.4byte	.LLST4
 1677 0776 2D       		.uleb128 0x2d
 1678 0777 65727200 		.ascii	"err\000"
 1679 077b 01       		.byte	0x1
 1680 077c 87       		.byte	0x87
 1681 077d 3E000000 		.4byte	0x3e
 1682 0781 1F010000 		.4byte	.LLST5
 1683 0785 2E       		.uleb128 0x2e
 1684 0786 00000000 		.4byte	.Ldebug_ranges0+0
 1685 078a 280A0000 		.4byte	0xa28
 1686 078e 2C       		.uleb128 0x2c
 1687 078f 2F020000 		.4byte	.LASF54
 1688 0793 01       		.byte	0x1
 1689 0794 B1       		.byte	0xb1
 1690 0795 7B000000 		.4byte	0x7b
 1691 0799 E7010000 		.4byte	.LLST6
 1692 079d 2C       		.uleb128 0x2c
ARM GAS  /tmp/ccKnk30r.s 			page 31


 1693 079e 27020000 		.4byte	.LASF94
 1694 07a2 01       		.byte	0x1
 1695 07a3 CA       		.byte	0xca
 1696 07a4 69000000 		.4byte	0x69
 1697 07a8 3F020000 		.4byte	.LLST7
 1698 07ac 2F       		.uleb128 0x2f
 1699 07ad C0040000 		.4byte	.LASF56
 1700 07b1 01       		.byte	0x1
 1701 07b2 D3       		.byte	0xd3
 1702 07b3 8D000000 		.4byte	0x8d
 1703 07b7 03       		.uleb128 0x3
 1704 07b8 91       		.byte	0x91
 1705 07b9 BC7F     		.sleb128 -68
 1706 07bb 30       		.uleb128 0x30
 1707 07bc 1E060000 		.4byte	0x61e
 1708 07c0 6C000000 		.4byte	.LBB20
 1709 07c4 28000000 		.4byte	.Ldebug_ranges0+0x28
 1710 07c8 01       		.byte	0x1
 1711 07c9 E8       		.byte	0xe8
 1712 07ca 04080000 		.4byte	0x804
 1713 07ce 31       		.uleb128 0x31
 1714 07cf 28000000 		.4byte	.Ldebug_ranges0+0x28
 1715 07d3 32       		.uleb128 0x32
 1716 07d4 2A060000 		.4byte	0x62a
 1717 07d8 53020000 		.4byte	.LLST8
 1718 07dc 20       		.uleb128 0x20
 1719 07dd 62010000 		.4byte	.LBB23
 1720 07e1 0C000000 		.4byte	.LBE23-.LBB23
 1721 07e5 EF070000 		.4byte	0x7ef
 1722 07e9 21       		.uleb128 0x21
 1723 07ea 2A060000 		.4byte	0x62a
 1724 07ee 00       		.byte	0
 1725 07ef 22       		.uleb128 0x22
 1726 07f0 72000000 		.4byte	.LVL17
 1727 07f4 D70A0000 		.4byte	0xad7
 1728 07f8 23       		.uleb128 0x23
 1729 07f9 01       		.uleb128 0x1
 1730 07fa 50       		.byte	0x50
 1731 07fb 05       		.uleb128 0x5
 1732 07fc 03       		.byte	0x3
 1733 07fd 00000000 		.4byte	.LC0
 1734 0801 00       		.byte	0
 1735 0802 00       		.byte	0
 1736 0803 00       		.byte	0
 1737 0804 20       		.uleb128 0x20
 1738 0805 6E010000 		.4byte	.LBB26
 1739 0809 3E000000 		.4byte	.LBE26-.LBB26
 1740 080d 8D080000 		.4byte	0x88d
 1741 0811 2F       		.uleb128 0x2f
 1742 0812 FA000000 		.4byte	.LASF95
 1743 0816 01       		.byte	0x1
 1744 0817 B8       		.byte	0xb8
 1745 0818 8D000000 		.4byte	0x8d
 1746 081c 02       		.uleb128 0x2
 1747 081d 91       		.byte	0x91
 1748 081e 40       		.sleb128 -64
 1749 081f 29       		.uleb128 0x29
ARM GAS  /tmp/ccKnk30r.s 			page 32


 1750 0820 7C010000 		.4byte	.LVL38
 1751 0824 060B0000 		.4byte	0xb06
 1752 0828 38080000 		.4byte	0x838
 1753 082c 23       		.uleb128 0x23
 1754 082d 01       		.uleb128 0x1
 1755 082e 52       		.byte	0x52
 1756 082f 01       		.uleb128 0x1
 1757 0830 34       		.byte	0x34
 1758 0831 23       		.uleb128 0x23
 1759 0832 01       		.uleb128 0x1
 1760 0833 50       		.byte	0x50
 1761 0834 02       		.uleb128 0x2
 1762 0835 91       		.byte	0x91
 1763 0836 40       		.sleb128 -64
 1764 0837 00       		.byte	0
 1765 0838 29       		.uleb128 0x29
 1766 0839 8C010000 		.4byte	.LVL41
 1767 083d D70A0000 		.4byte	0xad7
 1768 0841 58080000 		.4byte	0x858
 1769 0845 23       		.uleb128 0x23
 1770 0846 01       		.uleb128 0x1
 1771 0847 51       		.byte	0x51
 1772 0848 05       		.uleb128 0x5
 1773 0849 78       		.byte	0x78
 1774 084a 00       		.sleb128 0
 1775 084b 08       		.byte	0x8
 1776 084c FF       		.byte	0xff
 1777 084d 1A       		.byte	0x1a
 1778 084e 23       		.uleb128 0x23
 1779 084f 01       		.uleb128 0x1
 1780 0850 50       		.byte	0x50
 1781 0851 05       		.uleb128 0x5
 1782 0852 03       		.byte	0x3
 1783 0853 2C000000 		.4byte	.LC11
 1784 0857 00       		.byte	0
 1785 0858 29       		.uleb128 0x29
 1786 0859 A2010000 		.4byte	.LVL42
 1787 085d 060B0000 		.4byte	0xb06
 1788 0861 73080000 		.4byte	0x873
 1789 0865 23       		.uleb128 0x23
 1790 0866 01       		.uleb128 0x1
 1791 0867 52       		.byte	0x52
 1792 0868 03       		.uleb128 0x3
 1793 0869 0A       		.byte	0xa
 1794 086a 0001     		.2byte	0x100
 1795 086c 23       		.uleb128 0x23
 1796 086d 01       		.uleb128 0x1
 1797 086e 50       		.byte	0x50
 1798 086f 02       		.uleb128 0x2
 1799 0870 77       		.byte	0x77
 1800 0871 03       		.sleb128 3
 1801 0872 00       		.byte	0
 1802 0873 22       		.uleb128 0x22
 1803 0874 AC010000 		.4byte	.LVL44
 1804 0878 D70A0000 		.4byte	0xad7
 1805 087c 23       		.uleb128 0x23
 1806 087d 01       		.uleb128 0x1
ARM GAS  /tmp/ccKnk30r.s 			page 33


 1807 087e 51       		.byte	0x51
 1808 087f 02       		.uleb128 0x2
 1809 0880 74       		.byte	0x74
 1810 0881 00       		.sleb128 0
 1811 0882 23       		.uleb128 0x23
 1812 0883 01       		.uleb128 0x1
 1813 0884 50       		.byte	0x50
 1814 0885 05       		.uleb128 0x5
 1815 0886 03       		.byte	0x3
 1816 0887 38000000 		.4byte	.LC13
 1817 088b 00       		.byte	0
 1818 088c 00       		.byte	0
 1819 088d 2E       		.uleb128 0x2e
 1820 088e 40000000 		.4byte	.Ldebug_ranges0+0x40
 1821 0892 14090000 		.4byte	0x914
 1822 0896 2F       		.uleb128 0x2f
 1823 0897 FA000000 		.4byte	.LASF95
 1824 089b 01       		.byte	0x1
 1825 089c D7       		.byte	0xd7
 1826 089d 8D000000 		.4byte	0x8d
 1827 08a1 02       		.uleb128 0x2
 1828 08a2 91       		.byte	0x91
 1829 08a3 40       		.sleb128 -64
 1830 08a4 30       		.uleb128 0x30
 1831 08a5 1E060000 		.4byte	0x61e
 1832 08a9 C0010000 		.4byte	.LBB28
 1833 08ad 58000000 		.4byte	.Ldebug_ranges0+0x58
 1834 08b1 01       		.byte	0x1
 1835 08b2 DA       		.byte	0xda
 1836 08b3 FE080000 		.4byte	0x8fe
 1837 08b7 31       		.uleb128 0x31
 1838 08b8 58000000 		.4byte	.Ldebug_ranges0+0x58
 1839 08bc 32       		.uleb128 0x32
 1840 08bd 2A060000 		.4byte	0x62a
 1841 08c1 77020000 		.4byte	.LLST9
 1842 08c5 20       		.uleb128 0x20
 1843 08c6 42020000 		.4byte	.LBB31
 1844 08ca 56000000 		.4byte	.LBE31-.LBB31
 1845 08ce E9080000 		.4byte	0x8e9
 1846 08d2 21       		.uleb128 0x21
 1847 08d3 2A060000 		.4byte	0x62a
 1848 08d7 22       		.uleb128 0x22
 1849 08d8 54020000 		.4byte	.LVL60
 1850 08dc C60A0000 		.4byte	0xac6
 1851 08e0 23       		.uleb128 0x23
 1852 08e1 01       		.uleb128 0x1
 1853 08e2 50       		.byte	0x50
 1854 08e3 03       		.uleb128 0x3
 1855 08e4 0A       		.byte	0xa
 1856 08e5 0059     		.2byte	0x5900
 1857 08e7 00       		.byte	0
 1858 08e8 00       		.byte	0
 1859 08e9 22       		.uleb128 0x22
 1860 08ea C8010000 		.4byte	.LVL49
 1861 08ee D70A0000 		.4byte	0xad7
 1862 08f2 23       		.uleb128 0x23
 1863 08f3 01       		.uleb128 0x1
ARM GAS  /tmp/ccKnk30r.s 			page 34


 1864 08f4 50       		.byte	0x50
 1865 08f5 05       		.uleb128 0x5
 1866 08f6 03       		.byte	0x3
 1867 08f7 00000000 		.4byte	.LC0
 1868 08fb 00       		.byte	0
 1869 08fc 00       		.byte	0
 1870 08fd 00       		.byte	0
 1871 08fe 22       		.uleb128 0x22
 1872 08ff BC010000 		.4byte	.LVL46
 1873 0903 060B0000 		.4byte	0xb06
 1874 0907 23       		.uleb128 0x23
 1875 0908 01       		.uleb128 0x1
 1876 0909 52       		.byte	0x52
 1877 090a 01       		.uleb128 0x1
 1878 090b 34       		.byte	0x34
 1879 090c 23       		.uleb128 0x23
 1880 090d 01       		.uleb128 0x1
 1881 090e 51       		.byte	0x51
 1882 090f 02       		.uleb128 0x2
 1883 0910 91       		.byte	0x91
 1884 0911 40       		.sleb128 -64
 1885 0912 00       		.byte	0
 1886 0913 00       		.byte	0
 1887 0914 30       		.uleb128 0x30
 1888 0915 8E060000 		.4byte	0x68e
 1889 0919 F8010000 		.4byte	.LBB36
 1890 091d 78000000 		.4byte	.Ldebug_ranges0+0x78
 1891 0921 01       		.byte	0x1
 1892 0922 A1       		.byte	0xa1
 1893 0923 64090000 		.4byte	0x964
 1894 0927 26       		.uleb128 0x26
 1895 0928 9A060000 		.4byte	0x69a
 1896 092c 9B020000 		.4byte	.LLST10
 1897 0930 31       		.uleb128 0x31
 1898 0931 78000000 		.4byte	.Ldebug_ranges0+0x78
 1899 0935 27       		.uleb128 0x27
 1900 0936 A5060000 		.4byte	0x6a5
 1901 093a 02       		.uleb128 0x2
 1902 093b 91       		.byte	0x91
 1903 093c 40       		.sleb128 -64
 1904 093d 32       		.uleb128 0x32
 1905 093e B0060000 		.4byte	0x6b0
 1906 0942 AE020000 		.4byte	.LLST11
 1907 0946 22       		.uleb128 0x22
 1908 0947 40020000 		.4byte	.LVL57
 1909 094b 060B0000 		.4byte	0xb06
 1910 094f 23       		.uleb128 0x23
 1911 0950 01       		.uleb128 0x1
 1912 0951 52       		.byte	0x52
 1913 0952 02       		.uleb128 0x2
 1914 0953 08       		.byte	0x8
 1915 0954 20       		.byte	0x20
 1916 0955 23       		.uleb128 0x23
 1917 0956 01       		.uleb128 0x1
 1918 0957 51       		.byte	0x51
 1919 0958 02       		.uleb128 0x2
 1920 0959 78       		.byte	0x78
ARM GAS  /tmp/ccKnk30r.s 			page 35


 1921 095a 00       		.sleb128 0
 1922 095b 23       		.uleb128 0x23
 1923 095c 01       		.uleb128 0x1
 1924 095d 50       		.byte	0x50
 1925 095e 02       		.uleb128 0x2
 1926 095f 91       		.byte	0x91
 1927 0960 40       		.sleb128 -64
 1928 0961 00       		.byte	0
 1929 0962 00       		.byte	0
 1930 0963 00       		.byte	0
 1931 0964 29       		.uleb128 0x29
 1932 0965 58000000 		.4byte	.LVL14
 1933 0969 250B0000 		.4byte	0xb25
 1934 096d 83090000 		.4byte	0x983
 1935 0971 23       		.uleb128 0x23
 1936 0972 01       		.uleb128 0x1
 1937 0973 52       		.byte	0x52
 1938 0974 01       		.uleb128 0x1
 1939 0975 40       		.byte	0x40
 1940 0976 23       		.uleb128 0x23
 1941 0977 01       		.uleb128 0x1
 1942 0978 51       		.byte	0x51
 1943 0979 02       		.uleb128 0x2
 1944 097a 79       		.byte	0x79
 1945 097b 00       		.sleb128 0
 1946 097c 23       		.uleb128 0x23
 1947 097d 01       		.uleb128 0x1
 1948 097e 50       		.byte	0x50
 1949 097f 02       		.uleb128 0x2
 1950 0980 78       		.byte	0x78
 1951 0981 10       		.sleb128 16
 1952 0982 00       		.byte	0
 1953 0983 33       		.uleb128 0x33
 1954 0984 B0000000 		.4byte	.LVL20
 1955 0988 440B0000 		.4byte	0xb44
 1956 098c 29       		.uleb128 0x29
 1957 098d EE000000 		.4byte	.LVL26
 1958 0991 D70A0000 		.4byte	0xad7
 1959 0995 AC090000 		.4byte	0x9ac
 1960 0999 23       		.uleb128 0x23
 1961 099a 01       		.uleb128 0x1
 1962 099b 51       		.byte	0x51
 1963 099c 05       		.uleb128 0x5
 1964 099d 78       		.byte	0x78
 1965 099e 00       		.sleb128 0
 1966 099f 08       		.byte	0x8
 1967 09a0 FF       		.byte	0xff
 1968 09a1 1A       		.byte	0x1a
 1969 09a2 23       		.uleb128 0x23
 1970 09a3 01       		.uleb128 0x1
 1971 09a4 50       		.byte	0x50
 1972 09a5 05       		.uleb128 0x5
 1973 09a6 03       		.byte	0x3
 1974 09a7 40000000 		.4byte	.LC15
 1975 09ab 00       		.byte	0
 1976 09ac 29       		.uleb128 0x29
 1977 09ad 2A010000 		.4byte	.LVL30
ARM GAS  /tmp/ccKnk30r.s 			page 36


 1978 09b1 5E0B0000 		.4byte	0xb5e
 1979 09b5 D0090000 		.4byte	0x9d0
 1980 09b9 23       		.uleb128 0x23
 1981 09ba 01       		.uleb128 0x1
 1982 09bb 53       		.byte	0x53
 1983 09bc 03       		.uleb128 0x3
 1984 09bd 91       		.byte	0x91
 1985 09be BC7F     		.sleb128 -68
 1986 09c0 23       		.uleb128 0x23
 1987 09c1 01       		.uleb128 0x1
 1988 09c2 52       		.byte	0x52
 1989 09c3 05       		.uleb128 0x5
 1990 09c4 0C       		.byte	0xc
 1991 09c5 BEBAD032 		.4byte	0x32d0babe
 1992 09c9 23       		.uleb128 0x23
 1993 09ca 01       		.uleb128 0x1
 1994 09cb 50       		.byte	0x50
 1995 09cc 02       		.uleb128 0x2
 1996 09cd 74       		.byte	0x74
 1997 09ce 00       		.sleb128 0
 1998 09cf 00       		.byte	0
 1999 09d0 29       		.uleb128 0x29
 2000 09d1 3A010000 		.4byte	.LVL31
 2001 09d5 D70A0000 		.4byte	0xad7
 2002 09d9 E7090000 		.4byte	0x9e7
 2003 09dd 23       		.uleb128 0x23
 2004 09de 01       		.uleb128 0x1
 2005 09df 50       		.byte	0x50
 2006 09e0 05       		.uleb128 0x5
 2007 09e1 03       		.byte	0x3
 2008 09e2 48000000 		.4byte	.LC19
 2009 09e6 00       		.byte	0
 2010 09e7 29       		.uleb128 0x29
 2011 09e8 46010000 		.4byte	.LVL32
 2012 09ec D70A0000 		.4byte	0xad7
 2013 09f0 FE090000 		.4byte	0x9fe
 2014 09f4 23       		.uleb128 0x23
 2015 09f5 01       		.uleb128 0x1
 2016 09f6 50       		.byte	0x50
 2017 09f7 05       		.uleb128 0x5
 2018 09f8 03       		.byte	0x3
 2019 09f9 80000000 		.4byte	.LC21
 2020 09fd 00       		.byte	0
 2021 09fe 29       		.uleb128 0x29
 2022 09ff 5A010000 		.4byte	.LVL33
 2023 0a03 440B0000 		.4byte	0xb44
 2024 0a07 150A0000 		.4byte	0xa15
 2025 0a0b 23       		.uleb128 0x23
 2026 0a0c 01       		.uleb128 0x1
 2027 0a0d 50       		.byte	0x50
 2028 0a0e 05       		.uleb128 0x5
 2029 0a0f 74       		.byte	0x74
 2030 0a10 807E     		.sleb128 -256
 2031 0a12 3A       		.byte	0x3a
 2032 0a13 25       		.byte	0x25
 2033 0a14 00       		.byte	0
 2034 0a15 22       		.uleb128 0x22
ARM GAS  /tmp/ccKnk30r.s 			page 37


 2035 0a16 F8010000 		.4byte	.LVL52
 2036 0a1a 440B0000 		.4byte	0xb44
 2037 0a1e 23       		.uleb128 0x23
 2038 0a1f 01       		.uleb128 0x1
 2039 0a20 50       		.byte	0x50
 2040 0a21 04       		.uleb128 0x4
 2041 0a22 78       		.byte	0x78
 2042 0a23 00       		.sleb128 0
 2043 0a24 3A       		.byte	0x3a
 2044 0a25 25       		.byte	0x25
 2045 0a26 00       		.byte	0
 2046 0a27 00       		.byte	0
 2047 0a28 29       		.uleb128 0x29
 2048 0a29 16000000 		.4byte	.LVL10
 2049 0a2d D70A0000 		.4byte	0xad7
 2050 0a31 3F0A0000 		.4byte	0xa3f
 2051 0a35 23       		.uleb128 0x23
 2052 0a36 01       		.uleb128 0x1
 2053 0a37 50       		.byte	0x50
 2054 0a38 05       		.uleb128 0x5
 2055 0a39 03       		.byte	0x3
 2056 0a3a 24000000 		.4byte	.LC5
 2057 0a3e 00       		.byte	0
 2058 0a3f 22       		.uleb128 0x22
 2059 0a40 36020000 		.4byte	.LVL56
 2060 0a44 E90A0000 		.4byte	0xae9
 2061 0a48 23       		.uleb128 0x23
 2062 0a49 01       		.uleb128 0x1
 2063 0a4a 52       		.byte	0x52
 2064 0a4b 01       		.uleb128 0x1
 2065 0a4c 40       		.byte	0x40
 2066 0a4d 23       		.uleb128 0x23
 2067 0a4e 01       		.uleb128 0x1
 2068 0a4f 51       		.byte	0x51
 2069 0a50 02       		.uleb128 0x2
 2070 0a51 79       		.byte	0x79
 2071 0a52 00       		.sleb128 0
 2072 0a53 23       		.uleb128 0x23
 2073 0a54 01       		.uleb128 0x1
 2074 0a55 50       		.byte	0x50
 2075 0a56 02       		.uleb128 0x2
 2076 0a57 91       		.byte	0x91
 2077 0a58 50       		.sleb128 -48
 2078 0a59 00       		.byte	0
 2079 0a5a 00       		.byte	0
 2080 0a5b 11       		.uleb128 0x11
 2081 0a5c 04       		.byte	0x4
 2082 0a5d F4030000 		.4byte	0x3f4
 2083 0a61 2F       		.uleb128 0x2f
 2084 0a62 9D020000 		.4byte	.LASF96
 2085 0a66 01       		.byte	0x1
 2086 0a67 59       		.byte	0x59
 2087 0a68 13060000 		.4byte	0x613
 2088 0a6c 05       		.uleb128 0x5
 2089 0a6d 03       		.byte	0x3
 2090 0a6e 00000000 		.4byte	astate
 2091 0a72 34       		.uleb128 0x34
ARM GAS  /tmp/ccKnk30r.s 			page 38


 2092 0a73 6E696C00 		.ascii	"nil\000"
 2093 0a77 04       		.byte	0x4
 2094 0a78 C203     		.2byte	0x3c2
 2095 0a7a 08030000 		.4byte	0x308
 2096 0a7e 09       		.uleb128 0x9
 2097 0a7f 8D000000 		.4byte	0x8d
 2098 0a83 890A0000 		.4byte	0xa89
 2099 0a87 35       		.uleb128 0x35
 2100 0a88 00       		.byte	0
 2101 0a89 36       		.uleb128 0x36
 2102 0a8a 54040000 		.4byte	.LASF97
 2103 0a8e 0C       		.byte	0xc
 2104 0a8f 27       		.byte	0x27
 2105 0a90 7E0A0000 		.4byte	0xa7e
 2106 0a94 36       		.uleb128 0x36
 2107 0a95 F0040000 		.4byte	.LASF98
 2108 0a99 0C       		.byte	0xc
 2109 0a9a 29       		.byte	0x29
 2110 0a9b 7E0A0000 		.4byte	0xa7e
 2111 0a9f 36       		.uleb128 0x36
 2112 0aa0 4F030000 		.4byte	.LASF99
 2113 0aa4 09       		.byte	0x9
 2114 0aa5 26       		.byte	0x26
 2115 0aa6 69000000 		.4byte	0x69
 2116 0aaa 37       		.uleb128 0x37
 2117 0aab 32030000 		.4byte	.LASF100
 2118 0aaf 01       		.byte	0x1
 2119 0ab0 5B       		.byte	0x5b
 2120 0ab1 BB0A0000 		.4byte	0xabb
 2121 0ab5 05       		.uleb128 0x5
 2122 0ab6 03       		.byte	0x3
 2123 0ab7 00000000 		.4byte	storageHdr
 2124 0abb 11       		.uleb128 0x11
 2125 0abc 04       		.byte	0x4
 2126 0abd C10A0000 		.4byte	0xac1
 2127 0ac1 12       		.uleb128 0x12
 2128 0ac2 EC040000 		.4byte	0x4ec
 2129 0ac6 38       		.uleb128 0x38
 2130 0ac7 E8040000 		.4byte	.LASF101
 2131 0acb 0B       		.byte	0xb
 2132 0acc 1E       		.byte	0x1e
 2133 0acd D70A0000 		.4byte	0xad7
 2134 0ad1 39       		.uleb128 0x39
 2135 0ad2 36060000 		.4byte	0x636
 2136 0ad6 00       		.byte	0
 2137 0ad7 38       		.uleb128 0x38
 2138 0ad8 4B000000 		.4byte	.LASF102
 2139 0adc 0D       		.byte	0xd
 2140 0add 62       		.byte	0x62
 2141 0ade E90A0000 		.4byte	0xae9
 2142 0ae2 39       		.uleb128 0x39
 2143 0ae3 6E040000 		.4byte	0x46e
 2144 0ae7 3A       		.uleb128 0x3a
 2145 0ae8 00       		.byte	0
 2146 0ae9 3B       		.uleb128 0x3b
 2147 0aea B8000000 		.4byte	.LASF103
 2148 0aee CC010000 		.4byte	0x1cc
ARM GAS  /tmp/ccKnk30r.s 			page 39


 2149 0af2 060B0000 		.4byte	0xb06
 2150 0af6 39       		.uleb128 0x39
 2151 0af7 CC010000 		.4byte	0x1cc
 2152 0afb 39       		.uleb128 0x39
 2153 0afc 74040000 		.4byte	0x474
 2154 0b00 39       		.uleb128 0x39
 2155 0b01 47010000 		.4byte	0x147
 2156 0b05 00       		.byte	0
 2157 0b06 3C       		.uleb128 0x3c
 2158 0b07 21000000 		.4byte	.LASF104
 2159 0b0b 0E       		.byte	0xe
 2160 0b0c 9D       		.byte	0x9d
 2161 0b0d 3E000000 		.4byte	0x3e
 2162 0b11 250B0000 		.4byte	0xb25
 2163 0b15 39       		.uleb128 0x39
 2164 0b16 78030000 		.4byte	0x378
 2165 0b1a 39       		.uleb128 0x39
 2166 0b1b 78030000 		.4byte	0x378
 2167 0b1f 39       		.uleb128 0x39
 2168 0b20 8D000000 		.4byte	0x8d
 2169 0b24 00       		.byte	0
 2170 0b25 3C       		.uleb128 0x3c
 2171 0b26 AE040000 		.4byte	.LASF105
 2172 0b2a 0F       		.byte	0xf
 2173 0b2b 45       		.byte	0x45
 2174 0b2c 25000000 		.4byte	0x25
 2175 0b30 440B0000 		.4byte	0xb44
 2176 0b34 39       		.uleb128 0x39
 2177 0b35 74040000 		.4byte	0x474
 2178 0b39 39       		.uleb128 0x39
 2179 0b3a 74040000 		.4byte	0x474
 2180 0b3e 39       		.uleb128 0x39
 2181 0b3f 2C000000 		.4byte	0x2c
 2182 0b43 00       		.byte	0
 2183 0b44 3C       		.uleb128 0x3c
 2184 0b45 E8000000 		.4byte	.LASF106
 2185 0b49 0E       		.byte	0xe
 2186 0b4a 9C       		.byte	0x9c
 2187 0b4b 3E000000 		.4byte	0x3e
 2188 0b4f 5E0B0000 		.4byte	0xb5e
 2189 0b53 39       		.uleb128 0x39
 2190 0b54 8D000000 		.4byte	0x8d
 2191 0b58 39       		.uleb128 0x39
 2192 0b59 7B000000 		.4byte	0x7b
 2193 0b5d 00       		.byte	0
 2194 0b5e 3D       		.uleb128 0x3d
 2195 0b5f 0A050000 		.4byte	.LASF112
 2196 0b63 10       		.byte	0x10
 2197 0b64 0F       		.byte	0xf
 2198 0b65 39       		.uleb128 0x39
 2199 0b66 74040000 		.4byte	0x474
 2200 0b6a 39       		.uleb128 0x39
 2201 0b6b 25000000 		.4byte	0x25
 2202 0b6f 39       		.uleb128 0x39
 2203 0b70 8D000000 		.4byte	0x8d
 2204 0b74 39       		.uleb128 0x39
 2205 0b75 CC010000 		.4byte	0x1cc
ARM GAS  /tmp/ccKnk30r.s 			page 40


 2206 0b79 00       		.byte	0
 2207 0b7a 00       		.byte	0
 2208              		.section	.debug_abbrev,"",%progbits
 2209              	.Ldebug_abbrev0:
 2210 0000 01       		.uleb128 0x1
 2211 0001 11       		.uleb128 0x11
 2212 0002 01       		.byte	0x1
 2213 0003 25       		.uleb128 0x25
 2214 0004 0E       		.uleb128 0xe
 2215 0005 13       		.uleb128 0x13
 2216 0006 0B       		.uleb128 0xb
 2217 0007 03       		.uleb128 0x3
 2218 0008 0E       		.uleb128 0xe
 2219 0009 1B       		.uleb128 0x1b
 2220 000a 0E       		.uleb128 0xe
 2221 000b 55       		.uleb128 0x55
 2222 000c 17       		.uleb128 0x17
 2223 000d 11       		.uleb128 0x11
 2224 000e 01       		.uleb128 0x1
 2225 000f 10       		.uleb128 0x10
 2226 0010 17       		.uleb128 0x17
 2227 0011 00       		.byte	0
 2228 0012 00       		.byte	0
 2229 0013 02       		.uleb128 0x2
 2230 0014 24       		.uleb128 0x24
 2231 0015 00       		.byte	0
 2232 0016 0B       		.uleb128 0xb
 2233 0017 0B       		.uleb128 0xb
 2234 0018 3E       		.uleb128 0x3e
 2235 0019 0B       		.uleb128 0xb
 2236 001a 03       		.uleb128 0x3
 2237 001b 08       		.uleb128 0x8
 2238 001c 00       		.byte	0
 2239 001d 00       		.byte	0
 2240 001e 03       		.uleb128 0x3
 2241 001f 16       		.uleb128 0x16
 2242 0020 00       		.byte	0
 2243 0021 03       		.uleb128 0x3
 2244 0022 0E       		.uleb128 0xe
 2245 0023 3A       		.uleb128 0x3a
 2246 0024 0B       		.uleb128 0xb
 2247 0025 3B       		.uleb128 0x3b
 2248 0026 0B       		.uleb128 0xb
 2249 0027 49       		.uleb128 0x49
 2250 0028 13       		.uleb128 0x13
 2251 0029 00       		.byte	0
 2252 002a 00       		.byte	0
 2253 002b 04       		.uleb128 0x4
 2254 002c 24       		.uleb128 0x24
 2255 002d 00       		.byte	0
 2256 002e 0B       		.uleb128 0xb
 2257 002f 0B       		.uleb128 0xb
 2258 0030 3E       		.uleb128 0x3e
 2259 0031 0B       		.uleb128 0xb
 2260 0032 03       		.uleb128 0x3
 2261 0033 0E       		.uleb128 0xe
 2262 0034 00       		.byte	0
ARM GAS  /tmp/ccKnk30r.s 			page 41


 2263 0035 00       		.byte	0
 2264 0036 05       		.uleb128 0x5
 2265 0037 13       		.uleb128 0x13
 2266 0038 01       		.byte	0x1
 2267 0039 03       		.uleb128 0x3
 2268 003a 0E       		.uleb128 0xe
 2269 003b 0B       		.uleb128 0xb
 2270 003c 0B       		.uleb128 0xb
 2271 003d 3A       		.uleb128 0x3a
 2272 003e 0B       		.uleb128 0xb
 2273 003f 3B       		.uleb128 0x3b
 2274 0040 05       		.uleb128 0x5
 2275 0041 01       		.uleb128 0x1
 2276 0042 13       		.uleb128 0x13
 2277 0043 00       		.byte	0
 2278 0044 00       		.byte	0
 2279 0045 06       		.uleb128 0x6
 2280 0046 0D       		.uleb128 0xd
 2281 0047 00       		.byte	0
 2282 0048 03       		.uleb128 0x3
 2283 0049 0E       		.uleb128 0xe
 2284 004a 3A       		.uleb128 0x3a
 2285 004b 0B       		.uleb128 0xb
 2286 004c 3B       		.uleb128 0x3b
 2287 004d 05       		.uleb128 0x5
 2288 004e 49       		.uleb128 0x49
 2289 004f 13       		.uleb128 0x13
 2290 0050 38       		.uleb128 0x38
 2291 0051 0B       		.uleb128 0xb
 2292 0052 00       		.byte	0
 2293 0053 00       		.byte	0
 2294 0054 07       		.uleb128 0x7
 2295 0055 0D       		.uleb128 0xd
 2296 0056 00       		.byte	0
 2297 0057 03       		.uleb128 0x3
 2298 0058 08       		.uleb128 0x8
 2299 0059 3A       		.uleb128 0x3a
 2300 005a 0B       		.uleb128 0xb
 2301 005b 3B       		.uleb128 0x3b
 2302 005c 05       		.uleb128 0x5
 2303 005d 49       		.uleb128 0x49
 2304 005e 13       		.uleb128 0x13
 2305 005f 38       		.uleb128 0x38
 2306 0060 0B       		.uleb128 0xb
 2307 0061 00       		.byte	0
 2308 0062 00       		.byte	0
 2309 0063 08       		.uleb128 0x8
 2310 0064 35       		.uleb128 0x35
 2311 0065 00       		.byte	0
 2312 0066 49       		.uleb128 0x49
 2313 0067 13       		.uleb128 0x13
 2314 0068 00       		.byte	0
 2315 0069 00       		.byte	0
 2316 006a 09       		.uleb128 0x9
 2317 006b 01       		.uleb128 0x1
 2318 006c 01       		.byte	0x1
 2319 006d 49       		.uleb128 0x49
ARM GAS  /tmp/ccKnk30r.s 			page 42


 2320 006e 13       		.uleb128 0x13
 2321 006f 01       		.uleb128 0x1
 2322 0070 13       		.uleb128 0x13
 2323 0071 00       		.byte	0
 2324 0072 00       		.byte	0
 2325 0073 0A       		.uleb128 0xa
 2326 0074 21       		.uleb128 0x21
 2327 0075 00       		.byte	0
 2328 0076 49       		.uleb128 0x49
 2329 0077 13       		.uleb128 0x13
 2330 0078 2F       		.uleb128 0x2f
 2331 0079 0B       		.uleb128 0xb
 2332 007a 00       		.byte	0
 2333 007b 00       		.byte	0
 2334 007c 0B       		.uleb128 0xb
 2335 007d 13       		.uleb128 0x13
 2336 007e 01       		.byte	0x1
 2337 007f 0B       		.uleb128 0xb
 2338 0080 0B       		.uleb128 0xb
 2339 0081 3A       		.uleb128 0x3a
 2340 0082 0B       		.uleb128 0xb
 2341 0083 3B       		.uleb128 0x3b
 2342 0084 0B       		.uleb128 0xb
 2343 0085 01       		.uleb128 0x1
 2344 0086 13       		.uleb128 0x13
 2345 0087 00       		.byte	0
 2346 0088 00       		.byte	0
 2347 0089 0C       		.uleb128 0xc
 2348 008a 0D       		.uleb128 0xd
 2349 008b 00       		.byte	0
 2350 008c 03       		.uleb128 0x3
 2351 008d 0E       		.uleb128 0xe
 2352 008e 3A       		.uleb128 0x3a
 2353 008f 0B       		.uleb128 0xb
 2354 0090 3B       		.uleb128 0x3b
 2355 0091 0B       		.uleb128 0xb
 2356 0092 49       		.uleb128 0x49
 2357 0093 13       		.uleb128 0x13
 2358 0094 38       		.uleb128 0x38
 2359 0095 0B       		.uleb128 0xb
 2360 0096 00       		.byte	0
 2361 0097 00       		.byte	0
 2362 0098 0D       		.uleb128 0xd
 2363 0099 16       		.uleb128 0x16
 2364 009a 00       		.byte	0
 2365 009b 03       		.uleb128 0x3
 2366 009c 0E       		.uleb128 0xe
 2367 009d 3A       		.uleb128 0x3a
 2368 009e 0B       		.uleb128 0xb
 2369 009f 3B       		.uleb128 0x3b
 2370 00a0 05       		.uleb128 0x5
 2371 00a1 49       		.uleb128 0x49
 2372 00a2 13       		.uleb128 0x13
 2373 00a3 00       		.byte	0
 2374 00a4 00       		.byte	0
 2375 00a5 0E       		.uleb128 0xe
 2376 00a6 0F       		.uleb128 0xf
ARM GAS  /tmp/ccKnk30r.s 			page 43


 2377 00a7 00       		.byte	0
 2378 00a8 0B       		.uleb128 0xb
 2379 00a9 0B       		.uleb128 0xb
 2380 00aa 00       		.byte	0
 2381 00ab 00       		.byte	0
 2382 00ac 0F       		.uleb128 0xf
 2383 00ad 13       		.uleb128 0x13
 2384 00ae 01       		.byte	0x1
 2385 00af 03       		.uleb128 0x3
 2386 00b0 0E       		.uleb128 0xe
 2387 00b1 0B       		.uleb128 0xb
 2388 00b2 0B       		.uleb128 0xb
 2389 00b3 3A       		.uleb128 0x3a
 2390 00b4 0B       		.uleb128 0xb
 2391 00b5 3B       		.uleb128 0x3b
 2392 00b6 0B       		.uleb128 0xb
 2393 00b7 01       		.uleb128 0x1
 2394 00b8 13       		.uleb128 0x13
 2395 00b9 00       		.byte	0
 2396 00ba 00       		.byte	0
 2397 00bb 10       		.uleb128 0x10
 2398 00bc 0D       		.uleb128 0xd
 2399 00bd 00       		.byte	0
 2400 00be 03       		.uleb128 0x3
 2401 00bf 08       		.uleb128 0x8
 2402 00c0 3A       		.uleb128 0x3a
 2403 00c1 0B       		.uleb128 0xb
 2404 00c2 3B       		.uleb128 0x3b
 2405 00c3 0B       		.uleb128 0xb
 2406 00c4 49       		.uleb128 0x49
 2407 00c5 13       		.uleb128 0x13
 2408 00c6 38       		.uleb128 0x38
 2409 00c7 0B       		.uleb128 0xb
 2410 00c8 00       		.byte	0
 2411 00c9 00       		.byte	0
 2412 00ca 11       		.uleb128 0x11
 2413 00cb 0F       		.uleb128 0xf
 2414 00cc 00       		.byte	0
 2415 00cd 0B       		.uleb128 0xb
 2416 00ce 0B       		.uleb128 0xb
 2417 00cf 49       		.uleb128 0x49
 2418 00d0 13       		.uleb128 0x13
 2419 00d1 00       		.byte	0
 2420 00d2 00       		.byte	0
 2421 00d3 12       		.uleb128 0x12
 2422 00d4 26       		.uleb128 0x26
 2423 00d5 00       		.byte	0
 2424 00d6 49       		.uleb128 0x49
 2425 00d7 13       		.uleb128 0x13
 2426 00d8 00       		.byte	0
 2427 00d9 00       		.byte	0
 2428 00da 13       		.uleb128 0x13
 2429 00db 17       		.uleb128 0x17
 2430 00dc 01       		.byte	0x1
 2431 00dd 0B       		.uleb128 0xb
 2432 00de 0B       		.uleb128 0xb
 2433 00df 3A       		.uleb128 0x3a
ARM GAS  /tmp/ccKnk30r.s 			page 44


 2434 00e0 0B       		.uleb128 0xb
 2435 00e1 3B       		.uleb128 0x3b
 2436 00e2 05       		.uleb128 0x5
 2437 00e3 01       		.uleb128 0x1
 2438 00e4 13       		.uleb128 0x13
 2439 00e5 00       		.byte	0
 2440 00e6 00       		.byte	0
 2441 00e7 14       		.uleb128 0x14
 2442 00e8 0D       		.uleb128 0xd
 2443 00e9 00       		.byte	0
 2444 00ea 03       		.uleb128 0x3
 2445 00eb 08       		.uleb128 0x8
 2446 00ec 3A       		.uleb128 0x3a
 2447 00ed 0B       		.uleb128 0xb
 2448 00ee 3B       		.uleb128 0x3b
 2449 00ef 05       		.uleb128 0x5
 2450 00f0 49       		.uleb128 0x49
 2451 00f1 13       		.uleb128 0x13
 2452 00f2 00       		.byte	0
 2453 00f3 00       		.byte	0
 2454 00f4 15       		.uleb128 0x15
 2455 00f5 0D       		.uleb128 0xd
 2456 00f6 00       		.byte	0
 2457 00f7 03       		.uleb128 0x3
 2458 00f8 0E       		.uleb128 0xe
 2459 00f9 3A       		.uleb128 0x3a
 2460 00fa 0B       		.uleb128 0xb
 2461 00fb 3B       		.uleb128 0x3b
 2462 00fc 05       		.uleb128 0x5
 2463 00fd 49       		.uleb128 0x49
 2464 00fe 13       		.uleb128 0x13
 2465 00ff 00       		.byte	0
 2466 0100 00       		.byte	0
 2467 0101 16       		.uleb128 0x16
 2468 0102 13       		.uleb128 0x13
 2469 0103 01       		.byte	0x1
 2470 0104 03       		.uleb128 0x3
 2471 0105 0E       		.uleb128 0xe
 2472 0106 0B       		.uleb128 0xb
 2473 0107 05       		.uleb128 0x5
 2474 0108 3A       		.uleb128 0x3a
 2475 0109 0B       		.uleb128 0xb
 2476 010a 3B       		.uleb128 0x3b
 2477 010b 0B       		.uleb128 0xb
 2478 010c 01       		.uleb128 0x1
 2479 010d 13       		.uleb128 0x13
 2480 010e 00       		.byte	0
 2481 010f 00       		.byte	0
 2482 0110 17       		.uleb128 0x17
 2483 0111 0D       		.uleb128 0xd
 2484 0112 00       		.byte	0
 2485 0113 03       		.uleb128 0x3
 2486 0114 0E       		.uleb128 0xe
 2487 0115 3A       		.uleb128 0x3a
 2488 0116 0B       		.uleb128 0xb
 2489 0117 3B       		.uleb128 0x3b
 2490 0118 0B       		.uleb128 0xb
ARM GAS  /tmp/ccKnk30r.s 			page 45


 2491 0119 49       		.uleb128 0x49
 2492 011a 13       		.uleb128 0x13
 2493 011b 38       		.uleb128 0x38
 2494 011c 05       		.uleb128 0x5
 2495 011d 00       		.byte	0
 2496 011e 00       		.byte	0
 2497 011f 18       		.uleb128 0x18
 2498 0120 15       		.uleb128 0x15
 2499 0121 00       		.byte	0
 2500 0122 27       		.uleb128 0x27
 2501 0123 19       		.uleb128 0x19
 2502 0124 00       		.byte	0
 2503 0125 00       		.byte	0
 2504 0126 19       		.uleb128 0x19
 2505 0127 26       		.uleb128 0x26
 2506 0128 00       		.byte	0
 2507 0129 00       		.byte	0
 2508 012a 00       		.byte	0
 2509 012b 1A       		.uleb128 0x1a
 2510 012c 04       		.uleb128 0x4
 2511 012d 01       		.byte	0x1
 2512 012e 03       		.uleb128 0x3
 2513 012f 0E       		.uleb128 0xe
 2514 0130 0B       		.uleb128 0xb
 2515 0131 0B       		.uleb128 0xb
 2516 0132 3A       		.uleb128 0x3a
 2517 0133 0B       		.uleb128 0xb
 2518 0134 3B       		.uleb128 0x3b
 2519 0135 0B       		.uleb128 0xb
 2520 0136 01       		.uleb128 0x1
 2521 0137 13       		.uleb128 0x13
 2522 0138 00       		.byte	0
 2523 0139 00       		.byte	0
 2524 013a 1B       		.uleb128 0x1b
 2525 013b 28       		.uleb128 0x28
 2526 013c 00       		.byte	0
 2527 013d 03       		.uleb128 0x3
 2528 013e 0E       		.uleb128 0xe
 2529 013f 1C       		.uleb128 0x1c
 2530 0140 0D       		.uleb128 0xd
 2531 0141 00       		.byte	0
 2532 0142 00       		.byte	0
 2533 0143 1C       		.uleb128 0x1c
 2534 0144 2E       		.uleb128 0x2e
 2535 0145 01       		.byte	0x1
 2536 0146 3F       		.uleb128 0x3f
 2537 0147 19       		.uleb128 0x19
 2538 0148 03       		.uleb128 0x3
 2539 0149 0E       		.uleb128 0xe
 2540 014a 3A       		.uleb128 0x3a
 2541 014b 0B       		.uleb128 0xb
 2542 014c 3B       		.uleb128 0x3b
 2543 014d 0B       		.uleb128 0xb
 2544 014e 27       		.uleb128 0x27
 2545 014f 19       		.uleb128 0x19
 2546 0150 20       		.uleb128 0x20
 2547 0151 0B       		.uleb128 0xb
ARM GAS  /tmp/ccKnk30r.s 			page 46


 2548 0152 01       		.uleb128 0x1
 2549 0153 13       		.uleb128 0x13
 2550 0154 00       		.byte	0
 2551 0155 00       		.byte	0
 2552 0156 1D       		.uleb128 0x1d
 2553 0157 34       		.uleb128 0x34
 2554 0158 00       		.byte	0
 2555 0159 03       		.uleb128 0x3
 2556 015a 08       		.uleb128 0x8
 2557 015b 3A       		.uleb128 0x3a
 2558 015c 0B       		.uleb128 0xb
 2559 015d 3B       		.uleb128 0x3b
 2560 015e 0B       		.uleb128 0xb
 2561 015f 49       		.uleb128 0x49
 2562 0160 13       		.uleb128 0x13
 2563 0161 00       		.byte	0
 2564 0162 00       		.byte	0
 2565 0163 1E       		.uleb128 0x1e
 2566 0164 2E       		.uleb128 0x2e
 2567 0165 01       		.byte	0x1
 2568 0166 31       		.uleb128 0x31
 2569 0167 13       		.uleb128 0x13
 2570 0168 11       		.uleb128 0x11
 2571 0169 01       		.uleb128 0x1
 2572 016a 12       		.uleb128 0x12
 2573 016b 06       		.uleb128 0x6
 2574 016c 40       		.uleb128 0x40
 2575 016d 18       		.uleb128 0x18
 2576 016e 9742     		.uleb128 0x2117
 2577 0170 19       		.uleb128 0x19
 2578 0171 01       		.uleb128 0x1
 2579 0172 13       		.uleb128 0x13
 2580 0173 00       		.byte	0
 2581 0174 00       		.byte	0
 2582 0175 1F       		.uleb128 0x1f
 2583 0176 34       		.uleb128 0x34
 2584 0177 00       		.byte	0
 2585 0178 31       		.uleb128 0x31
 2586 0179 13       		.uleb128 0x13
 2587 017a 1C       		.uleb128 0x1c
 2588 017b 05       		.uleb128 0x5
 2589 017c 00       		.byte	0
 2590 017d 00       		.byte	0
 2591 017e 20       		.uleb128 0x20
 2592 017f 0B       		.uleb128 0xb
 2593 0180 01       		.byte	0x1
 2594 0181 11       		.uleb128 0x11
 2595 0182 01       		.uleb128 0x1
 2596 0183 12       		.uleb128 0x12
 2597 0184 06       		.uleb128 0x6
 2598 0185 01       		.uleb128 0x1
 2599 0186 13       		.uleb128 0x13
 2600 0187 00       		.byte	0
 2601 0188 00       		.byte	0
 2602 0189 21       		.uleb128 0x21
 2603 018a 34       		.uleb128 0x34
 2604 018b 00       		.byte	0
ARM GAS  /tmp/ccKnk30r.s 			page 47


 2605 018c 31       		.uleb128 0x31
 2606 018d 13       		.uleb128 0x13
 2607 018e 00       		.byte	0
 2608 018f 00       		.byte	0
 2609 0190 22       		.uleb128 0x22
 2610 0191 898201   		.uleb128 0x4109
 2611 0194 01       		.byte	0x1
 2612 0195 11       		.uleb128 0x11
 2613 0196 01       		.uleb128 0x1
 2614 0197 31       		.uleb128 0x31
 2615 0198 13       		.uleb128 0x13
 2616 0199 00       		.byte	0
 2617 019a 00       		.byte	0
 2618 019b 23       		.uleb128 0x23
 2619 019c 8A8201   		.uleb128 0x410a
 2620 019f 00       		.byte	0
 2621 01a0 02       		.uleb128 0x2
 2622 01a1 18       		.uleb128 0x18
 2623 01a2 9142     		.uleb128 0x2111
 2624 01a4 18       		.uleb128 0x18
 2625 01a5 00       		.byte	0
 2626 01a6 00       		.byte	0
 2627 01a7 24       		.uleb128 0x24
 2628 01a8 05       		.uleb128 0x5
 2629 01a9 00       		.byte	0
 2630 01aa 03       		.uleb128 0x3
 2631 01ab 0E       		.uleb128 0xe
 2632 01ac 3A       		.uleb128 0x3a
 2633 01ad 0B       		.uleb128 0xb
 2634 01ae 3B       		.uleb128 0x3b
 2635 01af 0B       		.uleb128 0xb
 2636 01b0 49       		.uleb128 0x49
 2637 01b1 13       		.uleb128 0x13
 2638 01b2 00       		.byte	0
 2639 01b3 00       		.byte	0
 2640 01b4 25       		.uleb128 0x25
 2641 01b5 34       		.uleb128 0x34
 2642 01b6 00       		.byte	0
 2643 01b7 03       		.uleb128 0x3
 2644 01b8 0E       		.uleb128 0xe
 2645 01b9 3A       		.uleb128 0x3a
 2646 01ba 0B       		.uleb128 0xb
 2647 01bb 3B       		.uleb128 0x3b
 2648 01bc 0B       		.uleb128 0xb
 2649 01bd 49       		.uleb128 0x49
 2650 01be 13       		.uleb128 0x13
 2651 01bf 00       		.byte	0
 2652 01c0 00       		.byte	0
 2653 01c1 26       		.uleb128 0x26
 2654 01c2 05       		.uleb128 0x5
 2655 01c3 00       		.byte	0
 2656 01c4 31       		.uleb128 0x31
 2657 01c5 13       		.uleb128 0x13
 2658 01c6 02       		.uleb128 0x2
 2659 01c7 17       		.uleb128 0x17
 2660 01c8 00       		.byte	0
 2661 01c9 00       		.byte	0
ARM GAS  /tmp/ccKnk30r.s 			page 48


 2662 01ca 27       		.uleb128 0x27
 2663 01cb 34       		.uleb128 0x34
 2664 01cc 00       		.byte	0
 2665 01cd 31       		.uleb128 0x31
 2666 01ce 13       		.uleb128 0x13
 2667 01cf 02       		.uleb128 0x2
 2668 01d0 18       		.uleb128 0x18
 2669 01d1 00       		.byte	0
 2670 01d2 00       		.byte	0
 2671 01d3 28       		.uleb128 0x28
 2672 01d4 34       		.uleb128 0x34
 2673 01d5 00       		.byte	0
 2674 01d6 31       		.uleb128 0x31
 2675 01d7 13       		.uleb128 0x13
 2676 01d8 1C       		.uleb128 0x1c
 2677 01d9 0B       		.uleb128 0xb
 2678 01da 00       		.byte	0
 2679 01db 00       		.byte	0
 2680 01dc 29       		.uleb128 0x29
 2681 01dd 898201   		.uleb128 0x4109
 2682 01e0 01       		.byte	0x1
 2683 01e1 11       		.uleb128 0x11
 2684 01e2 01       		.uleb128 0x1
 2685 01e3 31       		.uleb128 0x31
 2686 01e4 13       		.uleb128 0x13
 2687 01e5 01       		.uleb128 0x1
 2688 01e6 13       		.uleb128 0x13
 2689 01e7 00       		.byte	0
 2690 01e8 00       		.byte	0
 2691 01e9 2A       		.uleb128 0x2a
 2692 01ea 2E       		.uleb128 0x2e
 2693 01eb 01       		.byte	0x1
 2694 01ec 3F       		.uleb128 0x3f
 2695 01ed 19       		.uleb128 0x19
 2696 01ee 03       		.uleb128 0x3
 2697 01ef 0E       		.uleb128 0xe
 2698 01f0 3A       		.uleb128 0x3a
 2699 01f1 0B       		.uleb128 0xb
 2700 01f2 3B       		.uleb128 0x3b
 2701 01f3 0B       		.uleb128 0xb
 2702 01f4 27       		.uleb128 0x27
 2703 01f5 19       		.uleb128 0x19
 2704 01f6 49       		.uleb128 0x49
 2705 01f7 13       		.uleb128 0x13
 2706 01f8 11       		.uleb128 0x11
 2707 01f9 01       		.uleb128 0x1
 2708 01fa 12       		.uleb128 0x12
 2709 01fb 06       		.uleb128 0x6
 2710 01fc 40       		.uleb128 0x40
 2711 01fd 18       		.uleb128 0x18
 2712 01fe 9742     		.uleb128 0x2117
 2713 0200 19       		.uleb128 0x19
 2714 0201 01       		.uleb128 0x1
 2715 0202 13       		.uleb128 0x13
 2716 0203 00       		.byte	0
 2717 0204 00       		.byte	0
 2718 0205 2B       		.uleb128 0x2b
ARM GAS  /tmp/ccKnk30r.s 			page 49


 2719 0206 05       		.uleb128 0x5
 2720 0207 00       		.byte	0
 2721 0208 03       		.uleb128 0x3
 2722 0209 08       		.uleb128 0x8
 2723 020a 3A       		.uleb128 0x3a
 2724 020b 0B       		.uleb128 0xb
 2725 020c 3B       		.uleb128 0x3b
 2726 020d 0B       		.uleb128 0xb
 2727 020e 49       		.uleb128 0x49
 2728 020f 13       		.uleb128 0x13
 2729 0210 02       		.uleb128 0x2
 2730 0211 17       		.uleb128 0x17
 2731 0212 00       		.byte	0
 2732 0213 00       		.byte	0
 2733 0214 2C       		.uleb128 0x2c
 2734 0215 34       		.uleb128 0x34
 2735 0216 00       		.byte	0
 2736 0217 03       		.uleb128 0x3
 2737 0218 0E       		.uleb128 0xe
 2738 0219 3A       		.uleb128 0x3a
 2739 021a 0B       		.uleb128 0xb
 2740 021b 3B       		.uleb128 0x3b
 2741 021c 0B       		.uleb128 0xb
 2742 021d 49       		.uleb128 0x49
 2743 021e 13       		.uleb128 0x13
 2744 021f 02       		.uleb128 0x2
 2745 0220 17       		.uleb128 0x17
 2746 0221 00       		.byte	0
 2747 0222 00       		.byte	0
 2748 0223 2D       		.uleb128 0x2d
 2749 0224 34       		.uleb128 0x34
 2750 0225 00       		.byte	0
 2751 0226 03       		.uleb128 0x3
 2752 0227 08       		.uleb128 0x8
 2753 0228 3A       		.uleb128 0x3a
 2754 0229 0B       		.uleb128 0xb
 2755 022a 3B       		.uleb128 0x3b
 2756 022b 0B       		.uleb128 0xb
 2757 022c 49       		.uleb128 0x49
 2758 022d 13       		.uleb128 0x13
 2759 022e 02       		.uleb128 0x2
 2760 022f 17       		.uleb128 0x17
 2761 0230 00       		.byte	0
 2762 0231 00       		.byte	0
 2763 0232 2E       		.uleb128 0x2e
 2764 0233 0B       		.uleb128 0xb
 2765 0234 01       		.byte	0x1
 2766 0235 55       		.uleb128 0x55
 2767 0236 17       		.uleb128 0x17
 2768 0237 01       		.uleb128 0x1
 2769 0238 13       		.uleb128 0x13
 2770 0239 00       		.byte	0
 2771 023a 00       		.byte	0
 2772 023b 2F       		.uleb128 0x2f
 2773 023c 34       		.uleb128 0x34
 2774 023d 00       		.byte	0
 2775 023e 03       		.uleb128 0x3
ARM GAS  /tmp/ccKnk30r.s 			page 50


 2776 023f 0E       		.uleb128 0xe
 2777 0240 3A       		.uleb128 0x3a
 2778 0241 0B       		.uleb128 0xb
 2779 0242 3B       		.uleb128 0x3b
 2780 0243 0B       		.uleb128 0xb
 2781 0244 49       		.uleb128 0x49
 2782 0245 13       		.uleb128 0x13
 2783 0246 02       		.uleb128 0x2
 2784 0247 18       		.uleb128 0x18
 2785 0248 00       		.byte	0
 2786 0249 00       		.byte	0
 2787 024a 30       		.uleb128 0x30
 2788 024b 1D       		.uleb128 0x1d
 2789 024c 01       		.byte	0x1
 2790 024d 31       		.uleb128 0x31
 2791 024e 13       		.uleb128 0x13
 2792 024f 52       		.uleb128 0x52
 2793 0250 01       		.uleb128 0x1
 2794 0251 55       		.uleb128 0x55
 2795 0252 17       		.uleb128 0x17
 2796 0253 58       		.uleb128 0x58
 2797 0254 0B       		.uleb128 0xb
 2798 0255 59       		.uleb128 0x59
 2799 0256 0B       		.uleb128 0xb
 2800 0257 01       		.uleb128 0x1
 2801 0258 13       		.uleb128 0x13
 2802 0259 00       		.byte	0
 2803 025a 00       		.byte	0
 2804 025b 31       		.uleb128 0x31
 2805 025c 0B       		.uleb128 0xb
 2806 025d 01       		.byte	0x1
 2807 025e 55       		.uleb128 0x55
 2808 025f 17       		.uleb128 0x17
 2809 0260 00       		.byte	0
 2810 0261 00       		.byte	0
 2811 0262 32       		.uleb128 0x32
 2812 0263 34       		.uleb128 0x34
 2813 0264 00       		.byte	0
 2814 0265 31       		.uleb128 0x31
 2815 0266 13       		.uleb128 0x13
 2816 0267 02       		.uleb128 0x2
 2817 0268 17       		.uleb128 0x17
 2818 0269 00       		.byte	0
 2819 026a 00       		.byte	0
 2820 026b 33       		.uleb128 0x33
 2821 026c 898201   		.uleb128 0x4109
 2822 026f 00       		.byte	0
 2823 0270 11       		.uleb128 0x11
 2824 0271 01       		.uleb128 0x1
 2825 0272 31       		.uleb128 0x31
 2826 0273 13       		.uleb128 0x13
 2827 0274 00       		.byte	0
 2828 0275 00       		.byte	0
 2829 0276 34       		.uleb128 0x34
 2830 0277 34       		.uleb128 0x34
 2831 0278 00       		.byte	0
 2832 0279 03       		.uleb128 0x3
ARM GAS  /tmp/ccKnk30r.s 			page 51


 2833 027a 08       		.uleb128 0x8
 2834 027b 3A       		.uleb128 0x3a
 2835 027c 0B       		.uleb128 0xb
 2836 027d 3B       		.uleb128 0x3b
 2837 027e 05       		.uleb128 0x5
 2838 027f 49       		.uleb128 0x49
 2839 0280 13       		.uleb128 0x13
 2840 0281 3F       		.uleb128 0x3f
 2841 0282 19       		.uleb128 0x19
 2842 0283 3C       		.uleb128 0x3c
 2843 0284 19       		.uleb128 0x19
 2844 0285 00       		.byte	0
 2845 0286 00       		.byte	0
 2846 0287 35       		.uleb128 0x35
 2847 0288 21       		.uleb128 0x21
 2848 0289 00       		.byte	0
 2849 028a 00       		.byte	0
 2850 028b 00       		.byte	0
 2851 028c 36       		.uleb128 0x36
 2852 028d 34       		.uleb128 0x34
 2853 028e 00       		.byte	0
 2854 028f 03       		.uleb128 0x3
 2855 0290 0E       		.uleb128 0xe
 2856 0291 3A       		.uleb128 0x3a
 2857 0292 0B       		.uleb128 0xb
 2858 0293 3B       		.uleb128 0x3b
 2859 0294 0B       		.uleb128 0xb
 2860 0295 49       		.uleb128 0x49
 2861 0296 13       		.uleb128 0x13
 2862 0297 3F       		.uleb128 0x3f
 2863 0298 19       		.uleb128 0x19
 2864 0299 3C       		.uleb128 0x3c
 2865 029a 19       		.uleb128 0x19
 2866 029b 00       		.byte	0
 2867 029c 00       		.byte	0
 2868 029d 37       		.uleb128 0x37
 2869 029e 34       		.uleb128 0x34
 2870 029f 00       		.byte	0
 2871 02a0 03       		.uleb128 0x3
 2872 02a1 0E       		.uleb128 0xe
 2873 02a2 3A       		.uleb128 0x3a
 2874 02a3 0B       		.uleb128 0xb
 2875 02a4 3B       		.uleb128 0x3b
 2876 02a5 0B       		.uleb128 0xb
 2877 02a6 49       		.uleb128 0x49
 2878 02a7 13       		.uleb128 0x13
 2879 02a8 3F       		.uleb128 0x3f
 2880 02a9 19       		.uleb128 0x19
 2881 02aa 02       		.uleb128 0x2
 2882 02ab 18       		.uleb128 0x18
 2883 02ac 00       		.byte	0
 2884 02ad 00       		.byte	0
 2885 02ae 38       		.uleb128 0x38
 2886 02af 2E       		.uleb128 0x2e
 2887 02b0 01       		.byte	0x1
 2888 02b1 3F       		.uleb128 0x3f
 2889 02b2 19       		.uleb128 0x19
ARM GAS  /tmp/ccKnk30r.s 			page 52


 2890 02b3 03       		.uleb128 0x3
 2891 02b4 0E       		.uleb128 0xe
 2892 02b5 3A       		.uleb128 0x3a
 2893 02b6 0B       		.uleb128 0xb
 2894 02b7 3B       		.uleb128 0x3b
 2895 02b8 0B       		.uleb128 0xb
 2896 02b9 27       		.uleb128 0x27
 2897 02ba 19       		.uleb128 0x19
 2898 02bb 3C       		.uleb128 0x3c
 2899 02bc 19       		.uleb128 0x19
 2900 02bd 01       		.uleb128 0x1
 2901 02be 13       		.uleb128 0x13
 2902 02bf 00       		.byte	0
 2903 02c0 00       		.byte	0
 2904 02c1 39       		.uleb128 0x39
 2905 02c2 05       		.uleb128 0x5
 2906 02c3 00       		.byte	0
 2907 02c4 49       		.uleb128 0x49
 2908 02c5 13       		.uleb128 0x13
 2909 02c6 00       		.byte	0
 2910 02c7 00       		.byte	0
 2911 02c8 3A       		.uleb128 0x3a
 2912 02c9 18       		.uleb128 0x18
 2913 02ca 00       		.byte	0
 2914 02cb 00       		.byte	0
 2915 02cc 00       		.byte	0
 2916 02cd 3B       		.uleb128 0x3b
 2917 02ce 2E       		.uleb128 0x2e
 2918 02cf 01       		.byte	0x1
 2919 02d0 3F       		.uleb128 0x3f
 2920 02d1 19       		.uleb128 0x19
 2921 02d2 03       		.uleb128 0x3
 2922 02d3 0E       		.uleb128 0xe
 2923 02d4 27       		.uleb128 0x27
 2924 02d5 19       		.uleb128 0x19
 2925 02d6 49       		.uleb128 0x49
 2926 02d7 13       		.uleb128 0x13
 2927 02d8 34       		.uleb128 0x34
 2928 02d9 19       		.uleb128 0x19
 2929 02da 3C       		.uleb128 0x3c
 2930 02db 19       		.uleb128 0x19
 2931 02dc 01       		.uleb128 0x1
 2932 02dd 13       		.uleb128 0x13
 2933 02de 00       		.byte	0
 2934 02df 00       		.byte	0
 2935 02e0 3C       		.uleb128 0x3c
 2936 02e1 2E       		.uleb128 0x2e
 2937 02e2 01       		.byte	0x1
 2938 02e3 3F       		.uleb128 0x3f
 2939 02e4 19       		.uleb128 0x19
 2940 02e5 03       		.uleb128 0x3
 2941 02e6 0E       		.uleb128 0xe
 2942 02e7 3A       		.uleb128 0x3a
 2943 02e8 0B       		.uleb128 0xb
 2944 02e9 3B       		.uleb128 0x3b
 2945 02ea 0B       		.uleb128 0xb
 2946 02eb 27       		.uleb128 0x27
ARM GAS  /tmp/ccKnk30r.s 			page 53


 2947 02ec 19       		.uleb128 0x19
 2948 02ed 49       		.uleb128 0x49
 2949 02ee 13       		.uleb128 0x13
 2950 02ef 3C       		.uleb128 0x3c
 2951 02f0 19       		.uleb128 0x19
 2952 02f1 01       		.uleb128 0x1
 2953 02f2 13       		.uleb128 0x13
 2954 02f3 00       		.byte	0
 2955 02f4 00       		.byte	0
 2956 02f5 3D       		.uleb128 0x3d
 2957 02f6 2E       		.uleb128 0x2e
 2958 02f7 01       		.byte	0x1
 2959 02f8 3F       		.uleb128 0x3f
 2960 02f9 19       		.uleb128 0x19
 2961 02fa 03       		.uleb128 0x3
 2962 02fb 0E       		.uleb128 0xe
 2963 02fc 3A       		.uleb128 0x3a
 2964 02fd 0B       		.uleb128 0xb
 2965 02fe 3B       		.uleb128 0x3b
 2966 02ff 0B       		.uleb128 0xb
 2967 0300 27       		.uleb128 0x27
 2968 0301 19       		.uleb128 0x19
 2969 0302 3C       		.uleb128 0x3c
 2970 0303 19       		.uleb128 0x19
 2971 0304 00       		.byte	0
 2972 0305 00       		.byte	0
 2973 0306 00       		.byte	0
 2974              		.section	.debug_loc,"",%progbits
 2975              	.Ldebug_loc0:
 2976              	.LLST0:
 2977 0000 00000000 		.4byte	.LVL3
 2978 0004 38000000 		.4byte	.LVL4
 2979 0008 0100     		.2byte	0x1
 2980 000a 50       		.byte	0x50
 2981 000b 38000000 		.4byte	.LVL4
 2982 000f 43000000 		.4byte	.LVL6-1
 2983 0013 0300     		.2byte	0x3
 2984 0015 71       		.byte	0x71
 2985 0016 77       		.sleb128 -9
 2986 0017 9F       		.byte	0x9f
 2987 0018 43000000 		.4byte	.LVL6-1
 2988 001c 5C000000 		.4byte	.LFE105
 2989 0020 0400     		.2byte	0x4
 2990 0022 F3       		.byte	0xf3
 2991 0023 01       		.uleb128 0x1
 2992 0024 50       		.byte	0x50
 2993 0025 9F       		.byte	0x9f
 2994 0026 00000000 		.4byte	0
 2995 002a 00000000 		.4byte	0
 2996              	.LLST1:
 2997 002e 00000000 		.4byte	.LVL8
 2998 0032 12000000 		.4byte	.LVL9
 2999 0036 0100     		.2byte	0x1
 3000 0038 50       		.byte	0x50
 3001 0039 12000000 		.4byte	.LVL9
 3002 003d 26000000 		.4byte	.LVL11
 3003 0041 0100     		.2byte	0x1
ARM GAS  /tmp/ccKnk30r.s 			page 54


 3004 0043 57       		.byte	0x57
 3005 0044 26000000 		.4byte	.LVL11
 3006 0048 38000000 		.4byte	.LVL13
 3007 004c 0400     		.2byte	0x4
 3008 004e F3       		.byte	0xf3
 3009 004f 01       		.uleb128 0x1
 3010 0050 50       		.byte	0x50
 3011 0051 9F       		.byte	0x9f
 3012 0052 38000000 		.4byte	.LVL13
 3013 0056 FC000000 		.4byte	.LVL27
 3014 005a 0100     		.2byte	0x1
 3015 005c 57       		.byte	0x57
 3016 005d FC000000 		.4byte	.LVL27
 3017 0061 62010000 		.4byte	.LVL35
 3018 0065 0400     		.2byte	0x4
 3019 0067 F3       		.byte	0xf3
 3020 0068 01       		.uleb128 0x1
 3021 0069 50       		.byte	0x50
 3022 006a 9F       		.byte	0x9f
 3023 006b 62010000 		.4byte	.LVL35
 3024 006f AE010000 		.4byte	.LVL45
 3025 0073 0100     		.2byte	0x1
 3026 0075 57       		.byte	0x57
 3027 0076 AE010000 		.4byte	.LVL45
 3028 007a E4010000 		.4byte	.LVL51
 3029 007e 0400     		.2byte	0x4
 3030 0080 F3       		.byte	0xf3
 3031 0081 01       		.uleb128 0x1
 3032 0082 50       		.byte	0x50
 3033 0083 9F       		.byte	0x9f
 3034 0084 E4010000 		.4byte	.LVL51
 3035 0088 42020000 		.4byte	.LVL58
 3036 008c 0100     		.2byte	0x1
 3037 008e 57       		.byte	0x57
 3038 008f 42020000 		.4byte	.LVL58
 3039 0093 98020000 		.4byte	.LFE106
 3040 0097 0400     		.2byte	0x4
 3041 0099 F3       		.byte	0xf3
 3042 009a 01       		.uleb128 0x1
 3043 009b 50       		.byte	0x50
 3044 009c 9F       		.byte	0x9f
 3045 009d 00000000 		.4byte	0
 3046 00a1 00000000 		.4byte	0
 3047              	.LLST2:
 3048 00a5 B6000000 		.4byte	.LVL22
 3049 00a9 FC000000 		.4byte	.LVL27
 3050 00ad 0100     		.2byte	0x1
 3051 00af 57       		.byte	0x57
 3052 00b0 FC000000 		.4byte	.LVL27
 3053 00b4 62010000 		.4byte	.LVL35
 3054 00b8 0400     		.2byte	0x4
 3055 00ba F3       		.byte	0xf3
 3056 00bb 01       		.uleb128 0x1
 3057 00bc 50       		.byte	0x50
 3058 00bd 9F       		.byte	0x9f
 3059 00be 6E010000 		.4byte	.LVL36
 3060 00c2 AE010000 		.4byte	.LVL45
ARM GAS  /tmp/ccKnk30r.s 			page 55


 3061 00c6 0100     		.2byte	0x1
 3062 00c8 57       		.byte	0x57
 3063 00c9 AE010000 		.4byte	.LVL45
 3064 00cd E4010000 		.4byte	.LVL51
 3065 00d1 0400     		.2byte	0x4
 3066 00d3 F3       		.byte	0xf3
 3067 00d4 01       		.uleb128 0x1
 3068 00d5 50       		.byte	0x50
 3069 00d6 9F       		.byte	0x9f
 3070 00d7 42020000 		.4byte	.LVL58
 3071 00db 4C020000 		.4byte	.LVL59
 3072 00df 0400     		.2byte	0x4
 3073 00e1 F3       		.byte	0xf3
 3074 00e2 01       		.uleb128 0x1
 3075 00e3 50       		.byte	0x50
 3076 00e4 9F       		.byte	0x9f
 3077 00e5 00000000 		.4byte	0
 3078 00e9 00000000 		.4byte	0
 3079              	.LLST3:
 3080 00ed 38000000 		.4byte	.LVL13
 3081 00f1 6C000000 		.4byte	.LVL16
 3082 00f5 0100     		.2byte	0x1
 3083 00f7 57       		.byte	0x57
 3084 00f8 E4010000 		.4byte	.LVL51
 3085 00fc 42020000 		.4byte	.LVL58
 3086 0100 0100     		.2byte	0x1
 3087 0102 57       		.byte	0x57
 3088 0103 00000000 		.4byte	0
 3089 0107 00000000 		.4byte	0
 3090              	.LLST4:
 3091 010b EE000000 		.4byte	.LVL26
 3092 010f 06010000 		.4byte	.LVL28
 3093 0113 0200     		.2byte	0x2
 3094 0115 30       		.byte	0x30
 3095 0116 9F       		.byte	0x9f
 3096 0117 00000000 		.4byte	0
 3097 011b 00000000 		.4byte	0
 3098              	.LLST5:
 3099 011f 00000000 		.4byte	.LVL8
 3100 0123 26000000 		.4byte	.LVL11
 3101 0127 0200     		.2byte	0x2
 3102 0129 30       		.byte	0x30
 3103 012a 9F       		.byte	0x9f
 3104 012b 26000000 		.4byte	.LVL11
 3105 012f 30000000 		.4byte	.LVL12
 3106 0133 0100     		.2byte	0x1
 3107 0135 54       		.byte	0x54
 3108 0136 30000000 		.4byte	.LVL12
 3109 013a 38000000 		.4byte	.LVL13
 3110 013e 0100     		.2byte	0x1
 3111 0140 50       		.byte	0x50
 3112 0141 38000000 		.4byte	.LVL13
 3113 0145 66000000 		.4byte	.LVL15
 3114 0149 0200     		.2byte	0x2
 3115 014b 30       		.byte	0x30
 3116 014c 9F       		.byte	0x9f
 3117 014d 6C000000 		.4byte	.LVL16
ARM GAS  /tmp/ccKnk30r.s 			page 56


 3118 0151 B4000000 		.4byte	.LVL21
 3119 0155 0200     		.2byte	0x2
 3120 0157 30       		.byte	0x30
 3121 0158 9F       		.byte	0x9f
 3122 0159 B4000000 		.4byte	.LVL21
 3123 015d B6000000 		.4byte	.LVL22
 3124 0161 0100     		.2byte	0x1
 3125 0163 50       		.byte	0x50
 3126 0164 B6000000 		.4byte	.LVL22
 3127 0168 1E010000 		.4byte	.LVL29
 3128 016c 0100     		.2byte	0x1
 3129 016e 54       		.byte	0x54
 3130 016f 5E010000 		.4byte	.LVL34
 3131 0173 62010000 		.4byte	.LVL35
 3132 0177 0100     		.2byte	0x1
 3133 0179 50       		.byte	0x50
 3134 017a 62010000 		.4byte	.LVL35
 3135 017e 6E010000 		.4byte	.LVL36
 3136 0182 0200     		.2byte	0x2
 3137 0184 30       		.byte	0x30
 3138 0185 9F       		.byte	0x9f
 3139 0186 6E010000 		.4byte	.LVL36
 3140 018a 84010000 		.4byte	.LVL40
 3141 018e 0100     		.2byte	0x1
 3142 0190 54       		.byte	0x54
 3143 0191 84010000 		.4byte	.LVL40
 3144 0195 8B010000 		.4byte	.LVL41-1
 3145 0199 0100     		.2byte	0x1
 3146 019b 52       		.byte	0x52
 3147 019c A4010000 		.4byte	.LVL43
 3148 01a0 AE010000 		.4byte	.LVL45
 3149 01a4 0100     		.2byte	0x1
 3150 01a6 54       		.byte	0x54
 3151 01a7 C0010000 		.4byte	.LVL47
 3152 01ab C2010000 		.4byte	.LVL48
 3153 01af 0100     		.2byte	0x1
 3154 01b1 50       		.byte	0x50
 3155 01b2 C2010000 		.4byte	.LVL48
 3156 01b6 E4010000 		.4byte	.LVL51
 3157 01ba 0100     		.2byte	0x1
 3158 01bc 54       		.byte	0x54
 3159 01bd E4010000 		.4byte	.LVL51
 3160 01c1 08020000 		.4byte	.LVL53
 3161 01c5 0200     		.2byte	0x2
 3162 01c7 30       		.byte	0x30
 3163 01c8 9F       		.byte	0x9f
 3164 01c9 08020000 		.4byte	.LVL53
 3165 01cd 10020000 		.4byte	.LVL54
 3166 01d1 0100     		.2byte	0x1
 3167 01d3 50       		.byte	0x50
 3168 01d4 10020000 		.4byte	.LVL54
 3169 01d8 4C020000 		.4byte	.LVL59
 3170 01dc 0100     		.2byte	0x1
 3171 01de 54       		.byte	0x54
 3172 01df 00000000 		.4byte	0
 3173 01e3 00000000 		.4byte	0
 3174              	.LLST6:
ARM GAS  /tmp/ccKnk30r.s 			page 57


 3175 01e7 CA000000 		.4byte	.LVL23
 3176 01eb CC000000 		.4byte	.LVL24
 3177 01ef 0100     		.2byte	0x1
 3178 01f1 53       		.byte	0x53
 3179 01f2 CC000000 		.4byte	.LVL24
 3180 01f6 E6000000 		.4byte	.LVL25
 3181 01fa 0200     		.2byte	0x2
 3182 01fc 72       		.byte	0x72
 3183 01fd 06       		.sleb128 6
 3184 01fe E6000000 		.4byte	.LVL25
 3185 0202 62010000 		.4byte	.LVL35
 3186 0206 0100     		.2byte	0x1
 3187 0208 59       		.byte	0x59
 3188 0209 6E010000 		.4byte	.LVL36
 3189 020d 76010000 		.4byte	.LVL37
 3190 0211 0200     		.2byte	0x2
 3191 0213 72       		.byte	0x72
 3192 0214 06       		.sleb128 6
 3193 0215 76010000 		.4byte	.LVL37
 3194 0219 82010000 		.4byte	.LVL39
 3195 021d 0200     		.2byte	0x2
 3196 021f 7D       		.byte	0x7d
 3197 0220 06       		.sleb128 6
 3198 0221 82010000 		.4byte	.LVL39
 3199 0225 E4010000 		.4byte	.LVL51
 3200 0229 0100     		.2byte	0x1
 3201 022b 59       		.byte	0x59
 3202 022c 42020000 		.4byte	.LVL58
 3203 0230 4C020000 		.4byte	.LVL59
 3204 0234 0100     		.2byte	0x1
 3205 0236 59       		.byte	0x59
 3206 0237 00000000 		.4byte	0
 3207 023b 00000000 		.4byte	0
 3208              	.LLST7:
 3209 023f EE000000 		.4byte	.LVL26
 3210 0243 06010000 		.4byte	.LVL28
 3211 0247 0200     		.2byte	0x2
 3212 0249 31       		.byte	0x31
 3213 024a 9F       		.byte	0x9f
 3214 024b 00000000 		.4byte	0
 3215 024f 00000000 		.4byte	0
 3216              	.LLST8:
 3217 0253 7C000000 		.4byte	.LVL18
 3218 0257 90000000 		.4byte	.LVL19
 3219 025b 0400     		.2byte	0x4
 3220 025d 0A       		.byte	0xa
 3221 025e 0059     		.2byte	0x5900
 3222 0260 9F       		.byte	0x9f
 3223 0261 62010000 		.4byte	.LVL35
 3224 0265 6E010000 		.4byte	.LVL36
 3225 0269 0400     		.2byte	0x4
 3226 026b 0A       		.byte	0xa
 3227 026c 0059     		.2byte	0x5900
 3228 026e 9F       		.byte	0x9f
 3229 026f 00000000 		.4byte	0
 3230 0273 00000000 		.4byte	0
 3231              	.LLST9:
ARM GAS  /tmp/ccKnk30r.s 			page 58


 3232 0277 D2010000 		.4byte	.LVL50
 3233 027b E4010000 		.4byte	.LVL51
 3234 027f 0400     		.2byte	0x4
 3235 0281 0A       		.byte	0xa
 3236 0282 0059     		.2byte	0x5900
 3237 0284 9F       		.byte	0x9f
 3238 0285 42020000 		.4byte	.LVL58
 3239 0289 4C020000 		.4byte	.LVL59
 3240 028d 0400     		.2byte	0x4
 3241 028f 0A       		.byte	0xa
 3242 0290 0059     		.2byte	0x5900
 3243 0292 9F       		.byte	0x9f
 3244 0293 00000000 		.4byte	0
 3245 0297 00000000 		.4byte	0
 3246              	.LLST10:
 3247 029b 08020000 		.4byte	.LVL53
 3248 029f 42020000 		.4byte	.LVL58
 3249 02a3 0100     		.2byte	0x1
 3250 02a5 57       		.byte	0x57
 3251 02a6 00000000 		.4byte	0
 3252 02aa 00000000 		.4byte	0
 3253              	.LLST11:
 3254 02ae 32020000 		.4byte	.LVL55
 3255 02b2 42020000 		.4byte	.LVL58
 3256 02b6 0200     		.2byte	0x2
 3257 02b8 30       		.byte	0x30
 3258 02b9 9F       		.byte	0x9f
 3259 02ba 00000000 		.4byte	0
 3260 02be 00000000 		.4byte	0
 3261              		.section	.debug_aranges,"",%progbits
 3262 0000 2C000000 		.4byte	0x2c
 3263 0004 0200     		.2byte	0x2
 3264 0006 00000000 		.4byte	.Ldebug_info0
 3265 000a 04       		.byte	0x4
 3266 000b 00       		.byte	0
 3267 000c 0000     		.2byte	0
 3268 000e 0000     		.2byte	0
 3269 0010 00000000 		.4byte	.LFB104
 3270 0014 3C000000 		.4byte	.LFE104-.LFB104
 3271 0018 00000000 		.4byte	.LFB105
 3272 001c 5C000000 		.4byte	.LFE105-.LFB105
 3273 0020 00000000 		.4byte	.LFB106
 3274 0024 98020000 		.4byte	.LFE106-.LFB106
 3275 0028 00000000 		.4byte	0
 3276 002c 00000000 		.4byte	0
 3277              		.section	.debug_ranges,"",%progbits
 3278              	.Ldebug_ranges0:
 3279 0000 38000000 		.4byte	.LBB19
 3280 0004 3A000000 		.4byte	.LBE19
 3281 0008 3C000000 		.4byte	.LBB41
 3282 000c 8A000000 		.4byte	.LBE41
 3283 0010 8C000000 		.4byte	.LBB42
 3284 0014 92000000 		.4byte	.LBE42
 3285 0018 94000000 		.4byte	.LBB43
 3286 001c 98020000 		.4byte	.LBE43
 3287 0020 00000000 		.4byte	0
 3288 0024 00000000 		.4byte	0
ARM GAS  /tmp/ccKnk30r.s 			page 59


 3289 0028 6C000000 		.4byte	.LBB20
 3290 002c 88000000 		.4byte	.LBE20
 3291 0030 62010000 		.4byte	.LBB25
 3292 0034 6E010000 		.4byte	.LBE25
 3293 0038 00000000 		.4byte	0
 3294 003c 00000000 		.4byte	0
 3295 0040 AE010000 		.4byte	.LBB27
 3296 0044 E2010000 		.4byte	.LBE27
 3297 0048 42020000 		.4byte	.LBB40
 3298 004c 98020000 		.4byte	.LBE40
 3299 0050 00000000 		.4byte	0
 3300 0054 00000000 		.4byte	0
 3301 0058 C0010000 		.4byte	.LBB28
 3302 005c C2010000 		.4byte	.LBE28
 3303 0060 C4010000 		.4byte	.LBB34
 3304 0064 DE010000 		.4byte	.LBE34
 3305 0068 42020000 		.4byte	.LBB35
 3306 006c 98020000 		.4byte	.LBE35
 3307 0070 00000000 		.4byte	0
 3308 0074 00000000 		.4byte	0
 3309 0078 F8010000 		.4byte	.LBB36
 3310 007c 06020000 		.4byte	.LBE36
 3311 0080 08020000 		.4byte	.LBB39
 3312 0084 42020000 		.4byte	.LBE39
 3313 0088 00000000 		.4byte	0
 3314 008c 00000000 		.4byte	0
 3315 0090 00000000 		.4byte	.LFB104
 3316 0094 3C000000 		.4byte	.LFE104
 3317 0098 00000000 		.4byte	.LFB105
 3318 009c 5C000000 		.4byte	.LFE105
 3319 00a0 00000000 		.4byte	.LFB106
 3320 00a4 98020000 		.4byte	.LFE106
 3321 00a8 00000000 		.4byte	0
 3322 00ac 00000000 		.4byte	0
 3323              		.section	.debug_line,"",%progbits
 3324              	.Ldebug_line0:
 3325 0000 99020000 		.section	.debug_str,"MS",%progbits,1
 3325      02009A01 
 3325      00000201 
 3325      FB0E0D00 
 3325      01010101 
 3326              	.LASF1:
 3327 0000 73697A65 		.ascii	"size_t\000"
 3327      5F7400
 3328              	.LASF29:
 3329 0007 50544F52 		.ascii	"PTOR\000"
 3329      00
 3330              	.LASF12:
 3331 000c 75696E74 		.ascii	"uint64_t\000"
 3331      36345F74 
 3331      00
 3332              	.LASF36:
 3333 0015 706F7274 		.ascii	"port_intctx\000"
 3333      5F696E74 
 3333      63747800 
 3334              	.LASF104:
 3335 0021 666C6173 		.ascii	"flashProgram\000"
ARM GAS  /tmp/ccKnk30r.s 			page 60


 3335      6850726F 
 3335      6772616D 
 3335      00
 3336              	.LASF78:
 3337 002e 656E7472 		.ascii	"entry\000"
 3337      7900
 3338              	.LASF13:
 3339 0034 6C6F6E67 		.ascii	"long long unsigned int\000"
 3339      206C6F6E 
 3339      6720756E 
 3339      7369676E 
 3339      65642069 
 3340              	.LASF102:
 3341 004b 7466705F 		.ascii	"tfp_printf\000"
 3341      7072696E 
 3341      746600
 3342              	.LASF28:
 3343 0056 50434F52 		.ascii	"PCOR\000"
 3343      00
 3344              	.LASF47:
 3345 005b 6E657874 		.ascii	"next\000"
 3345      00
 3346              	.LASF75:
 3347 0060 64617461 		.ascii	"data_end\000"
 3347      5F656E64 
 3347      00
 3348              	.LASF76:
 3349 0069 6273735F 		.ascii	"bss_start\000"
 3349      73746172 
 3349      7400
 3350              	.LASF30:
 3351 0073 50444952 		.ascii	"PDIR\000"
 3351      00
 3352              	.LASF6:
 3353 0078 6C6F6E67 		.ascii	"long long int\000"
 3353      206C6F6E 
 3353      6720696E 
 3353      7400
 3354              	.LASF3:
 3355 0086 7369676E 		.ascii	"signed char\000"
 3355      65642063 
 3355      68617200 
 3356              	.LASF37:
 3357 0092 696E7463 		.ascii	"intctx_t\000"
 3357      74785F74 
 3357      00
 3358              	.LASF16:
 3359 009b 73746174 		.ascii	"state\000"
 3359      6500
 3360              	.LASF64:
 3361 00a1 6C6F6E67 		.ascii	"long int\000"
 3361      20696E74 
 3361      00
 3362              	.LASF20:
 3363 00aa 74737461 		.ascii	"tstate_t\000"
 3363      74655F74 
 3363      00
ARM GAS  /tmp/ccKnk30r.s 			page 61


 3364              	.LASF27:
 3365 00b3 50534F52 		.ascii	"PSOR\000"
 3365      00
 3366              	.LASF103:
 3367 00b8 6D656D63 		.ascii	"memcpy\000"
 3367      707900
 3368              	.LASF9:
 3369 00bf 75696E74 		.ascii	"uint16_t\000"
 3369      31365F74 
 3369      00
 3370              	.LASF89:
 3371 00c8 626F6F74 		.ascii	"bootToUserApp\000"
 3371      546F5573 
 3371      65724170 
 3371      7000
 3372              	.LASF33:
 3373 00d6 72656761 		.ascii	"regarm_t\000"
 3373      726D5F74 
 3373      00
 3374              	.LASF68:
 3375 00df 626C6F63 		.ascii	"blockmap\000"
 3375      6B6D6170 
 3375      00
 3376              	.LASF106:
 3377 00e8 666C6173 		.ascii	"flashEraseSectors\000"
 3377      68457261 
 3377      73655365 
 3377      63746F72 
 3377      7300
 3378              	.LASF95:
 3379 00fa 64756D6D 		.ascii	"dummy\000"
 3379      7900
 3380              	.LASF109:
 3381 0100 2F686F6D 		.ascii	"/home/bunnie/code/chibi-chibios/orchard\000"
 3381      652F6275 
 3381      6E6E6965 
 3381      2F636F64 
 3381      652F6368 
 3382              	.LASF107:
 3383 0128 474E5520 		.ascii	"GNU C 4.9.2 -mcpu=cortex-m0 -mfloat-abi=soft -mfp16"
 3383      4320342E 
 3383      392E3220 
 3383      2D6D6370 
 3383      753D636F 
 3384 015b 2D666F72 		.ascii	"-format=none -mno-thumb-interwork -mthumb -mfloat-a"
 3384      6D61743D 
 3384      6E6F6E65 
 3384      202D6D6E 
 3384      6F2D7468 
 3385 018e 62693D73 		.ascii	"bi=soft -mfpu=vfpv3-d16 -mtls-dialect=gnu -ggdb -O3"
 3385      6F667420 
 3385      2D6D6670 
 3385      753D7666 
 3385      7076332D 
 3386 01c1 202D7374 		.ascii	" -std=gnu99 -fomit-frame-pointer -falign-functions="
 3386      643D676E 
 3386      75393920 
ARM GAS  /tmp/ccKnk30r.s 			page 62


 3386      2D666F6D 
 3386      69742D66 
 3387 01f4 3136202D 		.ascii	"16 -ffunction-sections -fdata-sections -fno-common\000"
 3387      6666756E 
 3387      6374696F 
 3387      6E2D7365 
 3387      6374696F 
 3388              	.LASF94:
 3389 0227 616C6C64 		.ascii	"alldone\000"
 3389      6F6E6500 
 3390              	.LASF54:
 3391 022f 626C6F63 		.ascii	"block\000"
 3391      6B00
 3392              	.LASF0:
 3393 0235 756E7369 		.ascii	"unsigned int\000"
 3393      676E6564 
 3393      20696E74 
 3393      00
 3394              	.LASF63:
 3395 0242 6C6F6E67 		.ascii	"long unsigned int\000"
 3395      20756E73 
 3395      69676E65 
 3395      6420696E 
 3395      7400
 3396              	.LASF32:
 3397 0254 4750494F 		.ascii	"GPIO_TypeDef\000"
 3397      5F547970 
 3397      65446566 
 3397      00
 3398              	.LASF17:
 3399 0261 74696D65 		.ascii	"timeout\000"
 3399      6F757400 
 3400              	.LASF74:
 3401 0269 64617461 		.ascii	"data_start\000"
 3401      5F737461 
 3401      727400
 3402              	.LASF35:
 3403 0274 6E696C5F 		.ascii	"nil_thread\000"
 3403      74687265 
 3403      616400
 3404              	.LASF10:
 3405 027f 73686F72 		.ascii	"short unsigned int\000"
 3405      7420756E 
 3405      7369676E 
 3405      65642069 
 3405      6E7400
 3406              	.LASF21:
 3407 0292 6D73675F 		.ascii	"msg_t\000"
 3407      7400
 3408              	.LASF42:
 3409 0298 73656D70 		.ascii	"semp\000"
 3409      00
 3410              	.LASF96:
 3411 029d 61737461 		.ascii	"astate\000"
 3411      746500
 3412              	.LASF48:
 3413 02a4 73797374 		.ascii	"systime\000"
ARM GAS  /tmp/ccKnk30r.s 			page 63


 3413      696D6500 
 3414              	.LASF77:
 3415 02ac 6273735F 		.ascii	"bss_end\000"
 3415      656E6400 
 3416              	.LASF22:
 3417 02b4 6576656E 		.ascii	"eventmask_t\000"
 3417      746D6173 
 3417      6B5F7400 
 3418              	.LASF62:
 3419 02c0 64656D6F 		.ascii	"demod_ctrl_pkt\000"
 3419      645F6374 
 3419      726C5F70 
 3419      6B7400
 3420              	.LASF71:
 3421 02cf 73746F72 		.ascii	"storage_header_ram\000"
 3421      6167655F 
 3421      68656164 
 3421      65725F72 
 3421      616D00
 3422              	.LASF34:
 3423 02e2 73746B61 		.ascii	"stkalign_t\000"
 3423      6C69676E 
 3423      5F7400
 3424              	.LASF31:
 3425 02ed 50444452 		.ascii	"PDDR\000"
 3425      00
 3426              	.LASF53:
 3427 02f2 76657273 		.ascii	"version\000"
 3427      696F6E00 
 3428              	.LASF25:
 3429 02fa 73697A65 		.ascii	"sizetype\000"
 3429      74797065 
 3429      00
 3430              	.LASF41:
 3431 0303 74687265 		.ascii	"thread_reference_t\000"
 3431      61645F72 
 3431      65666572 
 3431      656E6365 
 3431      5F7400
 3432              	.LASF87:
 3433 0316 4150505F 		.ascii	"APP_FAIL\000"
 3433      4641494C 
 3433      00
 3434              	.LASF92:
 3435 031f 64706B74 		.ascii	"dpkt\000"
 3435      00
 3436              	.LASF23:
 3437 0324 636E745F 		.ascii	"cnt_t\000"
 3437      7400
 3438              	.LASF55:
 3439 032a 7061796C 		.ascii	"payload\000"
 3439      6F616400 
 3440              	.LASF100:
 3441 0332 73746F72 		.ascii	"storageHdr\000"
 3441      61676548 
 3441      647200
 3442              	.LASF46:
ARM GAS  /tmp/ccKnk30r.s 			page 64


 3443 033d 63757272 		.ascii	"current\000"
 3443      656E7400 
 3444              	.LASF88:
 3445 0345 6170705F 		.ascii	"app_state\000"
 3445      73746174 
 3445      6500
 3446              	.LASF99:
 3447 034f 706B7452 		.ascii	"pktReady\000"
 3447      65616479 
 3447      00
 3448              	.LASF15:
 3449 0358 63747870 		.ascii	"ctxp\000"
 3449      00
 3450              	.LASF108:
 3451 035d 75706461 		.ascii	"updater.c\000"
 3451      7465722E 
 3451      6300
 3452              	.LASF44:
 3453 0367 6E696C5F 		.ascii	"nil_system_t\000"
 3453      73797374 
 3453      656D5F74 
 3453      00
 3454              	.LASF93:
 3455 0374 63706B74 		.ascii	"cpkt\000"
 3455      00
 3456              	.LASF86:
 3457 0379 4150505F 		.ascii	"APP_UPDATED\000"
 3457      55504441 
 3457      54454400 
 3458              	.LASF58:
 3459 0385 64656D6F 		.ascii	"demod_cp\000"
 3459      645F6370 
 3459      00
 3460              	.LASF5:
 3461 038e 696E7433 		.ascii	"int32_t\000"
 3461      325F7400 
 3462              	.LASF8:
 3463 0396 756E7369 		.ascii	"unsigned char\000"
 3463      676E6564 
 3463      20636861 
 3463      7200
 3464              	.LASF50:
 3465 03a4 6462675F 		.ascii	"dbg_panic_msg\000"
 3465      70616E69 
 3465      635F6D73 
 3465      6700
 3466              	.LASF39:
 3467 03b2 6E696C5F 		.ascii	"nil_semaphore\000"
 3467      73656D61 
 3467      70686F72 
 3467      6500
 3468              	.LASF45:
 3469 03c0 6E696C5F 		.ascii	"nil_system\000"
 3469      73797374 
 3469      656D00
 3470              	.LASF84:
 3471 03cb 4150505F 		.ascii	"APP_GOT_ID\000"
ARM GAS  /tmp/ccKnk30r.s 			page 65


 3471      474F545F 
 3471      494400
 3472              	.LASF4:
 3473 03d6 73686F72 		.ascii	"short int\000"
 3473      7420696E 
 3473      7400
 3474              	.LASF66:
 3475 03e0 6D616769 		.ascii	"magic\000"
 3475      6300
 3476              	.LASF49:
 3477 03e6 74687265 		.ascii	"threads\000"
 3477      61647300 
 3478              	.LASF19:
 3479 03ee 73746B6C 		.ascii	"stklim\000"
 3479      696D00
 3480              	.LASF43:
 3481 03f5 65776D61 		.ascii	"ewmask\000"
 3481      736B00
 3482              	.LASF57:
 3483 03fc 64656D6F 		.ascii	"demod_data_pkt\000"
 3483      645F6461 
 3483      74615F70 
 3483      6B7400
 3484              	.LASF38:
 3485 040b 73656D61 		.ascii	"semaphore_t\000"
 3485      70686F72 
 3485      655F7400 
 3486              	.LASF91:
 3487 0417 70726F74 		.ascii	"proto\000"
 3487      6F00
 3488              	.LASF90:
 3489 041d 696E6974 		.ascii	"init_storage_header\000"
 3489      5F73746F 
 3489      72616765 
 3489      5F686561 
 3489      64657200 
 3490              	.LASF11:
 3491 0431 75696E74 		.ascii	"uint32_t\000"
 3491      33325F74 
 3491      00
 3492              	.LASF70:
 3493 043a 73746F72 		.ascii	"storage_header_ram_\000"
 3493      6167655F 
 3493      68656164 
 3493      65725F72 
 3493      616D5F00 
 3494              	.LASF51:
 3495 044e 5F426F6F 		.ascii	"_Bool\000"
 3495      6C00
 3496              	.LASF97:
 3497 0454 5F5F7374 		.ascii	"__storage_start__\000"
 3497      6F726167 
 3497      655F7374 
 3497      6172745F 
 3497      5F00
 3498              	.LASF59:
 3499 0466 6C656E67 		.ascii	"length\000"
ARM GAS  /tmp/ccKnk30r.s 			page 66


 3499      746800
 3500              	.LASF40:
 3501 046d 63686172 		.ascii	"char\000"
 3501      00
 3502              	.LASF65:
 3503 0472 73746F72 		.ascii	"storage_header_\000"
 3503      6167655F 
 3503      68656164 
 3503      65725F00 
 3504              	.LASF52:
 3505 0482 64656D6F 		.ascii	"demod_dp\000"
 3505      645F6470 
 3505      00
 3506              	.LASF14:
 3507 048b 74687265 		.ascii	"thread_t\000"
 3507      61645F74 
 3507      00
 3508              	.LASF73:
 3509 0494 64617461 		.ascii	"data_load_start\000"
 3509      5F6C6F61 
 3509      645F7374 
 3509      61727400 
 3510              	.LASF24:
 3511 04a4 73797374 		.ascii	"systime_t\000"
 3511      696D655F 
 3511      7400
 3512              	.LASF105:
 3513 04ae 6D656D63 		.ascii	"memcmp\000"
 3513      6D7000
 3514              	.LASF72:
 3515 04b5 6170705F 		.ascii	"app_header\000"
 3515      68656164 
 3515      657200
 3516              	.LASF56:
 3517 04c0 68617368 		.ascii	"hash\000"
 3517      00
 3518              	.LASF80:
 3519 04c5 636F6E73 		.ascii	"const_end\000"
 3519      745F656E 
 3519      6400
 3520              	.LASF2:
 3521 04cf 696E7438 		.ascii	"int8_t\000"
 3521      5F7400
 3522              	.LASF60:
 3523 04d6 66756C6C 		.ascii	"fullhash\000"
 3523      68617368 
 3523      00
 3524              	.LASF83:
 3525 04df 4150505F 		.ascii	"APP_IDLE\000"
 3525      49444C45 
 3525      00
 3526              	.LASF101:
 3527 04e8 52756E5F 		.ascii	"Run_App\000"
 3527      41707000 
 3528              	.LASF98:
 3529 04f0 5F5F7374 		.ascii	"__storage_end__\000"
 3529      6F726167 
ARM GAS  /tmp/ccKnk30r.s 			page 67


 3529      655F656E 
 3529      645F5F00 
 3530              	.LASF82:
 3531 0500 72657365 		.ascii	"reserved3\000"
 3531      72766564 
 3531      3300
 3532              	.LASF112:
 3533 050a 4D75726D 		.ascii	"MurmurHash3_x86_32\000"
 3533      75724861 
 3533      7368335F 
 3533      7838365F 
 3533      333200
 3534              	.LASF7:
 3535 051d 75696E74 		.ascii	"uint8_t\000"
 3535      385F7400 
 3536              	.LASF18:
 3537 0525 65706D61 		.ascii	"epmask\000"
 3537      736B00
 3538              	.LASF111:
 3539 052c 75706461 		.ascii	"updaterPacketProcess\000"
 3539      74657250 
 3539      61636B65 
 3539      7450726F 
 3539      63657373 
 3540              	.LASF26:
 3541 0541 50444F52 		.ascii	"PDOR\000"
 3541      00
 3542              	.LASF110:
 3543 0546 73746174 		.ascii	"states\000"
 3543      657300
 3544              	.LASF81:
 3545 054d 72657365 		.ascii	"reserved2\000"
 3545      72766564 
 3545      3200
 3546              	.LASF69:
 3547 0557 73746F72 		.ascii	"storage_header\000"
 3547      6167655F 
 3547      68656164 
 3547      657200
 3548              	.LASF79:
 3549 0566 636F6E73 		.ascii	"const_start\000"
 3549      745F7374 
 3549      61727400 
 3550              	.LASF67:
 3551 0572 636F6D70 		.ascii	"complete\000"
 3551      6C657465 
 3551      00
 3552              	.LASF85:
 3553 057b 4150505F 		.ascii	"APP_UPDATING\000"
 3553      55504441 
 3553      54494E47 
 3553      00
 3554              	.LASF61:
 3555 0588 67756964 		.ascii	"guid\000"
 3555      00
 3556              		.ident	"GCC: (Debian 4.9.2-10) 4.9.2"
 3557              		.section	.note.GNU-stack,"",%progbits
ARM GAS  /tmp/ccKnk30r.s 			page 68


ARM GAS  /tmp/ccKnk30r.s 			page 69


DEFINED SYMBOLS
                            *ABS*:00000000 updater.c
     /tmp/ccKnk30r.s:18     .text.bootToUserApp:00000000 $t
     /tmp/ccKnk30r.s:24     .text.bootToUserApp:00000000 bootToUserApp
     /tmp/ccKnk30r.s:74     .text.bootToUserApp:00000030 $d
     /tmp/ccKnk30r.s:83     .text.init_storage_header:00000000 $t
     /tmp/ccKnk30r.s:89     .text.init_storage_header:00000000 init_storage_header
     /tmp/ccKnk30r.s:155    .text.init_storage_header:00000054 $d
     /tmp/ccKnk30r.s:161    .text.updaterPacketProcess:00000000 $t
     /tmp/ccKnk30r.s:167    .text.updaterPacketProcess:00000000 updaterPacketProcess
     /tmp/ccKnk30r.s:661    .text.updaterPacketProcess:00000254 $d
     /tmp/ccKnk30r.s:693    .data.storageHdr:00000000 storageHdr
     /tmp/ccKnk30r.s:689    .data.storageHdr:00000000 $d
     /tmp/ccKnk30r.s:696    .rodata.str1.4:00000000 $d
     /tmp/ccKnk30r.s:720    .bss.astate:00000000 $d
     /tmp/ccKnk30r.s:724    .bss.astate:00000000 astate
                     .debug_frame:00000010 $d
     /tmp/ccKnk30r.s:82     .text.bootToUserApp:0000003c $t
     /tmp/ccKnk30r.s:160    .text.init_storage_header:0000005c $t
     /tmp/ccKnk30r.s:3557   .text.updaterPacketProcess:00000298 $t

UNDEFINED SYMBOLS
tfp_printf
Run_App
memcpy
flashProgram
__storage_start__
memcmp
flashEraseSectors
MurmurHash3_x86_32
pktReady
__storage_end__
