ARM GAS  /tmp/ccsN6z31.s 			page 1


   1              		.syntax unified
   2              		.cpu cortex-m4
   3              		.fpu softvfp
   4              		.eabi_attribute 20, 1
   5              		.eabi_attribute 21, 1
   6              		.eabi_attribute 23, 3
   7              		.eabi_attribute 24, 1
   8              		.eabi_attribute 25, 1
   9              		.eabi_attribute 26, 2
  10              		.eabi_attribute 30, 2
  11              		.eabi_attribute 34, 1
  12              		.eabi_attribute 18, 4
  13              		.thumb
  14              		.file	"chcond.c"
  15              		.text
  16              	.Ltext0:
  17              		.cfi_sections	.debug_frame
  18              		.section	.text.chCondObjectInit,"ax",%progbits
  19              		.align	2
  20              		.p2align 4,,15
  21              		.global	chCondObjectInit
  22              		.thumb
  23              		.thumb_func
  24              		.type	chCondObjectInit, %function
  25              	chCondObjectInit:
  26              	.LFB230:
  27              		.file 1 "../os/rt/src/chcond.c"
  28              		.loc 1 75 0
  29              		.cfi_startproc
  30              		@ args = 0, pretend = 0, frame = 0
  31              		@ frame_needed = 0, uses_anonymous_args = 0
  32              		@ link register save eliminated.
  33              	.LVL0:
  34              	.LBB83:
  35              	.LBB84:
  36              		.file 2 "../os/rt/include/chschd.h"
  37              		.loc 2 604 0
  38 0000 0060     		str	r0, [r0]
  39              		.loc 2 605 0
  40 0002 4060     		str	r0, [r0, #4]
  41 0004 7047     		bx	lr
  42              	.LBE84:
  43              	.LBE83:
  44              		.cfi_endproc
  45              	.LFE230:
  46              		.size	chCondObjectInit, .-chCondObjectInit
  47 0006 00BFAFF3 		.section	.text.chCondSignal,"ax",%progbits
  47      0080AFF3 
  47      0080
  48              		.align	2
  49              		.p2align 4,,15
  50              		.global	chCondSignal
  51              		.thumb
  52              		.thumb_func
  53              		.type	chCondSignal, %function
  54              	chCondSignal:
  55              	.LFB231:
ARM GAS  /tmp/ccsN6z31.s 			page 2


  56              		.loc 1 89 0
  57              		.cfi_startproc
  58              		@ args = 0, pretend = 0, frame = 0
  59              		@ frame_needed = 0, uses_anonymous_args = 0
  60              	.LVL1:
  61 0000 08B5     		push	{r3, lr}
  62              		.cfi_def_cfa_offset 8
  63              		.cfi_offset 3, -8
  64              		.cfi_offset 14, -4
  65              	.LBB85:
  66              	.LBB86:
  67              	.LBB87:
  68              	.LBB88:
  69              		.file 3 "../os/ext/CMSIS/include/core_cmFunc.h"
  70              		.loc 3 548 0
  71 0002 2023     		movs	r3, #32
  72              	#APP
  73              	@ 548 "../os/ext/CMSIS/include/core_cmFunc.h" 1
  74 0004 83F31188 		MSR basepri, r3
  75              	@ 0 "" 2
  76              	.LVL2:
  77              		.thumb
  78              	.LBE88:
  79              	.LBE87:
  80              	.LBE86:
  81              	.LBE85:
  82              	.LBB89:
  83              	.LBB90:
  84              		.loc 2 631 0
  85 0008 0268     		ldr	r2, [r0]
  86              	.LBE90:
  87              	.LBE89:
  88              		.loc 1 94 0
  89 000a 8242     		cmp	r2, r0
  90 000c 07D0     		beq	.L3
  91              	.LBB91:
  92              	.LBB92:
  93              		.loc 2 674 0
  94 000e 1168     		ldr	r1, [r2]
  95 0010 0160     		str	r1, [r0]
  96 0012 0346     		mov	r3, r0
  97              	.LVL3:
  98              		.loc 2 675 0
  99 0014 4B60     		str	r3, [r1, #4]
 100              	.LBE92:
 101              	.LBE91:
 102              		.loc 1 95 0
 103 0016 1046     		mov	r0, r2
 104              	.LVL4:
 105 0018 0021     		movs	r1, #0
 106 001a FFF7FEFF 		bl	chSchWakeupS
 107              	.LVL5:
 108              	.L3:
 109              	.LBB93:
 110              	.LBB94:
 111              	.LBB95:
 112              	.LBB96:
ARM GAS  /tmp/ccsN6z31.s 			page 3


 113              	.LBB97:
 114              		.loc 3 548 0
 115 001e 0023     		movs	r3, #0
 116              	#APP
 117              	@ 548 "../os/ext/CMSIS/include/core_cmFunc.h" 1
 118 0020 83F31188 		MSR basepri, r3
 119              	@ 0 "" 2
 120              		.thumb
 121 0024 08BD     		pop	{r3, pc}
 122              	.LBE97:
 123              	.LBE96:
 124              	.LBE95:
 125              	.LBE94:
 126              	.LBE93:
 127              		.cfi_endproc
 128              	.LFE231:
 129              		.size	chCondSignal, .-chCondSignal
 130 0026 00BFAFF3 		.section	.text.chCondSignalI,"ax",%progbits
 130      0080AFF3 
 130      0080
 131              		.align	2
 132              		.p2align 4,,15
 133              		.global	chCondSignalI
 134              		.thumb
 135              		.thumb_func
 136              		.type	chCondSignalI, %function
 137              	chCondSignalI:
 138              	.LFB232:
 139              		.loc 1 111 0
 140              		.cfi_startproc
 141              		@ args = 0, pretend = 0, frame = 0
 142              		@ frame_needed = 0, uses_anonymous_args = 0
 143              		@ link register save eliminated.
 144              	.LVL6:
 145              	.LBB98:
 146              	.LBB99:
 147              		.loc 2 631 0
 148 0000 0368     		ldr	r3, [r0]
 149              	.LBE99:
 150              	.LBE98:
 151              		.loc 1 116 0
 152 0002 9842     		cmp	r0, r3
 153 0004 07D0     		beq	.L6
 154              	.LVL7:
 155              	.LBB100:
 156              	.LBB101:
 157              	.LBB102:
 158              		.loc 2 674 0
 159 0006 1A68     		ldr	r2, [r3]
 160 0008 0260     		str	r2, [r0]
 161              	.LBE102:
 162              	.LBE101:
 163              		.loc 1 118 0
 164 000a 0021     		movs	r1, #0
 165              	.LBB104:
 166              	.LBB103:
 167              		.loc 2 675 0
ARM GAS  /tmp/ccsN6z31.s 			page 4


 168 000c 5060     		str	r0, [r2, #4]
 169              	.LBE103:
 170              	.LBE104:
 171              		.loc 1 119 0
 172 000e 1846     		mov	r0, r3
 173              	.LVL8:
 174              		.loc 1 118 0
 175 0010 1962     		str	r1, [r3, #32]
 176              		.loc 1 119 0
 177 0012 FFF7FEBF 		b	chSchReadyI
 178              	.LVL9:
 179              	.L6:
 180 0016 7047     		bx	lr
 181              	.LBE100:
 182              		.cfi_endproc
 183              	.LFE232:
 184              		.size	chCondSignalI, .-chCondSignalI
 185 0018 AFF30080 		.section	.text.chCondBroadcastI,"ax",%progbits
 185      AFF30080 
 186              		.align	2
 187              		.p2align 4,,15
 188              		.global	chCondBroadcastI
 189              		.thumb
 190              		.thumb_func
 191              		.type	chCondBroadcastI, %function
 192              	chCondBroadcastI:
 193              	.LFB234:
 194              		.loc 1 149 0
 195              		.cfi_startproc
 196              		@ args = 0, pretend = 0, frame = 0
 197              		@ frame_needed = 0, uses_anonymous_args = 0
 198              	.LVL10:
 199 0000 38B5     		push	{r3, r4, r5, lr}
 200              		.cfi_def_cfa_offset 16
 201              		.cfi_offset 3, -16
 202              		.cfi_offset 4, -12
 203              		.cfi_offset 5, -8
 204              		.cfi_offset 14, -4
 205              		.loc 1 149 0
 206 0002 0446     		mov	r4, r0
 207              	.LVL11:
 208              	.LBB105:
 209              	.LBB106:
 210              		.loc 2 631 0
 211 0004 0068     		ldr	r0, [r0]
 212              	.LVL12:
 213              	.LBE106:
 214              	.LBE105:
 215              		.loc 1 157 0
 216 0006 8442     		cmp	r4, r0
 217 0008 0AD0     		beq	.L8
 218              		.loc 1 158 0
 219 000a 6FF00105 		mvn	r5, #1
 220              	.L10:
 221              	.LVL13:
 222              	.LBB108:
 223              	.LBB109:
ARM GAS  /tmp/ccsN6z31.s 			page 5


 224              		.loc 2 674 0
 225 000e 0368     		ldr	r3, [r0]
 226 0010 2360     		str	r3, [r4]
 227              		.loc 2 675 0
 228 0012 5C60     		str	r4, [r3, #4]
 229              	.LBE109:
 230              	.LBE108:
 231              		.loc 1 158 0
 232 0014 FFF7FEFF 		bl	chSchReadyI
 233              	.LVL14:
 234 0018 0562     		str	r5, [r0, #32]
 235              	.LBB110:
 236              	.LBB107:
 237              		.loc 2 631 0
 238 001a 2068     		ldr	r0, [r4]
 239              	.LBE107:
 240              	.LBE110:
 241              		.loc 1 157 0
 242 001c A042     		cmp	r0, r4
 243 001e F6D1     		bne	.L10
 244              	.LVL15:
 245              	.L8:
 246 0020 38BD     		pop	{r3, r4, r5, pc}
 247              		.cfi_endproc
 248              	.LFE234:
 249              		.size	chCondBroadcastI, .-chCondBroadcastI
 250 0022 00BFAFF3 		.section	.text.chCondBroadcast,"ax",%progbits
 250      0080AFF3 
 250      0080AFF3 
 250      0080
 251              		.align	2
 252              		.p2align 4,,15
 253              		.global	chCondBroadcast
 254              		.thumb
 255              		.thumb_func
 256              		.type	chCondBroadcast, %function
 257              	chCondBroadcast:
 258              	.LFB233:
 259              		.loc 1 130 0
 260              		.cfi_startproc
 261              		@ args = 0, pretend = 0, frame = 0
 262              		@ frame_needed = 0, uses_anonymous_args = 0
 263              	.LVL16:
 264 0000 08B5     		push	{r3, lr}
 265              		.cfi_def_cfa_offset 8
 266              		.cfi_offset 3, -8
 267              		.cfi_offset 14, -4
 268              	.LBB111:
 269              	.LBB112:
 270              	.LBB113:
 271              	.LBB114:
 272              		.loc 3 548 0
 273 0002 2023     		movs	r3, #32
 274              	#APP
 275              	@ 548 "../os/ext/CMSIS/include/core_cmFunc.h" 1
 276 0004 83F31188 		MSR basepri, r3
 277              	@ 0 "" 2
ARM GAS  /tmp/ccsN6z31.s 			page 6


 278              		.thumb
 279              	.LBE114:
 280              	.LBE113:
 281              	.LBE112:
 282              	.LBE111:
 283              		.loc 1 133 0
 284 0008 FFF7FEFF 		bl	chCondBroadcastI
 285              	.LVL17:
 286              		.loc 1 134 0
 287 000c FFF7FEFF 		bl	chSchRescheduleS
 288              	.LVL18:
 289              	.LBB115:
 290              	.LBB116:
 291              	.LBB117:
 292              	.LBB118:
 293              	.LBB119:
 294              		.loc 3 548 0
 295 0010 0023     		movs	r3, #0
 296              	#APP
 297              	@ 548 "../os/ext/CMSIS/include/core_cmFunc.h" 1
 298 0012 83F31188 		MSR basepri, r3
 299              	@ 0 "" 2
 300              		.thumb
 301 0016 08BD     		pop	{r3, pc}
 302              	.LBE119:
 303              	.LBE118:
 304              	.LBE117:
 305              	.LBE116:
 306              	.LBE115:
 307              		.cfi_endproc
 308              	.LFE233:
 309              		.size	chCondBroadcast, .-chCondBroadcast
 310 0018 AFF30080 		.section	.text.chCondWaitS,"ax",%progbits
 310      AFF30080 
 311              		.align	2
 312              		.p2align 4,,15
 313              		.global	chCondWaitS
 314              		.thumb
 315              		.thumb_func
 316              		.type	chCondWaitS, %function
 317              	chCondWaitS:
 318              	.LFB236:
 319              		.loc 1 205 0
 320              		.cfi_startproc
 321              		@ args = 0, pretend = 0, frame = 0
 322              		@ frame_needed = 0, uses_anonymous_args = 0
 323              	.LVL19:
 324              		.loc 1 206 0
 325 0000 0F4B     		ldr	r3, .L24
 326              		.loc 1 205 0
 327 0002 70B5     		push	{r4, r5, r6, lr}
 328              		.cfi_def_cfa_offset 16
 329              		.cfi_offset 4, -16
 330              		.cfi_offset 5, -12
 331              		.cfi_offset 6, -8
 332              		.cfi_offset 14, -4
 333              		.loc 1 206 0
ARM GAS  /tmp/ccsN6z31.s 			page 7


 334 0004 9C69     		ldr	r4, [r3, #24]
 335              	.LVL20:
 336              	.LBB120:
 337              	.LBB121:
 338              		.file 4 "../os/rt/include/chmtx.h"
 339              		.loc 4 146 0
 340 0006 A66B     		ldr	r6, [r4, #56]
 341              	.LBE121:
 342              	.LBE120:
 343              		.loc 1 205 0
 344 0008 0546     		mov	r5, r0
 345              		.loc 1 216 0
 346 000a 3046     		mov	r0, r6
 347              	.LVL21:
 348 000c FFF7FEFF 		bl	chMtxUnlockS
 349              	.LVL22:
 350              		.loc 1 220 0
 351 0010 2562     		str	r5, [r4, #32]
 352              	.LVL23:
 353              	.LBB122:
 354              	.LBB123:
 355              		.loc 2 653 0
 356 0012 2B46     		mov	r3, r5
 357 0014 03E0     		b	.L18
 358              	.LVL24:
 359              	.L23:
 360              		.loc 2 656 0
 361 0016 9968     		ldr	r1, [r3, #8]
 362 0018 A268     		ldr	r2, [r4, #8]
 363 001a 9142     		cmp	r1, r2
 364 001c 02D3     		bcc	.L19
 365              	.L18:
 366              		.loc 2 655 0
 367 001e 1B68     		ldr	r3, [r3]
 368              	.LVL25:
 369              		.loc 2 656 0
 370 0020 9D42     		cmp	r5, r3
 371 0022 F8D1     		bne	.L23
 372              	.L19:
 373              		.loc 2 658 0
 374 0024 5A68     		ldr	r2, [r3, #4]
 375 0026 6260     		str	r2, [r4, #4]
 376              		.loc 2 657 0
 377 0028 2360     		str	r3, [r4]
 378              	.LBE123:
 379              	.LBE122:
 380              		.loc 1 222 0
 381 002a 0720     		movs	r0, #7
 382              	.LBB125:
 383              	.LBB124:
 384              		.loc 2 659 0
 385 002c 1460     		str	r4, [r2]
 386              		.loc 2 660 0
 387 002e 5C60     		str	r4, [r3, #4]
 388              	.LBE124:
 389              	.LBE125:
 390              		.loc 1 222 0
ARM GAS  /tmp/ccsN6z31.s 			page 8


 391 0030 FFF7FEFF 		bl	chSchGoSleepS
 392              	.LVL26:
 393              		.loc 1 223 0
 394 0034 246A     		ldr	r4, [r4, #32]
 395              	.LVL27:
 396              		.loc 1 224 0
 397 0036 3046     		mov	r0, r6
 398 0038 FFF7FEFF 		bl	chMtxLockS
 399              	.LVL28:
 400              		.loc 1 227 0
 401 003c 2046     		mov	r0, r4
 402 003e 70BD     		pop	{r4, r5, r6, pc}
 403              	.LVL29:
 404              	.L25:
 405              		.align	2
 406              	.L24:
 407 0040 00000000 		.word	ch
 408              		.cfi_endproc
 409              	.LFE236:
 410              		.size	chCondWaitS, .-chCondWaitS
 411 0044 AFF30080 		.section	.text.chCondWait,"ax",%progbits
 411      AFF30080 
 411      AFF30080 
 412              		.align	2
 413              		.p2align 4,,15
 414              		.global	chCondWait
 415              		.thumb
 416              		.thumb_func
 417              		.type	chCondWait, %function
 418              	chCondWait:
 419              	.LFB235:
 420              		.loc 1 179 0
 421              		.cfi_startproc
 422              		@ args = 0, pretend = 0, frame = 0
 423              		@ frame_needed = 0, uses_anonymous_args = 0
 424              	.LVL30:
 425 0000 08B5     		push	{r3, lr}
 426              		.cfi_def_cfa_offset 8
 427              		.cfi_offset 3, -8
 428              		.cfi_offset 14, -4
 429              	.LBB126:
 430              	.LBB127:
 431              	.LBB128:
 432              	.LBB129:
 433              		.loc 3 548 0
 434 0002 2023     		movs	r3, #32
 435              	#APP
 436              	@ 548 "../os/ext/CMSIS/include/core_cmFunc.h" 1
 437 0004 83F31188 		MSR basepri, r3
 438              	@ 0 "" 2
 439              		.thumb
 440              	.LBE129:
 441              	.LBE128:
 442              	.LBE127:
 443              	.LBE126:
 444              		.loc 1 183 0
 445 0008 FFF7FEFF 		bl	chCondWaitS
ARM GAS  /tmp/ccsN6z31.s 			page 9


 446              	.LVL31:
 447              	.LBB130:
 448              	.LBB131:
 449              	.LBB132:
 450              	.LBB133:
 451              	.LBB134:
 452              		.loc 3 548 0
 453 000c 0023     		movs	r3, #0
 454              	#APP
 455              	@ 548 "../os/ext/CMSIS/include/core_cmFunc.h" 1
 456 000e 83F31188 		MSR basepri, r3
 457              	@ 0 "" 2
 458              		.thumb
 459              	.LBE134:
 460              	.LBE133:
 461              	.LBE132:
 462              	.LBE131:
 463              	.LBE130:
 464              		.loc 1 186 0
 465 0012 08BD     		pop	{r3, pc}
 466              		.cfi_endproc
 467              	.LFE235:
 468              		.size	chCondWait, .-chCondWait
 469 0014 AFF30080 		.section	.text.chCondWaitTimeoutS,"ax",%progbits
 469      AFF30080 
 469      AFF30080 
 470              		.align	2
 471              		.p2align 4,,15
 472              		.global	chCondWaitTimeoutS
 473              		.thumb
 474              		.thumb_func
 475              		.type	chCondWaitTimeoutS, %function
 476              	chCondWaitTimeoutS:
 477              	.LFB238:
 478              		.loc 1 296 0
 479              		.cfi_startproc
 480              		@ args = 0, pretend = 0, frame = 0
 481              		@ frame_needed = 0, uses_anonymous_args = 0
 482              	.LVL32:
 483 0000 2DE9F041 		push	{r4, r5, r6, r7, r8, lr}
 484              		.cfi_def_cfa_offset 24
 485              		.cfi_offset 4, -24
 486              		.cfi_offset 5, -20
 487              		.cfi_offset 6, -16
 488              		.cfi_offset 7, -12
 489              		.cfi_offset 8, -8
 490              		.cfi_offset 14, -4
 491              	.LBB135:
 492              	.LBB136:
 493              	.LBB137:
 494              	.LBB138:
 495              		.file 5 "../os/rt/include/chthreads.h"
 496              		.loc 5 176 0
 497 0004 124C     		ldr	r4, .L36
 498              	.LBE138:
 499              	.LBE137:
 500              		.loc 4 146 0
ARM GAS  /tmp/ccsN6z31.s 			page 10


 501 0006 A369     		ldr	r3, [r4, #24]
 502 0008 9F6B     		ldr	r7, [r3, #56]
 503              	.LBE136:
 504              	.LBE135:
 505              		.loc 1 296 0
 506 000a 0646     		mov	r6, r0
 507              		.loc 1 306 0
 508 000c 3846     		mov	r0, r7
 509              	.LVL33:
 510              		.loc 1 296 0
 511 000e 8846     		mov	r8, r1
 512              		.loc 1 306 0
 513 0010 FFF7FEFF 		bl	chMtxUnlockS
 514              	.LVL34:
 515              		.loc 1 310 0
 516 0014 A569     		ldr	r5, [r4, #24]
 517              	.LBB139:
 518              	.LBB140:
 519              		.loc 2 653 0
 520 0016 3346     		mov	r3, r6
 521              	.LBE140:
 522              	.LBE139:
 523              		.loc 1 310 0
 524 0018 2E62     		str	r6, [r5, #32]
 525              	.LVL35:
 526 001a 03E0     		b	.L32
 527              	.LVL36:
 528              	.L29:
 529              	.LBB144:
 530              	.LBB141:
 531              		.loc 2 656 0
 532 001c 9C68     		ldr	r4, [r3, #8]
 533 001e AA68     		ldr	r2, [r5, #8]
 534 0020 9442     		cmp	r4, r2
 535 0022 02D3     		bcc	.L33
 536              	.L32:
 537              		.loc 2 655 0
 538 0024 1B68     		ldr	r3, [r3]
 539              	.LVL37:
 540              		.loc 2 656 0
 541 0026 9E42     		cmp	r6, r3
 542 0028 F8D1     		bne	.L29
 543              	.L33:
 544              		.loc 2 658 0
 545 002a 5A68     		ldr	r2, [r3, #4]
 546 002c 6A60     		str	r2, [r5, #4]
 547              		.loc 2 657 0
 548 002e 2B60     		str	r3, [r5]
 549              	.LBE141:
 550              	.LBE144:
 551              		.loc 1 312 0
 552 0030 4146     		mov	r1, r8
 553              	.LBB145:
 554              	.LBB142:
 555              		.loc 2 659 0
 556 0032 1560     		str	r5, [r2]
 557              	.LBE142:
ARM GAS  /tmp/ccsN6z31.s 			page 11


 558              	.LBE145:
 559              		.loc 1 312 0
 560 0034 0720     		movs	r0, #7
 561              	.LBB146:
 562              	.LBB143:
 563              		.loc 2 660 0
 564 0036 5D60     		str	r5, [r3, #4]
 565              	.LBE143:
 566              	.LBE146:
 567              		.loc 1 312 0
 568 0038 FFF7FEFF 		bl	chSchGoSleepTimeoutS
 569              	.LVL38:
 570              		.loc 1 313 0
 571 003c 431C     		adds	r3, r0, #1
 572              		.loc 1 312 0
 573 003e 0446     		mov	r4, r0
 574              	.LVL39:
 575              		.loc 1 313 0
 576 0040 02D0     		beq	.L31
 577              		.loc 1 314 0
 578 0042 3846     		mov	r0, r7
 579              	.LVL40:
 580 0044 FFF7FEFF 		bl	chMtxLockS
 581              	.LVL41:
 582              	.L31:
 583              		.loc 1 318 0
 584 0048 2046     		mov	r0, r4
 585 004a BDE8F081 		pop	{r4, r5, r6, r7, r8, pc}
 586              	.LVL42:
 587              	.L37:
 588 004e 00BF     		.align	2
 589              	.L36:
 590 0050 00000000 		.word	ch
 591              		.cfi_endproc
 592              	.LFE238:
 593              		.size	chCondWaitTimeoutS, .-chCondWaitTimeoutS
 594 0054 AFF30080 		.section	.text.chCondWaitTimeout,"ax",%progbits
 594      AFF30080 
 594      AFF30080 
 595              		.align	2
 596              		.p2align 4,,15
 597              		.global	chCondWaitTimeout
 598              		.thumb
 599              		.thumb_func
 600              		.type	chCondWaitTimeout, %function
 601              	chCondWaitTimeout:
 602              	.LFB237:
 603              		.loc 1 258 0
 604              		.cfi_startproc
 605              		@ args = 0, pretend = 0, frame = 0
 606              		@ frame_needed = 0, uses_anonymous_args = 0
 607              	.LVL43:
 608 0000 08B5     		push	{r3, lr}
 609              		.cfi_def_cfa_offset 8
 610              		.cfi_offset 3, -8
 611              		.cfi_offset 14, -4
 612              	.LBB147:
ARM GAS  /tmp/ccsN6z31.s 			page 12


 613              	.LBB148:
 614              	.LBB149:
 615              	.LBB150:
 616              		.loc 3 548 0
 617 0002 2023     		movs	r3, #32
 618              	#APP
 619              	@ 548 "../os/ext/CMSIS/include/core_cmFunc.h" 1
 620 0004 83F31188 		MSR basepri, r3
 621              	@ 0 "" 2
 622              		.thumb
 623              	.LBE150:
 624              	.LBE149:
 625              	.LBE148:
 626              	.LBE147:
 627              		.loc 1 262 0
 628 0008 FFF7FEFF 		bl	chCondWaitTimeoutS
 629              	.LVL44:
 630              	.LBB151:
 631              	.LBB152:
 632              	.LBB153:
 633              	.LBB154:
 634              	.LBB155:
 635              		.loc 3 548 0
 636 000c 0023     		movs	r3, #0
 637              	#APP
 638              	@ 548 "../os/ext/CMSIS/include/core_cmFunc.h" 1
 639 000e 83F31188 		MSR basepri, r3
 640              	@ 0 "" 2
 641              		.thumb
 642              	.LBE155:
 643              	.LBE154:
 644              	.LBE153:
 645              	.LBE152:
 646              	.LBE151:
 647              		.loc 1 266 0
 648 0012 08BD     		pop	{r3, pc}
 649              		.cfi_endproc
 650              	.LFE237:
 651              		.size	chCondWaitTimeout, .-chCondWaitTimeout
 652 0014 AFF30080 		.text
 652      AFF30080 
 652      AFF30080 
 653              	.Letext0:
 654              		.file 6 "/usr/include/stdint.h"
 655              		.file 7 "../os/rt/ports/ARMCMx/compilers/GCC/chtypes.h"
 656              		.file 8 "../os/rt/include/chsystypes.h"
 657              		.file 9 "../os/rt/ports/ARMCMx/chcore.h"
 658              		.file 10 "../os/rt/ports/ARMCMx/chcore_v7m.h"
 659              		.file 11 "../os/rt/include/chsem.h"
 660              		.file 12 "../os/rt/include/chcond.h"
 661              		.file 13 "../os/rt/include/chsys.h"
 662              		.file 14 "../os/ext/CMSIS/include/core_cm4.h"
 663              		.section	.debug_info,"",%progbits
 664              	.Ldebug_info0:
 665 0000 B80E0000 		.4byte	0xeb8
 666 0004 0400     		.2byte	0x4
 667 0006 00000000 		.4byte	.Ldebug_abbrev0
ARM GAS  /tmp/ccsN6z31.s 			page 13


 668 000a 04       		.byte	0x4
 669 000b 01       		.uleb128 0x1
 670 000c 49000000 		.4byte	.LASF127
 671 0010 01       		.byte	0x1
 672 0011 DC030000 		.4byte	.LASF128
 673 0015 52050000 		.4byte	.LASF129
 674 0019 70000000 		.4byte	.Ldebug_ranges0+0x70
 675 001d 00000000 		.4byte	0
 676 0021 00000000 		.4byte	.Ldebug_line0
 677 0025 02       		.uleb128 0x2
 678 0026 04       		.byte	0x4
 679 0027 05       		.byte	0x5
 680 0028 696E7400 		.ascii	"int\000"
 681 002c 03       		.uleb128 0x3
 682 002d 04       		.byte	0x4
 683 002e 07       		.byte	0x7
 684 002f BD020000 		.4byte	.LASF0
 685 0033 03       		.uleb128 0x3
 686 0034 01       		.byte	0x1
 687 0035 06       		.byte	0x6
 688 0036 BB010000 		.4byte	.LASF1
 689 003a 03       		.uleb128 0x3
 690 003b 02       		.byte	0x2
 691 003c 05       		.byte	0x5
 692 003d 7B040000 		.4byte	.LASF2
 693 0041 04       		.uleb128 0x4
 694 0042 5B040000 		.4byte	.LASF4
 695 0046 06       		.byte	0x6
 696 0047 26       		.byte	0x26
 697 0048 25000000 		.4byte	0x25
 698 004c 03       		.uleb128 0x3
 699 004d 08       		.byte	0x8
 700 004e 05       		.byte	0x5
 701 004f AD010000 		.4byte	.LASF3
 702 0053 04       		.uleb128 0x4
 703 0054 36060000 		.4byte	.LASF5
 704 0058 06       		.byte	0x6
 705 0059 30       		.byte	0x30
 706 005a 5E000000 		.4byte	0x5e
 707 005e 03       		.uleb128 0x3
 708 005f 01       		.byte	0x1
 709 0060 08       		.byte	0x8
 710 0061 63040000 		.4byte	.LASF6
 711 0065 03       		.uleb128 0x3
 712 0066 02       		.byte	0x2
 713 0067 07       		.byte	0x7
 714 0068 F3020000 		.4byte	.LASF7
 715 006c 04       		.uleb128 0x4
 716 006d 19050000 		.4byte	.LASF8
 717 0071 06       		.byte	0x6
 718 0072 33       		.byte	0x33
 719 0073 2C000000 		.4byte	0x2c
 720 0077 04       		.uleb128 0x4
 721 0078 1A000000 		.4byte	.LASF9
 722 007c 06       		.byte	0x6
 723 007d 3A       		.byte	0x3a
 724 007e 82000000 		.4byte	0x82
ARM GAS  /tmp/ccsN6z31.s 			page 14


 725 0082 03       		.uleb128 0x3
 726 0083 08       		.byte	0x8
 727 0084 07       		.byte	0x7
 728 0085 47010000 		.4byte	.LASF10
 729 0089 04       		.uleb128 0x4
 730 008a 2F030000 		.4byte	.LASF11
 731 008e 07       		.byte	0x7
 732 008f 3C       		.byte	0x3c
 733 0090 53000000 		.4byte	0x53
 734 0094 04       		.uleb128 0x4
 735 0095 13020000 		.4byte	.LASF12
 736 0099 07       		.byte	0x7
 737 009a 3D       		.byte	0x3d
 738 009b 53000000 		.4byte	0x53
 739 009f 04       		.uleb128 0x4
 740 00a0 20040000 		.4byte	.LASF13
 741 00a4 07       		.byte	0x7
 742 00a5 3E       		.byte	0x3e
 743 00a6 53000000 		.4byte	0x53
 744 00aa 04       		.uleb128 0x4
 745 00ab FF010000 		.4byte	.LASF14
 746 00af 07       		.byte	0x7
 747 00b0 3F       		.byte	0x3f
 748 00b1 53000000 		.4byte	0x53
 749 00b5 04       		.uleb128 0x4
 750 00b6 3F040000 		.4byte	.LASF15
 751 00ba 07       		.byte	0x7
 752 00bb 40       		.byte	0x40
 753 00bc 6C000000 		.4byte	0x6c
 754 00c0 04       		.uleb128 0x4
 755 00c1 1D030000 		.4byte	.LASF16
 756 00c5 07       		.byte	0x7
 757 00c6 41       		.byte	0x41
 758 00c7 41000000 		.4byte	0x41
 759 00cb 04       		.uleb128 0x4
 760 00cc 45030000 		.4byte	.LASF17
 761 00d0 07       		.byte	0x7
 762 00d1 43       		.byte	0x43
 763 00d2 6C000000 		.4byte	0x6c
 764 00d6 04       		.uleb128 0x4
 765 00d7 AA020000 		.4byte	.LASF18
 766 00db 07       		.byte	0x7
 767 00dc 45       		.byte	0x45
 768 00dd 41000000 		.4byte	0x41
 769 00e1 04       		.uleb128 0x4
 770 00e2 A9050000 		.4byte	.LASF19
 771 00e6 08       		.byte	0x8
 772 00e7 33       		.byte	0x33
 773 00e8 6C000000 		.4byte	0x6c
 774 00ec 04       		.uleb128 0x4
 775 00ed 19060000 		.4byte	.LASF20
 776 00f1 08       		.byte	0x8
 777 00f2 3F       		.byte	0x3f
 778 00f3 F7000000 		.4byte	0xf7
 779 00f7 05       		.uleb128 0x5
 780 00f8 06030000 		.4byte	.LASF41
 781 00fc 44       		.byte	0x44
ARM GAS  /tmp/ccsN6z31.s 			page 15


 782 00fd 02       		.byte	0x2
 783 00fe C2       		.byte	0xc2
 784 00ff F0010000 		.4byte	0x1f0
 785 0103 06       		.uleb128 0x6
 786 0104 A5040000 		.4byte	.LASF21
 787 0108 02       		.byte	0x2
 788 0109 C3       		.byte	0xc3
 789 010a FB010000 		.4byte	0x1fb
 790 010e 00       		.byte	0
 791 010f 06       		.uleb128 0x6
 792 0110 38040000 		.4byte	.LASF22
 793 0114 02       		.byte	0x2
 794 0115 C5       		.byte	0xc5
 795 0116 FB010000 		.4byte	0x1fb
 796 011a 04       		.byte	0x4
 797 011b 06       		.uleb128 0x6
 798 011c A6010000 		.4byte	.LASF23
 799 0120 02       		.byte	0x2
 800 0121 C7       		.byte	0xc7
 801 0122 B5000000 		.4byte	0xb5
 802 0126 08       		.byte	0x8
 803 0127 06       		.uleb128 0x6
 804 0128 AA060000 		.4byte	.LASF24
 805 012c 02       		.byte	0x2
 806 012d C8       		.byte	0xc8
 807 012e 1F040000 		.4byte	0x41f
 808 0132 0C       		.byte	0xc
 809 0133 06       		.uleb128 0x6
 810 0134 36020000 		.4byte	.LASF25
 811 0138 02       		.byte	0x2
 812 0139 CA       		.byte	0xca
 813 013a FB010000 		.4byte	0x1fb
 814 013e 10       		.byte	0x10
 815 013f 06       		.uleb128 0x6
 816 0140 CE030000 		.4byte	.LASF26
 817 0144 02       		.byte	0x2
 818 0145 CB       		.byte	0xcb
 819 0146 FB010000 		.4byte	0x1fb
 820 014a 14       		.byte	0x14
 821 014b 06       		.uleb128 0x6
 822 014c 45060000 		.4byte	.LASF27
 823 0150 02       		.byte	0x2
 824 0151 D2       		.byte	0xd2
 825 0152 7E050000 		.4byte	0x57e
 826 0156 18       		.byte	0x18
 827 0157 06       		.uleb128 0x6
 828 0158 85040000 		.4byte	.LASF28
 829 015c 02       		.byte	0x2
 830 015d DD       		.byte	0xdd
 831 015e 94000000 		.4byte	0x94
 832 0162 1C       		.byte	0x1c
 833 0163 06       		.uleb128 0x6
 834 0164 AC040000 		.4byte	.LASF29
 835 0168 02       		.byte	0x2
 836 0169 E1       		.byte	0xe1
 837 016a 89000000 		.4byte	0x89
 838 016e 1D       		.byte	0x1d
ARM GAS  /tmp/ccsN6z31.s 			page 16


 839 016f 06       		.uleb128 0x6
 840 0170 12060000 		.4byte	.LASF30
 841 0174 02       		.byte	0x2
 842 0175 E6       		.byte	0xe6
 843 0176 9F000000 		.4byte	0x9f
 844 017a 1E       		.byte	0x1e
 845 017b 06       		.uleb128 0x6
 846 017c 8D040000 		.4byte	.LASF31
 847 0180 02       		.byte	0x2
 848 0181 EC       		.byte	0xec
 849 0182 AA000000 		.4byte	0xaa
 850 0186 1F       		.byte	0x1f
 851 0187 07       		.uleb128 0x7
 852 0188 705F7500 		.ascii	"p_u\000"
 853 018c 02       		.byte	0x2
 854 018d 3101     		.2byte	0x131
 855 018f B9040000 		.4byte	0x4b9
 856 0193 20       		.byte	0x20
 857 0194 08       		.uleb128 0x8
 858 0195 6B030000 		.4byte	.LASF32
 859 0199 02       		.byte	0x2
 860 019a 3601     		.2byte	0x136
 861 019c 01020000 		.4byte	0x201
 862 01a0 24       		.byte	0x24
 863 01a1 08       		.uleb128 0x8
 864 01a2 E2020000 		.4byte	.LASF33
 865 01a6 02       		.byte	0x2
 866 01a7 3C01     		.2byte	0x13c
 867 01a9 25020000 		.4byte	0x225
 868 01ad 28       		.byte	0x28
 869 01ae 08       		.uleb128 0x8
 870 01af 8A060000 		.4byte	.LASF34
 871 01b3 02       		.byte	0x2
 872 01b4 4001     		.2byte	0x140
 873 01b6 C0000000 		.4byte	0xc0
 874 01ba 30       		.byte	0x30
 875 01bb 08       		.uleb128 0x8
 876 01bc FB040000 		.4byte	.LASF35
 877 01c0 02       		.byte	0x2
 878 01c1 4601     		.2byte	0x146
 879 01c3 CB000000 		.4byte	0xcb
 880 01c7 34       		.byte	0x34
 881 01c8 08       		.uleb128 0x8
 882 01c9 71040000 		.4byte	.LASF36
 883 01cd 02       		.byte	0x2
 884 01ce 4D01     		.2byte	0x14d
 885 01d0 78050000 		.4byte	0x578
 886 01d4 38       		.byte	0x38
 887 01d5 08       		.uleb128 0x8
 888 01d6 B3050000 		.4byte	.LASF37
 889 01da 02       		.byte	0x2
 890 01db 5101     		.2byte	0x151
 891 01dd B5000000 		.4byte	0xb5
 892 01e1 3C       		.byte	0x3c
 893 01e2 08       		.uleb128 0x8
 894 01e3 DC010000 		.4byte	.LASF38
 895 01e7 02       		.byte	0x2
ARM GAS  /tmp/ccsN6z31.s 			page 17


 896 01e8 5801     		.2byte	0x158
 897 01ea D8020000 		.4byte	0x2d8
 898 01ee 40       		.byte	0x40
 899 01ef 00       		.byte	0
 900 01f0 04       		.uleb128 0x4
 901 01f1 7E030000 		.4byte	.LASF39
 902 01f5 08       		.byte	0x8
 903 01f6 44       		.byte	0x44
 904 01f7 FB010000 		.4byte	0x1fb
 905 01fb 09       		.uleb128 0x9
 906 01fc 04       		.byte	0x4
 907 01fd EC000000 		.4byte	0xec
 908 0201 04       		.uleb128 0x4
 909 0202 5C030000 		.4byte	.LASF40
 910 0206 08       		.byte	0x8
 911 0207 49       		.byte	0x49
 912 0208 0C020000 		.4byte	0x20c
 913 020c 05       		.uleb128 0x5
 914 020d 3D050000 		.4byte	.LASF42
 915 0211 04       		.byte	0x4
 916 0212 02       		.byte	0x2
 917 0213 B0       		.byte	0xb0
 918 0214 25020000 		.4byte	0x225
 919 0218 06       		.uleb128 0x6
 920 0219 A5040000 		.4byte	.LASF21
 921 021d 02       		.byte	0x2
 922 021e B1       		.byte	0xb1
 923 021f FB010000 		.4byte	0x1fb
 924 0223 00       		.byte	0
 925 0224 00       		.byte	0
 926 0225 04       		.uleb128 0x4
 927 0226 F9050000 		.4byte	.LASF43
 928 022a 08       		.byte	0x8
 929 022b 50       		.byte	0x50
 930 022c 30020000 		.4byte	0x230
 931 0230 05       		.uleb128 0x5
 932 0231 95010000 		.4byte	.LASF44
 933 0235 08       		.byte	0x8
 934 0236 02       		.byte	0x2
 935 0237 B7       		.byte	0xb7
 936 0238 55020000 		.4byte	0x255
 937 023c 06       		.uleb128 0x6
 938 023d A5040000 		.4byte	.LASF21
 939 0241 02       		.byte	0x2
 940 0242 B8       		.byte	0xb8
 941 0243 FB010000 		.4byte	0x1fb
 942 0247 00       		.byte	0
 943 0248 06       		.uleb128 0x6
 944 0249 38040000 		.4byte	.LASF22
 945 024d 02       		.byte	0x2
 946 024e B9       		.byte	0xb9
 947 024f FB010000 		.4byte	0x1fb
 948 0253 04       		.byte	0x4
 949 0254 00       		.byte	0
 950 0255 04       		.uleb128 0x4
 951 0256 00000000 		.4byte	.LASF45
 952 025a 08       		.byte	0x8
ARM GAS  /tmp/ccsN6z31.s 			page 18


 953 025b 57       		.byte	0x57
 954 025c 60020000 		.4byte	0x260
 955 0260 0A       		.uleb128 0xa
 956 0261 37030000 		.4byte	.LASF46
 957 0265 1C       		.byte	0x1c
 958 0266 02       		.byte	0x2
 959 0267 9001     		.2byte	0x190
 960 0269 BC020000 		.4byte	0x2bc
 961 026d 08       		.uleb128 0x8
 962 026e 29050000 		.4byte	.LASF47
 963 0272 02       		.byte	0x2
 964 0273 9101     		.2byte	0x191
 965 0275 25020000 		.4byte	0x225
 966 0279 00       		.byte	0
 967 027a 08       		.uleb128 0x8
 968 027b 97040000 		.4byte	.LASF48
 969 027f 02       		.byte	0x2
 970 0280 9201     		.2byte	0x192
 971 0282 B5000000 		.4byte	0xb5
 972 0286 08       		.byte	0x8
 973 0287 08       		.uleb128 0x8
 974 0288 D6030000 		.4byte	.LASF49
 975 028c 02       		.byte	0x2
 976 028d 9401     		.2byte	0x194
 977 028f 1F040000 		.4byte	0x41f
 978 0293 0C       		.byte	0xc
 979 0294 08       		.uleb128 0x8
 980 0295 57020000 		.4byte	.LASF50
 981 0299 02       		.byte	0x2
 982 029a 9701     		.2byte	0x197
 983 029c FB010000 		.4byte	0x1fb
 984 02a0 10       		.byte	0x10
 985 02a1 08       		.uleb128 0x8
 986 02a2 08040000 		.4byte	.LASF51
 987 02a6 02       		.byte	0x2
 988 02a7 9801     		.2byte	0x198
 989 02a9 FB010000 		.4byte	0x1fb
 990 02ad 14       		.byte	0x14
 991 02ae 08       		.uleb128 0x8
 992 02af FE030000 		.4byte	.LASF52
 993 02b3 02       		.byte	0x2
 994 02b4 9B01     		.2byte	0x19b
 995 02b6 FB010000 		.4byte	0x1fb
 996 02ba 18       		.byte	0x18
 997 02bb 00       		.byte	0
 998 02bc 04       		.uleb128 0x4
 999 02bd BE050000 		.4byte	.LASF53
 1000 02c1 08       		.byte	0x8
 1001 02c2 5C       		.byte	0x5c
 1002 02c3 C7020000 		.4byte	0x2c7
 1003 02c7 09       		.uleb128 0x9
 1004 02c8 04       		.byte	0x4
 1005 02c9 CD020000 		.4byte	0x2cd
 1006 02cd 0B       		.uleb128 0xb
 1007 02ce D8020000 		.4byte	0x2d8
 1008 02d2 0C       		.uleb128 0xc
 1009 02d3 D8020000 		.4byte	0x2d8
ARM GAS  /tmp/ccsN6z31.s 			page 19


 1010 02d7 00       		.byte	0
 1011 02d8 0D       		.uleb128 0xd
 1012 02d9 04       		.byte	0x4
 1013 02da 04       		.uleb128 0x4
 1014 02db 28040000 		.4byte	.LASF54
 1015 02df 08       		.byte	0x8
 1016 02e0 61       		.byte	0x61
 1017 02e1 E5020000 		.4byte	0x2e5
 1018 02e5 0A       		.uleb128 0xa
 1019 02e6 C7040000 		.4byte	.LASF55
 1020 02ea 14       		.byte	0x14
 1021 02eb 02       		.byte	0x2
 1022 02ec 6B01     		.2byte	0x16b
 1023 02ee 34030000 		.4byte	0x334
 1024 02f2 08       		.uleb128 0x8
 1025 02f3 CA020000 		.4byte	.LASF56
 1026 02f7 02       		.byte	0x2
 1027 02f8 6C01     		.2byte	0x16c
 1028 02fa 90050000 		.4byte	0x590
 1029 02fe 00       		.byte	0
 1030 02ff 08       		.uleb128 0x8
 1031 0300 68020000 		.4byte	.LASF57
 1032 0304 02       		.byte	0x2
 1033 0305 6D01     		.2byte	0x16d
 1034 0307 90050000 		.4byte	0x590
 1035 030b 04       		.byte	0x4
 1036 030c 08       		.uleb128 0x8
 1037 030d D9020000 		.4byte	.LASF58
 1038 0311 02       		.byte	0x2
 1039 0312 6E01     		.2byte	0x16e
 1040 0314 E1000000 		.4byte	0xe1
 1041 0318 08       		.byte	0x8
 1042 0319 08       		.uleb128 0x8
 1043 031a B0060000 		.4byte	.LASF59
 1044 031e 02       		.byte	0x2
 1045 031f 6F01     		.2byte	0x16f
 1046 0321 BC020000 		.4byte	0x2bc
 1047 0325 0C       		.byte	0xc
 1048 0326 08       		.uleb128 0x8
 1049 0327 F2050000 		.4byte	.LASF60
 1050 032b 02       		.byte	0x2
 1051 032c 7101     		.2byte	0x171
 1052 032e D8020000 		.4byte	0x2d8
 1053 0332 10       		.byte	0x10
 1054 0333 00       		.byte	0
 1055 0334 04       		.uleb128 0x4
 1056 0335 72010000 		.4byte	.LASF61
 1057 0339 08       		.byte	0x8
 1058 033a 66       		.byte	0x66
 1059 033b 3F030000 		.4byte	0x33f
 1060 033f 0A       		.uleb128 0xa
 1061 0340 91030000 		.4byte	.LASF62
 1062 0344 10       		.byte	0x10
 1063 0345 02       		.byte	0x2
 1064 0346 7B01     		.2byte	0x17b
 1065 0348 81030000 		.4byte	0x381
 1066 034c 08       		.uleb128 0x8
ARM GAS  /tmp/ccsN6z31.s 			page 20


 1067 034d CA020000 		.4byte	.LASF56
 1068 0351 02       		.byte	0x2
 1069 0352 7C01     		.2byte	0x17c
 1070 0354 90050000 		.4byte	0x590
 1071 0358 00       		.byte	0
 1072 0359 08       		.uleb128 0x8
 1073 035a 68020000 		.4byte	.LASF57
 1074 035e 02       		.byte	0x2
 1075 035f 7E01     		.2byte	0x17e
 1076 0361 90050000 		.4byte	0x590
 1077 0365 04       		.byte	0x4
 1078 0366 08       		.uleb128 0x8
 1079 0367 D9020000 		.4byte	.LASF58
 1080 036b 02       		.byte	0x2
 1081 036c 8001     		.2byte	0x180
 1082 036e E1000000 		.4byte	0xe1
 1083 0372 08       		.byte	0x8
 1084 0373 08       		.uleb128 0x8
 1085 0374 5E060000 		.4byte	.LASF63
 1086 0378 02       		.byte	0x2
 1087 0379 8201     		.2byte	0x182
 1088 037b 96050000 		.4byte	0x596
 1089 037f 0C       		.byte	0xc
 1090 0380 00       		.byte	0
 1091 0381 04       		.uleb128 0x4
 1092 0382 2F000000 		.4byte	.LASF64
 1093 0386 08       		.byte	0x8
 1094 0387 6B       		.byte	0x6b
 1095 0388 8C030000 		.4byte	0x38c
 1096 038c 0A       		.uleb128 0xa
 1097 038d 70020000 		.4byte	.LASF65
 1098 0391 04       		.byte	0x4
 1099 0392 02       		.byte	0x2
 1100 0393 A201     		.2byte	0x1a2
 1101 0395 A7030000 		.4byte	0x3a7
 1102 0399 08       		.uleb128 0x8
 1103 039a D5050000 		.4byte	.LASF66
 1104 039e 02       		.byte	0x2
 1105 039f AA01     		.2byte	0x1aa
 1106 03a1 9B050000 		.4byte	0x59b
 1107 03a5 00       		.byte	0
 1108 03a6 00       		.byte	0
 1109 03a7 04       		.uleb128 0x4
 1110 03a8 23030000 		.4byte	.LASF67
 1111 03ac 08       		.byte	0x8
 1112 03ad 70       		.byte	0x70
 1113 03ae B2030000 		.4byte	0x3b2
 1114 03b2 0E       		.uleb128 0xe
 1115 03b3 09020000 		.4byte	.LASF68
 1116 03b7 5001     		.2byte	0x150
 1117 03b9 02       		.byte	0x2
 1118 03ba C201     		.2byte	0x1c2
 1119 03bc 02040000 		.4byte	0x402
 1120 03c0 08       		.uleb128 0x8
 1121 03c1 22060000 		.4byte	.LASF69
 1122 03c5 02       		.byte	0x2
 1123 03c6 C601     		.2byte	0x1c6
ARM GAS  /tmp/ccsN6z31.s 			page 21


 1124 03c8 55020000 		.4byte	0x255
 1125 03cc 00       		.byte	0
 1126 03cd 08       		.uleb128 0x8
 1127 03ce EC010000 		.4byte	.LASF70
 1128 03d2 02       		.byte	0x2
 1129 03d3 CA01     		.2byte	0x1ca
 1130 03d5 34030000 		.4byte	0x334
 1131 03d9 1C       		.byte	0x1c
 1132 03da 07       		.uleb128 0x7
 1133 03db 64626700 		.ascii	"dbg\000"
 1134 03df 02       		.byte	0x2
 1135 03e0 CE01     		.2byte	0x1ce
 1136 03e2 81030000 		.4byte	0x381
 1137 03e6 2C       		.byte	0x2c
 1138 03e7 08       		.uleb128 0x8
 1139 03e8 67010000 		.4byte	.LASF71
 1140 03ec 02       		.byte	0x2
 1141 03ed D201     		.2byte	0x1d2
 1142 03ef EC000000 		.4byte	0xec
 1143 03f3 30       		.byte	0x30
 1144 03f4 08       		.uleb128 0x8
 1145 03f5 9B020000 		.4byte	.LASF72
 1146 03f9 02       		.byte	0x2
 1147 03fa E301     		.2byte	0x1e3
 1148 03fc A0050000 		.4byte	0x5a0
 1149 0400 78       		.byte	0x78
 1150 0401 00       		.byte	0
 1151 0402 03       		.uleb128 0x3
 1152 0403 04       		.byte	0x4
 1153 0404 07       		.byte	0x7
 1154 0405 75030000 		.4byte	.LASF73
 1155 0409 04       		.uleb128 0x4
 1156 040a 5F020000 		.4byte	.LASF74
 1157 040e 09       		.byte	0x9
 1158 040f 65       		.byte	0x65
 1159 0410 D8020000 		.4byte	0x2d8
 1160 0414 04       		.uleb128 0x4
 1161 0415 51030000 		.4byte	.LASF75
 1162 0419 09       		.byte	0x9
 1163 041a 6D       		.byte	0x6d
 1164 041b 77000000 		.4byte	0x77
 1165 041f 05       		.uleb128 0x5
 1166 0420 DF050000 		.4byte	.LASF76
 1167 0424 04       		.byte	0x4
 1168 0425 09       		.byte	0x9
 1169 0426 89       		.byte	0x89
 1170 0427 38040000 		.4byte	0x438
 1171 042b 0F       		.uleb128 0xf
 1172 042c 72313300 		.ascii	"r13\000"
 1173 0430 09       		.byte	0x9
 1174 0431 8A       		.byte	0x8a
 1175 0432 B3040000 		.4byte	0x4b3
 1176 0436 00       		.byte	0
 1177 0437 00       		.byte	0
 1178 0438 05       		.uleb128 0x5
 1179 0439 23000000 		.4byte	.LASF77
 1180 043d 24       		.byte	0x24
ARM GAS  /tmp/ccsN6z31.s 			page 22


 1181 043e 0A       		.byte	0xa
 1182 043f FD       		.byte	0xfd
 1183 0440 B3040000 		.4byte	0x4b3
 1184 0444 07       		.uleb128 0x7
 1185 0445 723400   		.ascii	"r4\000"
 1186 0448 0A       		.byte	0xa
 1187 0449 1001     		.2byte	0x110
 1188 044b 09040000 		.4byte	0x409
 1189 044f 00       		.byte	0
 1190 0450 07       		.uleb128 0x7
 1191 0451 723500   		.ascii	"r5\000"
 1192 0454 0A       		.byte	0xa
 1193 0455 1101     		.2byte	0x111
 1194 0457 09040000 		.4byte	0x409
 1195 045b 04       		.byte	0x4
 1196 045c 07       		.uleb128 0x7
 1197 045d 723600   		.ascii	"r6\000"
 1198 0460 0A       		.byte	0xa
 1199 0461 1201     		.2byte	0x112
 1200 0463 09040000 		.4byte	0x409
 1201 0467 08       		.byte	0x8
 1202 0468 07       		.uleb128 0x7
 1203 0469 723700   		.ascii	"r7\000"
 1204 046c 0A       		.byte	0xa
 1205 046d 1301     		.2byte	0x113
 1206 046f 09040000 		.4byte	0x409
 1207 0473 0C       		.byte	0xc
 1208 0474 07       		.uleb128 0x7
 1209 0475 723800   		.ascii	"r8\000"
 1210 0478 0A       		.byte	0xa
 1211 0479 1401     		.2byte	0x114
 1212 047b 09040000 		.4byte	0x409
 1213 047f 10       		.byte	0x10
 1214 0480 07       		.uleb128 0x7
 1215 0481 723900   		.ascii	"r9\000"
 1216 0484 0A       		.byte	0xa
 1217 0485 1501     		.2byte	0x115
 1218 0487 09040000 		.4byte	0x409
 1219 048b 14       		.byte	0x14
 1220 048c 07       		.uleb128 0x7
 1221 048d 72313000 		.ascii	"r10\000"
 1222 0491 0A       		.byte	0xa
 1223 0492 1601     		.2byte	0x116
 1224 0494 09040000 		.4byte	0x409
 1225 0498 18       		.byte	0x18
 1226 0499 07       		.uleb128 0x7
 1227 049a 72313100 		.ascii	"r11\000"
 1228 049e 0A       		.byte	0xa
 1229 049f 1701     		.2byte	0x117
 1230 04a1 09040000 		.4byte	0x409
 1231 04a5 1C       		.byte	0x1c
 1232 04a6 07       		.uleb128 0x7
 1233 04a7 6C7200   		.ascii	"lr\000"
 1234 04aa 0A       		.byte	0xa
 1235 04ab 1801     		.2byte	0x118
 1236 04ad 09040000 		.4byte	0x409
 1237 04b1 20       		.byte	0x20
ARM GAS  /tmp/ccsN6z31.s 			page 23


 1238 04b2 00       		.byte	0
 1239 04b3 09       		.uleb128 0x9
 1240 04b4 04       		.byte	0x4
 1241 04b5 38040000 		.4byte	0x438
 1242 04b9 10       		.uleb128 0x10
 1243 04ba 04       		.byte	0x4
 1244 04bb 02       		.byte	0x2
 1245 04bc FA       		.byte	0xfa
 1246 04bd 16050000 		.4byte	0x516
 1247 04c1 11       		.uleb128 0x11
 1248 04c2 13000000 		.4byte	.LASF78
 1249 04c6 02       		.byte	0x2
 1250 04c7 0101     		.2byte	0x101
 1251 04c9 C0000000 		.4byte	0xc0
 1252 04cd 11       		.uleb128 0x11
 1253 04ce 5E010000 		.4byte	.LASF79
 1254 04d2 02       		.byte	0x2
 1255 04d3 0801     		.2byte	0x108
 1256 04d5 C0000000 		.4byte	0xc0
 1257 04d9 11       		.uleb128 0x11
 1258 04da 3E060000 		.4byte	.LASF80
 1259 04de 02       		.byte	0x2
 1260 04df 0F01     		.2byte	0x10f
 1261 04e1 D8020000 		.4byte	0x2d8
 1262 04e5 11       		.uleb128 0x11
 1263 04e6 0D000000 		.4byte	.LASF81
 1264 04ea 02       		.byte	0x2
 1265 04eb 1601     		.2byte	0x116
 1266 04ed 16050000 		.4byte	0x516
 1267 04f1 11       		.uleb128 0x11
 1268 04f2 D2020000 		.4byte	.LASF82
 1269 04f6 02       		.byte	0x2
 1270 04f7 1E01     		.2byte	0x11e
 1271 04f9 41050000 		.4byte	0x541
 1272 04fd 11       		.uleb128 0x11
 1273 04fe 22050000 		.4byte	.LASF83
 1274 0502 02       		.byte	0x2
 1275 0503 2701     		.2byte	0x127
 1276 0505 78050000 		.4byte	0x578
 1277 0509 11       		.uleb128 0x11
 1278 050a 9E040000 		.4byte	.LASF84
 1279 050e 02       		.byte	0x2
 1280 050f 2F01     		.2byte	0x12f
 1281 0511 CB000000 		.4byte	0xcb
 1282 0515 00       		.byte	0
 1283 0516 09       		.uleb128 0x9
 1284 0517 04       		.byte	0x4
 1285 0518 F0010000 		.4byte	0x1f0
 1286 051c 05       		.uleb128 0x5
 1287 051d E0040000 		.4byte	.LASF85
 1288 0521 0C       		.byte	0xc
 1289 0522 0B       		.byte	0xb
 1290 0523 34       		.byte	0x34
 1291 0524 41050000 		.4byte	0x541
 1292 0528 06       		.uleb128 0x6
 1293 0529 3E020000 		.4byte	.LASF86
 1294 052d 0B       		.byte	0xb
ARM GAS  /tmp/ccsN6z31.s 			page 24


 1295 052e 35       		.byte	0x35
 1296 052f 25020000 		.4byte	0x225
 1297 0533 00       		.byte	0
 1298 0534 06       		.uleb128 0x6
 1299 0535 ED020000 		.4byte	.LASF87
 1300 0539 0B       		.byte	0xb
 1301 053a 37       		.byte	0x37
 1302 053b D6000000 		.4byte	0xd6
 1303 053f 08       		.byte	0x8
 1304 0540 00       		.byte	0
 1305 0541 09       		.uleb128 0x9
 1306 0542 04       		.byte	0x4
 1307 0543 1C050000 		.4byte	0x51c
 1308 0547 05       		.uleb128 0x5
 1309 0548 09060000 		.4byte	.LASF88
 1310 054c 10       		.byte	0x10
 1311 054d 04       		.byte	0x4
 1312 054e 39       		.byte	0x39
 1313 054f 78050000 		.4byte	0x578
 1314 0553 06       		.uleb128 0x6
 1315 0554 E4010000 		.4byte	.LASF89
 1316 0558 04       		.byte	0x4
 1317 0559 3A       		.byte	0x3a
 1318 055a 25020000 		.4byte	0x225
 1319 055e 00       		.byte	0
 1320 055f 06       		.uleb128 0x6
 1321 0560 A2060000 		.4byte	.LASF90
 1322 0564 04       		.byte	0x4
 1323 0565 3C       		.byte	0x3c
 1324 0566 FB010000 		.4byte	0x1fb
 1325 056a 08       		.byte	0x8
 1326 056b 06       		.uleb128 0x6
 1327 056c F2030000 		.4byte	.LASF91
 1328 0570 04       		.byte	0x4
 1329 0571 3E       		.byte	0x3e
 1330 0572 BB050000 		.4byte	0x5bb
 1331 0576 0C       		.byte	0xc
 1332 0577 00       		.byte	0
 1333 0578 09       		.uleb128 0x9
 1334 0579 04       		.byte	0x4
 1335 057a 47050000 		.4byte	0x547
 1336 057e 09       		.uleb128 0x9
 1337 057f 04       		.byte	0x4
 1338 0580 84050000 		.4byte	0x584
 1339 0584 12       		.uleb128 0x12
 1340 0585 89050000 		.4byte	0x589
 1341 0589 03       		.uleb128 0x3
 1342 058a 01       		.byte	0x1
 1343 058b 08       		.byte	0x8
 1344 058c 4D050000 		.4byte	.LASF92
 1345 0590 09       		.uleb128 0x9
 1346 0591 04       		.byte	0x4
 1347 0592 DA020000 		.4byte	0x2da
 1348 0596 13       		.uleb128 0x13
 1349 0597 E1000000 		.4byte	0xe1
 1350 059b 13       		.uleb128 0x13
 1351 059c 7E050000 		.4byte	0x57e
ARM GAS  /tmp/ccsN6z31.s 			page 25


 1352 05a0 14       		.uleb128 0x14
 1353 05a1 14040000 		.4byte	0x414
 1354 05a5 B0050000 		.4byte	0x5b0
 1355 05a9 15       		.uleb128 0x15
 1356 05aa 02040000 		.4byte	0x402
 1357 05ae 1A       		.byte	0x1a
 1358 05af 00       		.byte	0
 1359 05b0 04       		.uleb128 0x4
 1360 05b1 80020000 		.4byte	.LASF93
 1361 05b5 04       		.byte	0x4
 1362 05b6 34       		.byte	0x34
 1363 05b7 47050000 		.4byte	0x547
 1364 05bb 09       		.uleb128 0x9
 1365 05bc 04       		.byte	0x4
 1366 05bd B0050000 		.4byte	0x5b0
 1367 05c1 05       		.uleb128 0x5
 1368 05c2 A8030000 		.4byte	.LASF94
 1369 05c6 08       		.byte	0x8
 1370 05c7 0C       		.byte	0xc
 1371 05c8 3B       		.byte	0x3b
 1372 05c9 DA050000 		.4byte	0x5da
 1373 05cd 06       		.uleb128 0x6
 1374 05ce D8040000 		.4byte	.LASF95
 1375 05d2 0C       		.byte	0xc
 1376 05d3 3C       		.byte	0x3c
 1377 05d4 25020000 		.4byte	0x225
 1378 05d8 00       		.byte	0
 1379 05d9 00       		.byte	0
 1380 05da 04       		.uleb128 0x4
 1381 05db C7010000 		.4byte	.LASF96
 1382 05df 0C       		.byte	0xc
 1383 05e0 3E       		.byte	0x3e
 1384 05e1 C1050000 		.4byte	0x5c1
 1385 05e5 16       		.uleb128 0x16
 1386 05e6 C7050000 		.4byte	.LASF99
 1387 05ea 03       		.byte	0x3
 1388 05eb 2202     		.2byte	0x222
 1389 05ed 03       		.byte	0x3
 1390 05ee FF050000 		.4byte	0x5ff
 1391 05f2 17       		.uleb128 0x17
 1392 05f3 88020000 		.4byte	.LASF101
 1393 05f7 03       		.byte	0x3
 1394 05f8 2202     		.2byte	0x222
 1395 05fa 6C000000 		.4byte	0x6c
 1396 05fe 00       		.byte	0
 1397 05ff 18       		.uleb128 0x18
 1398 0600 2C010000 		.4byte	.LASF97
 1399 0604 0A       		.byte	0xa
 1400 0605 C801     		.2byte	0x1c8
 1401 0607 03       		.byte	0x3
 1402 0608 18       		.uleb128 0x18
 1403 0609 F3010000 		.4byte	.LASF98
 1404 060d 0A       		.byte	0xa
 1405 060e E001     		.2byte	0x1e0
 1406 0610 03       		.byte	0x3
 1407 0611 19       		.uleb128 0x19
 1408 0612 28060000 		.4byte	.LASF108
ARM GAS  /tmp/ccsN6z31.s 			page 26


 1409 0616 05       		.byte	0x5
 1410 0617 AE       		.byte	0xae
 1411 0618 FB010000 		.4byte	0x1fb
 1412 061c 03       		.byte	0x3
 1413 061d 16       		.uleb128 0x16
 1414 061e 3E000000 		.4byte	.LASF100
 1415 0622 02       		.byte	0x2
 1416 0623 5A02     		.2byte	0x25a
 1417 0625 03       		.byte	0x3
 1418 0626 37060000 		.4byte	0x637
 1419 062a 1A       		.uleb128 0x1a
 1420 062b 74717000 		.ascii	"tqp\000"
 1421 062f 02       		.byte	0x2
 1422 0630 5A02     		.2byte	0x25a
 1423 0632 37060000 		.4byte	0x637
 1424 0636 00       		.byte	0
 1425 0637 09       		.uleb128 0x9
 1426 0638 04       		.byte	0x4
 1427 0639 25020000 		.4byte	0x225
 1428 063d 18       		.uleb128 0x18
 1429 063e BD040000 		.4byte	.LASF102
 1430 0642 0D       		.byte	0xd
 1431 0643 5A01     		.2byte	0x15a
 1432 0645 03       		.byte	0x3
 1433 0646 1B       		.uleb128 0x1b
 1434 0647 1C020000 		.4byte	.LASF104
 1435 064b 02       		.byte	0x2
 1436 064c 7502     		.2byte	0x275
 1437 064e 64060000 		.4byte	0x664
 1438 0652 03       		.byte	0x3
 1439 0653 64060000 		.4byte	0x664
 1440 0657 1A       		.uleb128 0x1a
 1441 0658 74717000 		.ascii	"tqp\000"
 1442 065c 02       		.byte	0x2
 1443 065d 7502     		.2byte	0x275
 1444 065f 6B060000 		.4byte	0x66b
 1445 0663 00       		.byte	0
 1446 0664 03       		.uleb128 0x3
 1447 0665 01       		.byte	0x1
 1448 0666 02       		.byte	0x2
 1449 0667 55040000 		.4byte	.LASF103
 1450 066b 09       		.uleb128 0x9
 1451 066c 04       		.byte	0x4
 1452 066d 71060000 		.4byte	0x671
 1453 0671 12       		.uleb128 0x12
 1454 0672 25020000 		.4byte	0x225
 1455 0676 1B       		.uleb128 0x1b
 1456 0677 97050000 		.4byte	.LASF105
 1457 067b 02       		.byte	0x2
 1458 067c 9F02     		.2byte	0x29f
 1459 067e FB010000 		.4byte	0x1fb
 1460 0682 03       		.byte	0x3
 1461 0683 9F060000 		.4byte	0x69f
 1462 0687 1A       		.uleb128 0x1a
 1463 0688 74717000 		.ascii	"tqp\000"
 1464 068c 02       		.byte	0x2
 1465 068d 9F02     		.2byte	0x29f
ARM GAS  /tmp/ccsN6z31.s 			page 27


 1466 068f 37060000 		.4byte	0x637
 1467 0693 1C       		.uleb128 0x1c
 1468 0694 747000   		.ascii	"tp\000"
 1469 0697 02       		.byte	0x2
 1470 0698 A002     		.2byte	0x2a0
 1471 069a FB010000 		.4byte	0x1fb
 1472 069e 00       		.byte	0
 1473 069f 16       		.uleb128 0x16
 1474 06a0 7E060000 		.4byte	.LASF106
 1475 06a4 0D       		.byte	0xd
 1476 06a5 6601     		.2byte	0x166
 1477 06a7 03       		.byte	0x3
 1478 06a8 BA060000 		.4byte	0x6ba
 1479 06ac 1D       		.uleb128 0x1d
 1480 06ad B4040000 		.4byte	.LASF107
 1481 06b1 CA060000 		.4byte	0x6ca
 1482 06b5 7E060000 		.4byte	.LASF106
 1483 06b9 00       		.byte	0
 1484 06ba 14       		.uleb128 0x14
 1485 06bb 89050000 		.4byte	0x589
 1486 06bf CA060000 		.4byte	0x6ca
 1487 06c3 15       		.uleb128 0x15
 1488 06c4 02040000 		.4byte	0x402
 1489 06c8 0B       		.byte	0xb
 1490 06c9 00       		.byte	0
 1491 06ca 12       		.uleb128 0x12
 1492 06cb BA060000 		.4byte	0x6ba
 1493 06cf 19       		.uleb128 0x19
 1494 06d0 06050000 		.4byte	.LASF109
 1495 06d4 04       		.byte	0x4
 1496 06d5 90       		.byte	0x90
 1497 06d6 BB050000 		.4byte	0x5bb
 1498 06da 03       		.byte	0x3
 1499 06db 16       		.uleb128 0x16
 1500 06dc 90060000 		.4byte	.LASF110
 1501 06e0 02       		.byte	0x2
 1502 06e1 8B02     		.2byte	0x28b
 1503 06e3 03       		.byte	0x3
 1504 06e4 0B070000 		.4byte	0x70b
 1505 06e8 1A       		.uleb128 0x1a
 1506 06e9 747000   		.ascii	"tp\000"
 1507 06ec 02       		.byte	0x2
 1508 06ed 8B02     		.2byte	0x28b
 1509 06ef FB010000 		.4byte	0x1fb
 1510 06f3 1A       		.uleb128 0x1a
 1511 06f4 74717000 		.ascii	"tqp\000"
 1512 06f8 02       		.byte	0x2
 1513 06f9 8B02     		.2byte	0x28b
 1514 06fb 37060000 		.4byte	0x637
 1515 06ff 1C       		.uleb128 0x1c
 1516 0700 637000   		.ascii	"cp\000"
 1517 0703 02       		.byte	0x2
 1518 0704 8D02     		.2byte	0x28d
 1519 0706 FB010000 		.4byte	0x1fb
 1520 070a 00       		.byte	0
 1521 070b 1E       		.uleb128 0x1e
 1522 070c 86050000 		.4byte	.LASF111
ARM GAS  /tmp/ccsN6z31.s 			page 28


 1523 0710 01       		.byte	0x1
 1524 0711 4B       		.byte	0x4b
 1525 0712 00000000 		.4byte	.LFB230
 1526 0716 06000000 		.4byte	.LFE230-.LFB230
 1527 071a 01       		.uleb128 0x1
 1528 071b 9C       		.byte	0x9c
 1529 071c 4D070000 		.4byte	0x74d
 1530 0720 1F       		.uleb128 0x1f
 1531 0721 637000   		.ascii	"cp\000"
 1532 0724 01       		.byte	0x1
 1533 0725 4B       		.byte	0x4b
 1534 0726 4D070000 		.4byte	0x74d
 1535 072a 01       		.uleb128 0x1
 1536 072b 50       		.byte	0x50
 1537 072c 20       		.uleb128 0x20
 1538 072d B4040000 		.4byte	.LASF107
 1539 0731 63070000 		.4byte	0x763
 1540 0735 21       		.uleb128 0x21
 1541 0736 1D060000 		.4byte	0x61d
 1542 073a 00000000 		.4byte	.LBB83
 1543 073e 06000000 		.4byte	.LBE83-.LBB83
 1544 0742 01       		.byte	0x1
 1545 0743 4F       		.byte	0x4f
 1546 0744 22       		.uleb128 0x22
 1547 0745 2A060000 		.4byte	0x62a
 1548 0749 01       		.uleb128 0x1
 1549 074a 50       		.byte	0x50
 1550 074b 00       		.byte	0
 1551 074c 00       		.byte	0
 1552 074d 09       		.uleb128 0x9
 1553 074e 04       		.byte	0x4
 1554 074f DA050000 		.4byte	0x5da
 1555 0753 14       		.uleb128 0x14
 1556 0754 89050000 		.4byte	0x589
 1557 0758 63070000 		.4byte	0x763
 1558 075c 15       		.uleb128 0x15
 1559 075d 02040000 		.4byte	0x402
 1560 0761 10       		.byte	0x10
 1561 0762 00       		.byte	0
 1562 0763 12       		.uleb128 0x12
 1563 0764 53070000 		.4byte	0x753
 1564 0768 1E       		.uleb128 0x1e
 1565 0769 8E020000 		.4byte	.LASF112
 1566 076d 01       		.byte	0x1
 1567 076e 59       		.byte	0x59
 1568 076f 00000000 		.4byte	.LFB231
 1569 0773 26000000 		.4byte	.LFE231-.LFB231
 1570 0777 01       		.uleb128 0x1
 1571 0778 9C       		.byte	0x9c
 1572 0779 78080000 		.4byte	0x878
 1573 077d 23       		.uleb128 0x23
 1574 077e 637000   		.ascii	"cp\000"
 1575 0781 01       		.byte	0x1
 1576 0782 59       		.byte	0x59
 1577 0783 4D070000 		.4byte	0x74d
 1578 0787 00000000 		.4byte	.LLST0
 1579 078b 20       		.uleb128 0x20
ARM GAS  /tmp/ccsN6z31.s 			page 29


 1580 078c B4040000 		.4byte	.LASF107
 1581 0790 88080000 		.4byte	0x888
 1582 0794 24       		.uleb128 0x24
 1583 0795 3D060000 		.4byte	0x63d
 1584 0799 02000000 		.4byte	.LBB85
 1585 079d 06000000 		.4byte	.LBE85-.LBB85
 1586 07a1 01       		.byte	0x1
 1587 07a2 5D       		.byte	0x5d
 1588 07a3 D0070000 		.4byte	0x7d0
 1589 07a7 25       		.uleb128 0x25
 1590 07a8 FF050000 		.4byte	0x5ff
 1591 07ac 02000000 		.4byte	.LBB86
 1592 07b0 06000000 		.4byte	.LBE86-.LBB86
 1593 07b4 0D       		.byte	0xd
 1594 07b5 5C01     		.2byte	0x15c
 1595 07b7 25       		.uleb128 0x25
 1596 07b8 E5050000 		.4byte	0x5e5
 1597 07bc 02000000 		.4byte	.LBB87
 1598 07c0 06000000 		.4byte	.LBE87-.LBB87
 1599 07c4 0A       		.byte	0xa
 1600 07c5 D001     		.2byte	0x1d0
 1601 07c7 26       		.uleb128 0x26
 1602 07c8 F2050000 		.4byte	0x5f2
 1603 07cc 20       		.byte	0x20
 1604 07cd 00       		.byte	0
 1605 07ce 00       		.byte	0
 1606 07cf 00       		.byte	0
 1607 07d0 24       		.uleb128 0x24
 1608 07d1 46060000 		.4byte	0x646
 1609 07d5 08000000 		.4byte	.LBB89
 1610 07d9 02000000 		.4byte	.LBE89-.LBB89
 1611 07dd 01       		.byte	0x1
 1612 07de 5E       		.byte	0x5e
 1613 07df ED070000 		.4byte	0x7ed
 1614 07e3 27       		.uleb128 0x27
 1615 07e4 57060000 		.4byte	0x657
 1616 07e8 2C000000 		.4byte	.LLST1
 1617 07ec 00       		.byte	0
 1618 07ed 24       		.uleb128 0x24
 1619 07ee 76060000 		.4byte	0x676
 1620 07f2 0E000000 		.4byte	.LBB91
 1621 07f6 08000000 		.4byte	.LBE91-.LBB91
 1622 07fa 01       		.byte	0x1
 1623 07fb 5F       		.byte	0x5f
 1624 07fc 1D080000 		.4byte	0x81d
 1625 0800 27       		.uleb128 0x27
 1626 0801 87060000 		.4byte	0x687
 1627 0805 58000000 		.4byte	.LLST2
 1628 0809 28       		.uleb128 0x28
 1629 080a 0E000000 		.4byte	.LBB92
 1630 080e 08000000 		.4byte	.LBE92-.LBB92
 1631 0812 29       		.uleb128 0x29
 1632 0813 93060000 		.4byte	0x693
 1633 0817 84000000 		.4byte	.LLST3
 1634 081b 00       		.byte	0
 1635 081c 00       		.byte	0
 1636 081d 24       		.uleb128 0x24
ARM GAS  /tmp/ccsN6z31.s 			page 30


 1637 081e 9F060000 		.4byte	0x69f
 1638 0822 1E000000 		.4byte	.LBB93
 1639 0826 08000000 		.4byte	.LBE93-.LBB93
 1640 082a 01       		.byte	0x1
 1641 082b 61       		.byte	0x61
 1642 082c 68080000 		.4byte	0x868
 1643 0830 28       		.uleb128 0x28
 1644 0831 1E000000 		.4byte	.LBB94
 1645 0835 08000000 		.4byte	.LBE94-.LBB94
 1646 0839 2A       		.uleb128 0x2a
 1647 083a AC060000 		.4byte	0x6ac
 1648 083e 25       		.uleb128 0x25
 1649 083f 08060000 		.4byte	0x608
 1650 0843 1E000000 		.4byte	.LBB95
 1651 0847 08000000 		.4byte	.LBE95-.LBB95
 1652 084b 0D       		.byte	0xd
 1653 084c 7301     		.2byte	0x173
 1654 084e 25       		.uleb128 0x25
 1655 084f E5050000 		.4byte	0x5e5
 1656 0853 1E000000 		.4byte	.LBB96
 1657 0857 08000000 		.4byte	.LBE96-.LBB96
 1658 085b 0A       		.byte	0xa
 1659 085c E301     		.2byte	0x1e3
 1660 085e 26       		.uleb128 0x26
 1661 085f F2050000 		.4byte	0x5f2
 1662 0863 00       		.byte	0
 1663 0864 00       		.byte	0
 1664 0865 00       		.byte	0
 1665 0866 00       		.byte	0
 1666 0867 00       		.byte	0
 1667 0868 2B       		.uleb128 0x2b
 1668 0869 1E000000 		.4byte	.LVL5
 1669 086d 3B0E0000 		.4byte	0xe3b
 1670 0871 2C       		.uleb128 0x2c
 1671 0872 01       		.uleb128 0x1
 1672 0873 51       		.byte	0x51
 1673 0874 01       		.uleb128 0x1
 1674 0875 30       		.byte	0x30
 1675 0876 00       		.byte	0
 1676 0877 00       		.byte	0
 1677 0878 14       		.uleb128 0x14
 1678 0879 89050000 		.4byte	0x589
 1679 087d 88080000 		.4byte	0x888
 1680 0881 15       		.uleb128 0x15
 1681 0882 02040000 		.4byte	0x402
 1682 0886 0C       		.byte	0xc
 1683 0887 00       		.byte	0
 1684 0888 12       		.uleb128 0x12
 1685 0889 78080000 		.4byte	0x878
 1686 088d 1E       		.uleb128 0x1e
 1687 088e 47040000 		.4byte	.LASF113
 1688 0892 01       		.byte	0x1
 1689 0893 6F       		.byte	0x6f
 1690 0894 00000000 		.4byte	.LFB232
 1691 0898 18000000 		.4byte	.LFE232-.LFB232
 1692 089c 01       		.uleb128 0x1
 1693 089d 9C       		.byte	0x9c
ARM GAS  /tmp/ccsN6z31.s 			page 31


 1694 089e 20090000 		.4byte	0x920
 1695 08a2 23       		.uleb128 0x23
 1696 08a3 637000   		.ascii	"cp\000"
 1697 08a6 01       		.byte	0x1
 1698 08a7 6F       		.byte	0x6f
 1699 08a8 4D070000 		.4byte	0x74d
 1700 08ac 97000000 		.4byte	.LLST4
 1701 08b0 20       		.uleb128 0x20
 1702 08b1 B4040000 		.4byte	.LASF107
 1703 08b5 30090000 		.4byte	0x930
 1704 08b9 24       		.uleb128 0x24
 1705 08ba 46060000 		.4byte	0x646
 1706 08be 00000000 		.4byte	.LBB98
 1707 08c2 02000000 		.4byte	.LBE98-.LBB98
 1708 08c6 01       		.byte	0x1
 1709 08c7 74       		.byte	0x74
 1710 08c8 D6080000 		.4byte	0x8d6
 1711 08cc 27       		.uleb128 0x27
 1712 08cd 57060000 		.4byte	0x657
 1713 08d1 97000000 		.4byte	.LLST4
 1714 08d5 00       		.byte	0
 1715 08d6 28       		.uleb128 0x28
 1716 08d7 06000000 		.4byte	.LBB100
 1717 08db 12000000 		.4byte	.LBE100-.LBB100
 1718 08df 2D       		.uleb128 0x2d
 1719 08e0 747000   		.ascii	"tp\000"
 1720 08e3 01       		.byte	0x1
 1721 08e4 75       		.byte	0x75
 1722 08e5 FB010000 		.4byte	0x1fb
 1723 08e9 2E       		.uleb128 0x2e
 1724 08ea 76060000 		.4byte	0x676
 1725 08ee 06000000 		.4byte	.LBB101
 1726 08f2 00000000 		.4byte	.Ldebug_ranges0+0
 1727 08f6 01       		.byte	0x1
 1728 08f7 75       		.byte	0x75
 1729 08f8 15090000 		.4byte	0x915
 1730 08fc 27       		.uleb128 0x27
 1731 08fd 87060000 		.4byte	0x687
 1732 0901 CF000000 		.4byte	.LLST6
 1733 0905 2F       		.uleb128 0x2f
 1734 0906 00000000 		.4byte	.Ldebug_ranges0+0
 1735 090a 29       		.uleb128 0x29
 1736 090b 93060000 		.4byte	0x693
 1737 090f FC000000 		.4byte	.LLST7
 1738 0913 00       		.byte	0
 1739 0914 00       		.byte	0
 1740 0915 30       		.uleb128 0x30
 1741 0916 16000000 		.4byte	.LVL9
 1742 091a 520E0000 		.4byte	0xe52
 1743 091e 00       		.byte	0
 1744 091f 00       		.byte	0
 1745 0920 14       		.uleb128 0x14
 1746 0921 89050000 		.4byte	0x589
 1747 0925 30090000 		.4byte	0x930
 1748 0929 15       		.uleb128 0x15
 1749 092a 02040000 		.4byte	0x402
 1750 092e 0D       		.byte	0xd
ARM GAS  /tmp/ccsN6z31.s 			page 32


 1751 092f 00       		.byte	0
 1752 0930 12       		.uleb128 0x12
 1753 0931 20090000 		.4byte	0x920
 1754 0935 1E       		.uleb128 0x1e
 1755 0936 36010000 		.4byte	.LASF114
 1756 093a 01       		.byte	0x1
 1757 093b 95       		.byte	0x95
 1758 093c 00000000 		.4byte	.LFB234
 1759 0940 22000000 		.4byte	.LFE234-.LFB234
 1760 0944 01       		.uleb128 0x1
 1761 0945 9C       		.byte	0x9c
 1762 0946 B8090000 		.4byte	0x9b8
 1763 094a 23       		.uleb128 0x23
 1764 094b 637000   		.ascii	"cp\000"
 1765 094e 01       		.byte	0x1
 1766 094f 95       		.byte	0x95
 1767 0950 4D070000 		.4byte	0x74d
 1768 0954 0F010000 		.4byte	.LLST8
 1769 0958 20       		.uleb128 0x20
 1770 0959 B4040000 		.4byte	.LASF107
 1771 095d B8090000 		.4byte	0x9b8
 1772 0961 2E       		.uleb128 0x2e
 1773 0962 46060000 		.4byte	0x646
 1774 0966 04000000 		.4byte	.LBB105
 1775 096a 18000000 		.4byte	.Ldebug_ranges0+0x18
 1776 096e 01       		.byte	0x1
 1777 096f 9D       		.byte	0x9d
 1778 0970 7E090000 		.4byte	0x97e
 1779 0974 27       		.uleb128 0x27
 1780 0975 57060000 		.4byte	0x657
 1781 0979 2D010000 		.4byte	.LLST9
 1782 097d 00       		.byte	0
 1783 097e 24       		.uleb128 0x24
 1784 097f 76060000 		.4byte	0x676
 1785 0983 0E000000 		.4byte	.LBB108
 1786 0987 06000000 		.4byte	.LBE108-.LBB108
 1787 098b 01       		.byte	0x1
 1788 098c 9E       		.byte	0x9e
 1789 098d AE090000 		.4byte	0x9ae
 1790 0991 27       		.uleb128 0x27
 1791 0992 87060000 		.4byte	0x687
 1792 0996 4B010000 		.4byte	.LLST10
 1793 099a 28       		.uleb128 0x28
 1794 099b 0E000000 		.4byte	.LBB109
 1795 099f 06000000 		.4byte	.LBE109-.LBB109
 1796 09a3 29       		.uleb128 0x29
 1797 09a4 93060000 		.4byte	0x693
 1798 09a8 5E010000 		.4byte	.LLST11
 1799 09ac 00       		.byte	0
 1800 09ad 00       		.byte	0
 1801 09ae 31       		.uleb128 0x31
 1802 09af 18000000 		.4byte	.LVL14
 1803 09b3 520E0000 		.4byte	0xe52
 1804 09b7 00       		.byte	0
 1805 09b8 12       		.uleb128 0x12
 1806 09b9 53070000 		.4byte	0x753
 1807 09bd 1E       		.uleb128 0x1e
ARM GAS  /tmp/ccsN6z31.s 			page 33


 1808 09be 10040000 		.4byte	.LASF115
 1809 09c2 01       		.byte	0x1
 1810 09c3 82       		.byte	0x82
 1811 09c4 00000000 		.4byte	.LFB233
 1812 09c8 18000000 		.4byte	.LFE233-.LFB233
 1813 09cc 01       		.uleb128 0x1
 1814 09cd 9C       		.byte	0x9c
 1815 09ce 860A0000 		.4byte	0xa86
 1816 09d2 23       		.uleb128 0x23
 1817 09d3 637000   		.ascii	"cp\000"
 1818 09d6 01       		.byte	0x1
 1819 09d7 82       		.byte	0x82
 1820 09d8 4D070000 		.4byte	0x74d
 1821 09dc 71010000 		.4byte	.LLST12
 1822 09e0 24       		.uleb128 0x24
 1823 09e1 3D060000 		.4byte	0x63d
 1824 09e5 02000000 		.4byte	.LBB111
 1825 09e9 06000000 		.4byte	.LBE111-.LBB111
 1826 09ed 01       		.byte	0x1
 1827 09ee 84       		.byte	0x84
 1828 09ef 1C0A0000 		.4byte	0xa1c
 1829 09f3 25       		.uleb128 0x25
 1830 09f4 FF050000 		.4byte	0x5ff
 1831 09f8 02000000 		.4byte	.LBB112
 1832 09fc 06000000 		.4byte	.LBE112-.LBB112
 1833 0a00 0D       		.byte	0xd
 1834 0a01 5C01     		.2byte	0x15c
 1835 0a03 25       		.uleb128 0x25
 1836 0a04 E5050000 		.4byte	0x5e5
 1837 0a08 02000000 		.4byte	.LBB113
 1838 0a0c 06000000 		.4byte	.LBE113-.LBB113
 1839 0a10 0A       		.byte	0xa
 1840 0a11 D001     		.2byte	0x1d0
 1841 0a13 26       		.uleb128 0x26
 1842 0a14 F2050000 		.4byte	0x5f2
 1843 0a18 20       		.byte	0x20
 1844 0a19 00       		.byte	0
 1845 0a1a 00       		.byte	0
 1846 0a1b 00       		.byte	0
 1847 0a1c 24       		.uleb128 0x24
 1848 0a1d 9F060000 		.4byte	0x69f
 1849 0a21 10000000 		.4byte	.LBB115
 1850 0a25 08000000 		.4byte	.LBE115-.LBB115
 1851 0a29 01       		.byte	0x1
 1852 0a2a 87       		.byte	0x87
 1853 0a2b 670A0000 		.4byte	0xa67
 1854 0a2f 28       		.uleb128 0x28
 1855 0a30 10000000 		.4byte	.LBB116
 1856 0a34 08000000 		.4byte	.LBE116-.LBB116
 1857 0a38 2A       		.uleb128 0x2a
 1858 0a39 AC060000 		.4byte	0x6ac
 1859 0a3d 25       		.uleb128 0x25
 1860 0a3e 08060000 		.4byte	0x608
 1861 0a42 10000000 		.4byte	.LBB117
 1862 0a46 08000000 		.4byte	.LBE117-.LBB117
 1863 0a4a 0D       		.byte	0xd
 1864 0a4b 7301     		.2byte	0x173
ARM GAS  /tmp/ccsN6z31.s 			page 34


 1865 0a4d 25       		.uleb128 0x25
 1866 0a4e E5050000 		.4byte	0x5e5
 1867 0a52 10000000 		.4byte	.LBB118
 1868 0a56 08000000 		.4byte	.LBE118-.LBB118
 1869 0a5a 0A       		.byte	0xa
 1870 0a5b E301     		.2byte	0x1e3
 1871 0a5d 26       		.uleb128 0x26
 1872 0a5e F2050000 		.4byte	0x5f2
 1873 0a62 00       		.byte	0
 1874 0a63 00       		.byte	0
 1875 0a64 00       		.byte	0
 1876 0a65 00       		.byte	0
 1877 0a66 00       		.byte	0
 1878 0a67 32       		.uleb128 0x32
 1879 0a68 0C000000 		.4byte	.LVL17
 1880 0a6c 35090000 		.4byte	0x935
 1881 0a70 7C0A0000 		.4byte	0xa7c
 1882 0a74 2C       		.uleb128 0x2c
 1883 0a75 01       		.uleb128 0x1
 1884 0a76 50       		.byte	0x50
 1885 0a77 03       		.uleb128 0x3
 1886 0a78 F3       		.byte	0xf3
 1887 0a79 01       		.uleb128 0x1
 1888 0a7a 50       		.byte	0x50
 1889 0a7b 00       		.byte	0
 1890 0a7c 31       		.uleb128 0x31
 1891 0a7d 10000000 		.4byte	.LVL18
 1892 0a81 680E0000 		.4byte	0xe68
 1893 0a85 00       		.byte	0
 1894 0a86 33       		.uleb128 0x33
 1895 0a87 7A050000 		.4byte	.LASF116
 1896 0a8b 01       		.byte	0x1
 1897 0a8c CD       		.byte	0xcd
 1898 0a8d C0000000 		.4byte	0xc0
 1899 0a91 00000000 		.4byte	.LFB236
 1900 0a95 44000000 		.4byte	.LFE236-.LFB236
 1901 0a99 01       		.uleb128 0x1
 1902 0a9a 9C       		.byte	0x9c
 1903 0a9b 5A0B0000 		.4byte	0xb5a
 1904 0a9f 23       		.uleb128 0x23
 1905 0aa0 637000   		.ascii	"cp\000"
 1906 0aa3 01       		.byte	0x1
 1907 0aa4 CD       		.byte	0xcd
 1908 0aa5 4D070000 		.4byte	0x74d
 1909 0aa9 92010000 		.4byte	.LLST13
 1910 0aad 34       		.uleb128 0x34
 1911 0aae 63747000 		.ascii	"ctp\000"
 1912 0ab2 01       		.byte	0x1
 1913 0ab3 CE       		.byte	0xce
 1914 0ab4 FB010000 		.4byte	0x1fb
 1915 0ab8 BE010000 		.4byte	.LLST14
 1916 0abc 2D       		.uleb128 0x2d
 1917 0abd 6D7000   		.ascii	"mp\000"
 1918 0ac0 01       		.byte	0x1
 1919 0ac1 CF       		.byte	0xcf
 1920 0ac2 BB050000 		.4byte	0x5bb
 1921 0ac6 34       		.uleb128 0x34
ARM GAS  /tmp/ccsN6z31.s 			page 35


 1922 0ac7 6D736700 		.ascii	"msg\000"
 1923 0acb 01       		.byte	0x1
 1924 0acc D0       		.byte	0xd0
 1925 0acd C0000000 		.4byte	0xc0
 1926 0ad1 D1010000 		.4byte	.LLST15
 1927 0ad5 20       		.uleb128 0x20
 1928 0ad6 B4040000 		.4byte	.LASF107
 1929 0ada 5A0B0000 		.4byte	0xb5a
 1930 0ade 35       		.uleb128 0x35
 1931 0adf CF060000 		.4byte	0x6cf
 1932 0ae3 06000000 		.4byte	.LBB120
 1933 0ae7 02000000 		.4byte	.LBE120-.LBB120
 1934 0aeb 01       		.byte	0x1
 1935 0aec D7       		.byte	0xd7
 1936 0aed 2E       		.uleb128 0x2e
 1937 0aee DB060000 		.4byte	0x6db
 1938 0af2 12000000 		.4byte	.LBB122
 1939 0af6 30000000 		.4byte	.Ldebug_ranges0+0x30
 1940 0afa 01       		.byte	0x1
 1941 0afb DD       		.byte	0xdd
 1942 0afc 220B0000 		.4byte	0xb22
 1943 0b00 27       		.uleb128 0x27
 1944 0b01 F3060000 		.4byte	0x6f3
 1945 0b05 EF010000 		.4byte	.LLST16
 1946 0b09 27       		.uleb128 0x27
 1947 0b0a E8060000 		.4byte	0x6e8
 1948 0b0e 10020000 		.4byte	.LLST17
 1949 0b12 2F       		.uleb128 0x2f
 1950 0b13 30000000 		.4byte	.Ldebug_ranges0+0x30
 1951 0b17 29       		.uleb128 0x29
 1952 0b18 FF060000 		.4byte	0x6ff
 1953 0b1c 23020000 		.4byte	.LLST18
 1954 0b20 00       		.byte	0
 1955 0b21 00       		.byte	0
 1956 0b22 32       		.uleb128 0x32
 1957 0b23 10000000 		.4byte	.LVL22
 1958 0b27 700E0000 		.4byte	0xe70
 1959 0b2b 360B0000 		.4byte	0xb36
 1960 0b2f 2C       		.uleb128 0x2c
 1961 0b30 01       		.uleb128 0x1
 1962 0b31 50       		.byte	0x50
 1963 0b32 02       		.uleb128 0x2
 1964 0b33 76       		.byte	0x76
 1965 0b34 00       		.sleb128 0
 1966 0b35 00       		.byte	0
 1967 0b36 32       		.uleb128 0x32
 1968 0b37 34000000 		.4byte	.LVL26
 1969 0b3b 810E0000 		.4byte	0xe81
 1970 0b3f 490B0000 		.4byte	0xb49
 1971 0b43 2C       		.uleb128 0x2c
 1972 0b44 01       		.uleb128 0x1
 1973 0b45 50       		.byte	0x50
 1974 0b46 01       		.uleb128 0x1
 1975 0b47 37       		.byte	0x37
 1976 0b48 00       		.byte	0
 1977 0b49 2B       		.uleb128 0x2b
 1978 0b4a 3C000000 		.4byte	.LVL28
ARM GAS  /tmp/ccsN6z31.s 			page 36


 1979 0b4e 930E0000 		.4byte	0xe93
 1980 0b52 2C       		.uleb128 0x2c
 1981 0b53 01       		.uleb128 0x1
 1982 0b54 50       		.byte	0x50
 1983 0b55 02       		.uleb128 0x2
 1984 0b56 76       		.byte	0x76
 1985 0b57 00       		.sleb128 0
 1986 0b58 00       		.byte	0
 1987 0b59 00       		.byte	0
 1988 0b5a 12       		.uleb128 0x12
 1989 0b5b BA060000 		.4byte	0x6ba
 1990 0b5f 33       		.uleb128 0x33
 1991 0b60 E7050000 		.4byte	.LASF117
 1992 0b64 01       		.byte	0x1
 1993 0b65 B3       		.byte	0xb3
 1994 0b66 C0000000 		.4byte	0xc0
 1995 0b6a 00000000 		.4byte	.LFB235
 1996 0b6e 14000000 		.4byte	.LFE235-.LFB235
 1997 0b72 01       		.uleb128 0x1
 1998 0b73 9C       		.byte	0x9c
 1999 0b74 2C0C0000 		.4byte	0xc2c
 2000 0b78 23       		.uleb128 0x23
 2001 0b79 637000   		.ascii	"cp\000"
 2002 0b7c 01       		.byte	0x1
 2003 0b7d B3       		.byte	0xb3
 2004 0b7e 4D070000 		.4byte	0x74d
 2005 0b82 41020000 		.4byte	.LLST19
 2006 0b86 36       		.uleb128 0x36
 2007 0b87 6D736700 		.ascii	"msg\000"
 2008 0b8b 01       		.byte	0x1
 2009 0b8c B4       		.byte	0xb4
 2010 0b8d C0000000 		.4byte	0xc0
 2011 0b91 01       		.uleb128 0x1
 2012 0b92 50       		.byte	0x50
 2013 0b93 24       		.uleb128 0x24
 2014 0b94 3D060000 		.4byte	0x63d
 2015 0b98 02000000 		.4byte	.LBB126
 2016 0b9c 06000000 		.4byte	.LBE126-.LBB126
 2017 0ba0 01       		.byte	0x1
 2018 0ba1 B6       		.byte	0xb6
 2019 0ba2 CF0B0000 		.4byte	0xbcf
 2020 0ba6 25       		.uleb128 0x25
 2021 0ba7 FF050000 		.4byte	0x5ff
 2022 0bab 02000000 		.4byte	.LBB127
 2023 0baf 06000000 		.4byte	.LBE127-.LBB127
 2024 0bb3 0D       		.byte	0xd
 2025 0bb4 5C01     		.2byte	0x15c
 2026 0bb6 25       		.uleb128 0x25
 2027 0bb7 E5050000 		.4byte	0x5e5
 2028 0bbb 02000000 		.4byte	.LBB128
 2029 0bbf 06000000 		.4byte	.LBE128-.LBB128
 2030 0bc3 0A       		.byte	0xa
 2031 0bc4 D001     		.2byte	0x1d0
 2032 0bc6 26       		.uleb128 0x26
 2033 0bc7 F2050000 		.4byte	0x5f2
 2034 0bcb 20       		.byte	0x20
 2035 0bcc 00       		.byte	0
ARM GAS  /tmp/ccsN6z31.s 			page 37


 2036 0bcd 00       		.byte	0
 2037 0bce 00       		.byte	0
 2038 0bcf 24       		.uleb128 0x24
 2039 0bd0 9F060000 		.4byte	0x69f
 2040 0bd4 0C000000 		.4byte	.LBB130
 2041 0bd8 06000000 		.4byte	.LBE130-.LBB130
 2042 0bdc 01       		.byte	0x1
 2043 0bdd B8       		.byte	0xb8
 2044 0bde 1A0C0000 		.4byte	0xc1a
 2045 0be2 28       		.uleb128 0x28
 2046 0be3 0C000000 		.4byte	.LBB131
 2047 0be7 06000000 		.4byte	.LBE131-.LBB131
 2048 0beb 2A       		.uleb128 0x2a
 2049 0bec AC060000 		.4byte	0x6ac
 2050 0bf0 25       		.uleb128 0x25
 2051 0bf1 08060000 		.4byte	0x608
 2052 0bf5 0C000000 		.4byte	.LBB132
 2053 0bf9 06000000 		.4byte	.LBE132-.LBB132
 2054 0bfd 0D       		.byte	0xd
 2055 0bfe 7301     		.2byte	0x173
 2056 0c00 25       		.uleb128 0x25
 2057 0c01 E5050000 		.4byte	0x5e5
 2058 0c05 0C000000 		.4byte	.LBB133
 2059 0c09 06000000 		.4byte	.LBE133-.LBB133
 2060 0c0d 0A       		.byte	0xa
 2061 0c0e E301     		.2byte	0x1e3
 2062 0c10 26       		.uleb128 0x26
 2063 0c11 F2050000 		.4byte	0x5f2
 2064 0c15 00       		.byte	0
 2065 0c16 00       		.byte	0
 2066 0c17 00       		.byte	0
 2067 0c18 00       		.byte	0
 2068 0c19 00       		.byte	0
 2069 0c1a 2B       		.uleb128 0x2b
 2070 0c1b 0C000000 		.4byte	.LVL31
 2071 0c1f 860A0000 		.4byte	0xa86
 2072 0c23 2C       		.uleb128 0x2c
 2073 0c24 01       		.uleb128 0x1
 2074 0c25 50       		.byte	0x50
 2075 0c26 03       		.uleb128 0x3
 2076 0c27 F3       		.byte	0xf3
 2077 0c28 01       		.uleb128 0x1
 2078 0c29 50       		.byte	0x50
 2079 0c2a 00       		.byte	0
 2080 0c2b 00       		.byte	0
 2081 0c2c 37       		.uleb128 0x37
 2082 0c2d BB030000 		.4byte	.LASF118
 2083 0c31 01       		.byte	0x1
 2084 0c32 2801     		.2byte	0x128
 2085 0c34 C0000000 		.4byte	0xc0
 2086 0c38 00000000 		.4byte	.LFB238
 2087 0c3c 54000000 		.4byte	.LFE238-.LFB238
 2088 0c40 01       		.uleb128 0x1
 2089 0c41 9C       		.byte	0x9c
 2090 0c42 210D0000 		.4byte	0xd21
 2091 0c46 38       		.uleb128 0x38
 2092 0c47 637000   		.ascii	"cp\000"
ARM GAS  /tmp/ccsN6z31.s 			page 38


 2093 0c4a 01       		.byte	0x1
 2094 0c4b 2801     		.2byte	0x128
 2095 0c4d 4D070000 		.4byte	0x74d
 2096 0c51 62020000 		.4byte	.LLST20
 2097 0c55 39       		.uleb128 0x39
 2098 0c56 F9030000 		.4byte	.LASF119
 2099 0c5a 01       		.byte	0x1
 2100 0c5b 2801     		.2byte	0x128
 2101 0c5d E1000000 		.4byte	0xe1
 2102 0c61 8E020000 		.4byte	.LLST21
 2103 0c65 1C       		.uleb128 0x1c
 2104 0c66 6D7000   		.ascii	"mp\000"
 2105 0c69 01       		.byte	0x1
 2106 0c6a 2901     		.2byte	0x129
 2107 0c6c BB050000 		.4byte	0x5bb
 2108 0c70 3A       		.uleb128 0x3a
 2109 0c71 6D736700 		.ascii	"msg\000"
 2110 0c75 01       		.byte	0x1
 2111 0c76 2A01     		.2byte	0x12a
 2112 0c78 C0000000 		.4byte	0xc0
 2113 0c7c BA020000 		.4byte	.LLST22
 2114 0c80 20       		.uleb128 0x20
 2115 0c81 B4040000 		.4byte	.LASF107
 2116 0c85 310D0000 		.4byte	0xd31
 2117 0c89 3B       		.uleb128 0x3b
 2118 0c8a CF060000 		.4byte	0x6cf
 2119 0c8e 04000000 		.4byte	.LBB135
 2120 0c92 06000000 		.4byte	.LBE135-.LBB135
 2121 0c96 01       		.byte	0x1
 2122 0c97 3101     		.2byte	0x131
 2123 0c99 AD0C0000 		.4byte	0xcad
 2124 0c9d 35       		.uleb128 0x35
 2125 0c9e 11060000 		.4byte	0x611
 2126 0ca2 04000000 		.4byte	.LBB137
 2127 0ca6 02000000 		.4byte	.LBE137-.LBB137
 2128 0caa 04       		.byte	0x4
 2129 0cab 92       		.byte	0x92
 2130 0cac 00       		.byte	0
 2131 0cad 3C       		.uleb128 0x3c
 2132 0cae DB060000 		.4byte	0x6db
 2133 0cb2 16000000 		.4byte	.LBB139
 2134 0cb6 48000000 		.4byte	.Ldebug_ranges0+0x48
 2135 0cba 01       		.byte	0x1
 2136 0cbb 3701     		.2byte	0x137
 2137 0cbd E30C0000 		.4byte	0xce3
 2138 0cc1 27       		.uleb128 0x27
 2139 0cc2 F3060000 		.4byte	0x6f3
 2140 0cc6 E3020000 		.4byte	.LLST23
 2141 0cca 27       		.uleb128 0x27
 2142 0ccb E8060000 		.4byte	0x6e8
 2143 0ccf 04030000 		.4byte	.LLST24
 2144 0cd3 2F       		.uleb128 0x2f
 2145 0cd4 48000000 		.4byte	.Ldebug_ranges0+0x48
 2146 0cd8 29       		.uleb128 0x29
 2147 0cd9 FF060000 		.4byte	0x6ff
 2148 0cdd 17030000 		.4byte	.LLST25
 2149 0ce1 00       		.byte	0
ARM GAS  /tmp/ccsN6z31.s 			page 39


 2150 0ce2 00       		.byte	0
 2151 0ce3 32       		.uleb128 0x32
 2152 0ce4 14000000 		.4byte	.LVL34
 2153 0ce8 700E0000 		.4byte	0xe70
 2154 0cec F70C0000 		.4byte	0xcf7
 2155 0cf0 2C       		.uleb128 0x2c
 2156 0cf1 01       		.uleb128 0x1
 2157 0cf2 50       		.byte	0x50
 2158 0cf3 02       		.uleb128 0x2
 2159 0cf4 77       		.byte	0x77
 2160 0cf5 00       		.sleb128 0
 2161 0cf6 00       		.byte	0
 2162 0cf7 32       		.uleb128 0x32
 2163 0cf8 3C000000 		.4byte	.LVL38
 2164 0cfc A40E0000 		.4byte	0xea4
 2165 0d00 100D0000 		.4byte	0xd10
 2166 0d04 2C       		.uleb128 0x2c
 2167 0d05 01       		.uleb128 0x1
 2168 0d06 51       		.byte	0x51
 2169 0d07 02       		.uleb128 0x2
 2170 0d08 78       		.byte	0x78
 2171 0d09 00       		.sleb128 0
 2172 0d0a 2C       		.uleb128 0x2c
 2173 0d0b 01       		.uleb128 0x1
 2174 0d0c 50       		.byte	0x50
 2175 0d0d 01       		.uleb128 0x1
 2176 0d0e 37       		.byte	0x37
 2177 0d0f 00       		.byte	0
 2178 0d10 2B       		.uleb128 0x2b
 2179 0d11 48000000 		.4byte	.LVL41
 2180 0d15 930E0000 		.4byte	0xe93
 2181 0d19 2C       		.uleb128 0x2c
 2182 0d1a 01       		.uleb128 0x1
 2183 0d1b 50       		.byte	0x50
 2184 0d1c 02       		.uleb128 0x2
 2185 0d1d 77       		.byte	0x77
 2186 0d1e 00       		.sleb128 0
 2187 0d1f 00       		.byte	0
 2188 0d20 00       		.byte	0
 2189 0d21 14       		.uleb128 0x14
 2190 0d22 89050000 		.4byte	0x589
 2191 0d26 310D0000 		.4byte	0xd31
 2192 0d2a 15       		.uleb128 0x15
 2193 0d2b 02040000 		.4byte	0x402
 2194 0d2f 12       		.byte	0x12
 2195 0d30 00       		.byte	0
 2196 0d31 12       		.uleb128 0x12
 2197 0d32 210D0000 		.4byte	0xd21
 2198 0d36 37       		.uleb128 0x37
 2199 0d37 4C060000 		.4byte	.LASF120
 2200 0d3b 01       		.byte	0x1
 2201 0d3c 0201     		.2byte	0x102
 2202 0d3e C0000000 		.4byte	0xc0
 2203 0d42 00000000 		.4byte	.LFB237
 2204 0d46 14000000 		.4byte	.LFE237-.LFB237
 2205 0d4a 01       		.uleb128 0x1
 2206 0d4b 9C       		.byte	0x9c
ARM GAS  /tmp/ccsN6z31.s 			page 40


 2207 0d4c 1F0E0000 		.4byte	0xe1f
 2208 0d50 38       		.uleb128 0x38
 2209 0d51 637000   		.ascii	"cp\000"
 2210 0d54 01       		.byte	0x1
 2211 0d55 0201     		.2byte	0x102
 2212 0d57 4D070000 		.4byte	0x74d
 2213 0d5b 35030000 		.4byte	.LLST26
 2214 0d5f 39       		.uleb128 0x39
 2215 0d60 F9030000 		.4byte	.LASF119
 2216 0d64 01       		.byte	0x1
 2217 0d65 0201     		.2byte	0x102
 2218 0d67 E1000000 		.4byte	0xe1
 2219 0d6b 56030000 		.4byte	.LLST27
 2220 0d6f 3D       		.uleb128 0x3d
 2221 0d70 6D736700 		.ascii	"msg\000"
 2222 0d74 01       		.byte	0x1
 2223 0d75 0301     		.2byte	0x103
 2224 0d77 C0000000 		.4byte	0xc0
 2225 0d7b 01       		.uleb128 0x1
 2226 0d7c 50       		.byte	0x50
 2227 0d7d 3B       		.uleb128 0x3b
 2228 0d7e 3D060000 		.4byte	0x63d
 2229 0d82 02000000 		.4byte	.LBB147
 2230 0d86 06000000 		.4byte	.LBE147-.LBB147
 2231 0d8a 01       		.byte	0x1
 2232 0d8b 0501     		.2byte	0x105
 2233 0d8d BA0D0000 		.4byte	0xdba
 2234 0d91 25       		.uleb128 0x25
 2235 0d92 FF050000 		.4byte	0x5ff
 2236 0d96 02000000 		.4byte	.LBB148
 2237 0d9a 06000000 		.4byte	.LBE148-.LBB148
 2238 0d9e 0D       		.byte	0xd
 2239 0d9f 5C01     		.2byte	0x15c
 2240 0da1 25       		.uleb128 0x25
 2241 0da2 E5050000 		.4byte	0x5e5
 2242 0da6 02000000 		.4byte	.LBB149
 2243 0daa 06000000 		.4byte	.LBE149-.LBB149
 2244 0dae 0A       		.byte	0xa
 2245 0daf D001     		.2byte	0x1d0
 2246 0db1 26       		.uleb128 0x26
 2247 0db2 F2050000 		.4byte	0x5f2
 2248 0db6 20       		.byte	0x20
 2249 0db7 00       		.byte	0
 2250 0db8 00       		.byte	0
 2251 0db9 00       		.byte	0
 2252 0dba 3B       		.uleb128 0x3b
 2253 0dbb 9F060000 		.4byte	0x69f
 2254 0dbf 0C000000 		.4byte	.LBB151
 2255 0dc3 06000000 		.4byte	.LBE151-.LBB151
 2256 0dc7 01       		.byte	0x1
 2257 0dc8 0701     		.2byte	0x107
 2258 0dca 060E0000 		.4byte	0xe06
 2259 0dce 28       		.uleb128 0x28
 2260 0dcf 0C000000 		.4byte	.LBB152
 2261 0dd3 06000000 		.4byte	.LBE152-.LBB152
 2262 0dd7 2A       		.uleb128 0x2a
 2263 0dd8 AC060000 		.4byte	0x6ac
ARM GAS  /tmp/ccsN6z31.s 			page 41


 2264 0ddc 25       		.uleb128 0x25
 2265 0ddd 08060000 		.4byte	0x608
 2266 0de1 0C000000 		.4byte	.LBB153
 2267 0de5 06000000 		.4byte	.LBE153-.LBB153
 2268 0de9 0D       		.byte	0xd
 2269 0dea 7301     		.2byte	0x173
 2270 0dec 25       		.uleb128 0x25
 2271 0ded E5050000 		.4byte	0x5e5
 2272 0df1 0C000000 		.4byte	.LBB154
 2273 0df5 06000000 		.4byte	.LBE154-.LBB154
 2274 0df9 0A       		.byte	0xa
 2275 0dfa E301     		.2byte	0x1e3
 2276 0dfc 26       		.uleb128 0x26
 2277 0dfd F2050000 		.4byte	0x5f2
 2278 0e01 00       		.byte	0
 2279 0e02 00       		.byte	0
 2280 0e03 00       		.byte	0
 2281 0e04 00       		.byte	0
 2282 0e05 00       		.byte	0
 2283 0e06 2B       		.uleb128 0x2b
 2284 0e07 0C000000 		.4byte	.LVL44
 2285 0e0b 2C0C0000 		.4byte	0xc2c
 2286 0e0f 2C       		.uleb128 0x2c
 2287 0e10 01       		.uleb128 0x1
 2288 0e11 51       		.byte	0x51
 2289 0e12 03       		.uleb128 0x3
 2290 0e13 F3       		.byte	0xf3
 2291 0e14 01       		.uleb128 0x1
 2292 0e15 51       		.byte	0x51
 2293 0e16 2C       		.uleb128 0x2c
 2294 0e17 01       		.uleb128 0x1
 2295 0e18 50       		.byte	0x50
 2296 0e19 03       		.uleb128 0x3
 2297 0e1a F3       		.byte	0xf3
 2298 0e1b 01       		.uleb128 0x1
 2299 0e1c 50       		.byte	0x50
 2300 0e1d 00       		.byte	0
 2301 0e1e 00       		.byte	0
 2302 0e1f 3E       		.uleb128 0x3e
 2303 0e20 88010000 		.4byte	.LASF121
 2304 0e24 0E       		.byte	0xe
 2305 0e25 FA06     		.2byte	0x6fa
 2306 0e27 2B0E0000 		.4byte	0xe2b
 2307 0e2b 13       		.uleb128 0x13
 2308 0e2c 41000000 		.4byte	0x41
 2309 0e30 3F       		.uleb128 0x3f
 2310 0e31 636800   		.ascii	"ch\000"
 2311 0e34 02       		.byte	0x2
 2312 0e35 0902     		.2byte	0x209
 2313 0e37 A7030000 		.4byte	0x3a7
 2314 0e3b 40       		.uleb128 0x40
 2315 0e3c 10030000 		.4byte	.LASF122
 2316 0e40 02       		.byte	0x2
 2317 0e41 1602     		.2byte	0x216
 2318 0e43 520E0000 		.4byte	0xe52
 2319 0e47 0C       		.uleb128 0xc
 2320 0e48 FB010000 		.4byte	0x1fb
ARM GAS  /tmp/ccsN6z31.s 			page 42


 2321 0e4c 0C       		.uleb128 0xc
 2322 0e4d C0000000 		.4byte	0xc0
 2323 0e51 00       		.byte	0
 2324 0e52 41       		.uleb128 0x41
 2325 0e53 31050000 		.4byte	.LASF130
 2326 0e57 02       		.byte	0x2
 2327 0e58 1302     		.2byte	0x213
 2328 0e5a FB010000 		.4byte	0x1fb
 2329 0e5e 680E0000 		.4byte	0xe68
 2330 0e62 0C       		.uleb128 0xc
 2331 0e63 FB010000 		.4byte	0x1fb
 2332 0e67 00       		.byte	0
 2333 0e68 42       		.uleb128 0x42
 2334 0e69 46020000 		.4byte	.LASF131
 2335 0e6d 02       		.byte	0x2
 2336 0e6e 1702     		.2byte	0x217
 2337 0e70 43       		.uleb128 0x43
 2338 0e71 B0020000 		.4byte	.LASF123
 2339 0e75 04       		.byte	0x4
 2340 0e76 6D       		.byte	0x6d
 2341 0e77 810E0000 		.4byte	0xe81
 2342 0e7b 0C       		.uleb128 0xc
 2343 0e7c BB050000 		.4byte	0x5bb
 2344 0e80 00       		.byte	0
 2345 0e81 40       		.uleb128 0x40
 2346 0e82 ED040000 		.4byte	.LASF124
 2347 0e86 02       		.byte	0x2
 2348 0e87 1402     		.2byte	0x214
 2349 0e89 930E0000 		.4byte	0xe93
 2350 0e8d 0C       		.uleb128 0xc
 2351 0e8e 94000000 		.4byte	0x94
 2352 0e92 00       		.byte	0
 2353 0e93 43       		.uleb128 0x43
 2354 0e94 2B020000 		.4byte	.LASF125
 2355 0e98 04       		.byte	0x4
 2356 0e99 69       		.byte	0x69
 2357 0e9a A40E0000 		.4byte	0xea4
 2358 0e9e 0C       		.uleb128 0xc
 2359 0e9f BB050000 		.4byte	0x5bb
 2360 0ea3 00       		.byte	0
 2361 0ea4 44       		.uleb128 0x44
 2362 0ea5 69060000 		.4byte	.LASF126
 2363 0ea9 02       		.byte	0x2
 2364 0eaa 1502     		.2byte	0x215
 2365 0eac C0000000 		.4byte	0xc0
 2366 0eb0 0C       		.uleb128 0xc
 2367 0eb1 94000000 		.4byte	0x94
 2368 0eb5 0C       		.uleb128 0xc
 2369 0eb6 E1000000 		.4byte	0xe1
 2370 0eba 00       		.byte	0
 2371 0ebb 00       		.byte	0
 2372              		.section	.debug_abbrev,"",%progbits
 2373              	.Ldebug_abbrev0:
 2374 0000 01       		.uleb128 0x1
 2375 0001 11       		.uleb128 0x11
 2376 0002 01       		.byte	0x1
 2377 0003 25       		.uleb128 0x25
ARM GAS  /tmp/ccsN6z31.s 			page 43


 2378 0004 0E       		.uleb128 0xe
 2379 0005 13       		.uleb128 0x13
 2380 0006 0B       		.uleb128 0xb
 2381 0007 03       		.uleb128 0x3
 2382 0008 0E       		.uleb128 0xe
 2383 0009 1B       		.uleb128 0x1b
 2384 000a 0E       		.uleb128 0xe
 2385 000b 55       		.uleb128 0x55
 2386 000c 17       		.uleb128 0x17
 2387 000d 11       		.uleb128 0x11
 2388 000e 01       		.uleb128 0x1
 2389 000f 10       		.uleb128 0x10
 2390 0010 17       		.uleb128 0x17
 2391 0011 00       		.byte	0
 2392 0012 00       		.byte	0
 2393 0013 02       		.uleb128 0x2
 2394 0014 24       		.uleb128 0x24
 2395 0015 00       		.byte	0
 2396 0016 0B       		.uleb128 0xb
 2397 0017 0B       		.uleb128 0xb
 2398 0018 3E       		.uleb128 0x3e
 2399 0019 0B       		.uleb128 0xb
 2400 001a 03       		.uleb128 0x3
 2401 001b 08       		.uleb128 0x8
 2402 001c 00       		.byte	0
 2403 001d 00       		.byte	0
 2404 001e 03       		.uleb128 0x3
 2405 001f 24       		.uleb128 0x24
 2406 0020 00       		.byte	0
 2407 0021 0B       		.uleb128 0xb
 2408 0022 0B       		.uleb128 0xb
 2409 0023 3E       		.uleb128 0x3e
 2410 0024 0B       		.uleb128 0xb
 2411 0025 03       		.uleb128 0x3
 2412 0026 0E       		.uleb128 0xe
 2413 0027 00       		.byte	0
 2414 0028 00       		.byte	0
 2415 0029 04       		.uleb128 0x4
 2416 002a 16       		.uleb128 0x16
 2417 002b 00       		.byte	0
 2418 002c 03       		.uleb128 0x3
 2419 002d 0E       		.uleb128 0xe
 2420 002e 3A       		.uleb128 0x3a
 2421 002f 0B       		.uleb128 0xb
 2422 0030 3B       		.uleb128 0x3b
 2423 0031 0B       		.uleb128 0xb
 2424 0032 49       		.uleb128 0x49
 2425 0033 13       		.uleb128 0x13
 2426 0034 00       		.byte	0
 2427 0035 00       		.byte	0
 2428 0036 05       		.uleb128 0x5
 2429 0037 13       		.uleb128 0x13
 2430 0038 01       		.byte	0x1
 2431 0039 03       		.uleb128 0x3
 2432 003a 0E       		.uleb128 0xe
 2433 003b 0B       		.uleb128 0xb
 2434 003c 0B       		.uleb128 0xb
ARM GAS  /tmp/ccsN6z31.s 			page 44


 2435 003d 3A       		.uleb128 0x3a
 2436 003e 0B       		.uleb128 0xb
 2437 003f 3B       		.uleb128 0x3b
 2438 0040 0B       		.uleb128 0xb
 2439 0041 01       		.uleb128 0x1
 2440 0042 13       		.uleb128 0x13
 2441 0043 00       		.byte	0
 2442 0044 00       		.byte	0
 2443 0045 06       		.uleb128 0x6
 2444 0046 0D       		.uleb128 0xd
 2445 0047 00       		.byte	0
 2446 0048 03       		.uleb128 0x3
 2447 0049 0E       		.uleb128 0xe
 2448 004a 3A       		.uleb128 0x3a
 2449 004b 0B       		.uleb128 0xb
 2450 004c 3B       		.uleb128 0x3b
 2451 004d 0B       		.uleb128 0xb
 2452 004e 49       		.uleb128 0x49
 2453 004f 13       		.uleb128 0x13
 2454 0050 38       		.uleb128 0x38
 2455 0051 0B       		.uleb128 0xb
 2456 0052 00       		.byte	0
 2457 0053 00       		.byte	0
 2458 0054 07       		.uleb128 0x7
 2459 0055 0D       		.uleb128 0xd
 2460 0056 00       		.byte	0
 2461 0057 03       		.uleb128 0x3
 2462 0058 08       		.uleb128 0x8
 2463 0059 3A       		.uleb128 0x3a
 2464 005a 0B       		.uleb128 0xb
 2465 005b 3B       		.uleb128 0x3b
 2466 005c 05       		.uleb128 0x5
 2467 005d 49       		.uleb128 0x49
 2468 005e 13       		.uleb128 0x13
 2469 005f 38       		.uleb128 0x38
 2470 0060 0B       		.uleb128 0xb
 2471 0061 00       		.byte	0
 2472 0062 00       		.byte	0
 2473 0063 08       		.uleb128 0x8
 2474 0064 0D       		.uleb128 0xd
 2475 0065 00       		.byte	0
 2476 0066 03       		.uleb128 0x3
 2477 0067 0E       		.uleb128 0xe
 2478 0068 3A       		.uleb128 0x3a
 2479 0069 0B       		.uleb128 0xb
 2480 006a 3B       		.uleb128 0x3b
 2481 006b 05       		.uleb128 0x5
 2482 006c 49       		.uleb128 0x49
 2483 006d 13       		.uleb128 0x13
 2484 006e 38       		.uleb128 0x38
 2485 006f 0B       		.uleb128 0xb
 2486 0070 00       		.byte	0
 2487 0071 00       		.byte	0
 2488 0072 09       		.uleb128 0x9
 2489 0073 0F       		.uleb128 0xf
 2490 0074 00       		.byte	0
 2491 0075 0B       		.uleb128 0xb
ARM GAS  /tmp/ccsN6z31.s 			page 45


 2492 0076 0B       		.uleb128 0xb
 2493 0077 49       		.uleb128 0x49
 2494 0078 13       		.uleb128 0x13
 2495 0079 00       		.byte	0
 2496 007a 00       		.byte	0
 2497 007b 0A       		.uleb128 0xa
 2498 007c 13       		.uleb128 0x13
 2499 007d 01       		.byte	0x1
 2500 007e 03       		.uleb128 0x3
 2501 007f 0E       		.uleb128 0xe
 2502 0080 0B       		.uleb128 0xb
 2503 0081 0B       		.uleb128 0xb
 2504 0082 3A       		.uleb128 0x3a
 2505 0083 0B       		.uleb128 0xb
 2506 0084 3B       		.uleb128 0x3b
 2507 0085 05       		.uleb128 0x5
 2508 0086 01       		.uleb128 0x1
 2509 0087 13       		.uleb128 0x13
 2510 0088 00       		.byte	0
 2511 0089 00       		.byte	0
 2512 008a 0B       		.uleb128 0xb
 2513 008b 15       		.uleb128 0x15
 2514 008c 01       		.byte	0x1
 2515 008d 27       		.uleb128 0x27
 2516 008e 19       		.uleb128 0x19
 2517 008f 01       		.uleb128 0x1
 2518 0090 13       		.uleb128 0x13
 2519 0091 00       		.byte	0
 2520 0092 00       		.byte	0
 2521 0093 0C       		.uleb128 0xc
 2522 0094 05       		.uleb128 0x5
 2523 0095 00       		.byte	0
 2524 0096 49       		.uleb128 0x49
 2525 0097 13       		.uleb128 0x13
 2526 0098 00       		.byte	0
 2527 0099 00       		.byte	0
 2528 009a 0D       		.uleb128 0xd
 2529 009b 0F       		.uleb128 0xf
 2530 009c 00       		.byte	0
 2531 009d 0B       		.uleb128 0xb
 2532 009e 0B       		.uleb128 0xb
 2533 009f 00       		.byte	0
 2534 00a0 00       		.byte	0
 2535 00a1 0E       		.uleb128 0xe
 2536 00a2 13       		.uleb128 0x13
 2537 00a3 01       		.byte	0x1
 2538 00a4 03       		.uleb128 0x3
 2539 00a5 0E       		.uleb128 0xe
 2540 00a6 0B       		.uleb128 0xb
 2541 00a7 05       		.uleb128 0x5
 2542 00a8 3A       		.uleb128 0x3a
 2543 00a9 0B       		.uleb128 0xb
 2544 00aa 3B       		.uleb128 0x3b
 2545 00ab 05       		.uleb128 0x5
 2546 00ac 01       		.uleb128 0x1
 2547 00ad 13       		.uleb128 0x13
 2548 00ae 00       		.byte	0
ARM GAS  /tmp/ccsN6z31.s 			page 46


 2549 00af 00       		.byte	0
 2550 00b0 0F       		.uleb128 0xf
 2551 00b1 0D       		.uleb128 0xd
 2552 00b2 00       		.byte	0
 2553 00b3 03       		.uleb128 0x3
 2554 00b4 08       		.uleb128 0x8
 2555 00b5 3A       		.uleb128 0x3a
 2556 00b6 0B       		.uleb128 0xb
 2557 00b7 3B       		.uleb128 0x3b
 2558 00b8 0B       		.uleb128 0xb
 2559 00b9 49       		.uleb128 0x49
 2560 00ba 13       		.uleb128 0x13
 2561 00bb 38       		.uleb128 0x38
 2562 00bc 0B       		.uleb128 0xb
 2563 00bd 00       		.byte	0
 2564 00be 00       		.byte	0
 2565 00bf 10       		.uleb128 0x10
 2566 00c0 17       		.uleb128 0x17
 2567 00c1 01       		.byte	0x1
 2568 00c2 0B       		.uleb128 0xb
 2569 00c3 0B       		.uleb128 0xb
 2570 00c4 3A       		.uleb128 0x3a
 2571 00c5 0B       		.uleb128 0xb
 2572 00c6 3B       		.uleb128 0x3b
 2573 00c7 0B       		.uleb128 0xb
 2574 00c8 01       		.uleb128 0x1
 2575 00c9 13       		.uleb128 0x13
 2576 00ca 00       		.byte	0
 2577 00cb 00       		.byte	0
 2578 00cc 11       		.uleb128 0x11
 2579 00cd 0D       		.uleb128 0xd
 2580 00ce 00       		.byte	0
 2581 00cf 03       		.uleb128 0x3
 2582 00d0 0E       		.uleb128 0xe
 2583 00d1 3A       		.uleb128 0x3a
 2584 00d2 0B       		.uleb128 0xb
 2585 00d3 3B       		.uleb128 0x3b
 2586 00d4 05       		.uleb128 0x5
 2587 00d5 49       		.uleb128 0x49
 2588 00d6 13       		.uleb128 0x13
 2589 00d7 00       		.byte	0
 2590 00d8 00       		.byte	0
 2591 00d9 12       		.uleb128 0x12
 2592 00da 26       		.uleb128 0x26
 2593 00db 00       		.byte	0
 2594 00dc 49       		.uleb128 0x49
 2595 00dd 13       		.uleb128 0x13
 2596 00de 00       		.byte	0
 2597 00df 00       		.byte	0
 2598 00e0 13       		.uleb128 0x13
 2599 00e1 35       		.uleb128 0x35
 2600 00e2 00       		.byte	0
 2601 00e3 49       		.uleb128 0x49
 2602 00e4 13       		.uleb128 0x13
 2603 00e5 00       		.byte	0
 2604 00e6 00       		.byte	0
 2605 00e7 14       		.uleb128 0x14
ARM GAS  /tmp/ccsN6z31.s 			page 47


 2606 00e8 01       		.uleb128 0x1
 2607 00e9 01       		.byte	0x1
 2608 00ea 49       		.uleb128 0x49
 2609 00eb 13       		.uleb128 0x13
 2610 00ec 01       		.uleb128 0x1
 2611 00ed 13       		.uleb128 0x13
 2612 00ee 00       		.byte	0
 2613 00ef 00       		.byte	0
 2614 00f0 15       		.uleb128 0x15
 2615 00f1 21       		.uleb128 0x21
 2616 00f2 00       		.byte	0
 2617 00f3 49       		.uleb128 0x49
 2618 00f4 13       		.uleb128 0x13
 2619 00f5 2F       		.uleb128 0x2f
 2620 00f6 0B       		.uleb128 0xb
 2621 00f7 00       		.byte	0
 2622 00f8 00       		.byte	0
 2623 00f9 16       		.uleb128 0x16
 2624 00fa 2E       		.uleb128 0x2e
 2625 00fb 01       		.byte	0x1
 2626 00fc 03       		.uleb128 0x3
 2627 00fd 0E       		.uleb128 0xe
 2628 00fe 3A       		.uleb128 0x3a
 2629 00ff 0B       		.uleb128 0xb
 2630 0100 3B       		.uleb128 0x3b
 2631 0101 05       		.uleb128 0x5
 2632 0102 27       		.uleb128 0x27
 2633 0103 19       		.uleb128 0x19
 2634 0104 20       		.uleb128 0x20
 2635 0105 0B       		.uleb128 0xb
 2636 0106 01       		.uleb128 0x1
 2637 0107 13       		.uleb128 0x13
 2638 0108 00       		.byte	0
 2639 0109 00       		.byte	0
 2640 010a 17       		.uleb128 0x17
 2641 010b 05       		.uleb128 0x5
 2642 010c 00       		.byte	0
 2643 010d 03       		.uleb128 0x3
 2644 010e 0E       		.uleb128 0xe
 2645 010f 3A       		.uleb128 0x3a
 2646 0110 0B       		.uleb128 0xb
 2647 0111 3B       		.uleb128 0x3b
 2648 0112 05       		.uleb128 0x5
 2649 0113 49       		.uleb128 0x49
 2650 0114 13       		.uleb128 0x13
 2651 0115 00       		.byte	0
 2652 0116 00       		.byte	0
 2653 0117 18       		.uleb128 0x18
 2654 0118 2E       		.uleb128 0x2e
 2655 0119 00       		.byte	0
 2656 011a 03       		.uleb128 0x3
 2657 011b 0E       		.uleb128 0xe
 2658 011c 3A       		.uleb128 0x3a
 2659 011d 0B       		.uleb128 0xb
 2660 011e 3B       		.uleb128 0x3b
 2661 011f 05       		.uleb128 0x5
 2662 0120 27       		.uleb128 0x27
ARM GAS  /tmp/ccsN6z31.s 			page 48


 2663 0121 19       		.uleb128 0x19
 2664 0122 20       		.uleb128 0x20
 2665 0123 0B       		.uleb128 0xb
 2666 0124 00       		.byte	0
 2667 0125 00       		.byte	0
 2668 0126 19       		.uleb128 0x19
 2669 0127 2E       		.uleb128 0x2e
 2670 0128 00       		.byte	0
 2671 0129 03       		.uleb128 0x3
 2672 012a 0E       		.uleb128 0xe
 2673 012b 3A       		.uleb128 0x3a
 2674 012c 0B       		.uleb128 0xb
 2675 012d 3B       		.uleb128 0x3b
 2676 012e 0B       		.uleb128 0xb
 2677 012f 27       		.uleb128 0x27
 2678 0130 19       		.uleb128 0x19
 2679 0131 49       		.uleb128 0x49
 2680 0132 13       		.uleb128 0x13
 2681 0133 20       		.uleb128 0x20
 2682 0134 0B       		.uleb128 0xb
 2683 0135 00       		.byte	0
 2684 0136 00       		.byte	0
 2685 0137 1A       		.uleb128 0x1a
 2686 0138 05       		.uleb128 0x5
 2687 0139 00       		.byte	0
 2688 013a 03       		.uleb128 0x3
 2689 013b 08       		.uleb128 0x8
 2690 013c 3A       		.uleb128 0x3a
 2691 013d 0B       		.uleb128 0xb
 2692 013e 3B       		.uleb128 0x3b
 2693 013f 05       		.uleb128 0x5
 2694 0140 49       		.uleb128 0x49
 2695 0141 13       		.uleb128 0x13
 2696 0142 00       		.byte	0
 2697 0143 00       		.byte	0
 2698 0144 1B       		.uleb128 0x1b
 2699 0145 2E       		.uleb128 0x2e
 2700 0146 01       		.byte	0x1
 2701 0147 03       		.uleb128 0x3
 2702 0148 0E       		.uleb128 0xe
 2703 0149 3A       		.uleb128 0x3a
 2704 014a 0B       		.uleb128 0xb
 2705 014b 3B       		.uleb128 0x3b
 2706 014c 05       		.uleb128 0x5
 2707 014d 27       		.uleb128 0x27
 2708 014e 19       		.uleb128 0x19
 2709 014f 49       		.uleb128 0x49
 2710 0150 13       		.uleb128 0x13
 2711 0151 20       		.uleb128 0x20
 2712 0152 0B       		.uleb128 0xb
 2713 0153 01       		.uleb128 0x1
 2714 0154 13       		.uleb128 0x13
 2715 0155 00       		.byte	0
 2716 0156 00       		.byte	0
 2717 0157 1C       		.uleb128 0x1c
 2718 0158 34       		.uleb128 0x34
 2719 0159 00       		.byte	0
ARM GAS  /tmp/ccsN6z31.s 			page 49


 2720 015a 03       		.uleb128 0x3
 2721 015b 08       		.uleb128 0x8
 2722 015c 3A       		.uleb128 0x3a
 2723 015d 0B       		.uleb128 0xb
 2724 015e 3B       		.uleb128 0x3b
 2725 015f 05       		.uleb128 0x5
 2726 0160 49       		.uleb128 0x49
 2727 0161 13       		.uleb128 0x13
 2728 0162 00       		.byte	0
 2729 0163 00       		.byte	0
 2730 0164 1D       		.uleb128 0x1d
 2731 0165 34       		.uleb128 0x34
 2732 0166 00       		.byte	0
 2733 0167 03       		.uleb128 0x3
 2734 0168 0E       		.uleb128 0xe
 2735 0169 49       		.uleb128 0x49
 2736 016a 13       		.uleb128 0x13
 2737 016b 34       		.uleb128 0x34
 2738 016c 19       		.uleb128 0x19
 2739 016d 1C       		.uleb128 0x1c
 2740 016e 0E       		.uleb128 0xe
 2741 016f 00       		.byte	0
 2742 0170 00       		.byte	0
 2743 0171 1E       		.uleb128 0x1e
 2744 0172 2E       		.uleb128 0x2e
 2745 0173 01       		.byte	0x1
 2746 0174 3F       		.uleb128 0x3f
 2747 0175 19       		.uleb128 0x19
 2748 0176 03       		.uleb128 0x3
 2749 0177 0E       		.uleb128 0xe
 2750 0178 3A       		.uleb128 0x3a
 2751 0179 0B       		.uleb128 0xb
 2752 017a 3B       		.uleb128 0x3b
 2753 017b 0B       		.uleb128 0xb
 2754 017c 27       		.uleb128 0x27
 2755 017d 19       		.uleb128 0x19
 2756 017e 11       		.uleb128 0x11
 2757 017f 01       		.uleb128 0x1
 2758 0180 12       		.uleb128 0x12
 2759 0181 06       		.uleb128 0x6
 2760 0182 40       		.uleb128 0x40
 2761 0183 18       		.uleb128 0x18
 2762 0184 9742     		.uleb128 0x2117
 2763 0186 19       		.uleb128 0x19
 2764 0187 01       		.uleb128 0x1
 2765 0188 13       		.uleb128 0x13
 2766 0189 00       		.byte	0
 2767 018a 00       		.byte	0
 2768 018b 1F       		.uleb128 0x1f
 2769 018c 05       		.uleb128 0x5
 2770 018d 00       		.byte	0
 2771 018e 03       		.uleb128 0x3
 2772 018f 08       		.uleb128 0x8
 2773 0190 3A       		.uleb128 0x3a
 2774 0191 0B       		.uleb128 0xb
 2775 0192 3B       		.uleb128 0x3b
 2776 0193 0B       		.uleb128 0xb
ARM GAS  /tmp/ccsN6z31.s 			page 50


 2777 0194 49       		.uleb128 0x49
 2778 0195 13       		.uleb128 0x13
 2779 0196 02       		.uleb128 0x2
 2780 0197 18       		.uleb128 0x18
 2781 0198 00       		.byte	0
 2782 0199 00       		.byte	0
 2783 019a 20       		.uleb128 0x20
 2784 019b 34       		.uleb128 0x34
 2785 019c 00       		.byte	0
 2786 019d 03       		.uleb128 0x3
 2787 019e 0E       		.uleb128 0xe
 2788 019f 49       		.uleb128 0x49
 2789 01a0 13       		.uleb128 0x13
 2790 01a1 34       		.uleb128 0x34
 2791 01a2 19       		.uleb128 0x19
 2792 01a3 00       		.byte	0
 2793 01a4 00       		.byte	0
 2794 01a5 21       		.uleb128 0x21
 2795 01a6 1D       		.uleb128 0x1d
 2796 01a7 01       		.byte	0x1
 2797 01a8 31       		.uleb128 0x31
 2798 01a9 13       		.uleb128 0x13
 2799 01aa 11       		.uleb128 0x11
 2800 01ab 01       		.uleb128 0x1
 2801 01ac 12       		.uleb128 0x12
 2802 01ad 06       		.uleb128 0x6
 2803 01ae 58       		.uleb128 0x58
 2804 01af 0B       		.uleb128 0xb
 2805 01b0 59       		.uleb128 0x59
 2806 01b1 0B       		.uleb128 0xb
 2807 01b2 00       		.byte	0
 2808 01b3 00       		.byte	0
 2809 01b4 22       		.uleb128 0x22
 2810 01b5 05       		.uleb128 0x5
 2811 01b6 00       		.byte	0
 2812 01b7 31       		.uleb128 0x31
 2813 01b8 13       		.uleb128 0x13
 2814 01b9 02       		.uleb128 0x2
 2815 01ba 18       		.uleb128 0x18
 2816 01bb 00       		.byte	0
 2817 01bc 00       		.byte	0
 2818 01bd 23       		.uleb128 0x23
 2819 01be 05       		.uleb128 0x5
 2820 01bf 00       		.byte	0
 2821 01c0 03       		.uleb128 0x3
 2822 01c1 08       		.uleb128 0x8
 2823 01c2 3A       		.uleb128 0x3a
 2824 01c3 0B       		.uleb128 0xb
 2825 01c4 3B       		.uleb128 0x3b
 2826 01c5 0B       		.uleb128 0xb
 2827 01c6 49       		.uleb128 0x49
 2828 01c7 13       		.uleb128 0x13
 2829 01c8 02       		.uleb128 0x2
 2830 01c9 17       		.uleb128 0x17
 2831 01ca 00       		.byte	0
 2832 01cb 00       		.byte	0
 2833 01cc 24       		.uleb128 0x24
ARM GAS  /tmp/ccsN6z31.s 			page 51


 2834 01cd 1D       		.uleb128 0x1d
 2835 01ce 01       		.byte	0x1
 2836 01cf 31       		.uleb128 0x31
 2837 01d0 13       		.uleb128 0x13
 2838 01d1 11       		.uleb128 0x11
 2839 01d2 01       		.uleb128 0x1
 2840 01d3 12       		.uleb128 0x12
 2841 01d4 06       		.uleb128 0x6
 2842 01d5 58       		.uleb128 0x58
 2843 01d6 0B       		.uleb128 0xb
 2844 01d7 59       		.uleb128 0x59
 2845 01d8 0B       		.uleb128 0xb
 2846 01d9 01       		.uleb128 0x1
 2847 01da 13       		.uleb128 0x13
 2848 01db 00       		.byte	0
 2849 01dc 00       		.byte	0
 2850 01dd 25       		.uleb128 0x25
 2851 01de 1D       		.uleb128 0x1d
 2852 01df 01       		.byte	0x1
 2853 01e0 31       		.uleb128 0x31
 2854 01e1 13       		.uleb128 0x13
 2855 01e2 11       		.uleb128 0x11
 2856 01e3 01       		.uleb128 0x1
 2857 01e4 12       		.uleb128 0x12
 2858 01e5 06       		.uleb128 0x6
 2859 01e6 58       		.uleb128 0x58
 2860 01e7 0B       		.uleb128 0xb
 2861 01e8 59       		.uleb128 0x59
 2862 01e9 05       		.uleb128 0x5
 2863 01ea 00       		.byte	0
 2864 01eb 00       		.byte	0
 2865 01ec 26       		.uleb128 0x26
 2866 01ed 05       		.uleb128 0x5
 2867 01ee 00       		.byte	0
 2868 01ef 31       		.uleb128 0x31
 2869 01f0 13       		.uleb128 0x13
 2870 01f1 1C       		.uleb128 0x1c
 2871 01f2 0B       		.uleb128 0xb
 2872 01f3 00       		.byte	0
 2873 01f4 00       		.byte	0
 2874 01f5 27       		.uleb128 0x27
 2875 01f6 05       		.uleb128 0x5
 2876 01f7 00       		.byte	0
 2877 01f8 31       		.uleb128 0x31
 2878 01f9 13       		.uleb128 0x13
 2879 01fa 02       		.uleb128 0x2
 2880 01fb 17       		.uleb128 0x17
 2881 01fc 00       		.byte	0
 2882 01fd 00       		.byte	0
 2883 01fe 28       		.uleb128 0x28
 2884 01ff 0B       		.uleb128 0xb
 2885 0200 01       		.byte	0x1
 2886 0201 11       		.uleb128 0x11
 2887 0202 01       		.uleb128 0x1
 2888 0203 12       		.uleb128 0x12
 2889 0204 06       		.uleb128 0x6
 2890 0205 00       		.byte	0
ARM GAS  /tmp/ccsN6z31.s 			page 52


 2891 0206 00       		.byte	0
 2892 0207 29       		.uleb128 0x29
 2893 0208 34       		.uleb128 0x34
 2894 0209 00       		.byte	0
 2895 020a 31       		.uleb128 0x31
 2896 020b 13       		.uleb128 0x13
 2897 020c 02       		.uleb128 0x2
 2898 020d 17       		.uleb128 0x17
 2899 020e 00       		.byte	0
 2900 020f 00       		.byte	0
 2901 0210 2A       		.uleb128 0x2a
 2902 0211 34       		.uleb128 0x34
 2903 0212 00       		.byte	0
 2904 0213 31       		.uleb128 0x31
 2905 0214 13       		.uleb128 0x13
 2906 0215 00       		.byte	0
 2907 0216 00       		.byte	0
 2908 0217 2B       		.uleb128 0x2b
 2909 0218 898201   		.uleb128 0x4109
 2910 021b 01       		.byte	0x1
 2911 021c 11       		.uleb128 0x11
 2912 021d 01       		.uleb128 0x1
 2913 021e 31       		.uleb128 0x31
 2914 021f 13       		.uleb128 0x13
 2915 0220 00       		.byte	0
 2916 0221 00       		.byte	0
 2917 0222 2C       		.uleb128 0x2c
 2918 0223 8A8201   		.uleb128 0x410a
 2919 0226 00       		.byte	0
 2920 0227 02       		.uleb128 0x2
 2921 0228 18       		.uleb128 0x18
 2922 0229 9142     		.uleb128 0x2111
 2923 022b 18       		.uleb128 0x18
 2924 022c 00       		.byte	0
 2925 022d 00       		.byte	0
 2926 022e 2D       		.uleb128 0x2d
 2927 022f 34       		.uleb128 0x34
 2928 0230 00       		.byte	0
 2929 0231 03       		.uleb128 0x3
 2930 0232 08       		.uleb128 0x8
 2931 0233 3A       		.uleb128 0x3a
 2932 0234 0B       		.uleb128 0xb
 2933 0235 3B       		.uleb128 0x3b
 2934 0236 0B       		.uleb128 0xb
 2935 0237 49       		.uleb128 0x49
 2936 0238 13       		.uleb128 0x13
 2937 0239 00       		.byte	0
 2938 023a 00       		.byte	0
 2939 023b 2E       		.uleb128 0x2e
 2940 023c 1D       		.uleb128 0x1d
 2941 023d 01       		.byte	0x1
 2942 023e 31       		.uleb128 0x31
 2943 023f 13       		.uleb128 0x13
 2944 0240 52       		.uleb128 0x52
 2945 0241 01       		.uleb128 0x1
 2946 0242 55       		.uleb128 0x55
 2947 0243 17       		.uleb128 0x17
ARM GAS  /tmp/ccsN6z31.s 			page 53


 2948 0244 58       		.uleb128 0x58
 2949 0245 0B       		.uleb128 0xb
 2950 0246 59       		.uleb128 0x59
 2951 0247 0B       		.uleb128 0xb
 2952 0248 01       		.uleb128 0x1
 2953 0249 13       		.uleb128 0x13
 2954 024a 00       		.byte	0
 2955 024b 00       		.byte	0
 2956 024c 2F       		.uleb128 0x2f
 2957 024d 0B       		.uleb128 0xb
 2958 024e 01       		.byte	0x1
 2959 024f 55       		.uleb128 0x55
 2960 0250 17       		.uleb128 0x17
 2961 0251 00       		.byte	0
 2962 0252 00       		.byte	0
 2963 0253 30       		.uleb128 0x30
 2964 0254 898201   		.uleb128 0x4109
 2965 0257 00       		.byte	0
 2966 0258 11       		.uleb128 0x11
 2967 0259 01       		.uleb128 0x1
 2968 025a 9542     		.uleb128 0x2115
 2969 025c 19       		.uleb128 0x19
 2970 025d 31       		.uleb128 0x31
 2971 025e 13       		.uleb128 0x13
 2972 025f 00       		.byte	0
 2973 0260 00       		.byte	0
 2974 0261 31       		.uleb128 0x31
 2975 0262 898201   		.uleb128 0x4109
 2976 0265 00       		.byte	0
 2977 0266 11       		.uleb128 0x11
 2978 0267 01       		.uleb128 0x1
 2979 0268 31       		.uleb128 0x31
 2980 0269 13       		.uleb128 0x13
 2981 026a 00       		.byte	0
 2982 026b 00       		.byte	0
 2983 026c 32       		.uleb128 0x32
 2984 026d 898201   		.uleb128 0x4109
 2985 0270 01       		.byte	0x1
 2986 0271 11       		.uleb128 0x11
 2987 0272 01       		.uleb128 0x1
 2988 0273 31       		.uleb128 0x31
 2989 0274 13       		.uleb128 0x13
 2990 0275 01       		.uleb128 0x1
 2991 0276 13       		.uleb128 0x13
 2992 0277 00       		.byte	0
 2993 0278 00       		.byte	0
 2994 0279 33       		.uleb128 0x33
 2995 027a 2E       		.uleb128 0x2e
 2996 027b 01       		.byte	0x1
 2997 027c 3F       		.uleb128 0x3f
 2998 027d 19       		.uleb128 0x19
 2999 027e 03       		.uleb128 0x3
 3000 027f 0E       		.uleb128 0xe
 3001 0280 3A       		.uleb128 0x3a
 3002 0281 0B       		.uleb128 0xb
 3003 0282 3B       		.uleb128 0x3b
 3004 0283 0B       		.uleb128 0xb
ARM GAS  /tmp/ccsN6z31.s 			page 54


 3005 0284 27       		.uleb128 0x27
 3006 0285 19       		.uleb128 0x19
 3007 0286 49       		.uleb128 0x49
 3008 0287 13       		.uleb128 0x13
 3009 0288 11       		.uleb128 0x11
 3010 0289 01       		.uleb128 0x1
 3011 028a 12       		.uleb128 0x12
 3012 028b 06       		.uleb128 0x6
 3013 028c 40       		.uleb128 0x40
 3014 028d 18       		.uleb128 0x18
 3015 028e 9742     		.uleb128 0x2117
 3016 0290 19       		.uleb128 0x19
 3017 0291 01       		.uleb128 0x1
 3018 0292 13       		.uleb128 0x13
 3019 0293 00       		.byte	0
 3020 0294 00       		.byte	0
 3021 0295 34       		.uleb128 0x34
 3022 0296 34       		.uleb128 0x34
 3023 0297 00       		.byte	0
 3024 0298 03       		.uleb128 0x3
 3025 0299 08       		.uleb128 0x8
 3026 029a 3A       		.uleb128 0x3a
 3027 029b 0B       		.uleb128 0xb
 3028 029c 3B       		.uleb128 0x3b
 3029 029d 0B       		.uleb128 0xb
 3030 029e 49       		.uleb128 0x49
 3031 029f 13       		.uleb128 0x13
 3032 02a0 02       		.uleb128 0x2
 3033 02a1 17       		.uleb128 0x17
 3034 02a2 00       		.byte	0
 3035 02a3 00       		.byte	0
 3036 02a4 35       		.uleb128 0x35
 3037 02a5 1D       		.uleb128 0x1d
 3038 02a6 00       		.byte	0
 3039 02a7 31       		.uleb128 0x31
 3040 02a8 13       		.uleb128 0x13
 3041 02a9 11       		.uleb128 0x11
 3042 02aa 01       		.uleb128 0x1
 3043 02ab 12       		.uleb128 0x12
 3044 02ac 06       		.uleb128 0x6
 3045 02ad 58       		.uleb128 0x58
 3046 02ae 0B       		.uleb128 0xb
 3047 02af 59       		.uleb128 0x59
 3048 02b0 0B       		.uleb128 0xb
 3049 02b1 00       		.byte	0
 3050 02b2 00       		.byte	0
 3051 02b3 36       		.uleb128 0x36
 3052 02b4 34       		.uleb128 0x34
 3053 02b5 00       		.byte	0
 3054 02b6 03       		.uleb128 0x3
 3055 02b7 08       		.uleb128 0x8
 3056 02b8 3A       		.uleb128 0x3a
 3057 02b9 0B       		.uleb128 0xb
 3058 02ba 3B       		.uleb128 0x3b
 3059 02bb 0B       		.uleb128 0xb
 3060 02bc 49       		.uleb128 0x49
 3061 02bd 13       		.uleb128 0x13
ARM GAS  /tmp/ccsN6z31.s 			page 55


 3062 02be 02       		.uleb128 0x2
 3063 02bf 18       		.uleb128 0x18
 3064 02c0 00       		.byte	0
 3065 02c1 00       		.byte	0
 3066 02c2 37       		.uleb128 0x37
 3067 02c3 2E       		.uleb128 0x2e
 3068 02c4 01       		.byte	0x1
 3069 02c5 3F       		.uleb128 0x3f
 3070 02c6 19       		.uleb128 0x19
 3071 02c7 03       		.uleb128 0x3
 3072 02c8 0E       		.uleb128 0xe
 3073 02c9 3A       		.uleb128 0x3a
 3074 02ca 0B       		.uleb128 0xb
 3075 02cb 3B       		.uleb128 0x3b
 3076 02cc 05       		.uleb128 0x5
 3077 02cd 27       		.uleb128 0x27
 3078 02ce 19       		.uleb128 0x19
 3079 02cf 49       		.uleb128 0x49
 3080 02d0 13       		.uleb128 0x13
 3081 02d1 11       		.uleb128 0x11
 3082 02d2 01       		.uleb128 0x1
 3083 02d3 12       		.uleb128 0x12
 3084 02d4 06       		.uleb128 0x6
 3085 02d5 40       		.uleb128 0x40
 3086 02d6 18       		.uleb128 0x18
 3087 02d7 9742     		.uleb128 0x2117
 3088 02d9 19       		.uleb128 0x19
 3089 02da 01       		.uleb128 0x1
 3090 02db 13       		.uleb128 0x13
 3091 02dc 00       		.byte	0
 3092 02dd 00       		.byte	0
 3093 02de 38       		.uleb128 0x38
 3094 02df 05       		.uleb128 0x5
 3095 02e0 00       		.byte	0
 3096 02e1 03       		.uleb128 0x3
 3097 02e2 08       		.uleb128 0x8
 3098 02e3 3A       		.uleb128 0x3a
 3099 02e4 0B       		.uleb128 0xb
 3100 02e5 3B       		.uleb128 0x3b
 3101 02e6 05       		.uleb128 0x5
 3102 02e7 49       		.uleb128 0x49
 3103 02e8 13       		.uleb128 0x13
 3104 02e9 02       		.uleb128 0x2
 3105 02ea 17       		.uleb128 0x17
 3106 02eb 00       		.byte	0
 3107 02ec 00       		.byte	0
 3108 02ed 39       		.uleb128 0x39
 3109 02ee 05       		.uleb128 0x5
 3110 02ef 00       		.byte	0
 3111 02f0 03       		.uleb128 0x3
 3112 02f1 0E       		.uleb128 0xe
 3113 02f2 3A       		.uleb128 0x3a
 3114 02f3 0B       		.uleb128 0xb
 3115 02f4 3B       		.uleb128 0x3b
 3116 02f5 05       		.uleb128 0x5
 3117 02f6 49       		.uleb128 0x49
 3118 02f7 13       		.uleb128 0x13
ARM GAS  /tmp/ccsN6z31.s 			page 56


 3119 02f8 02       		.uleb128 0x2
 3120 02f9 17       		.uleb128 0x17
 3121 02fa 00       		.byte	0
 3122 02fb 00       		.byte	0
 3123 02fc 3A       		.uleb128 0x3a
 3124 02fd 34       		.uleb128 0x34
 3125 02fe 00       		.byte	0
 3126 02ff 03       		.uleb128 0x3
 3127 0300 08       		.uleb128 0x8
 3128 0301 3A       		.uleb128 0x3a
 3129 0302 0B       		.uleb128 0xb
 3130 0303 3B       		.uleb128 0x3b
 3131 0304 05       		.uleb128 0x5
 3132 0305 49       		.uleb128 0x49
 3133 0306 13       		.uleb128 0x13
 3134 0307 02       		.uleb128 0x2
 3135 0308 17       		.uleb128 0x17
 3136 0309 00       		.byte	0
 3137 030a 00       		.byte	0
 3138 030b 3B       		.uleb128 0x3b
 3139 030c 1D       		.uleb128 0x1d
 3140 030d 01       		.byte	0x1
 3141 030e 31       		.uleb128 0x31
 3142 030f 13       		.uleb128 0x13
 3143 0310 11       		.uleb128 0x11
 3144 0311 01       		.uleb128 0x1
 3145 0312 12       		.uleb128 0x12
 3146 0313 06       		.uleb128 0x6
 3147 0314 58       		.uleb128 0x58
 3148 0315 0B       		.uleb128 0xb
 3149 0316 59       		.uleb128 0x59
 3150 0317 05       		.uleb128 0x5
 3151 0318 01       		.uleb128 0x1
 3152 0319 13       		.uleb128 0x13
 3153 031a 00       		.byte	0
 3154 031b 00       		.byte	0
 3155 031c 3C       		.uleb128 0x3c
 3156 031d 1D       		.uleb128 0x1d
 3157 031e 01       		.byte	0x1
 3158 031f 31       		.uleb128 0x31
 3159 0320 13       		.uleb128 0x13
 3160 0321 52       		.uleb128 0x52
 3161 0322 01       		.uleb128 0x1
 3162 0323 55       		.uleb128 0x55
 3163 0324 17       		.uleb128 0x17
 3164 0325 58       		.uleb128 0x58
 3165 0326 0B       		.uleb128 0xb
 3166 0327 59       		.uleb128 0x59
 3167 0328 05       		.uleb128 0x5
 3168 0329 01       		.uleb128 0x1
 3169 032a 13       		.uleb128 0x13
 3170 032b 00       		.byte	0
 3171 032c 00       		.byte	0
 3172 032d 3D       		.uleb128 0x3d
 3173 032e 34       		.uleb128 0x34
 3174 032f 00       		.byte	0
 3175 0330 03       		.uleb128 0x3
ARM GAS  /tmp/ccsN6z31.s 			page 57


 3176 0331 08       		.uleb128 0x8
 3177 0332 3A       		.uleb128 0x3a
 3178 0333 0B       		.uleb128 0xb
 3179 0334 3B       		.uleb128 0x3b
 3180 0335 05       		.uleb128 0x5
 3181 0336 49       		.uleb128 0x49
 3182 0337 13       		.uleb128 0x13
 3183 0338 02       		.uleb128 0x2
 3184 0339 18       		.uleb128 0x18
 3185 033a 00       		.byte	0
 3186 033b 00       		.byte	0
 3187 033c 3E       		.uleb128 0x3e
 3188 033d 34       		.uleb128 0x34
 3189 033e 00       		.byte	0
 3190 033f 03       		.uleb128 0x3
 3191 0340 0E       		.uleb128 0xe
 3192 0341 3A       		.uleb128 0x3a
 3193 0342 0B       		.uleb128 0xb
 3194 0343 3B       		.uleb128 0x3b
 3195 0344 05       		.uleb128 0x5
 3196 0345 49       		.uleb128 0x49
 3197 0346 13       		.uleb128 0x13
 3198 0347 3F       		.uleb128 0x3f
 3199 0348 19       		.uleb128 0x19
 3200 0349 3C       		.uleb128 0x3c
 3201 034a 19       		.uleb128 0x19
 3202 034b 00       		.byte	0
 3203 034c 00       		.byte	0
 3204 034d 3F       		.uleb128 0x3f
 3205 034e 34       		.uleb128 0x34
 3206 034f 00       		.byte	0
 3207 0350 03       		.uleb128 0x3
 3208 0351 08       		.uleb128 0x8
 3209 0352 3A       		.uleb128 0x3a
 3210 0353 0B       		.uleb128 0xb
 3211 0354 3B       		.uleb128 0x3b
 3212 0355 05       		.uleb128 0x5
 3213 0356 49       		.uleb128 0x49
 3214 0357 13       		.uleb128 0x13
 3215 0358 3F       		.uleb128 0x3f
 3216 0359 19       		.uleb128 0x19
 3217 035a 3C       		.uleb128 0x3c
 3218 035b 19       		.uleb128 0x19
 3219 035c 00       		.byte	0
 3220 035d 00       		.byte	0
 3221 035e 40       		.uleb128 0x40
 3222 035f 2E       		.uleb128 0x2e
 3223 0360 01       		.byte	0x1
 3224 0361 3F       		.uleb128 0x3f
 3225 0362 19       		.uleb128 0x19
 3226 0363 03       		.uleb128 0x3
 3227 0364 0E       		.uleb128 0xe
 3228 0365 3A       		.uleb128 0x3a
 3229 0366 0B       		.uleb128 0xb
 3230 0367 3B       		.uleb128 0x3b
 3231 0368 05       		.uleb128 0x5
 3232 0369 27       		.uleb128 0x27
ARM GAS  /tmp/ccsN6z31.s 			page 58


 3233 036a 19       		.uleb128 0x19
 3234 036b 3C       		.uleb128 0x3c
 3235 036c 19       		.uleb128 0x19
 3236 036d 01       		.uleb128 0x1
 3237 036e 13       		.uleb128 0x13
 3238 036f 00       		.byte	0
 3239 0370 00       		.byte	0
 3240 0371 41       		.uleb128 0x41
 3241 0372 2E       		.uleb128 0x2e
 3242 0373 01       		.byte	0x1
 3243 0374 3F       		.uleb128 0x3f
 3244 0375 19       		.uleb128 0x19
 3245 0376 03       		.uleb128 0x3
 3246 0377 0E       		.uleb128 0xe
 3247 0378 3A       		.uleb128 0x3a
 3248 0379 0B       		.uleb128 0xb
 3249 037a 3B       		.uleb128 0x3b
 3250 037b 05       		.uleb128 0x5
 3251 037c 27       		.uleb128 0x27
 3252 037d 19       		.uleb128 0x19
 3253 037e 49       		.uleb128 0x49
 3254 037f 13       		.uleb128 0x13
 3255 0380 3C       		.uleb128 0x3c
 3256 0381 19       		.uleb128 0x19
 3257 0382 01       		.uleb128 0x1
 3258 0383 13       		.uleb128 0x13
 3259 0384 00       		.byte	0
 3260 0385 00       		.byte	0
 3261 0386 42       		.uleb128 0x42
 3262 0387 2E       		.uleb128 0x2e
 3263 0388 00       		.byte	0
 3264 0389 3F       		.uleb128 0x3f
 3265 038a 19       		.uleb128 0x19
 3266 038b 03       		.uleb128 0x3
 3267 038c 0E       		.uleb128 0xe
 3268 038d 3A       		.uleb128 0x3a
 3269 038e 0B       		.uleb128 0xb
 3270 038f 3B       		.uleb128 0x3b
 3271 0390 05       		.uleb128 0x5
 3272 0391 27       		.uleb128 0x27
 3273 0392 19       		.uleb128 0x19
 3274 0393 3C       		.uleb128 0x3c
 3275 0394 19       		.uleb128 0x19
 3276 0395 00       		.byte	0
 3277 0396 00       		.byte	0
 3278 0397 43       		.uleb128 0x43
 3279 0398 2E       		.uleb128 0x2e
 3280 0399 01       		.byte	0x1
 3281 039a 3F       		.uleb128 0x3f
 3282 039b 19       		.uleb128 0x19
 3283 039c 03       		.uleb128 0x3
 3284 039d 0E       		.uleb128 0xe
 3285 039e 3A       		.uleb128 0x3a
 3286 039f 0B       		.uleb128 0xb
 3287 03a0 3B       		.uleb128 0x3b
 3288 03a1 0B       		.uleb128 0xb
 3289 03a2 27       		.uleb128 0x27
ARM GAS  /tmp/ccsN6z31.s 			page 59


 3290 03a3 19       		.uleb128 0x19
 3291 03a4 3C       		.uleb128 0x3c
 3292 03a5 19       		.uleb128 0x19
 3293 03a6 01       		.uleb128 0x1
 3294 03a7 13       		.uleb128 0x13
 3295 03a8 00       		.byte	0
 3296 03a9 00       		.byte	0
 3297 03aa 44       		.uleb128 0x44
 3298 03ab 2E       		.uleb128 0x2e
 3299 03ac 01       		.byte	0x1
 3300 03ad 3F       		.uleb128 0x3f
 3301 03ae 19       		.uleb128 0x19
 3302 03af 03       		.uleb128 0x3
 3303 03b0 0E       		.uleb128 0xe
 3304 03b1 3A       		.uleb128 0x3a
 3305 03b2 0B       		.uleb128 0xb
 3306 03b3 3B       		.uleb128 0x3b
 3307 03b4 05       		.uleb128 0x5
 3308 03b5 27       		.uleb128 0x27
 3309 03b6 19       		.uleb128 0x19
 3310 03b7 49       		.uleb128 0x49
 3311 03b8 13       		.uleb128 0x13
 3312 03b9 3C       		.uleb128 0x3c
 3313 03ba 19       		.uleb128 0x19
 3314 03bb 00       		.byte	0
 3315 03bc 00       		.byte	0
 3316 03bd 00       		.byte	0
 3317              		.section	.debug_loc,"",%progbits
 3318              	.Ldebug_loc0:
 3319              	.LLST0:
 3320 0000 00000000 		.4byte	.LVL1
 3321 0004 18000000 		.4byte	.LVL4
 3322 0008 0100     		.2byte	0x1
 3323 000a 50       		.byte	0x50
 3324 000b 18000000 		.4byte	.LVL4
 3325 000f 1D000000 		.4byte	.LVL5-1
 3326 0013 0100     		.2byte	0x1
 3327 0015 53       		.byte	0x53
 3328 0016 1D000000 		.4byte	.LVL5-1
 3329 001a 26000000 		.4byte	.LFE231
 3330 001e 0400     		.2byte	0x4
 3331 0020 F3       		.byte	0xf3
 3332 0021 01       		.uleb128 0x1
 3333 0022 50       		.byte	0x50
 3334 0023 9F       		.byte	0x9f
 3335 0024 00000000 		.4byte	0
 3336 0028 00000000 		.4byte	0
 3337              	.LLST1:
 3338 002c 08000000 		.4byte	.LVL2
 3339 0030 18000000 		.4byte	.LVL4
 3340 0034 0100     		.2byte	0x1
 3341 0036 50       		.byte	0x50
 3342 0037 18000000 		.4byte	.LVL4
 3343 003b 1D000000 		.4byte	.LVL5-1
 3344 003f 0100     		.2byte	0x1
 3345 0041 53       		.byte	0x53
 3346 0042 1D000000 		.4byte	.LVL5-1
ARM GAS  /tmp/ccsN6z31.s 			page 60


 3347 0046 26000000 		.4byte	.LFE231
 3348 004a 0400     		.2byte	0x4
 3349 004c F3       		.byte	0xf3
 3350 004d 01       		.uleb128 0x1
 3351 004e 50       		.byte	0x50
 3352 004f 9F       		.byte	0x9f
 3353 0050 00000000 		.4byte	0
 3354 0054 00000000 		.4byte	0
 3355              	.LLST2:
 3356 0058 14000000 		.4byte	.LVL3
 3357 005c 18000000 		.4byte	.LVL4
 3358 0060 0100     		.2byte	0x1
 3359 0062 50       		.byte	0x50
 3360 0063 18000000 		.4byte	.LVL4
 3361 0067 1D000000 		.4byte	.LVL5-1
 3362 006b 0100     		.2byte	0x1
 3363 006d 53       		.byte	0x53
 3364 006e 1D000000 		.4byte	.LVL5-1
 3365 0072 1E000000 		.4byte	.LVL5
 3366 0076 0400     		.2byte	0x4
 3367 0078 F3       		.byte	0xf3
 3368 0079 01       		.uleb128 0x1
 3369 007a 50       		.byte	0x50
 3370 007b 9F       		.byte	0x9f
 3371 007c 00000000 		.4byte	0
 3372 0080 00000000 		.4byte	0
 3373              	.LLST3:
 3374 0084 14000000 		.4byte	.LVL3
 3375 0088 1D000000 		.4byte	.LVL5-1
 3376 008c 0100     		.2byte	0x1
 3377 008e 52       		.byte	0x52
 3378 008f 00000000 		.4byte	0
 3379 0093 00000000 		.4byte	0
 3380              	.LLST4:
 3381 0097 00000000 		.4byte	.LVL6
 3382 009b 10000000 		.4byte	.LVL8
 3383 009f 0100     		.2byte	0x1
 3384 00a1 50       		.byte	0x50
 3385 00a2 10000000 		.4byte	.LVL8
 3386 00a6 15000000 		.4byte	.LVL9-1
 3387 00aa 0200     		.2byte	0x2
 3388 00ac 72       		.byte	0x72
 3389 00ad 04       		.sleb128 4
 3390 00ae 15000000 		.4byte	.LVL9-1
 3391 00b2 16000000 		.4byte	.LVL9
 3392 00b6 0400     		.2byte	0x4
 3393 00b8 F3       		.byte	0xf3
 3394 00b9 01       		.uleb128 0x1
 3395 00ba 50       		.byte	0x50
 3396 00bb 9F       		.byte	0x9f
 3397 00bc 16000000 		.4byte	.LVL9
 3398 00c0 18000000 		.4byte	.LFE232
 3399 00c4 0100     		.2byte	0x1
 3400 00c6 50       		.byte	0x50
 3401 00c7 00000000 		.4byte	0
 3402 00cb 00000000 		.4byte	0
 3403              	.LLST6:
ARM GAS  /tmp/ccsN6z31.s 			page 61


 3404 00cf 06000000 		.4byte	.LVL7
 3405 00d3 10000000 		.4byte	.LVL8
 3406 00d7 0100     		.2byte	0x1
 3407 00d9 50       		.byte	0x50
 3408 00da 10000000 		.4byte	.LVL8
 3409 00de 15000000 		.4byte	.LVL9-1
 3410 00e2 0200     		.2byte	0x2
 3411 00e4 72       		.byte	0x72
 3412 00e5 04       		.sleb128 4
 3413 00e6 15000000 		.4byte	.LVL9-1
 3414 00ea 16000000 		.4byte	.LVL9
 3415 00ee 0400     		.2byte	0x4
 3416 00f0 F3       		.byte	0xf3
 3417 00f1 01       		.uleb128 0x1
 3418 00f2 50       		.byte	0x50
 3419 00f3 9F       		.byte	0x9f
 3420 00f4 00000000 		.4byte	0
 3421 00f8 00000000 		.4byte	0
 3422              	.LLST7:
 3423 00fc 06000000 		.4byte	.LVL7
 3424 0100 15000000 		.4byte	.LVL9-1
 3425 0104 0100     		.2byte	0x1
 3426 0106 53       		.byte	0x53
 3427 0107 00000000 		.4byte	0
 3428 010b 00000000 		.4byte	0
 3429              	.LLST8:
 3430 010f 00000000 		.4byte	.LVL10
 3431 0113 06000000 		.4byte	.LVL12
 3432 0117 0100     		.2byte	0x1
 3433 0119 50       		.byte	0x50
 3434 011a 06000000 		.4byte	.LVL12
 3435 011e 22000000 		.4byte	.LFE234
 3436 0122 0100     		.2byte	0x1
 3437 0124 54       		.byte	0x54
 3438 0125 00000000 		.4byte	0
 3439 0129 00000000 		.4byte	0
 3440              	.LLST9:
 3441 012d 04000000 		.4byte	.LVL11
 3442 0131 06000000 		.4byte	.LVL12
 3443 0135 0100     		.2byte	0x1
 3444 0137 50       		.byte	0x50
 3445 0138 06000000 		.4byte	.LVL12
 3446 013c 22000000 		.4byte	.LFE234
 3447 0140 0100     		.2byte	0x1
 3448 0142 54       		.byte	0x54
 3449 0143 00000000 		.4byte	0
 3450 0147 00000000 		.4byte	0
 3451              	.LLST10:
 3452 014b 0E000000 		.4byte	.LVL13
 3453 014f 20000000 		.4byte	.LVL15
 3454 0153 0100     		.2byte	0x1
 3455 0155 54       		.byte	0x54
 3456 0156 00000000 		.4byte	0
 3457 015a 00000000 		.4byte	0
 3458              	.LLST11:
 3459 015e 0E000000 		.4byte	.LVL13
 3460 0162 17000000 		.4byte	.LVL14-1
ARM GAS  /tmp/ccsN6z31.s 			page 62


 3461 0166 0100     		.2byte	0x1
 3462 0168 50       		.byte	0x50
 3463 0169 00000000 		.4byte	0
 3464 016d 00000000 		.4byte	0
 3465              	.LLST12:
 3466 0171 00000000 		.4byte	.LVL16
 3467 0175 0B000000 		.4byte	.LVL17-1
 3468 0179 0100     		.2byte	0x1
 3469 017b 50       		.byte	0x50
 3470 017c 0B000000 		.4byte	.LVL17-1
 3471 0180 18000000 		.4byte	.LFE233
 3472 0184 0400     		.2byte	0x4
 3473 0186 F3       		.byte	0xf3
 3474 0187 01       		.uleb128 0x1
 3475 0188 50       		.byte	0x50
 3476 0189 9F       		.byte	0x9f
 3477 018a 00000000 		.4byte	0
 3478 018e 00000000 		.4byte	0
 3479              	.LLST13:
 3480 0192 00000000 		.4byte	.LVL19
 3481 0196 0C000000 		.4byte	.LVL21
 3482 019a 0100     		.2byte	0x1
 3483 019c 50       		.byte	0x50
 3484 019d 0C000000 		.4byte	.LVL21
 3485 01a1 40000000 		.4byte	.LVL29
 3486 01a5 0100     		.2byte	0x1
 3487 01a7 55       		.byte	0x55
 3488 01a8 40000000 		.4byte	.LVL29
 3489 01ac 44000000 		.4byte	.LFE236
 3490 01b0 0400     		.2byte	0x4
 3491 01b2 F3       		.byte	0xf3
 3492 01b3 01       		.uleb128 0x1
 3493 01b4 50       		.byte	0x50
 3494 01b5 9F       		.byte	0x9f
 3495 01b6 00000000 		.4byte	0
 3496 01ba 00000000 		.4byte	0
 3497              	.LLST14:
 3498 01be 06000000 		.4byte	.LVL20
 3499 01c2 36000000 		.4byte	.LVL27
 3500 01c6 0100     		.2byte	0x1
 3501 01c8 54       		.byte	0x54
 3502 01c9 00000000 		.4byte	0
 3503 01cd 00000000 		.4byte	0
 3504              	.LLST15:
 3505 01d1 36000000 		.4byte	.LVL27
 3506 01d5 40000000 		.4byte	.LVL29
 3507 01d9 0100     		.2byte	0x1
 3508 01db 54       		.byte	0x54
 3509 01dc 40000000 		.4byte	.LVL29
 3510 01e0 44000000 		.4byte	.LFE236
 3511 01e4 0100     		.2byte	0x1
 3512 01e6 50       		.byte	0x50
 3513 01e7 00000000 		.4byte	0
 3514 01eb 00000000 		.4byte	0
 3515              	.LLST16:
 3516 01ef 12000000 		.4byte	.LVL23
 3517 01f3 40000000 		.4byte	.LVL29
ARM GAS  /tmp/ccsN6z31.s 			page 63


 3518 01f7 0100     		.2byte	0x1
 3519 01f9 55       		.byte	0x55
 3520 01fa 40000000 		.4byte	.LVL29
 3521 01fe 44000000 		.4byte	.LFE236
 3522 0202 0400     		.2byte	0x4
 3523 0204 F3       		.byte	0xf3
 3524 0205 01       		.uleb128 0x1
 3525 0206 50       		.byte	0x50
 3526 0207 9F       		.byte	0x9f
 3527 0208 00000000 		.4byte	0
 3528 020c 00000000 		.4byte	0
 3529              	.LLST17:
 3530 0210 12000000 		.4byte	.LVL23
 3531 0214 36000000 		.4byte	.LVL27
 3532 0218 0100     		.2byte	0x1
 3533 021a 54       		.byte	0x54
 3534 021b 00000000 		.4byte	0
 3535 021f 00000000 		.4byte	0
 3536              	.LLST18:
 3537 0223 12000000 		.4byte	.LVL23
 3538 0227 16000000 		.4byte	.LVL24
 3539 022b 0100     		.2byte	0x1
 3540 022d 55       		.byte	0x55
 3541 022e 16000000 		.4byte	.LVL24
 3542 0232 33000000 		.4byte	.LVL26-1
 3543 0236 0100     		.2byte	0x1
 3544 0238 53       		.byte	0x53
 3545 0239 00000000 		.4byte	0
 3546 023d 00000000 		.4byte	0
 3547              	.LLST19:
 3548 0241 00000000 		.4byte	.LVL30
 3549 0245 0B000000 		.4byte	.LVL31-1
 3550 0249 0100     		.2byte	0x1
 3551 024b 50       		.byte	0x50
 3552 024c 0B000000 		.4byte	.LVL31-1
 3553 0250 14000000 		.4byte	.LFE235
 3554 0254 0400     		.2byte	0x4
 3555 0256 F3       		.byte	0xf3
 3556 0257 01       		.uleb128 0x1
 3557 0258 50       		.byte	0x50
 3558 0259 9F       		.byte	0x9f
 3559 025a 00000000 		.4byte	0
 3560 025e 00000000 		.4byte	0
 3561              	.LLST20:
 3562 0262 00000000 		.4byte	.LVL32
 3563 0266 0E000000 		.4byte	.LVL33
 3564 026a 0100     		.2byte	0x1
 3565 026c 50       		.byte	0x50
 3566 026d 0E000000 		.4byte	.LVL33
 3567 0271 4E000000 		.4byte	.LVL42
 3568 0275 0100     		.2byte	0x1
 3569 0277 56       		.byte	0x56
 3570 0278 4E000000 		.4byte	.LVL42
 3571 027c 54000000 		.4byte	.LFE238
 3572 0280 0400     		.2byte	0x4
 3573 0282 F3       		.byte	0xf3
 3574 0283 01       		.uleb128 0x1
ARM GAS  /tmp/ccsN6z31.s 			page 64


 3575 0284 50       		.byte	0x50
 3576 0285 9F       		.byte	0x9f
 3577 0286 00000000 		.4byte	0
 3578 028a 00000000 		.4byte	0
 3579              	.LLST21:
 3580 028e 00000000 		.4byte	.LVL32
 3581 0292 13000000 		.4byte	.LVL34-1
 3582 0296 0100     		.2byte	0x1
 3583 0298 51       		.byte	0x51
 3584 0299 13000000 		.4byte	.LVL34-1
 3585 029d 4E000000 		.4byte	.LVL42
 3586 02a1 0100     		.2byte	0x1
 3587 02a3 58       		.byte	0x58
 3588 02a4 4E000000 		.4byte	.LVL42
 3589 02a8 54000000 		.4byte	.LFE238
 3590 02ac 0400     		.2byte	0x4
 3591 02ae F3       		.byte	0xf3
 3592 02af 01       		.uleb128 0x1
 3593 02b0 51       		.byte	0x51
 3594 02b1 9F       		.byte	0x9f
 3595 02b2 00000000 		.4byte	0
 3596 02b6 00000000 		.4byte	0
 3597              	.LLST22:
 3598 02ba 40000000 		.4byte	.LVL39
 3599 02be 44000000 		.4byte	.LVL40
 3600 02c2 0100     		.2byte	0x1
 3601 02c4 50       		.byte	0x50
 3602 02c5 44000000 		.4byte	.LVL40
 3603 02c9 4E000000 		.4byte	.LVL42
 3604 02cd 0100     		.2byte	0x1
 3605 02cf 54       		.byte	0x54
 3606 02d0 4E000000 		.4byte	.LVL42
 3607 02d4 54000000 		.4byte	.LFE238
 3608 02d8 0100     		.2byte	0x1
 3609 02da 50       		.byte	0x50
 3610 02db 00000000 		.4byte	0
 3611 02df 00000000 		.4byte	0
 3612              	.LLST23:
 3613 02e3 1A000000 		.4byte	.LVL35
 3614 02e7 4E000000 		.4byte	.LVL42
 3615 02eb 0100     		.2byte	0x1
 3616 02ed 56       		.byte	0x56
 3617 02ee 4E000000 		.4byte	.LVL42
 3618 02f2 54000000 		.4byte	.LFE238
 3619 02f6 0400     		.2byte	0x4
 3620 02f8 F3       		.byte	0xf3
 3621 02f9 01       		.uleb128 0x1
 3622 02fa 50       		.byte	0x50
 3623 02fb 9F       		.byte	0x9f
 3624 02fc 00000000 		.4byte	0
 3625 0300 00000000 		.4byte	0
 3626              	.LLST24:
 3627 0304 1A000000 		.4byte	.LVL35
 3628 0308 4E000000 		.4byte	.LVL42
 3629 030c 0100     		.2byte	0x1
 3630 030e 55       		.byte	0x55
 3631 030f 00000000 		.4byte	0
ARM GAS  /tmp/ccsN6z31.s 			page 65


 3632 0313 00000000 		.4byte	0
 3633              	.LLST25:
 3634 0317 1A000000 		.4byte	.LVL35
 3635 031b 1C000000 		.4byte	.LVL36
 3636 031f 0100     		.2byte	0x1
 3637 0321 56       		.byte	0x56
 3638 0322 1C000000 		.4byte	.LVL36
 3639 0326 3B000000 		.4byte	.LVL38-1
 3640 032a 0100     		.2byte	0x1
 3641 032c 53       		.byte	0x53
 3642 032d 00000000 		.4byte	0
 3643 0331 00000000 		.4byte	0
 3644              	.LLST26:
 3645 0335 00000000 		.4byte	.LVL43
 3646 0339 0B000000 		.4byte	.LVL44-1
 3647 033d 0100     		.2byte	0x1
 3648 033f 50       		.byte	0x50
 3649 0340 0B000000 		.4byte	.LVL44-1
 3650 0344 14000000 		.4byte	.LFE237
 3651 0348 0400     		.2byte	0x4
 3652 034a F3       		.byte	0xf3
 3653 034b 01       		.uleb128 0x1
 3654 034c 50       		.byte	0x50
 3655 034d 9F       		.byte	0x9f
 3656 034e 00000000 		.4byte	0
 3657 0352 00000000 		.4byte	0
 3658              	.LLST27:
 3659 0356 00000000 		.4byte	.LVL43
 3660 035a 0B000000 		.4byte	.LVL44-1
 3661 035e 0100     		.2byte	0x1
 3662 0360 51       		.byte	0x51
 3663 0361 0B000000 		.4byte	.LVL44-1
 3664 0365 14000000 		.4byte	.LFE237
 3665 0369 0400     		.2byte	0x4
 3666 036b F3       		.byte	0xf3
 3667 036c 01       		.uleb128 0x1
 3668 036d 51       		.byte	0x51
 3669 036e 9F       		.byte	0x9f
 3670 036f 00000000 		.4byte	0
 3671 0373 00000000 		.4byte	0
 3672              		.section	.debug_aranges,"",%progbits
 3673 0000 5C000000 		.4byte	0x5c
 3674 0004 0200     		.2byte	0x2
 3675 0006 00000000 		.4byte	.Ldebug_info0
 3676 000a 04       		.byte	0x4
 3677 000b 00       		.byte	0
 3678 000c 0000     		.2byte	0
 3679 000e 0000     		.2byte	0
 3680 0010 00000000 		.4byte	.LFB230
 3681 0014 06000000 		.4byte	.LFE230-.LFB230
 3682 0018 00000000 		.4byte	.LFB231
 3683 001c 26000000 		.4byte	.LFE231-.LFB231
 3684 0020 00000000 		.4byte	.LFB232
 3685 0024 18000000 		.4byte	.LFE232-.LFB232
 3686 0028 00000000 		.4byte	.LFB234
 3687 002c 22000000 		.4byte	.LFE234-.LFB234
 3688 0030 00000000 		.4byte	.LFB233
ARM GAS  /tmp/ccsN6z31.s 			page 66


 3689 0034 18000000 		.4byte	.LFE233-.LFB233
 3690 0038 00000000 		.4byte	.LFB236
 3691 003c 44000000 		.4byte	.LFE236-.LFB236
 3692 0040 00000000 		.4byte	.LFB235
 3693 0044 14000000 		.4byte	.LFE235-.LFB235
 3694 0048 00000000 		.4byte	.LFB238
 3695 004c 54000000 		.4byte	.LFE238-.LFB238
 3696 0050 00000000 		.4byte	.LFB237
 3697 0054 14000000 		.4byte	.LFE237-.LFB237
 3698 0058 00000000 		.4byte	0
 3699 005c 00000000 		.4byte	0
 3700              		.section	.debug_ranges,"",%progbits
 3701              	.Ldebug_ranges0:
 3702 0000 06000000 		.4byte	.LBB101
 3703 0004 0A000000 		.4byte	.LBE101
 3704 0008 0C000000 		.4byte	.LBB104
 3705 000c 0E000000 		.4byte	.LBE104
 3706 0010 00000000 		.4byte	0
 3707 0014 00000000 		.4byte	0
 3708 0018 04000000 		.4byte	.LBB105
 3709 001c 06000000 		.4byte	.LBE105
 3710 0020 1A000000 		.4byte	.LBB110
 3711 0024 1C000000 		.4byte	.LBE110
 3712 0028 00000000 		.4byte	0
 3713 002c 00000000 		.4byte	0
 3714 0030 12000000 		.4byte	.LBB122
 3715 0034 2A000000 		.4byte	.LBE122
 3716 0038 2C000000 		.4byte	.LBB125
 3717 003c 30000000 		.4byte	.LBE125
 3718 0040 00000000 		.4byte	0
 3719 0044 00000000 		.4byte	0
 3720 0048 16000000 		.4byte	.LBB139
 3721 004c 18000000 		.4byte	.LBE139
 3722 0050 1C000000 		.4byte	.LBB144
 3723 0054 30000000 		.4byte	.LBE144
 3724 0058 32000000 		.4byte	.LBB145
 3725 005c 34000000 		.4byte	.LBE145
 3726 0060 36000000 		.4byte	.LBB146
 3727 0064 38000000 		.4byte	.LBE146
 3728 0068 00000000 		.4byte	0
 3729 006c 00000000 		.4byte	0
 3730 0070 00000000 		.4byte	.LFB230
 3731 0074 06000000 		.4byte	.LFE230
 3732 0078 00000000 		.4byte	.LFB231
 3733 007c 26000000 		.4byte	.LFE231
 3734 0080 00000000 		.4byte	.LFB232
 3735 0084 18000000 		.4byte	.LFE232
 3736 0088 00000000 		.4byte	.LFB234
 3737 008c 22000000 		.4byte	.LFE234
 3738 0090 00000000 		.4byte	.LFB233
 3739 0094 18000000 		.4byte	.LFE233
 3740 0098 00000000 		.4byte	.LFB236
 3741 009c 44000000 		.4byte	.LFE236
 3742 00a0 00000000 		.4byte	.LFB235
 3743 00a4 14000000 		.4byte	.LFE235
 3744 00a8 00000000 		.4byte	.LFB238
 3745 00ac 54000000 		.4byte	.LFE238
ARM GAS  /tmp/ccsN6z31.s 			page 67


 3746 00b0 00000000 		.4byte	.LFB237
 3747 00b4 14000000 		.4byte	.LFE237
 3748 00b8 00000000 		.4byte	0
 3749 00bc 00000000 		.4byte	0
 3750              		.section	.debug_line,"",%progbits
 3751              	.Ldebug_line0:
 3752 0000 20030000 		.section	.debug_str,"MS",%progbits,1
 3752      02004801 
 3752      00000201 
 3752      FB0E0D00 
 3752      01010101 
 3753              	.LASF45:
 3754 0000 72656164 		.ascii	"ready_list_t\000"
 3754      795F6C69 
 3754      73745F74 
 3754      00
 3755              	.LASF81:
 3756 000d 77747472 		.ascii	"wttrp\000"
 3756      7000
 3757              	.LASF78:
 3758 0013 7264796D 		.ascii	"rdymsg\000"
 3758      736700
 3759              	.LASF9:
 3760 001a 75696E74 		.ascii	"uint64_t\000"
 3760      36345F74 
 3760      00
 3761              	.LASF77:
 3762 0023 706F7274 		.ascii	"port_intctx\000"
 3762      5F696E74 
 3762      63747800 
 3763              	.LASF64:
 3764 002f 73797374 		.ascii	"system_debug_t\000"
 3764      656D5F64 
 3764      65627567 
 3764      5F7400
 3765              	.LASF100:
 3766 003e 71756575 		.ascii	"queue_init\000"
 3766      655F696E 
 3766      697400
 3767              	.LASF127:
 3768 0049 474E5520 		.ascii	"GNU C 4.9.2 -mcpu=cortex-m4 -mfloat-abi=soft -mfp16"
 3768      4320342E 
 3768      392E3220 
 3768      2D6D6370 
 3768      753D636F 
 3769 007c 2D666F72 		.ascii	"-format=none -mno-thumb-interwork -mthumb -mfpu=vfp"
 3769      6D61743D 
 3769      6E6F6E65 
 3769      202D6D6E 
 3769      6F2D7468 
 3770 00af 76332D64 		.ascii	"v3-d16 -mtls-dialect=gnu -ggdb -O2 -fomit-frame-poi"
 3770      3136202D 
 3770      6D746C73 
 3770      2D646961 
 3770      6C656374 
 3771 00e2 6E746572 		.ascii	"nter -falign-functions=16 -ffunction-sections -fdat"
 3771      202D6661 
ARM GAS  /tmp/ccsN6z31.s 			page 68


 3771      6C69676E 
 3771      2D66756E 
 3771      6374696F 
 3772 0115 612D7365 		.ascii	"a-sections -fno-common\000"
 3772      6374696F 
 3772      6E73202D 
 3772      666E6F2D 
 3772      636F6D6D 
 3773              	.LASF97:
 3774 012c 706F7274 		.ascii	"port_lock\000"
 3774      5F6C6F63 
 3774      6B00
 3775              	.LASF114:
 3776 0136 6368436F 		.ascii	"chCondBroadcastI\000"
 3776      6E644272 
 3776      6F616463 
 3776      61737449 
 3776      00
 3777              	.LASF10:
 3778 0147 6C6F6E67 		.ascii	"long long unsigned int\000"
 3778      206C6F6E 
 3778      6720756E 
 3778      7369676E 
 3778      65642069 
 3779              	.LASF79:
 3780 015e 65786974 		.ascii	"exitcode\000"
 3780      636F6465 
 3780      00
 3781              	.LASF71:
 3782 0167 6D61696E 		.ascii	"mainthread\000"
 3782      74687265 
 3782      616400
 3783              	.LASF61:
 3784 0172 76697274 		.ascii	"virtual_timers_list_t\000"
 3784      75616C5F 
 3784      74696D65 
 3784      72735F6C 
 3784      6973745F 
 3785              	.LASF121:
 3786 0188 49544D5F 		.ascii	"ITM_RxBuffer\000"
 3786      52784275 
 3786      66666572 
 3786      00
 3787              	.LASF44:
 3788 0195 63685F74 		.ascii	"ch_threads_queue\000"
 3788      68726561 
 3788      64735F71 
 3788      75657565 
 3788      00
 3789              	.LASF23:
 3790 01a6 705F7072 		.ascii	"p_prio\000"
 3790      696F00
 3791              	.LASF3:
 3792 01ad 6C6F6E67 		.ascii	"long long int\000"
 3792      206C6F6E 
 3792      6720696E 
 3792      7400
ARM GAS  /tmp/ccsN6z31.s 			page 69


 3793              	.LASF1:
 3794 01bb 7369676E 		.ascii	"signed char\000"
 3794      65642063 
 3794      68617200 
 3795              	.LASF96:
 3796 01c7 636F6E64 		.ascii	"condition_variable_t\000"
 3796      6974696F 
 3796      6E5F7661 
 3796      72696162 
 3796      6C655F74 
 3797              	.LASF38:
 3798 01dc 705F6D70 		.ascii	"p_mpool\000"
 3798      6F6F6C00 
 3799              	.LASF89:
 3800 01e4 6D5F7175 		.ascii	"m_queue\000"
 3800      65756500 
 3801              	.LASF70:
 3802 01ec 76746C69 		.ascii	"vtlist\000"
 3802      737400
 3803              	.LASF98:
 3804 01f3 706F7274 		.ascii	"port_unlock\000"
 3804      5F756E6C 
 3804      6F636B00 
 3805              	.LASF14:
 3806 01ff 74736C69 		.ascii	"tslices_t\000"
 3806      6365735F 
 3806      7400
 3807              	.LASF68:
 3808 0209 63685F73 		.ascii	"ch_system\000"
 3808      79737465 
 3808      6D00
 3809              	.LASF12:
 3810 0213 74737461 		.ascii	"tstate_t\000"
 3810      74655F74 
 3810      00
 3811              	.LASF104:
 3812 021c 71756575 		.ascii	"queue_notempty\000"
 3812      655F6E6F 
 3812      74656D70 
 3812      747900
 3813              	.LASF125:
 3814 022b 63684D74 		.ascii	"chMtxLockS\000"
 3814      784C6F63 
 3814      6B5300
 3815              	.LASF25:
 3816 0236 705F6E65 		.ascii	"p_newer\000"
 3816      77657200 
 3817              	.LASF86:
 3818 023e 735F7175 		.ascii	"s_queue\000"
 3818      65756500 
 3819              	.LASF131:
 3820 0246 63685363 		.ascii	"chSchRescheduleS\000"
 3820      68526573 
 3820      63686564 
 3820      756C6553 
 3820      00
 3821              	.LASF50:
ARM GAS  /tmp/ccsN6z31.s 			page 70


 3822 0257 725F6E65 		.ascii	"r_newer\000"
 3822      77657200 
 3823              	.LASF74:
 3824 025f 72656761 		.ascii	"regarm_t\000"
 3824      726D5F74 
 3824      00
 3825              	.LASF57:
 3826 0268 76745F70 		.ascii	"vt_prev\000"
 3826      72657600 
 3827              	.LASF65:
 3828 0270 63685F73 		.ascii	"ch_system_debug\000"
 3828      79737465 
 3828      6D5F6465 
 3828      62756700 
 3829              	.LASF93:
 3830 0280 6D757465 		.ascii	"mutex_t\000"
 3830      785F7400 
 3831              	.LASF101:
 3832 0288 76616C75 		.ascii	"value\000"
 3832      6500
 3833              	.LASF112:
 3834 028e 6368436F 		.ascii	"chCondSignal\000"
 3834      6E645369 
 3834      676E616C 
 3834      00
 3835              	.LASF72:
 3836 029b 69646C65 		.ascii	"idle_thread_wa\000"
 3836      5F746872 
 3836      6561645F 
 3836      776100
 3837              	.LASF18:
 3838 02aa 636E745F 		.ascii	"cnt_t\000"
 3838      7400
 3839              	.LASF123:
 3840 02b0 63684D74 		.ascii	"chMtxUnlockS\000"
 3840      78556E6C 
 3840      6F636B53 
 3840      00
 3841              	.LASF0:
 3842 02bd 756E7369 		.ascii	"unsigned int\000"
 3842      676E6564 
 3842      20696E74 
 3842      00
 3843              	.LASF56:
 3844 02ca 76745F6E 		.ascii	"vt_next\000"
 3844      65787400 
 3845              	.LASF82:
 3846 02d2 77747365 		.ascii	"wtsemp\000"
 3846      6D7000
 3847              	.LASF58:
 3848 02d9 76745F64 		.ascii	"vt_delta\000"
 3848      656C7461 
 3848      00
 3849              	.LASF33:
 3850 02e2 705F6D73 		.ascii	"p_msgqueue\000"
 3850      67717565 
 3850      756500
ARM GAS  /tmp/ccsN6z31.s 			page 71


 3851              	.LASF87:
 3852 02ed 735F636E 		.ascii	"s_cnt\000"
 3852      7400
 3853              	.LASF7:
 3854 02f3 73686F72 		.ascii	"short unsigned int\000"
 3854      7420756E 
 3854      7369676E 
 3854      65642069 
 3854      6E7400
 3855              	.LASF41:
 3856 0306 63685F74 		.ascii	"ch_thread\000"
 3856      68726561 
 3856      6400
 3857              	.LASF122:
 3858 0310 63685363 		.ascii	"chSchWakeupS\000"
 3858      6857616B 
 3858      65757053 
 3858      00
 3859              	.LASF16:
 3860 031d 6D73675F 		.ascii	"msg_t\000"
 3860      7400
 3861              	.LASF67:
 3862 0323 63685F73 		.ascii	"ch_system_t\000"
 3862      79737465 
 3862      6D5F7400 
 3863              	.LASF11:
 3864 032f 746D6F64 		.ascii	"tmode_t\000"
 3864      655F7400 
 3865              	.LASF46:
 3866 0337 63685F72 		.ascii	"ch_ready_list\000"
 3866      65616479 
 3866      5F6C6973 
 3866      7400
 3867              	.LASF17:
 3868 0345 6576656E 		.ascii	"eventmask_t\000"
 3868      746D6173 
 3868      6B5F7400 
 3869              	.LASF75:
 3870 0351 73746B61 		.ascii	"stkalign_t\000"
 3870      6C69676E 
 3870      5F7400
 3871              	.LASF40:
 3872 035c 74687265 		.ascii	"threads_list_t\000"
 3872      6164735F 
 3872      6C697374 
 3872      5F7400
 3873              	.LASF32:
 3874 036b 705F7761 		.ascii	"p_waiting\000"
 3874      6974696E 
 3874      6700
 3875              	.LASF73:
 3876 0375 73697A65 		.ascii	"sizetype\000"
 3876      74797065 
 3876      00
 3877              	.LASF39:
 3878 037e 74687265 		.ascii	"thread_reference_t\000"
 3878      61645F72 
ARM GAS  /tmp/ccsN6z31.s 			page 72


 3878      65666572 
 3878      656E6365 
 3878      5F7400
 3879              	.LASF62:
 3880 0391 63685F76 		.ascii	"ch_virtual_timers_list\000"
 3880      69727475 
 3880      616C5F74 
 3880      696D6572 
 3880      735F6C69 
 3881              	.LASF94:
 3882 03a8 636F6E64 		.ascii	"condition_variable\000"
 3882      6974696F 
 3882      6E5F7661 
 3882      72696162 
 3882      6C6500
 3883              	.LASF118:
 3884 03bb 6368436F 		.ascii	"chCondWaitTimeoutS\000"
 3884      6E645761 
 3884      69745469 
 3884      6D656F75 
 3884      745300
 3885              	.LASF26:
 3886 03ce 705F6F6C 		.ascii	"p_older\000"
 3886      64657200 
 3887              	.LASF49:
 3888 03d6 725F6374 		.ascii	"r_ctx\000"
 3888      7800
 3889              	.LASF128:
 3890 03dc 2E2E2F6F 		.ascii	"../os/rt/src/chcond.c\000"
 3890      732F7274 
 3890      2F737263 
 3890      2F636863 
 3890      6F6E642E 
 3891              	.LASF91:
 3892 03f2 6D5F6E65 		.ascii	"m_next\000"
 3892      787400
 3893              	.LASF119:
 3894 03f9 74696D65 		.ascii	"time\000"
 3894      00
 3895              	.LASF52:
 3896 03fe 725F6375 		.ascii	"r_current\000"
 3896      7272656E 
 3896      7400
 3897              	.LASF51:
 3898 0408 725F6F6C 		.ascii	"r_older\000"
 3898      64657200 
 3899              	.LASF115:
 3900 0410 6368436F 		.ascii	"chCondBroadcast\000"
 3900      6E644272 
 3900      6F616463 
 3900      61737400 
 3901              	.LASF13:
 3902 0420 74726566 		.ascii	"trefs_t\000"
 3902      735F7400 
 3903              	.LASF54:
 3904 0428 76697274 		.ascii	"virtual_timer_t\000"
 3904      75616C5F 
ARM GAS  /tmp/ccsN6z31.s 			page 73


 3904      74696D65 
 3904      725F7400 
 3905              	.LASF22:
 3906 0438 705F7072 		.ascii	"p_prev\000"
 3906      657600
 3907              	.LASF15:
 3908 043f 74707269 		.ascii	"tprio_t\000"
 3908      6F5F7400 
 3909              	.LASF113:
 3910 0447 6368436F 		.ascii	"chCondSignalI\000"
 3910      6E645369 
 3910      676E616C 
 3910      4900
 3911              	.LASF103:
 3912 0455 5F426F6F 		.ascii	"_Bool\000"
 3912      6C00
 3913              	.LASF4:
 3914 045b 696E7433 		.ascii	"int32_t\000"
 3914      325F7400 
 3915              	.LASF6:
 3916 0463 756E7369 		.ascii	"unsigned char\000"
 3916      676E6564 
 3916      20636861 
 3916      7200
 3917              	.LASF36:
 3918 0471 705F6D74 		.ascii	"p_mtxlist\000"
 3918      786C6973 
 3918      7400
 3919              	.LASF2:
 3920 047b 73686F72 		.ascii	"short int\000"
 3920      7420696E 
 3920      7400
 3921              	.LASF28:
 3922 0485 705F7374 		.ascii	"p_state\000"
 3922      61746500 
 3923              	.LASF31:
 3924 048d 705F7072 		.ascii	"p_preempt\000"
 3924      65656D70 
 3924      7400
 3925              	.LASF48:
 3926 0497 725F7072 		.ascii	"r_prio\000"
 3926      696F00
 3927              	.LASF84:
 3928 049e 65776D61 		.ascii	"ewmask\000"
 3928      736B00
 3929              	.LASF21:
 3930 04a5 705F6E65 		.ascii	"p_next\000"
 3930      787400
 3931              	.LASF29:
 3932 04ac 705F666C 		.ascii	"p_flags\000"
 3932      61677300 
 3933              	.LASF107:
 3934 04b4 5F5F6675 		.ascii	"__func__\000"
 3934      6E635F5F 
 3934      00
 3935              	.LASF102:
 3936 04bd 63685379 		.ascii	"chSysLock\000"
ARM GAS  /tmp/ccsN6z31.s 			page 74


 3936      734C6F63 
 3936      6B00
 3937              	.LASF55:
 3938 04c7 63685F76 		.ascii	"ch_virtual_timer\000"
 3938      69727475 
 3938      616C5F74 
 3938      696D6572 
 3938      00
 3939              	.LASF95:
 3940 04d8 635F7175 		.ascii	"c_queue\000"
 3940      65756500 
 3941              	.LASF85:
 3942 04e0 63685F73 		.ascii	"ch_semaphore\000"
 3942      656D6170 
 3942      686F7265 
 3942      00
 3943              	.LASF124:
 3944 04ed 63685363 		.ascii	"chSchGoSleepS\000"
 3944      68476F53 
 3944      6C656570 
 3944      5300
 3945              	.LASF35:
 3946 04fb 705F6570 		.ascii	"p_epending\000"
 3946      656E6469 
 3946      6E6700
 3947              	.LASF109:
 3948 0506 63684D74 		.ascii	"chMtxGetNextMutexS\000"
 3948      78476574 
 3948      4E657874 
 3948      4D757465 
 3948      785300
 3949              	.LASF8:
 3950 0519 75696E74 		.ascii	"uint32_t\000"
 3950      33325F74 
 3950      00
 3951              	.LASF83:
 3952 0522 77746D74 		.ascii	"wtmtxp\000"
 3952      787000
 3953              	.LASF47:
 3954 0529 725F7175 		.ascii	"r_queue\000"
 3954      65756500 
 3955              	.LASF130:
 3956 0531 63685363 		.ascii	"chSchReadyI\000"
 3956      68526561 
 3956      64794900 
 3957              	.LASF42:
 3958 053d 63685F74 		.ascii	"ch_threads_list\000"
 3958      68726561 
 3958      64735F6C 
 3958      69737400 
 3959              	.LASF92:
 3960 054d 63686172 		.ascii	"char\000"
 3960      00
 3961              	.LASF129:
 3962 0552 2F686F6D 		.ascii	"/home/bunnie/code/chibios-netvcr/netvcr\000"
 3962      652F6275 
 3962      6E6E6965 
ARM GAS  /tmp/ccsN6z31.s 			page 75


 3962      2F636F64 
 3962      652F6368 
 3963              	.LASF116:
 3964 057a 6368436F 		.ascii	"chCondWaitS\000"
 3964      6E645761 
 3964      69745300 
 3965              	.LASF111:
 3966 0586 6368436F 		.ascii	"chCondObjectInit\000"
 3966      6E644F62 
 3966      6A656374 
 3966      496E6974 
 3966      00
 3967              	.LASF105:
 3968 0597 71756575 		.ascii	"queue_fifo_remove\000"
 3968      655F6669 
 3968      666F5F72 
 3968      656D6F76 
 3968      6500
 3969              	.LASF19:
 3970 05a9 73797374 		.ascii	"systime_t\000"
 3970      696D655F 
 3970      7400
 3971              	.LASF37:
 3972 05b3 705F7265 		.ascii	"p_realprio\000"
 3972      616C7072 
 3972      696F00
 3973              	.LASF53:
 3974 05be 76746675 		.ascii	"vtfunc_t\000"
 3974      6E635F74 
 3974      00
 3975              	.LASF99:
 3976 05c7 5F5F7365 		.ascii	"__set_BASEPRI\000"
 3976      745F4241 
 3976      53455052 
 3976      4900
 3977              	.LASF66:
 3978 05d5 70616E69 		.ascii	"panic_msg\000"
 3978      635F6D73 
 3978      6700
 3979              	.LASF76:
 3980 05df 636F6E74 		.ascii	"context\000"
 3980      65787400 
 3981              	.LASF117:
 3982 05e7 6368436F 		.ascii	"chCondWait\000"
 3982      6E645761 
 3982      697400
 3983              	.LASF60:
 3984 05f2 76745F70 		.ascii	"vt_par\000"
 3984      617200
 3985              	.LASF43:
 3986 05f9 74687265 		.ascii	"threads_queue_t\000"
 3986      6164735F 
 3986      71756575 
 3986      655F7400 
 3987              	.LASF88:
 3988 0609 63685F6D 		.ascii	"ch_mutex\000"
 3988      75746578 
ARM GAS  /tmp/ccsN6z31.s 			page 76


 3988      00
 3989              	.LASF30:
 3990 0612 705F7265 		.ascii	"p_refs\000"
 3990      667300
 3991              	.LASF20:
 3992 0619 74687265 		.ascii	"thread_t\000"
 3992      61645F74 
 3992      00
 3993              	.LASF69:
 3994 0622 726C6973 		.ascii	"rlist\000"
 3994      7400
 3995              	.LASF108:
 3996 0628 63685468 		.ascii	"chThdGetSelfX\000"
 3996      64476574 
 3996      53656C66 
 3996      5800
 3997              	.LASF5:
 3998 0636 75696E74 		.ascii	"uint8_t\000"
 3998      385F7400 
 3999              	.LASF80:
 4000 063e 77746F62 		.ascii	"wtobjp\000"
 4000      6A7000
 4001              	.LASF27:
 4002 0645 705F6E61 		.ascii	"p_name\000"
 4002      6D6500
 4003              	.LASF120:
 4004 064c 6368436F 		.ascii	"chCondWaitTimeout\000"
 4004      6E645761 
 4004      69745469 
 4004      6D656F75 
 4004      7400
 4005              	.LASF63:
 4006 065e 76745F73 		.ascii	"vt_systime\000"
 4006      79737469 
 4006      6D6500
 4007              	.LASF126:
 4008 0669 63685363 		.ascii	"chSchGoSleepTimeoutS\000"
 4008      68476F53 
 4008      6C656570 
 4008      54696D65 
 4008      6F757453 
 4009              	.LASF106:
 4010 067e 63685379 		.ascii	"chSysUnlock\000"
 4010      73556E6C 
 4010      6F636B00 
 4011              	.LASF34:
 4012 068a 705F6D73 		.ascii	"p_msg\000"
 4012      6700
 4013              	.LASF110:
 4014 0690 71756575 		.ascii	"queue_prio_insert\000"
 4014      655F7072 
 4014      696F5F69 
 4014      6E736572 
 4014      7400
 4015              	.LASF90:
 4016 06a2 6D5F6F77 		.ascii	"m_owner\000"
 4016      6E657200 
ARM GAS  /tmp/ccsN6z31.s 			page 77


 4017              	.LASF24:
 4018 06aa 705F6374 		.ascii	"p_ctx\000"
 4018      7800
 4019              	.LASF59:
 4020 06b0 76745F66 		.ascii	"vt_func\000"
 4020      756E6300 
 4021              		.ident	"GCC: (Debian 4.9.2-10) 4.9.2"
 4022              		.section	.note.GNU-stack,"",%progbits
ARM GAS  /tmp/ccsN6z31.s 			page 78


DEFINED SYMBOLS
                            *ABS*:00000000 chcond.c
     /tmp/ccsN6z31.s:19     .text.chCondObjectInit:00000000 $t
     /tmp/ccsN6z31.s:25     .text.chCondObjectInit:00000000 chCondObjectInit
     /tmp/ccsN6z31.s:48     .text.chCondSignal:00000000 $t
     /tmp/ccsN6z31.s:54     .text.chCondSignal:00000000 chCondSignal
     /tmp/ccsN6z31.s:131    .text.chCondSignalI:00000000 $t
     /tmp/ccsN6z31.s:137    .text.chCondSignalI:00000000 chCondSignalI
     /tmp/ccsN6z31.s:186    .text.chCondBroadcastI:00000000 $t
     /tmp/ccsN6z31.s:192    .text.chCondBroadcastI:00000000 chCondBroadcastI
     /tmp/ccsN6z31.s:251    .text.chCondBroadcast:00000000 $t
     /tmp/ccsN6z31.s:257    .text.chCondBroadcast:00000000 chCondBroadcast
     /tmp/ccsN6z31.s:311    .text.chCondWaitS:00000000 $t
     /tmp/ccsN6z31.s:317    .text.chCondWaitS:00000000 chCondWaitS
     /tmp/ccsN6z31.s:407    .text.chCondWaitS:00000040 $d
     /tmp/ccsN6z31.s:412    .text.chCondWait:00000000 $t
     /tmp/ccsN6z31.s:418    .text.chCondWait:00000000 chCondWait
     /tmp/ccsN6z31.s:470    .text.chCondWaitTimeoutS:00000000 $t
     /tmp/ccsN6z31.s:476    .text.chCondWaitTimeoutS:00000000 chCondWaitTimeoutS
     /tmp/ccsN6z31.s:590    .text.chCondWaitTimeoutS:00000050 $d
     /tmp/ccsN6z31.s:595    .text.chCondWaitTimeout:00000000 $t
     /tmp/ccsN6z31.s:601    .text.chCondWaitTimeout:00000000 chCondWaitTimeout
                     .debug_frame:00000010 $d
     /tmp/ccsN6z31.s:411    .text.chCondWaitS:00000044 $t
     /tmp/ccsN6z31.s:594    .text.chCondWaitTimeoutS:00000054 $t

UNDEFINED SYMBOLS
chSchWakeupS
chSchReadyI
chSchRescheduleS
chMtxUnlockS
chSchGoSleepS
chMtxLockS
ch
chSchGoSleepTimeoutS
