ARM GAS  /tmp/ccsN6z31.s 			page 1


   1              		.syntax unified
   2              		.cpu cortex-m4
   3              		.fpu softvfp
   4              		.eabi_attribute 20, 1
   5              		.eabi_attribute 21, 1
   6              		.eabi_attribute 23, 3
   7              		.eabi_attribute 24, 1
   8              		.eabi_attribute 25, 1
   9              		.eabi_attribute 26, 2
  10              		.eabi_attribute 30, 2
  11              		.eabi_attribute 34, 1
  12              		.eabi_attribute 18, 4
  13              		.thumb
  14              		.file	"chcond.c"
  15              		.text
  16              	.Ltext0:
  17              		.cfi_sections	.debug_frame
  18              		.section	.text.chCondObjectInit,"ax",%progbits
  19              		.align	2
  20              		.p2align 4,,15
  21              		.global	chCondObjectInit
  22              		.thumb
  23              		.thumb_func
  24              		.type	chCondObjectInit, %function
  25              	chCondObjectInit:
  26              	.LFB230:
  27              		.file 1 "../os/rt/src/chcond.c"
  28              		.loc 1 75 0
  29              		.cfi_startproc
  30              		@ args = 0, pretend = 0, frame = 0
  31              		@ frame_needed = 0, uses_anonymous_args = 0
  32              		@ link register save eliminated.
  33              	.LVL0:
  34              	.LBB83:
  35              	.LBB84:
  36              		.file 2 "../os/rt/include/chschd.h"
  37              		.loc 2 604 0
  38 0000 0060     		str	r0, [r0]
  39              		.loc 2 605 0
  40 0002 4060     		str	r0, [r0, #4]
  41 0004 7047     		bx	lr
  42              	.LBE84:
  43              	.LBE83:
  44              		.cfi_endproc
  45              	.LFE230:
  46              		.size	chCondObjectInit, .-chCondObjectInit
  47 0006 00BFAFF3 		.section	.text.chCondSignal,"ax",%progbits
  47      0080AFF3 
  47      0080
  48              		.align	2
  49              		.p2align 4,,15
  50              		.global	chCondSignal
  51              		.thumb
  52              		.thumb_func
  53              		.type	chCondSignal, %function
  54              	chCondSignal:
  55              	.LFB231:
ARM GAS  /tmp/ccsN6z31.s 			page 2


  56              		.loc 1 89 0
  57              		.cfi_startproc
  58              		@ args = 0, pretend = 0, frame = 0
  59              		@ frame_needed = 0, uses_anonymous_args = 0
  60              	.LVL1:
  61 0000 08B5     		push	{r3, lr}
  62              		.cfi_def_cfa_offset 8
  63              		.cfi_offset 3, -8
  64              		.cfi_offset 14, -4
  65              	.LBB85:
  66              	.LBB86:
  67              	.LBB87:
  68              	.LBB88:
  69              		.file 3 "../os/ext/CMSIS/include/core_cmFunc.h"
  70              		.loc 3 548 0
  71 0002 2023     		movs	r3, #32
  72              	#APP
  73              	@ 548 "../os/ext/CMSIS/include/core_cmFunc.h" 1
  74 0004 83F31188 		MSR basepri, r3
  75              	@ 0 "" 2
  76              	.LVL2:
  77              		.thumb
  78              	.LBE88:
  79              	.LBE87:
  80              	.LBE86:
  81              	.LBE85:
  82              	.LBB89:
  83              	.LBB90:
  84              		.loc 2 631 0
  85 0008 0268     		ldr	r2, [r0]
  86              	.LBE90:
  87              	.LBE89:
  88              		.loc 1 94 0
  89 000a 8242     		cmp	r2, r0
  90 000c 07D0     		beq	.L3
  91              	.LBB91:
  92              	.LBB92:
  93              		.loc 2 674 0
  94 000e 1168     		ldr	r1, [r2]
  95 0010 0160     		str	r1, [r0]
  96 0012 0346     		mov	r3, r0
  97              	.LVL3:
  98              		.loc 2 675 0
  99 0014 4B60     		str	r3, [r1, #4]
 100              	.LBE92:
 101              	.LBE91:
 102              		.loc 1 95 0
 103 0016 1046     		mov	r0, r2
 104              	.LVL4:
 105 0018 0021     		movs	r1, #0
 106 001a FFF7FEFF 		bl	chSchWakeupS
 107              	.LVL5:
 108              	.L3:
 109              	.LBB93:
 110              	.LBB94:
 111              	.LBB95:
 112              	.LBB96:
ARM GAS  /tmp/ccsN6z31.s 			page 3


 113              	.LBB97:
 114              		.loc 3 548 0
 115 001e 0023     		movs	r3, #0
 116              	#APP
 117              	@ 548 "../os/ext/CMSIS/include/core_cmFunc.h" 1
 118 0020 83F31188 		MSR basepri, r3
 119              	@ 0 "" 2
 120              		.thumb
 121 0024 08BD     		pop	{r3, pc}
 122              	.LBE97:
 123              	.LBE96:
 124              	.LBE95:
 125              	.LBE94:
 126              	.LBE93:
 127              		.cfi_endproc
 128              	.LFE231:
 129              		.size	chCondSignal, .-chCondSignal
 130 0026 00BFAFF3 		.section	.text.chCondSignalI,"ax",%progbits
 130      0080AFF3 
 130      0080
 131              		.align	2
 132              		.p2align 4,,15
 133              		.global	chCondSignalI
 134              		.thumb
 135              		.thumb_func
 136              		.type	chCondSignalI, %function
 137              	chCondSignalI:
 138              	.LFB232:
 139              		.loc 1 111 0
 140              		.cfi_startproc
 141              		@ args = 0, pretend = 0, frame = 0
 142              		@ frame_needed = 0, uses_anonymous_args = 0
 143              		@ link register save eliminated.
 144              	.LVL6:
 145              	.LBB98:
 146              	.LBB99:
 147              		.loc 2 631 0
 148 0000 0368     		ldr	r3, [r0]
 149              	.LBE99:
 150              	.LBE98:
 151              		.loc 1 116 0
 152 0002 9842     		cmp	r0, r3
 153 0004 07D0     		beq	.L6
 154              	.LVL7:
 155              	.LBB100:
 156              	.LBB101:
 157              	.LBB102:
 158              		.loc 2 674 0
 159 0006 1A68     		ldr	r2, [r3]
 160 0008 0260     		str	r2, [r0]
 161              	.LBE102:
 162              	.LBE101:
 163              		.loc 1 118 0
 164 000a 0021     		movs	r1, #0
 165              	.LBB104:
 166              	.LBB103:
 167              		.loc 2 675 0
ARM GAS  /tmp/ccsN6z31.s 			page 4


 168 000c 5060     		str	r0, [r2, #4]
 169              	.LBE103:
 170              	.LBE104:
 171              		.loc 1 119 0
 172 000e 1846     		mov	r0, r3
 173              	.LVL8:
 174              		.loc 1 118 0
 175 0010 1962     		str	r1, [r3, #32]
 176              		.loc 1 119 0
 177 0012 FFF7FEBF 		b	chSchReadyI
 178              	.LVL9:
 179              	.L6:
 180 0016 7047     		bx	lr
 181              	.LBE100:
 182              		.cfi_endproc
 183              	.LFE232:
 184              		.size	chCondSignalI, .-chCondSignalI
 185 0018 AFF30080 		.section	.text.chCondBroadcastI,"ax",%progbits
 185      AFF30080 
 186              		.align	2
 187              		.p2align 4,,15
 188              		.global	chCondBroadcastI
 189              		.thumb
 190              		.thumb_func
 191              		.type	chCondBroadcastI, %function
 192              	chCondBroadcastI:
 193              	.LFB234:
 194              		.loc 1 149 0
 195              		.cfi_startproc
 196              		@ args = 0, pretend = 0, frame = 0
 197              		@ frame_needed = 0, uses_anonymous_args = 0
 198              	.LVL10:
 199 0000 38B5     		push	{r3, r4, r5, lr}
 200              		.cfi_def_cfa_offset 16
 201              		.cfi_offset 3, -16
 202              		.cfi_offset 4, -12
 203              		.cfi_offset 5, -8
 204              		.cfi_offset 14, -4
 205              		.loc 1 149 0
 206 0002 0446     		mov	r4, r0
 207              	.LVL11:
 208              	.LBB105:
 209              	.LBB106:
 210              		.loc 2 631 0
 211 0004 0068     		ldr	r0, [r0]
 212              	.LVL12:
 213              	.LBE106:
 214              	.LBE105:
 215              		.loc 1 157 0
 216 0006 8442     		cmp	r4, r0
 217 0008 0AD0     		beq	.L8
 218              		.loc 1 158 0
 219 000a 6FF00105 		mvn	r5, #1
 220              	.L10:
 221              	.LVL13:
 222              	.LBB108:
 223              	.LBB109:
ARM GAS  /tmp/ccsN6z31.s 			page 5


 224              		.loc 2 674 0
 225 000e 0368     		ldr	r3, [r0]
 226 0010 2360     		str	r3, [r4]
 227              		.loc 2 675 0
 228 0012 5C60     		str	r4, [r3, #4]
 229              	.LBE109:
 230              	.LBE108:
 231              		.loc 1 158 0
 232 0014 FFF7FEFF 		bl	chSchReadyI
 233              	.LVL14:
 234 0018 0562     		str	r5, [r0, #32]
 235              	.LBB110:
 236              	.LBB107:
 237              		.loc 2 631 0
 238 001a 2068     		ldr	r0, [r4]
 239              	.LBE107:
 240              	.LBE110:
 241              		.loc 1 157 0
 242 001c A042     		cmp	r0, r4
 243 001e F6D1     		bne	.L10
 244              	.LVL15:
 245              	.L8:
 246 0020 38BD     		pop	{r3, r4, r5, pc}
 247              		.cfi_endproc
 248              	.LFE234:
 249              		.size	chCondBroadcastI, .-chCondBroadcastI
 250 0022 00BFAFF3 		.section	.text.chCondBroadcast,"ax",%progbits
 250      0080AFF3 
 250      0080AFF3 
 250      0080
 251              		.align	2
 252              		.p2align 4,,15
 253              		.global	chCondBroadcast
 254              		.thumb
 255              		.thumb_func
 256              		.type	chCondBroadcast, %function
 257              	chCondBroadcast:
 258              	.LFB233:
 259              		.loc 1 130 0
 260              		.cfi_startproc
 261              		@ args = 0, pretend = 0, frame = 0
 262              		@ frame_needed = 0, uses_anonymous_args = 0
 263              	.LVL16:
 264 0000 08B5     		push	{r3, lr}
 265              		.cfi_def_cfa_offset 8
 266              		.cfi_offset 3, -8
 267              		.cfi_offset 14, -4
 268              	.LBB111:
 269              	.LBB112:
 270              	.LBB113:
 271              	.LBB114:
 272              		.loc 3 548 0
 273 0002 2023     		movs	r3, #32
 274              	#APP
 275              	@ 548 "../os/ext/CMSIS/include/core_cmFunc.h" 1
 276 0004 83F31188 		MSR basepri, r3
 277              	@ 0 "" 2
ARM GAS  /tmp/ccsN6z31.s 			page 6


 278              		.thumb
 279              	.LBE114:
 280              	.LBE113:
 281              	.LBE112:
 282              	.LBE111:
 283              		.loc 1 133 0
 284 0008 FFF7FEFF 		bl	chCondBroadcastI
 285              	.LVL17:
 286              		.loc 1 134 0
 287 000c FFF7FEFF 		bl	chSchRescheduleS
 288              	.LVL18:
 289              	.LBB115:
 290              	.LBB116:
 291              	.LBB117:
 292              	.LBB118:
 293              	.LBB119:
 294              		.loc 3 548 0
 295 0010 0023     		movs	r3, #0
 296              	#APP
 297              	@ 548 "../os/ext/CMSIS/include/core_cmFunc.h" 1
 298 0012 83F31188 		MSR basepri, r3
 299              	@ 0 "" 2
 300              		.thumb
 301 0016 08BD     		pop	{r3, pc}
 302              	.LBE119:
 303              	.LBE118:
 304              	.LBE117:
 305              	.LBE116:
 306              	.LBE115:
 307              		.cfi_endproc
 308              	.LFE233:
 309              		.size	chCondBroadcast, .-chCondBroadcast
 310 0018 AFF30080 		.section	.text.chCondWaitS,"ax",%progbits
 310      AFF30080 
 311              		.align	2
 312              		.p2align 4,,15
 313              		.global	chCondWaitS
 314              		.thumb
 315              		.thumb_func
 316              		.type	chCondWaitS, %function
 317              	chCondWaitS:
 318              	.LFB236:
 319              		.loc 1 205 0
 320              		.cfi_startproc
 321              		@ args = 0, pretend = 0, frame = 0
 322              		@ frame_needed = 0, uses_anonymous_args = 0
 323              	.LVL19:
 324              		.loc 1 206 0
 325 0000 0F4B     		ldr	r3, .L24
 326              		.loc 1 205 0
 327 0002 70B5     		push	{r4, r5, r6, lr}
 328              		.cfi_def_cfa_offset 16
 329              		.cfi_offset 4, -16
 330              		.cfi_offset 5, -12
 331              		.cfi_offset 6, -8
 332              		.cfi_offset 14, -4
 333              		.loc 1 206 0
ARM GAS  /tmp/ccsN6z31.s 			page 7


 334 0004 9C69     		ldr	r4, [r3, #24]
 335              	.LVL20:
 336              	.LBB120:
 337              	.LBB121:
 338              		.file 4 "../os/rt/include/chmtx.h"
 339              		.loc 4 146 0
 340 0006 A66B     		ldr	r6, [r4, #56]
 341              	.LBE121:
 342              	.LBE120:
 343              		.loc 1 205 0
 344 0008 0546     		mov	r5, r0
 345              		.loc 1 216 0
 346 000a 3046     		mov	r0, r6
 347              	.LVL21:
 348 000c FFF7FEFF 		bl	chMtxUnlockS
 349              	.LVL22:
 350              		.loc 1 220 0
 351 0010 2562     		str	r5, [r4, #32]
 352              	.LVL23:
 353              	.LBB122:
 354              	.LBB123:
 355              		.loc 2 653 0
 356 0012 2B46     		mov	r3, r5
 357 0014 03E0     		b	.L18
 358              	.LVL24:
 359              	.L23:
 360              		.loc 2 656 0
 361 0016 9968     		ldr	r1, [r3, #8]
 362 0018 A268     		ldr	r2, [r4, #8]
 363 001a 9142     		cmp	r1, r2
 364 001c 02D3     		bcc	.L19
 365              	.L18:
 366              		.loc 2 655 0
 367 001e 1B68     		ldr	r3, [r3]
 368              	.LVL25:
 369              		.loc 2 656 0
 370 0020 9D42     		cmp	r5, r3
 371 0022 F8D1     		bne	.L23
 372              	.L19:
 373              		.loc 2 658 0
 374 0024 5A68     		ldr	r2, [r3, #4]
 375 0026 6260     		str	r2, [r4, #4]
 376              		.loc 2 657 0
 377 0028 2360     		str	r3, [r4]
 378              	.LBE123:
 379              	.LBE122:
 380              		.loc 1 222 0
 381 002a 0720     		movs	r0, #7
 382              	.LBB125:
 383              	.LBB124:
 384              		.loc 2 659 0
 385 002c 1460     		str	r4, [r2]
 386              		.loc 2 660 0
 387 002e 5C60     		str	r4, [r3, #4]
 388              	.LBE124:
 389              	.LBE125:
 390              		.loc 1 222 0
ARM GAS  /tmp/ccsN6z31.s 			page 8


 391 0030 FFF7FEFF 		bl	chSchGoSleepS
 392              	.LVL26:
 393              		.loc 1 223 0
 394 0034 246A     		ldr	r4, [r4, #32]
 395              	.LVL27:
 396              		.loc 1 224 0
 397 0036 3046     		mov	r0, r6
 398 0038 FFF7FEFF 		bl	chMtxLockS
 399              	.LVL28:
 400              		.loc 1 227 0
 401 003c 2046     		mov	r0, r4
 402 003e 70BD     		pop	{r4, r5, r6, pc}
 403              	.LVL29:
 404              	.L25:
 405              		.align	2
 406              	.L24:
 407 0040 00000000 		.word	ch
 408              		.cfi_endproc
 409              	.LFE236:
 410              		.size	chCondWaitS, .-chCondWaitS
 411 0044 AFF30080 		.section	.text.chCondWait,"ax",%progbits
 411      AFF30080 
 411      AFF30080 
 412              		.align	2
 413              		.p2align 4,,15
 414              		.global	chCondWait
 415              		.thumb
 416              		.thumb_func
 417              		.type	chCondWait, %function
 418              	chCondWait:
 419              	.LFB235:
 420              		.loc 1 179 0
 421              		.cfi_startproc
 422              		@ args = 0, pretend = 0, frame = 0
 423              		@ frame_needed = 0, uses_anonymous_args = 0
 424              	.LVL30:
 425 0000 08B5     		push	{r3, lr}
 426              		.cfi_def_cfa_offset 8
 427              		.cfi_offset 3, -8
 428              		.cfi_offset 14, -4
 429              	.LBB126:
 430              	.LBB127:
 431              	.LBB128:
 432              	.LBB129:
 433              		.loc 3 548 0
 434 0002 2023     		movs	r3, #32
 435              	#APP
 436              	@ 548 "../os/ext/CMSIS/include/core_cmFunc.h" 1
 437 0004 83F31188 		MSR basepri, r3
 438              	@ 0 "" 2
 439              		.thumb
 440              	.LBE129:
 441              	.LBE128:
 442              	.LBE127:
 443              	.LBE126:
 444              		.loc 1 183 0
 445 0008 FFF7FEFF 		bl	chCondWaitS
ARM GAS  /tmp/ccsN6z31.s 			page 9


 446              	.LVL31:
 447              	.LBB130:
 448              	.LBB131:
 449              	.LBB132:
 450              	.LBB133:
 451              	.LBB134:
 452              		.loc 3 548 0
 453 000c 0023     		movs	r3, #0
 454              	#APP
 455              	@ 548 "../os/ext/CMSIS/include/core_cmFunc.h" 1
 456 000e 83F31188 		MSR basepri, r3
 457              	@ 0 "" 2
 458              		.thumb
 459              	.LBE134:
 460              	.LBE133:
 461              	.LBE132:
 462              	.LBE131:
 463              	.LBE130:
 464              		.loc 1 186 0
 465 0012 08BD     		pop	{r3, pc}
 466              		.cfi_endproc
 467              	.LFE235:
 468              		.size	chCondWait, .-chCondWait
 469 0014 AFF30080 		.section	.text.chCondWaitTimeoutS,"ax",%progbits
 469      AFF30080 
 469      AFF30080 
 470              		.align	2
 471              		.p2align 4,,15
 472              		.global	chCondWaitTimeoutS
 473              		.thumb
 474              		.thumb_func
 475              		.type	chCondWaitTimeoutS, %function
 476              	chCondWaitTimeoutS:
 477              	.LFB238:
 478              		.loc 1 296 0
 479              		.cfi_startproc
 480              		@ args = 0, pretend = 0, frame = 0
 481              		@ frame_needed = 0, uses_anonymous_args = 0
 482              	.LVL32:
 483 0000 2DE9F041 		push	{r4, r5, r6, r7, r8, lr}
 484              		.cfi_def_cfa_offset 24
 485              		.cfi_offset 4, -24
 486              		.cfi_offset 5, -20
 487              		.cfi_offset 6, -16
 488              		.cfi_offset 7, -12
 489              		.cfi_offset 8, -8
 490              		.cfi_offset 14, -4
 491              	.LBB135:
 492              	.LBB136:
 493              	.LBB137:
 494              	.LBB138:
 495              		.file 5 "../os/rt/include/chthreads.h"
 496              		.loc 5 176 0
 497 0004 124C     		ldr	r4, .L36
 498              	.LBE138:
 499              	.LBE137:
 500              		.loc 4 146 0
ARM GAS  /tmp/ccsN6z31.s 			page 10


 501 0006 A369     		ldr	r3, [r4, #24]
 502 0008 9F6B     		ldr	r7, [r3, #56]
 503              	.LBE136:
 504              	.LBE135:
 505              		.loc 1 296 0
 506 000a 0646     		mov	r6, r0
 507              		.loc 1 306 0
 508 000c 3846     		mov	r0, r7
 509              	.LVL33:
 510              		.loc 1 296 0
 511 000e 8846     		mov	r8, r1
 512              		.loc 1 306 0
 513 0010 FFF7FEFF 		bl	chMtxUnlockS
 514              	.LVL34:
 515              		.loc 1 310 0
 516 0014 A569     		ldr	r5, [r4, #24]
 517              	.LBB139:
 518              	.LBB140:
 519              		.loc 2 653 0
 520 0016 3346     		mov	r3, r6
 521              	.LBE140:
 522              	.LBE139:
 523              		.loc 1 310 0
 524 0018 2E62     		str	r6, [r5, #32]
 525              	.LVL35:
 526 001a 03E0     		b	.L32
 527              	.LVL36:
 528              	.L29:
 529              	.LBB144:
 530              	.LBB141:
 531              		.loc 2 656 0
 532 001c 9C68     		ldr	r4, [r3, #8]
 533 001e AA68     		ldr	r2, [r5, #8]
 534 0020 9442     		cmp	r4, r2
 535 0022 02D3     		bcc	.L33
 536              	.L32:
 537              		.loc 2 655 0
 538 0024 1B68     		ldr	r3, [r3]
 539              	.LVL37:
 540              		.loc 2 656 0
 541 0026 9E42     		cmp	r6, r3
 542 0028 F8D1     		bne	.L29
 543              	.L33:
 544              		.loc 2 658 0
 545 002a 5A68     		ldr	r2, [r3, #4]
 546 002c 6A60     		str	r2, [r5, #4]
 547              		.loc 2 657 0
 548 002e 2B60     		str	r3, [r5]
 549              	.LBE141:
 550              	.LBE144:
 551              		.loc 1 312 0
 552 0030 4146     		mov	r1, r8
 553              	.LBB145:
 554              	.LBB142:
 555              		.loc 2 659 0
 556 0032 1560     		str	r5, [r2]
 557              	.LBE142:
ARM GAS  /tmp/ccsN6z31.s 			page 11


 558              	.LBE145:
 559              		.loc 1 312 0
 560 0034 0720     		movs	r0, #7
 561              	.LBB146:
 562              	.LBB143:
 563              		.loc 2 660 0
 564 0036 5D60     		str	r5, [r3, #4]
 565              	.LBE143:
 566              	.LBE146:
 567              		.loc 1 312 0
 568 0038 FFF7FEFF 		bl	chSchGoSleepTimeoutS
 569              	.LVL38:
 570              		.loc 1 313 0
 571 003c 431C     		adds	r3, r0, #1
 572              		.loc 1 312 0
 573 003e 0446     		mov	r4, r0
 574              	.LVL39:
 575              		.loc 1 313 0
 576 0040 02D0     		beq	.L31
 577              		.loc 1 314 0
 578 0042 3846     		mov	r0, r7
 579              	.LVL40:
 580 0044 FFF7FEFF 		bl	chMtxLockS
 581              	.LVL41:
 582              	.L31:
 583              		.loc 1 318 0
 584 0048 2046     		mov	r0, r4
 585 004a BDE8F081 		pop	{r4, r5, r6, r7, r8, pc}
 586              	.LVL42:
 587              	.L37:
 588 004e 00BF     		.align	2
 589              	.L36:
 590 0050 00000000 		.word	ch
 591              		.cfi_endproc
 592              	.LFE238:
 593              		.size	chCondWaitTimeoutS, .-chCondWaitTimeoutS
 594 0054 AFF30080 		.section	.text.chCondWaitTimeout,"ax",%progbits
 594      AFF30080 
 594      AFF30080 
 595              		.align	2
 596              		.p2align 4,,15
 597              		.global	chCondWaitTimeout
 598              		.thumb
 599              		.thumb_func
 600              		.type	chCondWaitTimeout, %function
 601              	chCondWaitTimeout:
 602              	.LFB237:
 603              		.loc 1 258 0
 604              		.cfi_startproc
 605              		@ args = 0, pretend = 0, frame = 0
 606              		@ frame_needed = 0, uses_anonymous_args = 0
 607              	.LVL43:
 608 0000 08B5     		push	{r3, lr}
 609              		.cfi_def_cfa_offset 8
 610              		.cfi_offset 3, -8
 611              		.cfi_offset 14, -4
 612              	.LBB147:
ARM GAS  /tmp/ccsN6z31.s 			page 12


 613              	.LBB148:
 614              	.LBB149:
 615              	.LBB150:
 616              		.loc 3 548 0
 617 0002 2023     		movs	r3, #32
 618              	#APP
 619              	@ 548 "../os/ext/CMSIS/include/core_cmFunc.h" 1
 620 0004 83F31188 		MSR basepri, r3
 621              	@ 0 "" 2
 622              		.thumb
 623              	.LBE150:
 624              	.LBE149:
 625              	.LBE148:
 626              	.LBE147:
 627              		.loc 1 262 0
 628 0008 FFF7FEFF 		bl	chCondWaitTimeoutS
 629              	.LVL44:
 630              	.LBB151:
 631              	.LBB152:
 632              	.LBB153:
 633              	.LBB154:
 634              	.LBB155:
 635              		.loc 3 548 0
 636 000c 0023     		movs	r3, #0
 637              	#APP
 638              	@ 548 "../os/ext/CMSIS/include/core_cmFunc.h" 1
 639 000e 83F31188 		MSR basepri, r3
 640              	@ 0 "" 2
 641              		.thumb
 642              	.LBE155:
 643              	.LBE154:
 644              	.LBE153:
 645              	.LBE152:
 646              	.LBE151:
 647              		.loc 1 266 0
 648 0012 08BD     		pop	{r3, pc}
 649              		.cfi_endproc
 650              	.LFE237:
 651              		.size	chCondWaitTimeout, .-chCondWaitTimeout
 652 0014 AFF30080 		.text
 652      AFF30080 
 652      AFF30080 
 653              	.Letext0:
 654              		.file 6 "/usr/include/stdint.h"
 655              		.file 7 "../os/rt/ports/ARMCMx/compilers/GCC/chtypes.h"
 656              		.file 8 "../os/rt/include/chsystypes.h"
 657              		.file 9 "../os/rt/ports/ARMCMx/chcore.h"
 658              		.file 10 "../os/rt/ports/ARMCMx/chcore_v7m.h"
 659              		.file 11 "../os/rt/include/chsem.h"
 660              		.file 12 "../os/rt/include/chcond.h"
 661              		.file 13 "../os/rt/include/chsys.h"
 662              		.file 14 "../os/ext/CMSIS/include/core_cm4.h"
 4022              		.section	.note.GNU-stack,"",%progbits
ARM GAS  /tmp/ccsN6z31.s 			page 78

