ARM GAS  /tmp/ccc3A5Vh.s 			page 1


   1              		.syntax unified
   2              		.cpu cortex-m4
   3              		.fpu softvfp
   4              		.eabi_attribute 20, 1
   5              		.eabi_attribute 21, 1
   6              		.eabi_attribute 23, 3
   7              		.eabi_attribute 24, 1
   8              		.eabi_attribute 25, 1
   9              		.eabi_attribute 26, 2
  10              		.eabi_attribute 30, 2
  11              		.eabi_attribute 34, 1
  12              		.eabi_attribute 18, 4
  13              		.thumb
  14              		.file	"chdynamic.c"
  15              		.text
  16              	.Ltext0:
  17              		.cfi_sections	.debug_frame
  18              		.section	.text.chThdAddRef,"ax",%progbits
  19              		.align	2
  20              		.p2align 4,,15
  21              		.global	chThdAddRef
  22              		.thumb
  23              		.thumb_func
  24              		.type	chThdAddRef, %function
  25              	chThdAddRef:
  26              	.LFB230:
  27              		.file 1 "../os/rt/src/chdynamic.c"
  28              		.loc 1 68 0
  29              		.cfi_startproc
  30              		@ args = 0, pretend = 0, frame = 0
  31              		@ frame_needed = 0, uses_anonymous_args = 0
  32              		@ link register save eliminated.
  33              	.LVL0:
  34              	.LBB64:
  35              	.LBB65:
  36              	.LBB66:
  37              	.LBB67:
  38              		.file 2 "../os/ext/CMSIS/include/core_cmFunc.h"
  39              		.loc 2 548 0
  40 0000 2023     		movs	r3, #32
  41              	#APP
  42              	@ 548 "../os/ext/CMSIS/include/core_cmFunc.h" 1
  43 0002 83F31188 		MSR basepri, r3
  44              	@ 0 "" 2
  45              		.thumb
  46              	.LBE67:
  47              	.LBE66:
  48              	.LBE65:
  49              	.LBE64:
  50              		.loc 1 72 0
  51 0006 837F     		ldrb	r3, [r0, #30]	@ zero_extendqisi2
  52 0008 0133     		adds	r3, r3, #1
  53 000a 8377     		strb	r3, [r0, #30]
  54              	.LVL1:
  55              	.LBB68:
  56              	.LBB69:
  57              	.LBB70:
ARM GAS  /tmp/ccc3A5Vh.s 			page 2


  58              	.LBB71:
  59              	.LBB72:
  60              		.loc 2 548 0
  61 000c 0023     		movs	r3, #0
  62              	#APP
  63              	@ 548 "../os/ext/CMSIS/include/core_cmFunc.h" 1
  64 000e 83F31188 		MSR basepri, r3
  65              	@ 0 "" 2
  66              		.thumb
  67              	.LBE72:
  68              	.LBE71:
  69              	.LBE70:
  70              	.LBE69:
  71              	.LBE68:
  72              		.loc 1 76 0
  73 0012 7047     		bx	lr
  74              		.cfi_endproc
  75              	.LFE230:
  76              		.size	chThdAddRef, .-chThdAddRef
  77 0014 AFF30080 		.section	.text.chThdRelease,"ax",%progbits
  77      AFF30080 
  77      AFF30080 
  78              		.align	2
  79              		.p2align 4,,15
  80              		.global	chThdRelease
  81              		.thumb
  82              		.thumb_func
  83              		.type	chThdRelease, %function
  84              	chThdRelease:
  85              	.LFB231:
  86              		.loc 1 91 0
  87              		.cfi_startproc
  88              		@ args = 0, pretend = 0, frame = 0
  89              		@ frame_needed = 0, uses_anonymous_args = 0
  90              		@ link register save eliminated.
  91              	.LVL2:
  92 0000 0146     		mov	r1, r0
  93              	.LBB73:
  94              	.LBB74:
  95              	.LBB75:
  96              	.LBB76:
  97              		.loc 2 548 0
  98 0002 2023     		movs	r3, #32
  99              	#APP
 100              	@ 548 "../os/ext/CMSIS/include/core_cmFunc.h" 1
 101 0004 83F31188 		MSR basepri, r3
 102              	@ 0 "" 2
 103              		.thumb
 104              	.LBE76:
 105              	.LBE75:
 106              	.LBE74:
 107              	.LBE73:
 108              		.loc 1 96 0
 109 0008 837F     		ldrb	r3, [r0, #30]	@ zero_extendqisi2
 110 000a 013B     		subs	r3, r3, #1
 111 000c DBB2     		uxtb	r3, r3
 112 000e 8377     		strb	r3, [r0, #30]
ARM GAS  /tmp/ccc3A5Vh.s 			page 3


 113              	.LVL3:
 114              		.loc 1 102 0
 115 0010 13B9     		cbnz	r3, .L3
 116              		.loc 1 102 0 is_stmt 0 discriminator 1
 117 0012 027F     		ldrb	r2, [r0, #28]	@ zero_extendqisi2
 118 0014 0F2A     		cmp	r2, #15
 119 0016 03D0     		beq	.L8
 120              	.L3:
 121              	.LVL4:
 122              	.LBB77:
 123              	.LBB78:
 124              	.LBB79:
 125              	.LBB80:
 126              	.LBB81:
 127              		.loc 2 548 0 is_stmt 1
 128 0018 0023     		movs	r3, #0
 129              	.LVL5:
 130              	#APP
 131              	@ 548 "../os/ext/CMSIS/include/core_cmFunc.h" 1
 132 001a 83F31188 		MSR basepri, r3
 133              	@ 0 "" 2
 134              		.thumb
 135 001e 7047     		bx	lr
 136              	.LVL6:
 137              	.L8:
 138              	.LBE81:
 139              	.LBE80:
 140              	.LBE79:
 141              	.LBE78:
 142              	.LBE77:
 143              		.loc 1 103 0
 144 0020 427F     		ldrb	r2, [r0, #29]	@ zero_extendqisi2
 145 0022 02F00302 		and	r2, r2, #3
 146 0026 012A     		cmp	r2, #1
 147 0028 0BD0     		beq	.L4
 148 002a 022A     		cmp	r2, #2
 149 002c F4D1     		bne	.L3
 150              		.loc 1 116 0
 151 002e 4269     		ldr	r2, [r0, #20]
 152 0030 0069     		ldr	r0, [r0, #16]
 153              	.LVL7:
 154 0032 1061     		str	r0, [r2, #16]
 155 0034 0869     		ldr	r0, [r1, #16]
 156 0036 4261     		str	r2, [r0, #20]
 157              	.LVL8:
 158              	.LBB82:
 159              	.LBB83:
 160              	.LBB84:
 161              	.LBB85:
 162              	.LBB86:
 163              		.loc 2 548 0
 164              	#APP
 165              	@ 548 "../os/ext/CMSIS/include/core_cmFunc.h" 1
 166 0038 83F31188 		MSR basepri, r3
 167              	@ 0 "" 2
 168              		.thumb
 169              	.LBE86:
ARM GAS  /tmp/ccc3A5Vh.s 			page 4


 170              	.LBE85:
 171              	.LBE84:
 172              	.LBE83:
 173              	.LBE82:
 174              		.loc 1 119 0
 175 003c 086C     		ldr	r0, [r1, #64]
 176 003e FFF7FEBF 		b	chPoolFree
 177              	.LVL9:
 178              	.L4:
 179              		.loc 1 107 0
 180 0042 4269     		ldr	r2, [r0, #20]
 181              		.loc 1 91 0
 182 0044 10B4     		push	{r4}
 183              		.cfi_def_cfa_offset 4
 184              		.cfi_offset 4, -4
 185              		.loc 1 107 0
 186 0046 0469     		ldr	r4, [r0, #16]
 187 0048 1461     		str	r4, [r2, #16]
 188 004a 0169     		ldr	r1, [r0, #16]
 189 004c 4A61     		str	r2, [r1, #20]
 190              	.LVL10:
 191              	.LBB87:
 192              	.LBB88:
 193              	.LBB89:
 194              	.LBB90:
 195              	.LBB91:
 196              		.loc 2 548 0
 197              	#APP
 198              	@ 548 "../os/ext/CMSIS/include/core_cmFunc.h" 1
 199 004e 83F31188 		MSR basepri, r3
 200              	@ 0 "" 2
 201              		.thumb
 202              	.LBE91:
 203              	.LBE90:
 204              	.LBE89:
 205              	.LBE88:
 206              	.LBE87:
 207              		.loc 1 129 0
 208 0052 5DF8044B 		ldr	r4, [sp], #4
 209              		.cfi_restore 4
 210              		.cfi_def_cfa_offset 0
 211              		.loc 1 110 0
 212 0056 FFF7FEBF 		b	chHeapFree
 213              	.LVL11:
 214              		.cfi_endproc
 215              	.LFE231:
 216              		.size	chThdRelease, .-chThdRelease
 217 005a 00BFAFF3 		.section	.text.chThdCreateFromHeap,"ax",%progbits
 217      0080
 218              		.align	2
 219              		.p2align 4,,15
 220              		.global	chThdCreateFromHeap
 221              		.thumb
 222              		.thumb_func
 223              		.type	chThdCreateFromHeap, %function
 224              	chThdCreateFromHeap:
 225              	.LFB232:
ARM GAS  /tmp/ccc3A5Vh.s 			page 5


 226              		.loc 1 155 0
 227              		.cfi_startproc
 228              		@ args = 4, pretend = 0, frame = 0
 229              		@ frame_needed = 0, uses_anonymous_args = 0
 230              	.LVL12:
 231 0000 F0B5     		push	{r4, r5, r6, r7, lr}
 232              		.cfi_def_cfa_offset 20
 233              		.cfi_offset 4, -20
 234              		.cfi_offset 5, -16
 235              		.cfi_offset 6, -12
 236              		.cfi_offset 7, -8
 237              		.cfi_offset 14, -4
 238 0002 83B0     		sub	sp, sp, #12
 239              		.cfi_def_cfa_offset 32
 240              		.loc 1 155 0
 241 0004 1646     		mov	r6, r2
 242 0006 1D46     		mov	r5, r3
 243 0008 0F46     		mov	r7, r1
 244              		.loc 1 159 0
 245 000a FFF7FEFF 		bl	chHeapAlloc
 246              	.LVL13:
 247              		.loc 1 160 0
 248 000e 98B1     		cbz	r0, .L10
 249              	.LVL14:
 250              	.LBB92:
 251              	.LBB93:
 252              	.LBB94:
 253              	.LBB95:
 254              		.loc 2 548 0
 255 0010 2023     		movs	r3, #32
 256              	#APP
 257              	@ 548 "../os/ext/CMSIS/include/core_cmFunc.h" 1
 258 0012 83F31188 		MSR basepri, r3
 259              	@ 0 "" 2
 260              		.thumb
 261              	.LBE95:
 262              	.LBE94:
 263              	.LBE93:
 264              	.LBE92:
 265              		.loc 1 174 0
 266 0016 089B     		ldr	r3, [sp, #32]
 267 0018 0093     		str	r3, [sp]
 268 001a 3946     		mov	r1, r7
 269 001c 3246     		mov	r2, r6
 270 001e 2B46     		mov	r3, r5
 271 0020 FFF7FEFF 		bl	chThdCreateI
 272              	.LVL15:
 273              		.loc 1 175 0
 274 0024 0123     		movs	r3, #1
 275 0026 4377     		strb	r3, [r0, #29]
 276              		.loc 1 176 0
 277 0028 0021     		movs	r1, #0
 278              		.loc 1 174 0
 279 002a 0446     		mov	r4, r0
 280              	.LVL16:
 281              		.loc 1 176 0
 282 002c FFF7FEFF 		bl	chSchWakeupS
ARM GAS  /tmp/ccc3A5Vh.s 			page 6


 283              	.LVL17:
 284              	.LBB96:
 285              	.LBB97:
 286              	.LBB98:
 287              	.LBB99:
 288              	.LBB100:
 289              		.loc 2 548 0
 290 0030 0023     		movs	r3, #0
 291              	#APP
 292              	@ 548 "../os/ext/CMSIS/include/core_cmFunc.h" 1
 293 0032 83F31188 		MSR basepri, r3
 294              	@ 0 "" 2
 295              		.thumb
 296              	.LBE100:
 297              	.LBE99:
 298              	.LBE98:
 299              	.LBE97:
 300              	.LBE96:
 301              		.loc 1 179 0
 302 0036 2046     		mov	r0, r4
 303              	.LVL18:
 304              	.L10:
 305              		.loc 1 180 0
 306 0038 03B0     		add	sp, sp, #12
 307              		.cfi_def_cfa_offset 20
 308              		@ sp needed
 309 003a F0BD     		pop	{r4, r5, r6, r7, pc}
 310              		.cfi_endproc
 311              	.LFE232:
 312              		.size	chThdCreateFromHeap, .-chThdCreateFromHeap
 313 003c AFF30080 		.section	.text.chThdCreateFromMemoryPool,"ax",%progbits
 314              		.align	2
 315              		.p2align 4,,15
 316              		.global	chThdCreateFromMemoryPool
 317              		.thumb
 318              		.thumb_func
 319              		.type	chThdCreateFromMemoryPool, %function
 320              	chThdCreateFromMemoryPool:
 321              	.LFB233:
 322              		.loc 1 207 0
 323              		.cfi_startproc
 324              		@ args = 0, pretend = 0, frame = 0
 325              		@ frame_needed = 0, uses_anonymous_args = 0
 326              	.LVL19:
 327 0000 2DE9F041 		push	{r4, r5, r6, r7, r8, lr}
 328              		.cfi_def_cfa_offset 24
 329              		.cfi_offset 4, -24
 330              		.cfi_offset 5, -20
 331              		.cfi_offset 6, -16
 332              		.cfi_offset 7, -12
 333              		.cfi_offset 8, -8
 334              		.cfi_offset 14, -4
 335 0004 82B0     		sub	sp, sp, #8
 336              		.cfi_def_cfa_offset 32
 337              		.loc 1 207 0
 338 0006 0F46     		mov	r7, r1
 339 0008 1646     		mov	r6, r2
ARM GAS  /tmp/ccc3A5Vh.s 			page 7


 340 000a 9846     		mov	r8, r3
 341 000c 0546     		mov	r5, r0
 342              		.loc 1 213 0
 343 000e FFF7FEFF 		bl	chPoolAlloc
 344              	.LVL20:
 345              		.loc 1 214 0
 346 0012 A0B1     		cbz	r0, .L14
 347              	.LVL21:
 348              	.LBB101:
 349              	.LBB102:
 350              	.LBB103:
 351              	.LBB104:
 352              		.loc 2 548 0
 353 0014 2023     		movs	r3, #32
 354              	#APP
 355              	@ 548 "../os/ext/CMSIS/include/core_cmFunc.h" 1
 356 0016 83F31188 		MSR basepri, r3
 357              	@ 0 "" 2
 358              		.thumb
 359              	.LBE104:
 360              	.LBE103:
 361              	.LBE102:
 362              	.LBE101:
 363              		.loc 1 228 0
 364 001a 6968     		ldr	r1, [r5, #4]
 365 001c CDF80080 		str	r8, [sp]
 366 0020 3A46     		mov	r2, r7
 367 0022 3346     		mov	r3, r6
 368 0024 FFF7FEFF 		bl	chThdCreateI
 369              	.LVL22:
 370              		.loc 1 229 0
 371 0028 0223     		movs	r3, #2
 372 002a 4377     		strb	r3, [r0, #29]
 373              		.loc 1 230 0
 374 002c 0564     		str	r5, [r0, #64]
 375              		.loc 1 231 0
 376 002e 0021     		movs	r1, #0
 377              		.loc 1 228 0
 378 0030 0446     		mov	r4, r0
 379              	.LVL23:
 380              		.loc 1 231 0
 381 0032 FFF7FEFF 		bl	chSchWakeupS
 382              	.LVL24:
 383              	.LBB105:
 384              	.LBB106:
 385              	.LBB107:
 386              	.LBB108:
 387              	.LBB109:
 388              		.loc 2 548 0
 389 0036 0023     		movs	r3, #0
 390              	#APP
 391              	@ 548 "../os/ext/CMSIS/include/core_cmFunc.h" 1
 392 0038 83F31188 		MSR basepri, r3
 393              	@ 0 "" 2
 394              		.thumb
 395              	.LBE109:
 396              	.LBE108:
ARM GAS  /tmp/ccc3A5Vh.s 			page 8


 397              	.LBE107:
 398              	.LBE106:
 399              	.LBE105:
 400              		.loc 1 234 0
 401 003c 2046     		mov	r0, r4
 402              	.LVL25:
 403              	.L14:
 404              		.loc 1 235 0
 405 003e 02B0     		add	sp, sp, #8
 406              		.cfi_def_cfa_offset 24
 407              		@ sp needed
 408 0040 BDE8F081 		pop	{r4, r5, r6, r7, r8, pc}
 409              		.cfi_endproc
 410              	.LFE233:
 411              		.size	chThdCreateFromMemoryPool, .-chThdCreateFromMemoryPool
 412 0044 AFF30080 		.text
 412      AFF30080 
 412      AFF30080 
 413              	.Letext0:
 414              		.file 3 "/usr/lib/gcc/arm-linux-gnueabihf/4.9/include/stddef.h"
 415              		.file 4 "/usr/include/stdint.h"
 416              		.file 5 "../os/rt/ports/ARMCMx/compilers/GCC/chtypes.h"
 417              		.file 6 "../os/rt/include/chsystypes.h"
 418              		.file 7 "../os/rt/include/chschd.h"
 419              		.file 8 "../os/rt/ports/ARMCMx/chcore.h"
 420              		.file 9 "../os/rt/ports/ARMCMx/chcore_v7m.h"
 421              		.file 10 "../os/rt/include/chsem.h"
 422              		.file 11 "../os/rt/include/chmtx.h"
 423              		.file 12 "../os/rt/include/chthreads.h"
 424              		.file 13 "../os/rt/include/chmemcore.h"
 425              		.file 14 "../os/rt/include/chheap.h"
 426              		.file 15 "../os/rt/include/chmempools.h"
 427              		.file 16 "../os/rt/include/chsys.h"
 428              		.file 17 "../os/ext/CMSIS/include/core_cm4.h"
 429              		.section	.debug_info,"",%progbits
 430              	.Ldebug_info0:
 431 0000 270D0000 		.4byte	0xd27
 432 0004 0400     		.2byte	0x4
 433 0006 00000000 		.4byte	.Ldebug_abbrev0
 434 000a 04       		.byte	0x4
 435 000b 01       		.uleb128 0x1
 436 000c A6010000 		.4byte	.LASF131
 437 0010 01       		.byte	0x1
 438 0011 C9000000 		.4byte	.LASF132
 439 0015 26040000 		.4byte	.LASF133
 440 0019 00000000 		.4byte	.Ldebug_ranges0+0
 441 001d 00000000 		.4byte	0
 442 0021 00000000 		.4byte	.Ldebug_line0
 443 0025 02       		.uleb128 0x2
 444 0026 04       		.byte	0x4
 445 0027 05       		.byte	0x5
 446 0028 696E7400 		.ascii	"int\000"
 447 002c 03       		.uleb128 0x3
 448 002d D5020000 		.4byte	.LASF3
 449 0031 03       		.byte	0x3
 450 0032 D4       		.byte	0xd4
 451 0033 37000000 		.4byte	0x37
ARM GAS  /tmp/ccc3A5Vh.s 			page 9


 452 0037 04       		.uleb128 0x4
 453 0038 04       		.byte	0x4
 454 0039 07       		.byte	0x7
 455 003a 84000000 		.4byte	.LASF0
 456 003e 04       		.uleb128 0x4
 457 003f 01       		.byte	0x1
 458 0040 06       		.byte	0x6
 459 0041 08060000 		.4byte	.LASF1
 460 0045 04       		.uleb128 0x4
 461 0046 02       		.byte	0x2
 462 0047 05       		.byte	0x5
 463 0048 9D040000 		.4byte	.LASF2
 464 004c 03       		.uleb128 0x3
 465 004d 5B050000 		.4byte	.LASF4
 466 0051 04       		.byte	0x4
 467 0052 26       		.byte	0x26
 468 0053 25000000 		.4byte	0x25
 469 0057 04       		.uleb128 0x4
 470 0058 08       		.byte	0x8
 471 0059 05       		.byte	0x5
 472 005a C0030000 		.4byte	.LASF5
 473 005e 03       		.uleb128 0x3
 474 005f 73030000 		.4byte	.LASF6
 475 0063 04       		.byte	0x4
 476 0064 30       		.byte	0x30
 477 0065 69000000 		.4byte	0x69
 478 0069 04       		.uleb128 0x4
 479 006a 01       		.byte	0x1
 480 006b 08       		.byte	0x8
 481 006c 93050000 		.4byte	.LASF7
 482 0070 04       		.uleb128 0x4
 483 0071 02       		.byte	0x2
 484 0072 07       		.byte	0x7
 485 0073 14060000 		.4byte	.LASF8
 486 0077 03       		.uleb128 0x3
 487 0078 36010000 		.4byte	.LASF9
 488 007c 04       		.byte	0x4
 489 007d 33       		.byte	0x33
 490 007e 37000000 		.4byte	0x37
 491 0082 03       		.uleb128 0x3
 492 0083 08050000 		.4byte	.LASF10
 493 0087 04       		.byte	0x4
 494 0088 3A       		.byte	0x3a
 495 0089 8D000000 		.4byte	0x8d
 496 008d 04       		.uleb128 0x4
 497 008e 08       		.byte	0x8
 498 008f 07       		.byte	0x7
 499 0090 87010000 		.4byte	.LASF11
 500 0094 03       		.uleb128 0x3
 501 0095 7A040000 		.4byte	.LASF12
 502 0099 05       		.byte	0x5
 503 009a 3C       		.byte	0x3c
 504 009b 5E000000 		.4byte	0x5e
 505 009f 03       		.uleb128 0x3
 506 00a0 5A030000 		.4byte	.LASF13
 507 00a4 05       		.byte	0x5
 508 00a5 3D       		.byte	0x3d
ARM GAS  /tmp/ccc3A5Vh.s 			page 10


 509 00a6 5E000000 		.4byte	0x5e
 510 00aa 03       		.uleb128 0x3
 511 00ab 46050000 		.4byte	.LASF14
 512 00af 05       		.byte	0x5
 513 00b0 3E       		.byte	0x3e
 514 00b1 5E000000 		.4byte	0x5e
 515 00b5 03       		.uleb128 0x3
 516 00b6 14040000 		.4byte	.LASF15
 517 00ba 05       		.byte	0x5
 518 00bb 3F       		.byte	0x3f
 519 00bc 5E000000 		.4byte	0x5e
 520 00c0 03       		.uleb128 0x3
 521 00c1 66010000 		.4byte	.LASF16
 522 00c5 05       		.byte	0x5
 523 00c6 40       		.byte	0x40
 524 00c7 77000000 		.4byte	0x77
 525 00cb 03       		.uleb128 0x3
 526 00cc DE030000 		.4byte	.LASF17
 527 00d0 05       		.byte	0x5
 528 00d1 41       		.byte	0x41
 529 00d2 4C000000 		.4byte	0x4c
 530 00d6 03       		.uleb128 0x3
 531 00d7 3F010000 		.4byte	.LASF18
 532 00db 05       		.byte	0x5
 533 00dc 43       		.byte	0x43
 534 00dd 77000000 		.4byte	0x77
 535 00e1 03       		.uleb128 0x3
 536 00e2 89020000 		.4byte	.LASF19
 537 00e6 05       		.byte	0x5
 538 00e7 45       		.byte	0x45
 539 00e8 4C000000 		.4byte	0x4c
 540 00ec 03       		.uleb128 0x3
 541 00ed 54000000 		.4byte	.LASF20
 542 00f1 06       		.byte	0x6
 543 00f2 33       		.byte	0x33
 544 00f3 77000000 		.4byte	0x77
 545 00f7 03       		.uleb128 0x3
 546 00f8 C0020000 		.4byte	.LASF21
 547 00fc 06       		.byte	0x6
 548 00fd 3F       		.byte	0x3f
 549 00fe 02010000 		.4byte	0x102
 550 0102 05       		.uleb128 0x5
 551 0103 A1030000 		.4byte	.LASF42
 552 0107 44       		.byte	0x44
 553 0108 07       		.byte	0x7
 554 0109 C2       		.byte	0xc2
 555 010a FB010000 		.4byte	0x1fb
 556 010e 06       		.uleb128 0x6
 557 010f 01050000 		.4byte	.LASF22
 558 0113 07       		.byte	0x7
 559 0114 C3       		.byte	0xc3
 560 0115 06020000 		.4byte	0x206
 561 0119 00       		.byte	0
 562 011a 06       		.uleb128 0x6
 563 011b 36050000 		.4byte	.LASF23
 564 011f 07       		.byte	0x7
 565 0120 C5       		.byte	0xc5
ARM GAS  /tmp/ccc3A5Vh.s 			page 11


 566 0121 06020000 		.4byte	0x206
 567 0125 04       		.byte	0x4
 568 0126 06       		.uleb128 0x6
 569 0127 4D000000 		.4byte	.LASF24
 570 012b 07       		.byte	0x7
 571 012c C7       		.byte	0xc7
 572 012d C0000000 		.4byte	0xc0
 573 0131 08       		.byte	0x8
 574 0132 06       		.uleb128 0x6
 575 0133 11050000 		.4byte	.LASF25
 576 0137 07       		.byte	0x7
 577 0138 C8       		.byte	0xc8
 578 0139 2A040000 		.4byte	0x42a
 579 013d 0C       		.byte	0xc
 580 013e 06       		.uleb128 0x6
 581 013f 9B020000 		.4byte	.LASF26
 582 0143 07       		.byte	0x7
 583 0144 CA       		.byte	0xca
 584 0145 06020000 		.4byte	0x206
 585 0149 10       		.byte	0x10
 586 014a 06       		.uleb128 0x6
 587 014b 63030000 		.4byte	.LASF27
 588 014f 07       		.byte	0x7
 589 0150 CB       		.byte	0xcb
 590 0151 06020000 		.4byte	0x206
 591 0155 14       		.byte	0x14
 592 0156 06       		.uleb128 0x6
 593 0157 F6020000 		.4byte	.LASF28
 594 015b 07       		.byte	0x7
 595 015c D2       		.byte	0xd2
 596 015d 89050000 		.4byte	0x589
 597 0161 18       		.byte	0x18
 598 0162 06       		.uleb128 0x6
 599 0163 6B030000 		.4byte	.LASF29
 600 0167 07       		.byte	0x7
 601 0168 DD       		.byte	0xdd
 602 0169 9F000000 		.4byte	0x9f
 603 016d 1C       		.byte	0x1c
 604 016e 06       		.uleb128 0x6
 605 016f F7030000 		.4byte	.LASF30
 606 0173 07       		.byte	0x7
 607 0174 E1       		.byte	0xe1
 608 0175 94000000 		.4byte	0x94
 609 0179 1D       		.byte	0x1d
 610 017a 06       		.uleb128 0x6
 611 017b B7050000 		.4byte	.LASF31
 612 017f 07       		.byte	0x7
 613 0180 E6       		.byte	0xe6
 614 0181 AA000000 		.4byte	0xaa
 615 0185 1E       		.byte	0x1e
 616 0186 06       		.uleb128 0x6
 617 0187 BE050000 		.4byte	.LASF32
 618 018b 07       		.byte	0x7
 619 018c EC       		.byte	0xec
 620 018d B5000000 		.4byte	0xb5
 621 0191 1F       		.byte	0x1f
 622 0192 07       		.uleb128 0x7
ARM GAS  /tmp/ccc3A5Vh.s 			page 12


 623 0193 705F7500 		.ascii	"p_u\000"
 624 0197 07       		.byte	0x7
 625 0198 3101     		.2byte	0x131
 626 019a C4040000 		.4byte	0x4c4
 627 019e 20       		.byte	0x20
 628 019f 08       		.uleb128 0x8
 629 01a0 20000000 		.4byte	.LASF33
 630 01a4 07       		.byte	0x7
 631 01a5 3601     		.2byte	0x136
 632 01a7 0C020000 		.4byte	0x20c
 633 01ab 24       		.byte	0x24
 634 01ac 08       		.uleb128 0x8
 635 01ad 79000000 		.4byte	.LASF34
 636 01b1 07       		.byte	0x7
 637 01b2 3C01     		.2byte	0x13c
 638 01b4 30020000 		.4byte	0x230
 639 01b8 28       		.byte	0x28
 640 01b9 08       		.uleb128 0x8
 641 01ba 74040000 		.4byte	.LASF35
 642 01be 07       		.byte	0x7
 643 01bf 4001     		.2byte	0x140
 644 01c1 CB000000 		.4byte	0xcb
 645 01c5 30       		.byte	0x30
 646 01c6 08       		.uleb128 0x8
 647 01c7 BD040000 		.4byte	.LASF36
 648 01cb 07       		.byte	0x7
 649 01cc 4601     		.2byte	0x146
 650 01ce D6000000 		.4byte	0xd6
 651 01d2 34       		.byte	0x34
 652 01d3 08       		.uleb128 0x8
 653 01d4 97030000 		.4byte	.LASF37
 654 01d8 07       		.byte	0x7
 655 01d9 4D01     		.2byte	0x14d
 656 01db 83050000 		.4byte	0x583
 657 01df 38       		.byte	0x38
 658 01e0 08       		.uleb128 0x8
 659 01e1 8D040000 		.4byte	.LASF38
 660 01e5 07       		.byte	0x7
 661 01e6 5101     		.2byte	0x151
 662 01e8 C0000000 		.4byte	0xc0
 663 01ec 3C       		.byte	0x3c
 664 01ed 08       		.uleb128 0x8
 665 01ee 8F030000 		.4byte	.LASF39
 666 01f2 07       		.byte	0x7
 667 01f3 5801     		.2byte	0x158
 668 01f5 E3020000 		.4byte	0x2e3
 669 01f9 40       		.byte	0x40
 670 01fa 00       		.byte	0
 671 01fb 03       		.uleb128 0x3
 672 01fc 2D030000 		.4byte	.LASF40
 673 0200 06       		.byte	0x6
 674 0201 44       		.byte	0x44
 675 0202 06020000 		.4byte	0x206
 676 0206 09       		.uleb128 0x9
 677 0207 04       		.byte	0x4
 678 0208 F7000000 		.4byte	0xf7
 679 020c 03       		.uleb128 0x3
ARM GAS  /tmp/ccc3A5Vh.s 			page 13


 680 020d 96000000 		.4byte	.LASF41
 681 0211 06       		.byte	0x6
 682 0212 49       		.byte	0x49
 683 0213 17020000 		.4byte	0x217
 684 0217 05       		.uleb128 0x5
 685 0218 00000000 		.4byte	.LASF43
 686 021c 04       		.byte	0x4
 687 021d 07       		.byte	0x7
 688 021e B0       		.byte	0xb0
 689 021f 30020000 		.4byte	0x230
 690 0223 06       		.uleb128 0x6
 691 0224 01050000 		.4byte	.LASF22
 692 0228 07       		.byte	0x7
 693 0229 B1       		.byte	0xb1
 694 022a 06020000 		.4byte	0x206
 695 022e 00       		.byte	0
 696 022f 00       		.byte	0
 697 0230 03       		.uleb128 0x3
 698 0231 10000000 		.4byte	.LASF44
 699 0235 06       		.byte	0x6
 700 0236 50       		.byte	0x50
 701 0237 3B020000 		.4byte	0x23b
 702 023b 05       		.uleb128 0x5
 703 023c 06010000 		.4byte	.LASF45
 704 0240 08       		.byte	0x8
 705 0241 07       		.byte	0x7
 706 0242 B7       		.byte	0xb7
 707 0243 60020000 		.4byte	0x260
 708 0247 06       		.uleb128 0x6
 709 0248 01050000 		.4byte	.LASF22
 710 024c 07       		.byte	0x7
 711 024d B8       		.byte	0xb8
 712 024e 06020000 		.4byte	0x206
 713 0252 00       		.byte	0
 714 0253 06       		.uleb128 0x6
 715 0254 36050000 		.4byte	.LASF23
 716 0258 07       		.byte	0x7
 717 0259 B9       		.byte	0xb9
 718 025a 06020000 		.4byte	0x206
 719 025e 04       		.byte	0x4
 720 025f 00       		.byte	0
 721 0260 03       		.uleb128 0x3
 722 0261 4E050000 		.4byte	.LASF46
 723 0265 06       		.byte	0x6
 724 0266 57       		.byte	0x57
 725 0267 6B020000 		.4byte	0x26b
 726 026b 0A       		.uleb128 0xa
 727 026c E2000000 		.4byte	.LASF47
 728 0270 1C       		.byte	0x1c
 729 0271 07       		.byte	0x7
 730 0272 9001     		.2byte	0x190
 731 0274 C7020000 		.4byte	0x2c7
 732 0278 08       		.uleb128 0x8
 733 0279 CE030000 		.4byte	.LASF48
 734 027d 07       		.byte	0x7
 735 027e 9101     		.2byte	0x191
 736 0280 30020000 		.4byte	0x230
ARM GAS  /tmp/ccc3A5Vh.s 			page 14


 737 0284 00       		.byte	0
 738 0285 08       		.uleb128 0x8
 739 0286 4B010000 		.4byte	.LASF49
 740 028a 07       		.byte	0x7
 741 028b 9201     		.2byte	0x192
 742 028d C0000000 		.4byte	0xc0
 743 0291 08       		.byte	0x8
 744 0292 08       		.uleb128 0x8
 745 0293 27060000 		.4byte	.LASF50
 746 0297 07       		.byte	0x7
 747 0298 9401     		.2byte	0x194
 748 029a 2A040000 		.4byte	0x42a
 749 029e 0C       		.byte	0xc
 750 029f 08       		.uleb128 0x8
 751 02a0 D6030000 		.4byte	.LASF51
 752 02a4 07       		.byte	0x7
 753 02a5 9701     		.2byte	0x197
 754 02a7 06020000 		.4byte	0x206
 755 02ab 10       		.byte	0x10
 756 02ac 08       		.uleb128 0x8
 757 02ad 1E040000 		.4byte	.LASF52
 758 02b1 07       		.byte	0x7
 759 02b2 9801     		.2byte	0x198
 760 02b4 06020000 		.4byte	0x206
 761 02b8 14       		.byte	0x14
 762 02b9 08       		.uleb128 0x8
 763 02ba B3040000 		.4byte	.LASF53
 764 02be 07       		.byte	0x7
 765 02bf 9B01     		.2byte	0x19b
 766 02c1 06020000 		.4byte	0x206
 767 02c5 18       		.byte	0x18
 768 02c6 00       		.byte	0
 769 02c7 03       		.uleb128 0x3
 770 02c8 17010000 		.4byte	.LASF54
 771 02cc 06       		.byte	0x6
 772 02cd 5C       		.byte	0x5c
 773 02ce D2020000 		.4byte	0x2d2
 774 02d2 09       		.uleb128 0x9
 775 02d3 04       		.byte	0x4
 776 02d4 D8020000 		.4byte	0x2d8
 777 02d8 0B       		.uleb128 0xb
 778 02d9 E3020000 		.4byte	0x2e3
 779 02dd 0C       		.uleb128 0xc
 780 02de E3020000 		.4byte	0x2e3
 781 02e2 00       		.byte	0
 782 02e3 0D       		.uleb128 0xd
 783 02e4 04       		.byte	0x4
 784 02e5 03       		.uleb128 0x3
 785 02e6 FF030000 		.4byte	.LASF55
 786 02ea 06       		.byte	0x6
 787 02eb 61       		.byte	0x61
 788 02ec F0020000 		.4byte	0x2f0
 789 02f0 0A       		.uleb128 0xa
 790 02f1 6E010000 		.4byte	.LASF56
 791 02f5 14       		.byte	0x14
 792 02f6 07       		.byte	0x7
 793 02f7 6B01     		.2byte	0x16b
ARM GAS  /tmp/ccc3A5Vh.s 			page 15


 794 02f9 3F030000 		.4byte	0x33f
 795 02fd 08       		.uleb128 0x8
 796 02fe E1050000 		.4byte	.LASF57
 797 0302 07       		.byte	0x7
 798 0303 6C01     		.2byte	0x16c
 799 0305 9B050000 		.4byte	0x59b
 800 0309 00       		.byte	0
 801 030a 08       		.uleb128 0x8
 802 030b 63060000 		.4byte	.LASF58
 803 030f 07       		.byte	0x7
 804 0310 6D01     		.2byte	0x16d
 805 0312 9B050000 		.4byte	0x59b
 806 0316 04       		.byte	0x4
 807 0317 08       		.uleb128 0x8
 808 0318 24030000 		.4byte	.LASF59
 809 031c 07       		.byte	0x7
 810 031d 6E01     		.2byte	0x16e
 811 031f EC000000 		.4byte	0xec
 812 0323 08       		.byte	0x8
 813 0324 08       		.uleb128 0x8
 814 0325 4F060000 		.4byte	.LASF60
 815 0329 07       		.byte	0x7
 816 032a 6F01     		.2byte	0x16f
 817 032c C7020000 		.4byte	0x2c7
 818 0330 0C       		.byte	0xc
 819 0331 08       		.uleb128 0x8
 820 0332 52010000 		.4byte	.LASF61
 821 0336 07       		.byte	0x7
 822 0337 7101     		.2byte	0x171
 823 0339 E3020000 		.4byte	0x2e3
 824 033d 10       		.byte	0x10
 825 033e 00       		.byte	0
 826 033f 03       		.uleb128 0x3
 827 0340 A1050000 		.4byte	.LASF62
 828 0344 06       		.byte	0x6
 829 0345 66       		.byte	0x66
 830 0346 4A030000 		.4byte	0x34a
 831 034a 0A       		.uleb128 0xa
 832 034b A9020000 		.4byte	.LASF63
 833 034f 10       		.byte	0x10
 834 0350 07       		.byte	0x7
 835 0351 7B01     		.2byte	0x17b
 836 0353 8C030000 		.4byte	0x38c
 837 0357 08       		.uleb128 0x8
 838 0358 E1050000 		.4byte	.LASF57
 839 035c 07       		.byte	0x7
 840 035d 7C01     		.2byte	0x17c
 841 035f 9B050000 		.4byte	0x59b
 842 0363 00       		.byte	0
 843 0364 08       		.uleb128 0x8
 844 0365 63060000 		.4byte	.LASF58
 845 0369 07       		.byte	0x7
 846 036a 7E01     		.2byte	0x17e
 847 036c 9B050000 		.4byte	0x59b
 848 0370 04       		.byte	0x4
 849 0371 08       		.uleb128 0x8
 850 0372 24030000 		.4byte	.LASF59
ARM GAS  /tmp/ccc3A5Vh.s 			page 16


 851 0376 07       		.byte	0x7
 852 0377 8001     		.2byte	0x180
 853 0379 EC000000 		.4byte	0xec
 854 037d 08       		.byte	0x8
 855 037e 08       		.uleb128 0x8
 856 037f 6E000000 		.4byte	.LASF64
 857 0383 07       		.byte	0x7
 858 0384 8201     		.2byte	0x182
 859 0386 A1050000 		.4byte	0x5a1
 860 038a 0C       		.byte	0xc
 861 038b 00       		.byte	0
 862 038c 03       		.uleb128 0x3
 863 038d B1030000 		.4byte	.LASF65
 864 0391 06       		.byte	0x6
 865 0392 6B       		.byte	0x6b
 866 0393 97030000 		.4byte	0x397
 867 0397 0A       		.uleb128 0xa
 868 0398 26010000 		.4byte	.LASF66
 869 039c 04       		.byte	0x4
 870 039d 07       		.byte	0x7
 871 039e A201     		.2byte	0x1a2
 872 03a0 B2030000 		.4byte	0x3b2
 873 03a4 08       		.uleb128 0x8
 874 03a5 6A040000 		.4byte	.LASF67
 875 03a9 07       		.byte	0x7
 876 03aa AA01     		.2byte	0x1aa
 877 03ac A6050000 		.4byte	0x5a6
 878 03b0 00       		.byte	0
 879 03b1 00       		.byte	0
 880 03b2 03       		.uleb128 0x3
 881 03b3 E9050000 		.4byte	.LASF68
 882 03b7 06       		.byte	0x6
 883 03b8 70       		.byte	0x70
 884 03b9 BD030000 		.4byte	0x3bd
 885 03bd 0E       		.uleb128 0xe
 886 03be E9040000 		.4byte	.LASF69
 887 03c2 5001     		.2byte	0x150
 888 03c4 07       		.byte	0x7
 889 03c5 C201     		.2byte	0x1c2
 890 03c7 0D040000 		.4byte	0x40d
 891 03cb 08       		.uleb128 0x8
 892 03cc 17050000 		.4byte	.LASF70
 893 03d0 07       		.byte	0x7
 894 03d1 C601     		.2byte	0x1c6
 895 03d3 60020000 		.4byte	0x260
 896 03d7 00       		.byte	0
 897 03d8 08       		.uleb128 0x8
 898 03d9 C2000000 		.4byte	.LASF71
 899 03dd 07       		.byte	0x7
 900 03de CA01     		.2byte	0x1ca
 901 03e0 3F030000 		.4byte	0x33f
 902 03e4 1C       		.byte	0x1c
 903 03e5 07       		.uleb128 0x7
 904 03e6 64626700 		.ascii	"dbg\000"
 905 03ea 07       		.byte	0x7
 906 03eb CE01     		.2byte	0x1ce
 907 03ed 8C030000 		.4byte	0x38c
ARM GAS  /tmp/ccc3A5Vh.s 			page 17


 908 03f1 2C       		.byte	0x2c
 909 03f2 08       		.uleb128 0x8
 910 03f3 82040000 		.4byte	.LASF72
 911 03f7 07       		.byte	0x7
 912 03f8 D201     		.2byte	0x1d2
 913 03fa F7000000 		.4byte	0xf7
 914 03fe 30       		.byte	0x30
 915 03ff 08       		.uleb128 0x8
 916 0400 F0000000 		.4byte	.LASF73
 917 0404 07       		.byte	0x7
 918 0405 E301     		.2byte	0x1e3
 919 0407 AB050000 		.4byte	0x5ab
 920 040b 78       		.byte	0x78
 921 040c 00       		.byte	0
 922 040d 04       		.uleb128 0x4
 923 040e 04       		.byte	0x4
 924 040f 07       		.byte	0x7
 925 0410 3D050000 		.4byte	.LASF74
 926 0414 03       		.uleb128 0x3
 927 0415 44000000 		.4byte	.LASF75
 928 0419 08       		.byte	0x8
 929 041a 65       		.byte	0x65
 930 041b E3020000 		.4byte	0x2e3
 931 041f 03       		.uleb128 0x3
 932 0420 2D060000 		.4byte	.LASF76
 933 0424 08       		.byte	0x8
 934 0425 6D       		.byte	0x6d
 935 0426 82000000 		.4byte	0x82
 936 042a 05       		.uleb128 0x5
 937 042b EF030000 		.4byte	.LASF77
 938 042f 04       		.byte	0x4
 939 0430 08       		.byte	0x8
 940 0431 89       		.byte	0x89
 941 0432 43040000 		.4byte	0x443
 942 0436 0F       		.uleb128 0xf
 943 0437 72313300 		.ascii	"r13\000"
 944 043b 08       		.byte	0x8
 945 043c 8A       		.byte	0x8a
 946 043d BE040000 		.4byte	0x4be
 947 0441 00       		.byte	0
 948 0442 00       		.byte	0
 949 0443 05       		.uleb128 0x5
 950 0444 D0040000 		.4byte	.LASF78
 951 0448 24       		.byte	0x24
 952 0449 09       		.byte	0x9
 953 044a FD       		.byte	0xfd
 954 044b BE040000 		.4byte	0x4be
 955 044f 07       		.uleb128 0x7
 956 0450 723400   		.ascii	"r4\000"
 957 0453 09       		.byte	0x9
 958 0454 1001     		.2byte	0x110
 959 0456 14040000 		.4byte	0x414
 960 045a 00       		.byte	0
 961 045b 07       		.uleb128 0x7
 962 045c 723500   		.ascii	"r5\000"
 963 045f 09       		.byte	0x9
 964 0460 1101     		.2byte	0x111
ARM GAS  /tmp/ccc3A5Vh.s 			page 18


 965 0462 14040000 		.4byte	0x414
 966 0466 04       		.byte	0x4
 967 0467 07       		.uleb128 0x7
 968 0468 723600   		.ascii	"r6\000"
 969 046b 09       		.byte	0x9
 970 046c 1201     		.2byte	0x112
 971 046e 14040000 		.4byte	0x414
 972 0472 08       		.byte	0x8
 973 0473 07       		.uleb128 0x7
 974 0474 723700   		.ascii	"r7\000"
 975 0477 09       		.byte	0x9
 976 0478 1301     		.2byte	0x113
 977 047a 14040000 		.4byte	0x414
 978 047e 0C       		.byte	0xc
 979 047f 07       		.uleb128 0x7
 980 0480 723800   		.ascii	"r8\000"
 981 0483 09       		.byte	0x9
 982 0484 1401     		.2byte	0x114
 983 0486 14040000 		.4byte	0x414
 984 048a 10       		.byte	0x10
 985 048b 07       		.uleb128 0x7
 986 048c 723900   		.ascii	"r9\000"
 987 048f 09       		.byte	0x9
 988 0490 1501     		.2byte	0x115
 989 0492 14040000 		.4byte	0x414
 990 0496 14       		.byte	0x14
 991 0497 07       		.uleb128 0x7
 992 0498 72313000 		.ascii	"r10\000"
 993 049c 09       		.byte	0x9
 994 049d 1601     		.2byte	0x116
 995 049f 14040000 		.4byte	0x414
 996 04a3 18       		.byte	0x18
 997 04a4 07       		.uleb128 0x7
 998 04a5 72313100 		.ascii	"r11\000"
 999 04a9 09       		.byte	0x9
 1000 04aa 1701     		.2byte	0x117
 1001 04ac 14040000 		.4byte	0x414
 1002 04b0 1C       		.byte	0x1c
 1003 04b1 07       		.uleb128 0x7
 1004 04b2 6C7200   		.ascii	"lr\000"
 1005 04b5 09       		.byte	0x9
 1006 04b6 1801     		.2byte	0x118
 1007 04b8 14040000 		.4byte	0x414
 1008 04bc 20       		.byte	0x20
 1009 04bd 00       		.byte	0
 1010 04be 09       		.uleb128 0x9
 1011 04bf 04       		.byte	0x4
 1012 04c0 43040000 		.4byte	0x443
 1013 04c4 10       		.uleb128 0x10
 1014 04c5 04       		.byte	0x4
 1015 04c6 07       		.byte	0x7
 1016 04c7 FA       		.byte	0xfa
 1017 04c8 21050000 		.4byte	0x521
 1018 04cc 11       		.uleb128 0x11
 1019 04cd DC020000 		.4byte	.LASF79
 1020 04d1 07       		.byte	0x7
 1021 04d2 0101     		.2byte	0x101
ARM GAS  /tmp/ccc3A5Vh.s 			page 19


 1022 04d4 CB000000 		.4byte	0xcb
 1023 04d8 11       		.uleb128 0x11
 1024 04d9 71060000 		.4byte	.LASF80
 1025 04dd 07       		.byte	0x7
 1026 04de 0801     		.2byte	0x108
 1027 04e0 CB000000 		.4byte	0xcb
 1028 04e4 11       		.uleb128 0x11
 1029 04e5 B1000000 		.4byte	.LASF81
 1030 04e9 07       		.byte	0x7
 1031 04ea 0F01     		.2byte	0x10f
 1032 04ec E3020000 		.4byte	0x2e3
 1033 04f0 11       		.uleb128 0x11
 1034 04f1 F5050000 		.4byte	.LASF82
 1035 04f5 07       		.byte	0x7
 1036 04f6 1601     		.2byte	0x116
 1037 04f8 21050000 		.4byte	0x521
 1038 04fc 11       		.uleb128 0x11
 1039 04fd 63050000 		.4byte	.LASF83
 1040 0501 07       		.byte	0x7
 1041 0502 1E01     		.2byte	0x11e
 1042 0504 4C050000 		.4byte	0x54c
 1043 0508 11       		.uleb128 0x11
 1044 0509 2A000000 		.4byte	.LASF84
 1045 050d 07       		.byte	0x7
 1046 050e 2701     		.2byte	0x127
 1047 0510 83050000 		.4byte	0x583
 1048 0514 11       		.uleb128 0x11
 1049 0515 FF000000 		.4byte	.LASF85
 1050 0519 07       		.byte	0x7
 1051 051a 2F01     		.2byte	0x12f
 1052 051c D6000000 		.4byte	0xd6
 1053 0520 00       		.byte	0
 1054 0521 09       		.uleb128 0x9
 1055 0522 04       		.byte	0x4
 1056 0523 FB010000 		.4byte	0x1fb
 1057 0527 05       		.uleb128 0x5
 1058 0528 59010000 		.4byte	.LASF86
 1059 052c 0C       		.byte	0xc
 1060 052d 0A       		.byte	0xa
 1061 052e 34       		.byte	0x34
 1062 052f 4C050000 		.4byte	0x54c
 1063 0533 06       		.uleb128 0x6
 1064 0534 66000000 		.4byte	.LASF87
 1065 0538 0A       		.byte	0xa
 1066 0539 35       		.byte	0x35
 1067 053a 30020000 		.4byte	0x230
 1068 053e 00       		.byte	0
 1069 053f 06       		.uleb128 0x6
 1070 0540 20010000 		.4byte	.LASF88
 1071 0544 0A       		.byte	0xa
 1072 0545 37       		.byte	0x37
 1073 0546 E1000000 		.4byte	0xe1
 1074 054a 08       		.byte	0x8
 1075 054b 00       		.byte	0
 1076 054c 09       		.uleb128 0x9
 1077 054d 04       		.byte	0x4
 1078 054e 27050000 		.4byte	0x527
ARM GAS  /tmp/ccc3A5Vh.s 			page 20


 1079 0552 05       		.uleb128 0x5
 1080 0553 E3020000 		.4byte	.LASF89
 1081 0557 10       		.byte	0x10
 1082 0558 0B       		.byte	0xb
 1083 0559 39       		.byte	0x39
 1084 055a 83050000 		.4byte	0x583
 1085 055e 06       		.uleb128 0x6
 1086 055f C8040000 		.4byte	.LASF90
 1087 0563 0B       		.byte	0xb
 1088 0564 3A       		.byte	0x3a
 1089 0565 30020000 		.4byte	0x230
 1090 0569 00       		.byte	0
 1091 056a 06       		.uleb128 0x6
 1092 056b 5E000000 		.4byte	.LASF91
 1093 056f 0B       		.byte	0xb
 1094 0570 3C       		.byte	0x3c
 1095 0571 06020000 		.4byte	0x206
 1096 0575 08       		.byte	0x8
 1097 0576 06       		.uleb128 0x6
 1098 0577 FB050000 		.4byte	.LASF92
 1099 057b 0B       		.byte	0xb
 1100 057c 3E       		.byte	0x3e
 1101 057d D1050000 		.4byte	0x5d1
 1102 0581 0C       		.byte	0xc
 1103 0582 00       		.byte	0
 1104 0583 09       		.uleb128 0x9
 1105 0584 04       		.byte	0x4
 1106 0585 52050000 		.4byte	0x552
 1107 0589 09       		.uleb128 0x9
 1108 058a 04       		.byte	0x4
 1109 058b 8F050000 		.4byte	0x58f
 1110 058f 12       		.uleb128 0x12
 1111 0590 94050000 		.4byte	0x594
 1112 0594 04       		.uleb128 0x4
 1113 0595 01       		.byte	0x1
 1114 0596 08       		.byte	0x8
 1115 0597 3F000000 		.4byte	.LASF93
 1116 059b 09       		.uleb128 0x9
 1117 059c 04       		.byte	0x4
 1118 059d E5020000 		.4byte	0x2e5
 1119 05a1 13       		.uleb128 0x13
 1120 05a2 EC000000 		.4byte	0xec
 1121 05a6 13       		.uleb128 0x13
 1122 05a7 89050000 		.4byte	0x589
 1123 05ab 14       		.uleb128 0x14
 1124 05ac 1F040000 		.4byte	0x41f
 1125 05b0 BB050000 		.4byte	0x5bb
 1126 05b4 15       		.uleb128 0x15
 1127 05b5 0D040000 		.4byte	0x40d
 1128 05b9 1A       		.byte	0x1a
 1129 05ba 00       		.byte	0
 1130 05bb 03       		.uleb128 0x3
 1131 05bc 7F010000 		.4byte	.LASF94
 1132 05c0 0C       		.byte	0xc
 1133 05c1 34       		.byte	0x34
 1134 05c2 D2020000 		.4byte	0x2d2
 1135 05c6 03       		.uleb128 0x3
ARM GAS  /tmp/ccc3A5Vh.s 			page 21


 1136 05c7 7E050000 		.4byte	.LASF95
 1137 05cb 0B       		.byte	0xb
 1138 05cc 34       		.byte	0x34
 1139 05cd 52050000 		.4byte	0x552
 1140 05d1 09       		.uleb128 0x9
 1141 05d2 04       		.byte	0x4
 1142 05d3 C6050000 		.4byte	0x5c6
 1143 05d7 03       		.uleb128 0x3
 1144 05d8 29050000 		.4byte	.LASF96
 1145 05dc 0D       		.byte	0xd
 1146 05dd 34       		.byte	0x34
 1147 05de E2050000 		.4byte	0x5e2
 1148 05e2 09       		.uleb128 0x9
 1149 05e3 04       		.byte	0x4
 1150 05e4 E8050000 		.4byte	0x5e8
 1151 05e8 16       		.uleb128 0x16
 1152 05e9 E3020000 		.4byte	0x2e3
 1153 05ed F7050000 		.4byte	0x5f7
 1154 05f1 0C       		.uleb128 0xc
 1155 05f2 2C000000 		.4byte	0x2c
 1156 05f6 00       		.byte	0
 1157 05f7 03       		.uleb128 0x3
 1158 05f8 41060000 		.4byte	.LASF97
 1159 05fc 0E       		.byte	0xe
 1160 05fd 3C       		.byte	0x3c
 1161 05fe 02060000 		.4byte	0x602
 1162 0602 05       		.uleb128 0x5
 1163 0603 A7040000 		.4byte	.LASF98
 1164 0607 20       		.byte	0x20
 1165 0608 0E       		.byte	0xe
 1166 0609 4F       		.byte	0x4f
 1167 060a 33060000 		.4byte	0x633
 1168 060e 06       		.uleb128 0x6
 1169 060f 02030000 		.4byte	.LASF99
 1170 0613 0E       		.byte	0xe
 1171 0614 50       		.byte	0x50
 1172 0615 D7050000 		.4byte	0x5d7
 1173 0619 00       		.byte	0
 1174 061a 06       		.uleb128 0x6
 1175 061b A5000000 		.4byte	.LASF100
 1176 061f 0E       		.byte	0xe
 1177 0620 52       		.byte	0x52
 1178 0621 52060000 		.4byte	0x652
 1179 0625 08       		.byte	0x8
 1180 0626 06       		.uleb128 0x6
 1181 0627 AB030000 		.4byte	.LASF101
 1182 062b 0E       		.byte	0xe
 1183 062c 54       		.byte	0x54
 1184 062d C6050000 		.4byte	0x5c6
 1185 0631 10       		.byte	0x10
 1186 0632 00       		.byte	0
 1187 0633 10       		.uleb128 0x10
 1188 0634 04       		.byte	0x4
 1189 0635 0E       		.byte	0xe
 1190 0636 44       		.byte	0x44
 1191 0637 52060000 		.4byte	0x652
 1192 063b 17       		.uleb128 0x17
ARM GAS  /tmp/ccc3A5Vh.s 			page 22


 1193 063c 91000000 		.4byte	.LASF102
 1194 0640 0E       		.byte	0xe
 1195 0641 45       		.byte	0x45
 1196 0642 73060000 		.4byte	0x673
 1197 0646 17       		.uleb128 0x17
 1198 0647 AC000000 		.4byte	.LASF103
 1199 064b 0E       		.byte	0xe
 1200 064c 46       		.byte	0x46
 1201 064d 79060000 		.4byte	0x679
 1202 0651 00       		.byte	0
 1203 0652 18       		.uleb128 0x18
 1204 0653 C9020000 		.4byte	.LASF134
 1205 0657 08       		.byte	0x8
 1206 0658 0E       		.byte	0xe
 1207 0659 41       		.byte	0x41
 1208 065a 73060000 		.4byte	0x673
 1209 065e 17       		.uleb128 0x17
 1210 065f 6B060000 		.4byte	.LASF104
 1211 0663 0E       		.byte	0xe
 1212 0664 42       		.byte	0x42
 1213 0665 1F040000 		.4byte	0x41f
 1214 0669 19       		.uleb128 0x19
 1215 066a 6800     		.ascii	"h\000"
 1216 066c 0E       		.byte	0xe
 1217 066d 49       		.byte	0x49
 1218 066e 7F060000 		.4byte	0x67f
 1219 0672 00       		.byte	0
 1220 0673 09       		.uleb128 0x9
 1221 0674 04       		.byte	0x4
 1222 0675 52060000 		.4byte	0x652
 1223 0679 09       		.uleb128 0x9
 1224 067a 04       		.byte	0x4
 1225 067b F7050000 		.4byte	0x5f7
 1226 067f 1A       		.uleb128 0x1a
 1227 0680 08       		.byte	0x8
 1228 0681 0E       		.byte	0xe
 1229 0682 43       		.byte	0x43
 1230 0683 9E060000 		.4byte	0x69e
 1231 0687 0F       		.uleb128 0xf
 1232 0688 7500     		.ascii	"u\000"
 1233 068a 0E       		.byte	0xe
 1234 068b 47       		.byte	0x47
 1235 068c 33060000 		.4byte	0x633
 1236 0690 00       		.byte	0
 1237 0691 06       		.uleb128 0x6
 1238 0692 0F040000 		.4byte	.LASF105
 1239 0696 0E       		.byte	0xe
 1240 0697 48       		.byte	0x48
 1241 0698 2C000000 		.4byte	0x2c
 1242 069c 04       		.byte	0x4
 1243 069d 00       		.byte	0
 1244 069e 05       		.uleb128 0x5
 1245 069f D5050000 		.4byte	.LASF106
 1246 06a3 04       		.byte	0x4
 1247 06a4 0F       		.byte	0xf
 1248 06a5 38       		.byte	0x38
 1249 06a6 B7060000 		.4byte	0x6b7
ARM GAS  /tmp/ccc3A5Vh.s 			page 23


 1250 06aa 06       		.uleb128 0x6
 1251 06ab 9E010000 		.4byte	.LASF107
 1252 06af 0F       		.byte	0xf
 1253 06b0 39       		.byte	0x39
 1254 06b1 B7060000 		.4byte	0x6b7
 1255 06b5 00       		.byte	0
 1256 06b6 00       		.byte	0
 1257 06b7 09       		.uleb128 0x9
 1258 06b8 04       		.byte	0x4
 1259 06b9 9E060000 		.4byte	0x69e
 1260 06bd 1A       		.uleb128 0x1a
 1261 06be 0C       		.byte	0xc
 1262 06bf 0F       		.byte	0xf
 1263 06c0 40       		.byte	0x40
 1264 06c1 EA060000 		.4byte	0x6ea
 1265 06c5 06       		.uleb128 0x6
 1266 06c6 7B030000 		.4byte	.LASF108
 1267 06ca 0F       		.byte	0xf
 1268 06cb 41       		.byte	0x41
 1269 06cc B7060000 		.4byte	0x6b7
 1270 06d0 00       		.byte	0
 1271 06d1 06       		.uleb128 0x6
 1272 06d2 5B040000 		.4byte	.LASF109
 1273 06d6 0F       		.byte	0xf
 1274 06d7 42       		.byte	0x42
 1275 06d8 2C000000 		.4byte	0x2c
 1276 06dc 04       		.byte	0x4
 1277 06dd 06       		.uleb128 0x6
 1278 06de 7A060000 		.4byte	.LASF110
 1279 06e2 0F       		.byte	0xf
 1280 06e3 44       		.byte	0x44
 1281 06e4 D7050000 		.4byte	0x5d7
 1282 06e8 08       		.byte	0x8
 1283 06e9 00       		.byte	0
 1284 06ea 03       		.uleb128 0x3
 1285 06eb 31000000 		.4byte	.LASF111
 1286 06ef 0F       		.byte	0xf
 1287 06f0 46       		.byte	0x46
 1288 06f1 BD060000 		.4byte	0x6bd
 1289 06f5 1B       		.uleb128 0x1b
 1290 06f6 F3040000 		.4byte	.LASF115
 1291 06fa 02       		.byte	0x2
 1292 06fb 2202     		.2byte	0x222
 1293 06fd 03       		.byte	0x3
 1294 06fe 0F070000 		.4byte	0x70f
 1295 0702 1C       		.uleb128 0x1c
 1296 0703 A3020000 		.4byte	.LASF135
 1297 0707 02       		.byte	0x2
 1298 0708 2202     		.2byte	0x222
 1299 070a 77000000 		.4byte	0x77
 1300 070e 00       		.byte	0
 1301 070f 1D       		.uleb128 0x1d
 1302 0710 B8000000 		.4byte	.LASF112
 1303 0714 09       		.byte	0x9
 1304 0715 C801     		.2byte	0x1c8
 1305 0717 03       		.byte	0x3
 1306 0718 1D       		.uleb128 0x1d
ARM GAS  /tmp/ccc3A5Vh.s 			page 24


 1307 0719 57060000 		.4byte	.LASF113
 1308 071d 09       		.byte	0x9
 1309 071e E001     		.2byte	0x1e0
 1310 0720 03       		.byte	0x3
 1311 0721 1D       		.uleb128 0x1d
 1312 0722 EC020000 		.4byte	.LASF114
 1313 0726 10       		.byte	0x10
 1314 0727 5A01     		.2byte	0x15a
 1315 0729 03       		.byte	0x3
 1316 072a 1B       		.uleb128 0x1b
 1317 072b 8F020000 		.4byte	.LASF116
 1318 072f 10       		.byte	0x10
 1319 0730 6601     		.2byte	0x166
 1320 0732 03       		.byte	0x3
 1321 0733 45070000 		.4byte	0x745
 1322 0737 1E       		.uleb128 0x1e
 1323 0738 38060000 		.4byte	.LASF117
 1324 073c 55070000 		.4byte	0x755
 1325 0740 8F020000 		.4byte	.LASF116
 1326 0744 00       		.byte	0
 1327 0745 14       		.uleb128 0x14
 1328 0746 94050000 		.4byte	0x594
 1329 074a 55070000 		.4byte	0x755
 1330 074e 15       		.uleb128 0x15
 1331 074f 0D040000 		.4byte	0x40d
 1332 0753 0B       		.byte	0xb
 1333 0754 00       		.byte	0
 1334 0755 12       		.uleb128 0x12
 1335 0756 45070000 		.4byte	0x745
 1336 075a 1F       		.uleb128 0x1f
 1337 075b 0D030000 		.4byte	.LASF118
 1338 075f 01       		.byte	0x1
 1339 0760 44       		.byte	0x44
 1340 0761 06020000 		.4byte	0x206
 1341 0765 00000000 		.4byte	.LFB230
 1342 0769 14000000 		.4byte	.LFE230-.LFB230
 1343 076d 01       		.uleb128 0x1
 1344 076e 9C       		.byte	0x9c
 1345 076f 0C080000 		.4byte	0x80c
 1346 0773 20       		.uleb128 0x20
 1347 0774 747000   		.ascii	"tp\000"
 1348 0777 01       		.byte	0x1
 1349 0778 44       		.byte	0x44
 1350 0779 06020000 		.4byte	0x206
 1351 077d 01       		.uleb128 0x1
 1352 077e 50       		.byte	0x50
 1353 077f 21       		.uleb128 0x21
 1354 0780 38060000 		.4byte	.LASF117
 1355 0784 0C080000 		.4byte	0x80c
 1356 0788 22       		.uleb128 0x22
 1357 0789 21070000 		.4byte	0x721
 1358 078d 00000000 		.4byte	.LBB64
 1359 0791 06000000 		.4byte	.LBE64-.LBB64
 1360 0795 01       		.byte	0x1
 1361 0796 46       		.byte	0x46
 1362 0797 C4070000 		.4byte	0x7c4
 1363 079b 23       		.uleb128 0x23
ARM GAS  /tmp/ccc3A5Vh.s 			page 25


 1364 079c 0F070000 		.4byte	0x70f
 1365 07a0 00000000 		.4byte	.LBB65
 1366 07a4 06000000 		.4byte	.LBE65-.LBB65
 1367 07a8 10       		.byte	0x10
 1368 07a9 5C01     		.2byte	0x15c
 1369 07ab 23       		.uleb128 0x23
 1370 07ac F5060000 		.4byte	0x6f5
 1371 07b0 00000000 		.4byte	.LBB66
 1372 07b4 06000000 		.4byte	.LBE66-.LBB66
 1373 07b8 09       		.byte	0x9
 1374 07b9 D001     		.2byte	0x1d0
 1375 07bb 24       		.uleb128 0x24
 1376 07bc 02070000 		.4byte	0x702
 1377 07c0 20       		.byte	0x20
 1378 07c1 00       		.byte	0
 1379 07c2 00       		.byte	0
 1380 07c3 00       		.byte	0
 1381 07c4 25       		.uleb128 0x25
 1382 07c5 2A070000 		.4byte	0x72a
 1383 07c9 0C000000 		.4byte	.LBB68
 1384 07cd 06000000 		.4byte	.LBE68-.LBB68
 1385 07d1 01       		.byte	0x1
 1386 07d2 49       		.byte	0x49
 1387 07d3 26       		.uleb128 0x26
 1388 07d4 0C000000 		.4byte	.LBB69
 1389 07d8 06000000 		.4byte	.LBE69-.LBB69
 1390 07dc 27       		.uleb128 0x27
 1391 07dd 37070000 		.4byte	0x737
 1392 07e1 23       		.uleb128 0x23
 1393 07e2 18070000 		.4byte	0x718
 1394 07e6 0C000000 		.4byte	.LBB70
 1395 07ea 06000000 		.4byte	.LBE70-.LBB70
 1396 07ee 10       		.byte	0x10
 1397 07ef 7301     		.2byte	0x173
 1398 07f1 23       		.uleb128 0x23
 1399 07f2 F5060000 		.4byte	0x6f5
 1400 07f6 0C000000 		.4byte	.LBB71
 1401 07fa 06000000 		.4byte	.LBE71-.LBB71
 1402 07fe 09       		.byte	0x9
 1403 07ff E301     		.2byte	0x1e3
 1404 0801 24       		.uleb128 0x24
 1405 0802 02070000 		.4byte	0x702
 1406 0806 00       		.byte	0
 1407 0807 00       		.byte	0
 1408 0808 00       		.byte	0
 1409 0809 00       		.byte	0
 1410 080a 00       		.byte	0
 1411 080b 00       		.byte	0
 1412 080c 12       		.uleb128 0x12
 1413 080d 45070000 		.4byte	0x745
 1414 0811 28       		.uleb128 0x28
 1415 0812 4E040000 		.4byte	.LASF136
 1416 0816 01       		.byte	0x1
 1417 0817 5B       		.byte	0x5b
 1418 0818 00000000 		.4byte	.LFB231
 1419 081c 5A000000 		.4byte	.LFE231-.LFB231
 1420 0820 01       		.uleb128 0x1
ARM GAS  /tmp/ccc3A5Vh.s 			page 26


 1421 0821 9C       		.byte	0x9c
 1422 0822 96090000 		.4byte	0x996
 1423 0826 29       		.uleb128 0x29
 1424 0827 747000   		.ascii	"tp\000"
 1425 082a 01       		.byte	0x1
 1426 082b 5B       		.byte	0x5b
 1427 082c 06020000 		.4byte	0x206
 1428 0830 00000000 		.4byte	.LLST0
 1429 0834 2A       		.uleb128 0x2a
 1430 0835 98040000 		.4byte	.LASF122
 1431 0839 01       		.byte	0x1
 1432 083a 5C       		.byte	0x5c
 1433 083b AA000000 		.4byte	0xaa
 1434 083f 45000000 		.4byte	.LLST1
 1435 0843 21       		.uleb128 0x21
 1436 0844 38060000 		.4byte	.LASF117
 1437 0848 A6090000 		.4byte	0x9a6
 1438 084c 22       		.uleb128 0x22
 1439 084d 21070000 		.4byte	0x721
 1440 0851 02000000 		.4byte	.LBB73
 1441 0855 06000000 		.4byte	.LBE73-.LBB73
 1442 0859 01       		.byte	0x1
 1443 085a 5E       		.byte	0x5e
 1444 085b 88080000 		.4byte	0x888
 1445 085f 23       		.uleb128 0x23
 1446 0860 0F070000 		.4byte	0x70f
 1447 0864 02000000 		.4byte	.LBB74
 1448 0868 06000000 		.4byte	.LBE74-.LBB74
 1449 086c 10       		.byte	0x10
 1450 086d 5C01     		.2byte	0x15c
 1451 086f 23       		.uleb128 0x23
 1452 0870 F5060000 		.4byte	0x6f5
 1453 0874 02000000 		.4byte	.LBB75
 1454 0878 06000000 		.4byte	.LBE75-.LBB75
 1455 087c 09       		.byte	0x9
 1456 087d D001     		.2byte	0x1d0
 1457 087f 24       		.uleb128 0x24
 1458 0880 02070000 		.4byte	0x702
 1459 0884 20       		.byte	0x20
 1460 0885 00       		.byte	0
 1461 0886 00       		.byte	0
 1462 0887 00       		.byte	0
 1463 0888 22       		.uleb128 0x22
 1464 0889 2A070000 		.4byte	0x72a
 1465 088d 18000000 		.4byte	.LBB77
 1466 0891 08000000 		.4byte	.LBE77-.LBB77
 1467 0895 01       		.byte	0x1
 1468 0896 80       		.byte	0x80
 1469 0897 D6080000 		.4byte	0x8d6
 1470 089b 26       		.uleb128 0x26
 1471 089c 18000000 		.4byte	.LBB78
 1472 08a0 08000000 		.4byte	.LBE78-.LBB78
 1473 08a4 27       		.uleb128 0x27
 1474 08a5 37070000 		.4byte	0x737
 1475 08a9 23       		.uleb128 0x23
 1476 08aa 18070000 		.4byte	0x718
 1477 08ae 18000000 		.4byte	.LBB79
ARM GAS  /tmp/ccc3A5Vh.s 			page 27


 1478 08b2 08000000 		.4byte	.LBE79-.LBB79
 1479 08b6 10       		.byte	0x10
 1480 08b7 7301     		.2byte	0x173
 1481 08b9 23       		.uleb128 0x23
 1482 08ba F5060000 		.4byte	0x6f5
 1483 08be 18000000 		.4byte	.LBB80
 1484 08c2 08000000 		.4byte	.LBE80-.LBB80
 1485 08c6 09       		.byte	0x9
 1486 08c7 E301     		.2byte	0x1e3
 1487 08c9 2B       		.uleb128 0x2b
 1488 08ca 02070000 		.4byte	0x702
 1489 08ce 7A000000 		.4byte	.LLST2
 1490 08d2 00       		.byte	0
 1491 08d3 00       		.byte	0
 1492 08d4 00       		.byte	0
 1493 08d5 00       		.byte	0
 1494 08d6 22       		.uleb128 0x22
 1495 08d7 2A070000 		.4byte	0x72a
 1496 08db 38000000 		.4byte	.LBB82
 1497 08df 04000000 		.4byte	.LBE82-.LBB82
 1498 08e3 01       		.byte	0x1
 1499 08e4 76       		.byte	0x76
 1500 08e5 24090000 		.4byte	0x924
 1501 08e9 26       		.uleb128 0x26
 1502 08ea 38000000 		.4byte	.LBB83
 1503 08ee 04000000 		.4byte	.LBE83-.LBB83
 1504 08f2 27       		.uleb128 0x27
 1505 08f3 37070000 		.4byte	0x737
 1506 08f7 23       		.uleb128 0x23
 1507 08f8 18070000 		.4byte	0x718
 1508 08fc 38000000 		.4byte	.LBB84
 1509 0900 04000000 		.4byte	.LBE84-.LBB84
 1510 0904 10       		.byte	0x10
 1511 0905 7301     		.2byte	0x173
 1512 0907 23       		.uleb128 0x23
 1513 0908 F5060000 		.4byte	0x6f5
 1514 090c 38000000 		.4byte	.LBB85
 1515 0910 04000000 		.4byte	.LBE85-.LBB85
 1516 0914 09       		.byte	0x9
 1517 0915 E301     		.2byte	0x1e3
 1518 0917 2B       		.uleb128 0x2b
 1519 0918 02070000 		.4byte	0x702
 1520 091c 8E000000 		.4byte	.LLST3
 1521 0920 00       		.byte	0
 1522 0921 00       		.byte	0
 1523 0922 00       		.byte	0
 1524 0923 00       		.byte	0
 1525 0924 22       		.uleb128 0x22
 1526 0925 2A070000 		.4byte	0x72a
 1527 0929 4E000000 		.4byte	.LBB87
 1528 092d 04000000 		.4byte	.LBE87-.LBB87
 1529 0931 01       		.byte	0x1
 1530 0932 6D       		.byte	0x6d
 1531 0933 6F090000 		.4byte	0x96f
 1532 0937 26       		.uleb128 0x26
 1533 0938 4E000000 		.4byte	.LBB88
 1534 093c 04000000 		.4byte	.LBE88-.LBB88
ARM GAS  /tmp/ccc3A5Vh.s 			page 28


 1535 0940 27       		.uleb128 0x27
 1536 0941 37070000 		.4byte	0x737
 1537 0945 23       		.uleb128 0x23
 1538 0946 18070000 		.4byte	0x718
 1539 094a 4E000000 		.4byte	.LBB89
 1540 094e 04000000 		.4byte	.LBE89-.LBB89
 1541 0952 10       		.byte	0x10
 1542 0953 7301     		.2byte	0x173
 1543 0955 23       		.uleb128 0x23
 1544 0956 F5060000 		.4byte	0x6f5
 1545 095a 4E000000 		.4byte	.LBB90
 1546 095e 04000000 		.4byte	.LBE90-.LBB90
 1547 0962 09       		.byte	0x9
 1548 0963 E301     		.2byte	0x1e3
 1549 0965 24       		.uleb128 0x24
 1550 0966 02070000 		.4byte	0x702
 1551 096a 00       		.byte	0
 1552 096b 00       		.byte	0
 1553 096c 00       		.byte	0
 1554 096d 00       		.byte	0
 1555 096e 00       		.byte	0
 1556 096f 2C       		.uleb128 0x2c
 1557 0970 42000000 		.4byte	.LVL9
 1558 0974 980C0000 		.4byte	0xc98
 1559 0978 84090000 		.4byte	0x984
 1560 097c 2D       		.uleb128 0x2d
 1561 097d 01       		.uleb128 0x1
 1562 097e 51       		.byte	0x51
 1563 097f 03       		.uleb128 0x3
 1564 0980 F3       		.byte	0xf3
 1565 0981 01       		.uleb128 0x1
 1566 0982 50       		.byte	0x50
 1567 0983 00       		.byte	0
 1568 0984 2E       		.uleb128 0x2e
 1569 0985 5A000000 		.4byte	.LVL11
 1570 0989 AE0C0000 		.4byte	0xcae
 1571 098d 2D       		.uleb128 0x2d
 1572 098e 01       		.uleb128 0x1
 1573 098f 50       		.byte	0x50
 1574 0990 03       		.uleb128 0x3
 1575 0991 F3       		.byte	0xf3
 1576 0992 01       		.uleb128 0x1
 1577 0993 50       		.byte	0x50
 1578 0994 00       		.byte	0
 1579 0995 00       		.byte	0
 1580 0996 14       		.uleb128 0x14
 1581 0997 94050000 		.4byte	0x594
 1582 099b A6090000 		.4byte	0x9a6
 1583 099f 15       		.uleb128 0x15
 1584 09a0 0D040000 		.4byte	0x40d
 1585 09a4 0C       		.byte	0xc
 1586 09a5 00       		.byte	0
 1587 09a6 12       		.uleb128 0x12
 1588 09a7 96090000 		.4byte	0x996
 1589 09ab 1F       		.uleb128 0x1f
 1590 09ac 6A050000 		.4byte	.LASF119
 1591 09b0 01       		.byte	0x1
ARM GAS  /tmp/ccc3A5Vh.s 			page 29


 1592 09b1 9A       		.byte	0x9a
 1593 09b2 06020000 		.4byte	0x206
 1594 09b6 00000000 		.4byte	.LFB232
 1595 09ba 3C000000 		.4byte	.LFE232-.LFB232
 1596 09be 01       		.uleb128 0x1
 1597 09bf 9C       		.byte	0x9c
 1598 09c0 100B0000 		.4byte	0xb10
 1599 09c4 2F       		.uleb128 0x2f
 1600 09c5 02060000 		.4byte	.LASF120
 1601 09c9 01       		.byte	0x1
 1602 09ca 9A       		.byte	0x9a
 1603 09cb 79060000 		.4byte	0x679
 1604 09cf A2000000 		.4byte	.LLST4
 1605 09d3 2F       		.uleb128 0x2f
 1606 09d4 0F040000 		.4byte	.LASF105
 1607 09d8 01       		.byte	0x1
 1608 09d9 9A       		.byte	0x9a
 1609 09da 2C000000 		.4byte	0x2c
 1610 09de C3000000 		.4byte	.LLST5
 1611 09e2 2F       		.uleb128 0x2f
 1612 09e3 FD020000 		.4byte	.LASF121
 1613 09e7 01       		.byte	0x1
 1614 09e8 9B       		.byte	0x9b
 1615 09e9 C0000000 		.4byte	0xc0
 1616 09ed E1000000 		.4byte	.LLST6
 1617 09f1 29       		.uleb128 0x29
 1618 09f2 706600   		.ascii	"pf\000"
 1619 09f5 01       		.byte	0x1
 1620 09f6 9B       		.byte	0x9b
 1621 09f7 BB050000 		.4byte	0x5bb
 1622 09fb FF000000 		.4byte	.LLST7
 1623 09ff 20       		.uleb128 0x20
 1624 0a00 61726700 		.ascii	"arg\000"
 1625 0a04 01       		.byte	0x1
 1626 0a05 9B       		.byte	0x9b
 1627 0a06 E3020000 		.4byte	0x2e3
 1628 0a0a 02       		.uleb128 0x2
 1629 0a0b 91       		.byte	0x91
 1630 0a0c 00       		.sleb128 0
 1631 0a0d 30       		.uleb128 0x30
 1632 0a0e 77737000 		.ascii	"wsp\000"
 1633 0a12 01       		.byte	0x1
 1634 0a13 9C       		.byte	0x9c
 1635 0a14 E3020000 		.4byte	0x2e3
 1636 0a18 1D010000 		.4byte	.LLST8
 1637 0a1c 30       		.uleb128 0x30
 1638 0a1d 747000   		.ascii	"tp\000"
 1639 0a20 01       		.byte	0x1
 1640 0a21 9D       		.byte	0x9d
 1641 0a22 06020000 		.4byte	0x206
 1642 0a26 30010000 		.4byte	.LLST9
 1643 0a2a 22       		.uleb128 0x22
 1644 0a2b 21070000 		.4byte	0x721
 1645 0a2f 10000000 		.4byte	.LBB92
 1646 0a33 06000000 		.4byte	.LBE92-.LBB92
 1647 0a37 01       		.byte	0x1
 1648 0a38 AD       		.byte	0xad
ARM GAS  /tmp/ccc3A5Vh.s 			page 30


 1649 0a39 690A0000 		.4byte	0xa69
 1650 0a3d 23       		.uleb128 0x23
 1651 0a3e 0F070000 		.4byte	0x70f
 1652 0a42 10000000 		.4byte	.LBB93
 1653 0a46 06000000 		.4byte	.LBE93-.LBB93
 1654 0a4a 10       		.byte	0x10
 1655 0a4b 5C01     		.2byte	0x15c
 1656 0a4d 23       		.uleb128 0x23
 1657 0a4e F5060000 		.4byte	0x6f5
 1658 0a52 10000000 		.4byte	.LBB94
 1659 0a56 06000000 		.4byte	.LBE94-.LBB94
 1660 0a5a 09       		.byte	0x9
 1661 0a5b D001     		.2byte	0x1d0
 1662 0a5d 2B       		.uleb128 0x2b
 1663 0a5e 02070000 		.4byte	0x702
 1664 0a62 4E010000 		.4byte	.LLST10
 1665 0a66 00       		.byte	0
 1666 0a67 00       		.byte	0
 1667 0a68 00       		.byte	0
 1668 0a69 22       		.uleb128 0x22
 1669 0a6a 2A070000 		.4byte	0x72a
 1670 0a6e 30000000 		.4byte	.LBB96
 1671 0a72 06000000 		.4byte	.LBE96-.LBB96
 1672 0a76 01       		.byte	0x1
 1673 0a77 B1       		.byte	0xb1
 1674 0a78 B70A0000 		.4byte	0xab7
 1675 0a7c 26       		.uleb128 0x26
 1676 0a7d 30000000 		.4byte	.LBB97
 1677 0a81 06000000 		.4byte	.LBE97-.LBB97
 1678 0a85 27       		.uleb128 0x27
 1679 0a86 37070000 		.4byte	0x737
 1680 0a8a 23       		.uleb128 0x23
 1681 0a8b 18070000 		.4byte	0x718
 1682 0a8f 30000000 		.4byte	.LBB98
 1683 0a93 06000000 		.4byte	.LBE98-.LBB98
 1684 0a97 10       		.byte	0x10
 1685 0a98 7301     		.2byte	0x173
 1686 0a9a 23       		.uleb128 0x23
 1687 0a9b F5060000 		.4byte	0x6f5
 1688 0a9f 30000000 		.4byte	.LBB99
 1689 0aa3 06000000 		.4byte	.LBE99-.LBB99
 1690 0aa7 09       		.byte	0x9
 1691 0aa8 E301     		.2byte	0x1e3
 1692 0aaa 2B       		.uleb128 0x2b
 1693 0aab 02070000 		.4byte	0x702
 1694 0aaf 63010000 		.4byte	.LLST11
 1695 0ab3 00       		.byte	0
 1696 0ab4 00       		.byte	0
 1697 0ab5 00       		.byte	0
 1698 0ab6 00       		.byte	0
 1699 0ab7 31       		.uleb128 0x31
 1700 0ab8 0E000000 		.4byte	.LVL13
 1701 0abc BF0C0000 		.4byte	0xcbf
 1702 0ac0 D20A0000 		.4byte	0xad2
 1703 0ac4 2D       		.uleb128 0x2d
 1704 0ac5 01       		.uleb128 0x1
 1705 0ac6 51       		.byte	0x51
ARM GAS  /tmp/ccc3A5Vh.s 			page 31


 1706 0ac7 02       		.uleb128 0x2
 1707 0ac8 77       		.byte	0x77
 1708 0ac9 00       		.sleb128 0
 1709 0aca 2D       		.uleb128 0x2d
 1710 0acb 01       		.uleb128 0x1
 1711 0acc 50       		.byte	0x50
 1712 0acd 03       		.uleb128 0x3
 1713 0ace F3       		.byte	0xf3
 1714 0acf 01       		.uleb128 0x1
 1715 0ad0 50       		.byte	0x50
 1716 0ad1 00       		.byte	0
 1717 0ad2 31       		.uleb128 0x31
 1718 0ad3 24000000 		.4byte	.LVL15
 1719 0ad7 D90C0000 		.4byte	0xcd9
 1720 0adb FA0A0000 		.4byte	0xafa
 1721 0adf 2D       		.uleb128 0x2d
 1722 0ae0 01       		.uleb128 0x1
 1723 0ae1 53       		.byte	0x53
 1724 0ae2 02       		.uleb128 0x2
 1725 0ae3 75       		.byte	0x75
 1726 0ae4 00       		.sleb128 0
 1727 0ae5 2D       		.uleb128 0x2d
 1728 0ae6 01       		.uleb128 0x1
 1729 0ae7 52       		.byte	0x52
 1730 0ae8 02       		.uleb128 0x2
 1731 0ae9 76       		.byte	0x76
 1732 0aea 00       		.sleb128 0
 1733 0aeb 2D       		.uleb128 0x2d
 1734 0aec 01       		.uleb128 0x1
 1735 0aed 51       		.byte	0x51
 1736 0aee 02       		.uleb128 0x2
 1737 0aef 77       		.byte	0x77
 1738 0af0 00       		.sleb128 0
 1739 0af1 2D       		.uleb128 0x2d
 1740 0af2 02       		.uleb128 0x2
 1741 0af3 7D       		.byte	0x7d
 1742 0af4 00       		.sleb128 0
 1743 0af5 03       		.uleb128 0x3
 1744 0af6 91       		.byte	0x91
 1745 0af7 00       		.sleb128 0
 1746 0af8 06       		.byte	0x6
 1747 0af9 00       		.byte	0
 1748 0afa 32       		.uleb128 0x32
 1749 0afb 30000000 		.4byte	.LVL17
 1750 0aff 020D0000 		.4byte	0xd02
 1751 0b03 2D       		.uleb128 0x2d
 1752 0b04 01       		.uleb128 0x1
 1753 0b05 51       		.byte	0x51
 1754 0b06 01       		.uleb128 0x1
 1755 0b07 30       		.byte	0x30
 1756 0b08 2D       		.uleb128 0x2d
 1757 0b09 01       		.uleb128 0x1
 1758 0b0a 50       		.byte	0x50
 1759 0b0b 02       		.uleb128 0x2
 1760 0b0c 74       		.byte	0x74
 1761 0b0d 00       		.sleb128 0
 1762 0b0e 00       		.byte	0
ARM GAS  /tmp/ccc3A5Vh.s 			page 32


 1763 0b0f 00       		.byte	0
 1764 0b10 1F       		.uleb128 0x1f
 1765 0b11 40030000 		.4byte	.LASF123
 1766 0b15 01       		.byte	0x1
 1767 0b16 CE       		.byte	0xce
 1768 0b17 06020000 		.4byte	0x206
 1769 0b1b 00000000 		.4byte	.LFB233
 1770 0b1f 44000000 		.4byte	.LFE233-.LFB233
 1771 0b23 01       		.uleb128 0x1
 1772 0b24 9C       		.byte	0x9c
 1773 0b25 610C0000 		.4byte	0xc61
 1774 0b29 29       		.uleb128 0x29
 1775 0b2a 6D7000   		.ascii	"mp\000"
 1776 0b2d 01       		.byte	0x1
 1777 0b2e CE       		.byte	0xce
 1778 0b2f 610C0000 		.4byte	0xc61
 1779 0b33 77010000 		.4byte	.LLST12
 1780 0b37 2F       		.uleb128 0x2f
 1781 0b38 FD020000 		.4byte	.LASF121
 1782 0b3c 01       		.byte	0x1
 1783 0b3d CE       		.byte	0xce
 1784 0b3e C0000000 		.4byte	0xc0
 1785 0b42 95010000 		.4byte	.LLST13
 1786 0b46 29       		.uleb128 0x29
 1787 0b47 706600   		.ascii	"pf\000"
 1788 0b4a 01       		.byte	0x1
 1789 0b4b CF       		.byte	0xcf
 1790 0b4c BB050000 		.4byte	0x5bb
 1791 0b50 B3010000 		.4byte	.LLST14
 1792 0b54 29       		.uleb128 0x29
 1793 0b55 61726700 		.ascii	"arg\000"
 1794 0b59 01       		.byte	0x1
 1795 0b5a CF       		.byte	0xcf
 1796 0b5b E3020000 		.4byte	0x2e3
 1797 0b5f D1010000 		.4byte	.LLST15
 1798 0b63 30       		.uleb128 0x30
 1799 0b64 77737000 		.ascii	"wsp\000"
 1800 0b68 01       		.byte	0x1
 1801 0b69 D0       		.byte	0xd0
 1802 0b6a E3020000 		.4byte	0x2e3
 1803 0b6e EF010000 		.4byte	.LLST16
 1804 0b72 30       		.uleb128 0x30
 1805 0b73 747000   		.ascii	"tp\000"
 1806 0b76 01       		.byte	0x1
 1807 0b77 D1       		.byte	0xd1
 1808 0b78 06020000 		.4byte	0x206
 1809 0b7c 02020000 		.4byte	.LLST17
 1810 0b80 21       		.uleb128 0x21
 1811 0b81 38060000 		.4byte	.LASF117
 1812 0b85 770C0000 		.4byte	0xc77
 1813 0b89 22       		.uleb128 0x22
 1814 0b8a 21070000 		.4byte	0x721
 1815 0b8e 14000000 		.4byte	.LBB101
 1816 0b92 06000000 		.4byte	.LBE101-.LBB101
 1817 0b96 01       		.byte	0x1
 1818 0b97 E3       		.byte	0xe3
 1819 0b98 C80B0000 		.4byte	0xbc8
ARM GAS  /tmp/ccc3A5Vh.s 			page 33


 1820 0b9c 23       		.uleb128 0x23
 1821 0b9d 0F070000 		.4byte	0x70f
 1822 0ba1 14000000 		.4byte	.LBB102
 1823 0ba5 06000000 		.4byte	.LBE102-.LBB102
 1824 0ba9 10       		.byte	0x10
 1825 0baa 5C01     		.2byte	0x15c
 1826 0bac 23       		.uleb128 0x23
 1827 0bad F5060000 		.4byte	0x6f5
 1828 0bb1 14000000 		.4byte	.LBB103
 1829 0bb5 06000000 		.4byte	.LBE103-.LBB103
 1830 0bb9 09       		.byte	0x9
 1831 0bba D001     		.2byte	0x1d0
 1832 0bbc 2B       		.uleb128 0x2b
 1833 0bbd 02070000 		.4byte	0x702
 1834 0bc1 20020000 		.4byte	.LLST18
 1835 0bc5 00       		.byte	0
 1836 0bc6 00       		.byte	0
 1837 0bc7 00       		.byte	0
 1838 0bc8 22       		.uleb128 0x22
 1839 0bc9 2A070000 		.4byte	0x72a
 1840 0bcd 36000000 		.4byte	.LBB105
 1841 0bd1 06000000 		.4byte	.LBE105-.LBB105
 1842 0bd5 01       		.byte	0x1
 1843 0bd6 E8       		.byte	0xe8
 1844 0bd7 160C0000 		.4byte	0xc16
 1845 0bdb 26       		.uleb128 0x26
 1846 0bdc 36000000 		.4byte	.LBB106
 1847 0be0 06000000 		.4byte	.LBE106-.LBB106
 1848 0be4 27       		.uleb128 0x27
 1849 0be5 37070000 		.4byte	0x737
 1850 0be9 23       		.uleb128 0x23
 1851 0bea 18070000 		.4byte	0x718
 1852 0bee 36000000 		.4byte	.LBB107
 1853 0bf2 06000000 		.4byte	.LBE107-.LBB107
 1854 0bf6 10       		.byte	0x10
 1855 0bf7 7301     		.2byte	0x173
 1856 0bf9 23       		.uleb128 0x23
 1857 0bfa F5060000 		.4byte	0x6f5
 1858 0bfe 36000000 		.4byte	.LBB108
 1859 0c02 06000000 		.4byte	.LBE108-.LBB108
 1860 0c06 09       		.byte	0x9
 1861 0c07 E301     		.2byte	0x1e3
 1862 0c09 2B       		.uleb128 0x2b
 1863 0c0a 02070000 		.4byte	0x702
 1864 0c0e 35020000 		.4byte	.LLST19
 1865 0c12 00       		.byte	0
 1866 0c13 00       		.byte	0
 1867 0c14 00       		.byte	0
 1868 0c15 00       		.byte	0
 1869 0c16 31       		.uleb128 0x31
 1870 0c17 12000000 		.4byte	.LVL20
 1871 0c1b 190D0000 		.4byte	0xd19
 1872 0c1f 2A0C0000 		.4byte	0xc2a
 1873 0c23 2D       		.uleb128 0x2d
 1874 0c24 01       		.uleb128 0x1
 1875 0c25 50       		.byte	0x50
 1876 0c26 02       		.uleb128 0x2
ARM GAS  /tmp/ccc3A5Vh.s 			page 34


 1877 0c27 75       		.byte	0x75
 1878 0c28 00       		.sleb128 0
 1879 0c29 00       		.byte	0
 1880 0c2a 31       		.uleb128 0x31
 1881 0c2b 28000000 		.4byte	.LVL22
 1882 0c2f D90C0000 		.4byte	0xcd9
 1883 0c33 4B0C0000 		.4byte	0xc4b
 1884 0c37 2D       		.uleb128 0x2d
 1885 0c38 01       		.uleb128 0x1
 1886 0c39 53       		.byte	0x53
 1887 0c3a 02       		.uleb128 0x2
 1888 0c3b 76       		.byte	0x76
 1889 0c3c 00       		.sleb128 0
 1890 0c3d 2D       		.uleb128 0x2d
 1891 0c3e 01       		.uleb128 0x1
 1892 0c3f 52       		.byte	0x52
 1893 0c40 02       		.uleb128 0x2
 1894 0c41 77       		.byte	0x77
 1895 0c42 00       		.sleb128 0
 1896 0c43 2D       		.uleb128 0x2d
 1897 0c44 02       		.uleb128 0x2
 1898 0c45 7D       		.byte	0x7d
 1899 0c46 00       		.sleb128 0
 1900 0c47 02       		.uleb128 0x2
 1901 0c48 78       		.byte	0x78
 1902 0c49 00       		.sleb128 0
 1903 0c4a 00       		.byte	0
 1904 0c4b 32       		.uleb128 0x32
 1905 0c4c 36000000 		.4byte	.LVL24
 1906 0c50 020D0000 		.4byte	0xd02
 1907 0c54 2D       		.uleb128 0x2d
 1908 0c55 01       		.uleb128 0x1
 1909 0c56 51       		.byte	0x51
 1910 0c57 01       		.uleb128 0x1
 1911 0c58 30       		.byte	0x30
 1912 0c59 2D       		.uleb128 0x2d
 1913 0c5a 01       		.uleb128 0x1
 1914 0c5b 50       		.byte	0x50
 1915 0c5c 02       		.uleb128 0x2
 1916 0c5d 74       		.byte	0x74
 1917 0c5e 00       		.sleb128 0
 1918 0c5f 00       		.byte	0
 1919 0c60 00       		.byte	0
 1920 0c61 09       		.uleb128 0x9
 1921 0c62 04       		.byte	0x4
 1922 0c63 EA060000 		.4byte	0x6ea
 1923 0c67 14       		.uleb128 0x14
 1924 0c68 94050000 		.4byte	0x594
 1925 0c6c 770C0000 		.4byte	0xc77
 1926 0c70 15       		.uleb128 0x15
 1927 0c71 0D040000 		.4byte	0x40d
 1928 0c75 19       		.byte	0x19
 1929 0c76 00       		.byte	0
 1930 0c77 12       		.uleb128 0x12
 1931 0c78 670C0000 		.4byte	0xc67
 1932 0c7c 33       		.uleb128 0x33
 1933 0c7d DC040000 		.4byte	.LASF124
ARM GAS  /tmp/ccc3A5Vh.s 			page 35


 1934 0c81 11       		.byte	0x11
 1935 0c82 FA06     		.2byte	0x6fa
 1936 0c84 880C0000 		.4byte	0xc88
 1937 0c88 13       		.uleb128 0x13
 1938 0c89 4C000000 		.4byte	0x4c
 1939 0c8d 34       		.uleb128 0x34
 1940 0c8e 636800   		.ascii	"ch\000"
 1941 0c91 07       		.byte	0x7
 1942 0c92 0902     		.2byte	0x209
 1943 0c94 B2030000 		.4byte	0x3b2
 1944 0c98 35       		.uleb128 0x35
 1945 0c99 19030000 		.4byte	.LASF125
 1946 0c9d 0F       		.byte	0xf
 1947 0c9e 71       		.byte	0x71
 1948 0c9f AE0C0000 		.4byte	0xcae
 1949 0ca3 0C       		.uleb128 0xc
 1950 0ca4 610C0000 		.4byte	0xc61
 1951 0ca8 0C       		.uleb128 0xc
 1952 0ca9 E3020000 		.4byte	0x2e3
 1953 0cad 00       		.byte	0
 1954 0cae 35       		.uleb128 0x35
 1955 0caf E4030000 		.4byte	.LASF126
 1956 0cb3 0E       		.byte	0xe
 1957 0cb4 68       		.byte	0x68
 1958 0cb5 BF0C0000 		.4byte	0xcbf
 1959 0cb9 0C       		.uleb128 0xc
 1960 0cba E3020000 		.4byte	0x2e3
 1961 0cbe 00       		.byte	0
 1962 0cbf 36       		.uleb128 0x36
 1963 0cc0 83030000 		.4byte	.LASF127
 1964 0cc4 0E       		.byte	0xe
 1965 0cc5 67       		.byte	0x67
 1966 0cc6 E3020000 		.4byte	0x2e3
 1967 0cca D90C0000 		.4byte	0xcd9
 1968 0cce 0C       		.uleb128 0xc
 1969 0ccf 79060000 		.4byte	0x679
 1970 0cd3 0C       		.uleb128 0xc
 1971 0cd4 2C000000 		.4byte	0x2c
 1972 0cd8 00       		.byte	0
 1973 0cd9 36       		.uleb128 0x36
 1974 0cda 86050000 		.4byte	.LASF128
 1975 0cde 0C       		.byte	0xc
 1976 0cdf 87       		.byte	0x87
 1977 0ce0 06020000 		.4byte	0x206
 1978 0ce4 020D0000 		.4byte	0xd02
 1979 0ce8 0C       		.uleb128 0xc
 1980 0ce9 E3020000 		.4byte	0x2e3
 1981 0ced 0C       		.uleb128 0xc
 1982 0cee 2C000000 		.4byte	0x2c
 1983 0cf2 0C       		.uleb128 0xc
 1984 0cf3 C0000000 		.4byte	0xc0
 1985 0cf7 0C       		.uleb128 0xc
 1986 0cf8 BB050000 		.4byte	0x5bb
 1987 0cfc 0C       		.uleb128 0xc
 1988 0cfd E3020000 		.4byte	0x2e3
 1989 0d01 00       		.byte	0
 1990 0d02 37       		.uleb128 0x37
ARM GAS  /tmp/ccc3A5Vh.s 			page 36


 1991 0d03 C8050000 		.4byte	.LASF129
 1992 0d07 07       		.byte	0x7
 1993 0d08 1602     		.2byte	0x216
 1994 0d0a 190D0000 		.4byte	0xd19
 1995 0d0e 0C       		.uleb128 0xc
 1996 0d0f 06020000 		.4byte	0x206
 1997 0d13 0C       		.uleb128 0xc
 1998 0d14 CB000000 		.4byte	0xcb
 1999 0d18 00       		.byte	0
 2000 0d19 38       		.uleb128 0x38
 2001 0d1a 1D050000 		.4byte	.LASF130
 2002 0d1e 0F       		.byte	0xf
 2003 0d1f 6F       		.byte	0x6f
 2004 0d20 E3020000 		.4byte	0x2e3
 2005 0d24 0C       		.uleb128 0xc
 2006 0d25 610C0000 		.4byte	0xc61
 2007 0d29 00       		.byte	0
 2008 0d2a 00       		.byte	0
 2009              		.section	.debug_abbrev,"",%progbits
 2010              	.Ldebug_abbrev0:
 2011 0000 01       		.uleb128 0x1
 2012 0001 11       		.uleb128 0x11
 2013 0002 01       		.byte	0x1
 2014 0003 25       		.uleb128 0x25
 2015 0004 0E       		.uleb128 0xe
 2016 0005 13       		.uleb128 0x13
 2017 0006 0B       		.uleb128 0xb
 2018 0007 03       		.uleb128 0x3
 2019 0008 0E       		.uleb128 0xe
 2020 0009 1B       		.uleb128 0x1b
 2021 000a 0E       		.uleb128 0xe
 2022 000b 55       		.uleb128 0x55
 2023 000c 17       		.uleb128 0x17
 2024 000d 11       		.uleb128 0x11
 2025 000e 01       		.uleb128 0x1
 2026 000f 10       		.uleb128 0x10
 2027 0010 17       		.uleb128 0x17
 2028 0011 00       		.byte	0
 2029 0012 00       		.byte	0
 2030 0013 02       		.uleb128 0x2
 2031 0014 24       		.uleb128 0x24
 2032 0015 00       		.byte	0
 2033 0016 0B       		.uleb128 0xb
 2034 0017 0B       		.uleb128 0xb
 2035 0018 3E       		.uleb128 0x3e
 2036 0019 0B       		.uleb128 0xb
 2037 001a 03       		.uleb128 0x3
 2038 001b 08       		.uleb128 0x8
 2039 001c 00       		.byte	0
 2040 001d 00       		.byte	0
 2041 001e 03       		.uleb128 0x3
 2042 001f 16       		.uleb128 0x16
 2043 0020 00       		.byte	0
 2044 0021 03       		.uleb128 0x3
 2045 0022 0E       		.uleb128 0xe
 2046 0023 3A       		.uleb128 0x3a
 2047 0024 0B       		.uleb128 0xb
ARM GAS  /tmp/ccc3A5Vh.s 			page 37


 2048 0025 3B       		.uleb128 0x3b
 2049 0026 0B       		.uleb128 0xb
 2050 0027 49       		.uleb128 0x49
 2051 0028 13       		.uleb128 0x13
 2052 0029 00       		.byte	0
 2053 002a 00       		.byte	0
 2054 002b 04       		.uleb128 0x4
 2055 002c 24       		.uleb128 0x24
 2056 002d 00       		.byte	0
 2057 002e 0B       		.uleb128 0xb
 2058 002f 0B       		.uleb128 0xb
 2059 0030 3E       		.uleb128 0x3e
 2060 0031 0B       		.uleb128 0xb
 2061 0032 03       		.uleb128 0x3
 2062 0033 0E       		.uleb128 0xe
 2063 0034 00       		.byte	0
 2064 0035 00       		.byte	0
 2065 0036 05       		.uleb128 0x5
 2066 0037 13       		.uleb128 0x13
 2067 0038 01       		.byte	0x1
 2068 0039 03       		.uleb128 0x3
 2069 003a 0E       		.uleb128 0xe
 2070 003b 0B       		.uleb128 0xb
 2071 003c 0B       		.uleb128 0xb
 2072 003d 3A       		.uleb128 0x3a
 2073 003e 0B       		.uleb128 0xb
 2074 003f 3B       		.uleb128 0x3b
 2075 0040 0B       		.uleb128 0xb
 2076 0041 01       		.uleb128 0x1
 2077 0042 13       		.uleb128 0x13
 2078 0043 00       		.byte	0
 2079 0044 00       		.byte	0
 2080 0045 06       		.uleb128 0x6
 2081 0046 0D       		.uleb128 0xd
 2082 0047 00       		.byte	0
 2083 0048 03       		.uleb128 0x3
 2084 0049 0E       		.uleb128 0xe
 2085 004a 3A       		.uleb128 0x3a
 2086 004b 0B       		.uleb128 0xb
 2087 004c 3B       		.uleb128 0x3b
 2088 004d 0B       		.uleb128 0xb
 2089 004e 49       		.uleb128 0x49
 2090 004f 13       		.uleb128 0x13
 2091 0050 38       		.uleb128 0x38
 2092 0051 0B       		.uleb128 0xb
 2093 0052 00       		.byte	0
 2094 0053 00       		.byte	0
 2095 0054 07       		.uleb128 0x7
 2096 0055 0D       		.uleb128 0xd
 2097 0056 00       		.byte	0
 2098 0057 03       		.uleb128 0x3
 2099 0058 08       		.uleb128 0x8
 2100 0059 3A       		.uleb128 0x3a
 2101 005a 0B       		.uleb128 0xb
 2102 005b 3B       		.uleb128 0x3b
 2103 005c 05       		.uleb128 0x5
 2104 005d 49       		.uleb128 0x49
ARM GAS  /tmp/ccc3A5Vh.s 			page 38


 2105 005e 13       		.uleb128 0x13
 2106 005f 38       		.uleb128 0x38
 2107 0060 0B       		.uleb128 0xb
 2108 0061 00       		.byte	0
 2109 0062 00       		.byte	0
 2110 0063 08       		.uleb128 0x8
 2111 0064 0D       		.uleb128 0xd
 2112 0065 00       		.byte	0
 2113 0066 03       		.uleb128 0x3
 2114 0067 0E       		.uleb128 0xe
 2115 0068 3A       		.uleb128 0x3a
 2116 0069 0B       		.uleb128 0xb
 2117 006a 3B       		.uleb128 0x3b
 2118 006b 05       		.uleb128 0x5
 2119 006c 49       		.uleb128 0x49
 2120 006d 13       		.uleb128 0x13
 2121 006e 38       		.uleb128 0x38
 2122 006f 0B       		.uleb128 0xb
 2123 0070 00       		.byte	0
 2124 0071 00       		.byte	0
 2125 0072 09       		.uleb128 0x9
 2126 0073 0F       		.uleb128 0xf
 2127 0074 00       		.byte	0
 2128 0075 0B       		.uleb128 0xb
 2129 0076 0B       		.uleb128 0xb
 2130 0077 49       		.uleb128 0x49
 2131 0078 13       		.uleb128 0x13
 2132 0079 00       		.byte	0
 2133 007a 00       		.byte	0
 2134 007b 0A       		.uleb128 0xa
 2135 007c 13       		.uleb128 0x13
 2136 007d 01       		.byte	0x1
 2137 007e 03       		.uleb128 0x3
 2138 007f 0E       		.uleb128 0xe
 2139 0080 0B       		.uleb128 0xb
 2140 0081 0B       		.uleb128 0xb
 2141 0082 3A       		.uleb128 0x3a
 2142 0083 0B       		.uleb128 0xb
 2143 0084 3B       		.uleb128 0x3b
 2144 0085 05       		.uleb128 0x5
 2145 0086 01       		.uleb128 0x1
 2146 0087 13       		.uleb128 0x13
 2147 0088 00       		.byte	0
 2148 0089 00       		.byte	0
 2149 008a 0B       		.uleb128 0xb
 2150 008b 15       		.uleb128 0x15
 2151 008c 01       		.byte	0x1
 2152 008d 27       		.uleb128 0x27
 2153 008e 19       		.uleb128 0x19
 2154 008f 01       		.uleb128 0x1
 2155 0090 13       		.uleb128 0x13
 2156 0091 00       		.byte	0
 2157 0092 00       		.byte	0
 2158 0093 0C       		.uleb128 0xc
 2159 0094 05       		.uleb128 0x5
 2160 0095 00       		.byte	0
 2161 0096 49       		.uleb128 0x49
ARM GAS  /tmp/ccc3A5Vh.s 			page 39


 2162 0097 13       		.uleb128 0x13
 2163 0098 00       		.byte	0
 2164 0099 00       		.byte	0
 2165 009a 0D       		.uleb128 0xd
 2166 009b 0F       		.uleb128 0xf
 2167 009c 00       		.byte	0
 2168 009d 0B       		.uleb128 0xb
 2169 009e 0B       		.uleb128 0xb
 2170 009f 00       		.byte	0
 2171 00a0 00       		.byte	0
 2172 00a1 0E       		.uleb128 0xe
 2173 00a2 13       		.uleb128 0x13
 2174 00a3 01       		.byte	0x1
 2175 00a4 03       		.uleb128 0x3
 2176 00a5 0E       		.uleb128 0xe
 2177 00a6 0B       		.uleb128 0xb
 2178 00a7 05       		.uleb128 0x5
 2179 00a8 3A       		.uleb128 0x3a
 2180 00a9 0B       		.uleb128 0xb
 2181 00aa 3B       		.uleb128 0x3b
 2182 00ab 05       		.uleb128 0x5
 2183 00ac 01       		.uleb128 0x1
 2184 00ad 13       		.uleb128 0x13
 2185 00ae 00       		.byte	0
 2186 00af 00       		.byte	0
 2187 00b0 0F       		.uleb128 0xf
 2188 00b1 0D       		.uleb128 0xd
 2189 00b2 00       		.byte	0
 2190 00b3 03       		.uleb128 0x3
 2191 00b4 08       		.uleb128 0x8
 2192 00b5 3A       		.uleb128 0x3a
 2193 00b6 0B       		.uleb128 0xb
 2194 00b7 3B       		.uleb128 0x3b
 2195 00b8 0B       		.uleb128 0xb
 2196 00b9 49       		.uleb128 0x49
 2197 00ba 13       		.uleb128 0x13
 2198 00bb 38       		.uleb128 0x38
 2199 00bc 0B       		.uleb128 0xb
 2200 00bd 00       		.byte	0
 2201 00be 00       		.byte	0
 2202 00bf 10       		.uleb128 0x10
 2203 00c0 17       		.uleb128 0x17
 2204 00c1 01       		.byte	0x1
 2205 00c2 0B       		.uleb128 0xb
 2206 00c3 0B       		.uleb128 0xb
 2207 00c4 3A       		.uleb128 0x3a
 2208 00c5 0B       		.uleb128 0xb
 2209 00c6 3B       		.uleb128 0x3b
 2210 00c7 0B       		.uleb128 0xb
 2211 00c8 01       		.uleb128 0x1
 2212 00c9 13       		.uleb128 0x13
 2213 00ca 00       		.byte	0
 2214 00cb 00       		.byte	0
 2215 00cc 11       		.uleb128 0x11
 2216 00cd 0D       		.uleb128 0xd
 2217 00ce 00       		.byte	0
 2218 00cf 03       		.uleb128 0x3
ARM GAS  /tmp/ccc3A5Vh.s 			page 40


 2219 00d0 0E       		.uleb128 0xe
 2220 00d1 3A       		.uleb128 0x3a
 2221 00d2 0B       		.uleb128 0xb
 2222 00d3 3B       		.uleb128 0x3b
 2223 00d4 05       		.uleb128 0x5
 2224 00d5 49       		.uleb128 0x49
 2225 00d6 13       		.uleb128 0x13
 2226 00d7 00       		.byte	0
 2227 00d8 00       		.byte	0
 2228 00d9 12       		.uleb128 0x12
 2229 00da 26       		.uleb128 0x26
 2230 00db 00       		.byte	0
 2231 00dc 49       		.uleb128 0x49
 2232 00dd 13       		.uleb128 0x13
 2233 00de 00       		.byte	0
 2234 00df 00       		.byte	0
 2235 00e0 13       		.uleb128 0x13
 2236 00e1 35       		.uleb128 0x35
 2237 00e2 00       		.byte	0
 2238 00e3 49       		.uleb128 0x49
 2239 00e4 13       		.uleb128 0x13
 2240 00e5 00       		.byte	0
 2241 00e6 00       		.byte	0
 2242 00e7 14       		.uleb128 0x14
 2243 00e8 01       		.uleb128 0x1
 2244 00e9 01       		.byte	0x1
 2245 00ea 49       		.uleb128 0x49
 2246 00eb 13       		.uleb128 0x13
 2247 00ec 01       		.uleb128 0x1
 2248 00ed 13       		.uleb128 0x13
 2249 00ee 00       		.byte	0
 2250 00ef 00       		.byte	0
 2251 00f0 15       		.uleb128 0x15
 2252 00f1 21       		.uleb128 0x21
 2253 00f2 00       		.byte	0
 2254 00f3 49       		.uleb128 0x49
 2255 00f4 13       		.uleb128 0x13
 2256 00f5 2F       		.uleb128 0x2f
 2257 00f6 0B       		.uleb128 0xb
 2258 00f7 00       		.byte	0
 2259 00f8 00       		.byte	0
 2260 00f9 16       		.uleb128 0x16
 2261 00fa 15       		.uleb128 0x15
 2262 00fb 01       		.byte	0x1
 2263 00fc 27       		.uleb128 0x27
 2264 00fd 19       		.uleb128 0x19
 2265 00fe 49       		.uleb128 0x49
 2266 00ff 13       		.uleb128 0x13
 2267 0100 01       		.uleb128 0x1
 2268 0101 13       		.uleb128 0x13
 2269 0102 00       		.byte	0
 2270 0103 00       		.byte	0
 2271 0104 17       		.uleb128 0x17
 2272 0105 0D       		.uleb128 0xd
 2273 0106 00       		.byte	0
 2274 0107 03       		.uleb128 0x3
 2275 0108 0E       		.uleb128 0xe
ARM GAS  /tmp/ccc3A5Vh.s 			page 41


 2276 0109 3A       		.uleb128 0x3a
 2277 010a 0B       		.uleb128 0xb
 2278 010b 3B       		.uleb128 0x3b
 2279 010c 0B       		.uleb128 0xb
 2280 010d 49       		.uleb128 0x49
 2281 010e 13       		.uleb128 0x13
 2282 010f 00       		.byte	0
 2283 0110 00       		.byte	0
 2284 0111 18       		.uleb128 0x18
 2285 0112 17       		.uleb128 0x17
 2286 0113 01       		.byte	0x1
 2287 0114 03       		.uleb128 0x3
 2288 0115 0E       		.uleb128 0xe
 2289 0116 0B       		.uleb128 0xb
 2290 0117 0B       		.uleb128 0xb
 2291 0118 3A       		.uleb128 0x3a
 2292 0119 0B       		.uleb128 0xb
 2293 011a 3B       		.uleb128 0x3b
 2294 011b 0B       		.uleb128 0xb
 2295 011c 01       		.uleb128 0x1
 2296 011d 13       		.uleb128 0x13
 2297 011e 00       		.byte	0
 2298 011f 00       		.byte	0
 2299 0120 19       		.uleb128 0x19
 2300 0121 0D       		.uleb128 0xd
 2301 0122 00       		.byte	0
 2302 0123 03       		.uleb128 0x3
 2303 0124 08       		.uleb128 0x8
 2304 0125 3A       		.uleb128 0x3a
 2305 0126 0B       		.uleb128 0xb
 2306 0127 3B       		.uleb128 0x3b
 2307 0128 0B       		.uleb128 0xb
 2308 0129 49       		.uleb128 0x49
 2309 012a 13       		.uleb128 0x13
 2310 012b 00       		.byte	0
 2311 012c 00       		.byte	0
 2312 012d 1A       		.uleb128 0x1a
 2313 012e 13       		.uleb128 0x13
 2314 012f 01       		.byte	0x1
 2315 0130 0B       		.uleb128 0xb
 2316 0131 0B       		.uleb128 0xb
 2317 0132 3A       		.uleb128 0x3a
 2318 0133 0B       		.uleb128 0xb
 2319 0134 3B       		.uleb128 0x3b
 2320 0135 0B       		.uleb128 0xb
 2321 0136 01       		.uleb128 0x1
 2322 0137 13       		.uleb128 0x13
 2323 0138 00       		.byte	0
 2324 0139 00       		.byte	0
 2325 013a 1B       		.uleb128 0x1b
 2326 013b 2E       		.uleb128 0x2e
 2327 013c 01       		.byte	0x1
 2328 013d 03       		.uleb128 0x3
 2329 013e 0E       		.uleb128 0xe
 2330 013f 3A       		.uleb128 0x3a
 2331 0140 0B       		.uleb128 0xb
 2332 0141 3B       		.uleb128 0x3b
ARM GAS  /tmp/ccc3A5Vh.s 			page 42


 2333 0142 05       		.uleb128 0x5
 2334 0143 27       		.uleb128 0x27
 2335 0144 19       		.uleb128 0x19
 2336 0145 20       		.uleb128 0x20
 2337 0146 0B       		.uleb128 0xb
 2338 0147 01       		.uleb128 0x1
 2339 0148 13       		.uleb128 0x13
 2340 0149 00       		.byte	0
 2341 014a 00       		.byte	0
 2342 014b 1C       		.uleb128 0x1c
 2343 014c 05       		.uleb128 0x5
 2344 014d 00       		.byte	0
 2345 014e 03       		.uleb128 0x3
 2346 014f 0E       		.uleb128 0xe
 2347 0150 3A       		.uleb128 0x3a
 2348 0151 0B       		.uleb128 0xb
 2349 0152 3B       		.uleb128 0x3b
 2350 0153 05       		.uleb128 0x5
 2351 0154 49       		.uleb128 0x49
 2352 0155 13       		.uleb128 0x13
 2353 0156 00       		.byte	0
 2354 0157 00       		.byte	0
 2355 0158 1D       		.uleb128 0x1d
 2356 0159 2E       		.uleb128 0x2e
 2357 015a 00       		.byte	0
 2358 015b 03       		.uleb128 0x3
 2359 015c 0E       		.uleb128 0xe
 2360 015d 3A       		.uleb128 0x3a
 2361 015e 0B       		.uleb128 0xb
 2362 015f 3B       		.uleb128 0x3b
 2363 0160 05       		.uleb128 0x5
 2364 0161 27       		.uleb128 0x27
 2365 0162 19       		.uleb128 0x19
 2366 0163 20       		.uleb128 0x20
 2367 0164 0B       		.uleb128 0xb
 2368 0165 00       		.byte	0
 2369 0166 00       		.byte	0
 2370 0167 1E       		.uleb128 0x1e
 2371 0168 34       		.uleb128 0x34
 2372 0169 00       		.byte	0
 2373 016a 03       		.uleb128 0x3
 2374 016b 0E       		.uleb128 0xe
 2375 016c 49       		.uleb128 0x49
 2376 016d 13       		.uleb128 0x13
 2377 016e 34       		.uleb128 0x34
 2378 016f 19       		.uleb128 0x19
 2379 0170 1C       		.uleb128 0x1c
 2380 0171 0E       		.uleb128 0xe
 2381 0172 00       		.byte	0
 2382 0173 00       		.byte	0
 2383 0174 1F       		.uleb128 0x1f
 2384 0175 2E       		.uleb128 0x2e
 2385 0176 01       		.byte	0x1
 2386 0177 3F       		.uleb128 0x3f
 2387 0178 19       		.uleb128 0x19
 2388 0179 03       		.uleb128 0x3
 2389 017a 0E       		.uleb128 0xe
ARM GAS  /tmp/ccc3A5Vh.s 			page 43


 2390 017b 3A       		.uleb128 0x3a
 2391 017c 0B       		.uleb128 0xb
 2392 017d 3B       		.uleb128 0x3b
 2393 017e 0B       		.uleb128 0xb
 2394 017f 27       		.uleb128 0x27
 2395 0180 19       		.uleb128 0x19
 2396 0181 49       		.uleb128 0x49
 2397 0182 13       		.uleb128 0x13
 2398 0183 11       		.uleb128 0x11
 2399 0184 01       		.uleb128 0x1
 2400 0185 12       		.uleb128 0x12
 2401 0186 06       		.uleb128 0x6
 2402 0187 40       		.uleb128 0x40
 2403 0188 18       		.uleb128 0x18
 2404 0189 9742     		.uleb128 0x2117
 2405 018b 19       		.uleb128 0x19
 2406 018c 01       		.uleb128 0x1
 2407 018d 13       		.uleb128 0x13
 2408 018e 00       		.byte	0
 2409 018f 00       		.byte	0
 2410 0190 20       		.uleb128 0x20
 2411 0191 05       		.uleb128 0x5
 2412 0192 00       		.byte	0
 2413 0193 03       		.uleb128 0x3
 2414 0194 08       		.uleb128 0x8
 2415 0195 3A       		.uleb128 0x3a
 2416 0196 0B       		.uleb128 0xb
 2417 0197 3B       		.uleb128 0x3b
 2418 0198 0B       		.uleb128 0xb
 2419 0199 49       		.uleb128 0x49
 2420 019a 13       		.uleb128 0x13
 2421 019b 02       		.uleb128 0x2
 2422 019c 18       		.uleb128 0x18
 2423 019d 00       		.byte	0
 2424 019e 00       		.byte	0
 2425 019f 21       		.uleb128 0x21
 2426 01a0 34       		.uleb128 0x34
 2427 01a1 00       		.byte	0
 2428 01a2 03       		.uleb128 0x3
 2429 01a3 0E       		.uleb128 0xe
 2430 01a4 49       		.uleb128 0x49
 2431 01a5 13       		.uleb128 0x13
 2432 01a6 34       		.uleb128 0x34
 2433 01a7 19       		.uleb128 0x19
 2434 01a8 00       		.byte	0
 2435 01a9 00       		.byte	0
 2436 01aa 22       		.uleb128 0x22
 2437 01ab 1D       		.uleb128 0x1d
 2438 01ac 01       		.byte	0x1
 2439 01ad 31       		.uleb128 0x31
 2440 01ae 13       		.uleb128 0x13
 2441 01af 11       		.uleb128 0x11
 2442 01b0 01       		.uleb128 0x1
 2443 01b1 12       		.uleb128 0x12
 2444 01b2 06       		.uleb128 0x6
 2445 01b3 58       		.uleb128 0x58
 2446 01b4 0B       		.uleb128 0xb
ARM GAS  /tmp/ccc3A5Vh.s 			page 44


 2447 01b5 59       		.uleb128 0x59
 2448 01b6 0B       		.uleb128 0xb
 2449 01b7 01       		.uleb128 0x1
 2450 01b8 13       		.uleb128 0x13
 2451 01b9 00       		.byte	0
 2452 01ba 00       		.byte	0
 2453 01bb 23       		.uleb128 0x23
 2454 01bc 1D       		.uleb128 0x1d
 2455 01bd 01       		.byte	0x1
 2456 01be 31       		.uleb128 0x31
 2457 01bf 13       		.uleb128 0x13
 2458 01c0 11       		.uleb128 0x11
 2459 01c1 01       		.uleb128 0x1
 2460 01c2 12       		.uleb128 0x12
 2461 01c3 06       		.uleb128 0x6
 2462 01c4 58       		.uleb128 0x58
 2463 01c5 0B       		.uleb128 0xb
 2464 01c6 59       		.uleb128 0x59
 2465 01c7 05       		.uleb128 0x5
 2466 01c8 00       		.byte	0
 2467 01c9 00       		.byte	0
 2468 01ca 24       		.uleb128 0x24
 2469 01cb 05       		.uleb128 0x5
 2470 01cc 00       		.byte	0
 2471 01cd 31       		.uleb128 0x31
 2472 01ce 13       		.uleb128 0x13
 2473 01cf 1C       		.uleb128 0x1c
 2474 01d0 0B       		.uleb128 0xb
 2475 01d1 00       		.byte	0
 2476 01d2 00       		.byte	0
 2477 01d3 25       		.uleb128 0x25
 2478 01d4 1D       		.uleb128 0x1d
 2479 01d5 01       		.byte	0x1
 2480 01d6 31       		.uleb128 0x31
 2481 01d7 13       		.uleb128 0x13
 2482 01d8 11       		.uleb128 0x11
 2483 01d9 01       		.uleb128 0x1
 2484 01da 12       		.uleb128 0x12
 2485 01db 06       		.uleb128 0x6
 2486 01dc 58       		.uleb128 0x58
 2487 01dd 0B       		.uleb128 0xb
 2488 01de 59       		.uleb128 0x59
 2489 01df 0B       		.uleb128 0xb
 2490 01e0 00       		.byte	0
 2491 01e1 00       		.byte	0
 2492 01e2 26       		.uleb128 0x26
 2493 01e3 0B       		.uleb128 0xb
 2494 01e4 01       		.byte	0x1
 2495 01e5 11       		.uleb128 0x11
 2496 01e6 01       		.uleb128 0x1
 2497 01e7 12       		.uleb128 0x12
 2498 01e8 06       		.uleb128 0x6
 2499 01e9 00       		.byte	0
 2500 01ea 00       		.byte	0
 2501 01eb 27       		.uleb128 0x27
 2502 01ec 34       		.uleb128 0x34
 2503 01ed 00       		.byte	0
ARM GAS  /tmp/ccc3A5Vh.s 			page 45


 2504 01ee 31       		.uleb128 0x31
 2505 01ef 13       		.uleb128 0x13
 2506 01f0 00       		.byte	0
 2507 01f1 00       		.byte	0
 2508 01f2 28       		.uleb128 0x28
 2509 01f3 2E       		.uleb128 0x2e
 2510 01f4 01       		.byte	0x1
 2511 01f5 3F       		.uleb128 0x3f
 2512 01f6 19       		.uleb128 0x19
 2513 01f7 03       		.uleb128 0x3
 2514 01f8 0E       		.uleb128 0xe
 2515 01f9 3A       		.uleb128 0x3a
 2516 01fa 0B       		.uleb128 0xb
 2517 01fb 3B       		.uleb128 0x3b
 2518 01fc 0B       		.uleb128 0xb
 2519 01fd 27       		.uleb128 0x27
 2520 01fe 19       		.uleb128 0x19
 2521 01ff 11       		.uleb128 0x11
 2522 0200 01       		.uleb128 0x1
 2523 0201 12       		.uleb128 0x12
 2524 0202 06       		.uleb128 0x6
 2525 0203 40       		.uleb128 0x40
 2526 0204 18       		.uleb128 0x18
 2527 0205 9742     		.uleb128 0x2117
 2528 0207 19       		.uleb128 0x19
 2529 0208 01       		.uleb128 0x1
 2530 0209 13       		.uleb128 0x13
 2531 020a 00       		.byte	0
 2532 020b 00       		.byte	0
 2533 020c 29       		.uleb128 0x29
 2534 020d 05       		.uleb128 0x5
 2535 020e 00       		.byte	0
 2536 020f 03       		.uleb128 0x3
 2537 0210 08       		.uleb128 0x8
 2538 0211 3A       		.uleb128 0x3a
 2539 0212 0B       		.uleb128 0xb
 2540 0213 3B       		.uleb128 0x3b
 2541 0214 0B       		.uleb128 0xb
 2542 0215 49       		.uleb128 0x49
 2543 0216 13       		.uleb128 0x13
 2544 0217 02       		.uleb128 0x2
 2545 0218 17       		.uleb128 0x17
 2546 0219 00       		.byte	0
 2547 021a 00       		.byte	0
 2548 021b 2A       		.uleb128 0x2a
 2549 021c 34       		.uleb128 0x34
 2550 021d 00       		.byte	0
 2551 021e 03       		.uleb128 0x3
 2552 021f 0E       		.uleb128 0xe
 2553 0220 3A       		.uleb128 0x3a
 2554 0221 0B       		.uleb128 0xb
 2555 0222 3B       		.uleb128 0x3b
 2556 0223 0B       		.uleb128 0xb
 2557 0224 49       		.uleb128 0x49
 2558 0225 13       		.uleb128 0x13
 2559 0226 02       		.uleb128 0x2
 2560 0227 17       		.uleb128 0x17
ARM GAS  /tmp/ccc3A5Vh.s 			page 46


 2561 0228 00       		.byte	0
 2562 0229 00       		.byte	0
 2563 022a 2B       		.uleb128 0x2b
 2564 022b 05       		.uleb128 0x5
 2565 022c 00       		.byte	0
 2566 022d 31       		.uleb128 0x31
 2567 022e 13       		.uleb128 0x13
 2568 022f 02       		.uleb128 0x2
 2569 0230 17       		.uleb128 0x17
 2570 0231 00       		.byte	0
 2571 0232 00       		.byte	0
 2572 0233 2C       		.uleb128 0x2c
 2573 0234 898201   		.uleb128 0x4109
 2574 0237 01       		.byte	0x1
 2575 0238 11       		.uleb128 0x11
 2576 0239 01       		.uleb128 0x1
 2577 023a 9542     		.uleb128 0x2115
 2578 023c 19       		.uleb128 0x19
 2579 023d 31       		.uleb128 0x31
 2580 023e 13       		.uleb128 0x13
 2581 023f 01       		.uleb128 0x1
 2582 0240 13       		.uleb128 0x13
 2583 0241 00       		.byte	0
 2584 0242 00       		.byte	0
 2585 0243 2D       		.uleb128 0x2d
 2586 0244 8A8201   		.uleb128 0x410a
 2587 0247 00       		.byte	0
 2588 0248 02       		.uleb128 0x2
 2589 0249 18       		.uleb128 0x18
 2590 024a 9142     		.uleb128 0x2111
 2591 024c 18       		.uleb128 0x18
 2592 024d 00       		.byte	0
 2593 024e 00       		.byte	0
 2594 024f 2E       		.uleb128 0x2e
 2595 0250 898201   		.uleb128 0x4109
 2596 0253 01       		.byte	0x1
 2597 0254 11       		.uleb128 0x11
 2598 0255 01       		.uleb128 0x1
 2599 0256 9542     		.uleb128 0x2115
 2600 0258 19       		.uleb128 0x19
 2601 0259 31       		.uleb128 0x31
 2602 025a 13       		.uleb128 0x13
 2603 025b 00       		.byte	0
 2604 025c 00       		.byte	0
 2605 025d 2F       		.uleb128 0x2f
 2606 025e 05       		.uleb128 0x5
 2607 025f 00       		.byte	0
 2608 0260 03       		.uleb128 0x3
 2609 0261 0E       		.uleb128 0xe
 2610 0262 3A       		.uleb128 0x3a
 2611 0263 0B       		.uleb128 0xb
 2612 0264 3B       		.uleb128 0x3b
 2613 0265 0B       		.uleb128 0xb
 2614 0266 49       		.uleb128 0x49
 2615 0267 13       		.uleb128 0x13
 2616 0268 02       		.uleb128 0x2
 2617 0269 17       		.uleb128 0x17
ARM GAS  /tmp/ccc3A5Vh.s 			page 47


 2618 026a 00       		.byte	0
 2619 026b 00       		.byte	0
 2620 026c 30       		.uleb128 0x30
 2621 026d 34       		.uleb128 0x34
 2622 026e 00       		.byte	0
 2623 026f 03       		.uleb128 0x3
 2624 0270 08       		.uleb128 0x8
 2625 0271 3A       		.uleb128 0x3a
 2626 0272 0B       		.uleb128 0xb
 2627 0273 3B       		.uleb128 0x3b
 2628 0274 0B       		.uleb128 0xb
 2629 0275 49       		.uleb128 0x49
 2630 0276 13       		.uleb128 0x13
 2631 0277 02       		.uleb128 0x2
 2632 0278 17       		.uleb128 0x17
 2633 0279 00       		.byte	0
 2634 027a 00       		.byte	0
 2635 027b 31       		.uleb128 0x31
 2636 027c 898201   		.uleb128 0x4109
 2637 027f 01       		.byte	0x1
 2638 0280 11       		.uleb128 0x11
 2639 0281 01       		.uleb128 0x1
 2640 0282 31       		.uleb128 0x31
 2641 0283 13       		.uleb128 0x13
 2642 0284 01       		.uleb128 0x1
 2643 0285 13       		.uleb128 0x13
 2644 0286 00       		.byte	0
 2645 0287 00       		.byte	0
 2646 0288 32       		.uleb128 0x32
 2647 0289 898201   		.uleb128 0x4109
 2648 028c 01       		.byte	0x1
 2649 028d 11       		.uleb128 0x11
 2650 028e 01       		.uleb128 0x1
 2651 028f 31       		.uleb128 0x31
 2652 0290 13       		.uleb128 0x13
 2653 0291 00       		.byte	0
 2654 0292 00       		.byte	0
 2655 0293 33       		.uleb128 0x33
 2656 0294 34       		.uleb128 0x34
 2657 0295 00       		.byte	0
 2658 0296 03       		.uleb128 0x3
 2659 0297 0E       		.uleb128 0xe
 2660 0298 3A       		.uleb128 0x3a
 2661 0299 0B       		.uleb128 0xb
 2662 029a 3B       		.uleb128 0x3b
 2663 029b 05       		.uleb128 0x5
 2664 029c 49       		.uleb128 0x49
 2665 029d 13       		.uleb128 0x13
 2666 029e 3F       		.uleb128 0x3f
 2667 029f 19       		.uleb128 0x19
 2668 02a0 3C       		.uleb128 0x3c
 2669 02a1 19       		.uleb128 0x19
 2670 02a2 00       		.byte	0
 2671 02a3 00       		.byte	0
 2672 02a4 34       		.uleb128 0x34
 2673 02a5 34       		.uleb128 0x34
 2674 02a6 00       		.byte	0
ARM GAS  /tmp/ccc3A5Vh.s 			page 48


 2675 02a7 03       		.uleb128 0x3
 2676 02a8 08       		.uleb128 0x8
 2677 02a9 3A       		.uleb128 0x3a
 2678 02aa 0B       		.uleb128 0xb
 2679 02ab 3B       		.uleb128 0x3b
 2680 02ac 05       		.uleb128 0x5
 2681 02ad 49       		.uleb128 0x49
 2682 02ae 13       		.uleb128 0x13
 2683 02af 3F       		.uleb128 0x3f
 2684 02b0 19       		.uleb128 0x19
 2685 02b1 3C       		.uleb128 0x3c
 2686 02b2 19       		.uleb128 0x19
 2687 02b3 00       		.byte	0
 2688 02b4 00       		.byte	0
 2689 02b5 35       		.uleb128 0x35
 2690 02b6 2E       		.uleb128 0x2e
 2691 02b7 01       		.byte	0x1
 2692 02b8 3F       		.uleb128 0x3f
 2693 02b9 19       		.uleb128 0x19
 2694 02ba 03       		.uleb128 0x3
 2695 02bb 0E       		.uleb128 0xe
 2696 02bc 3A       		.uleb128 0x3a
 2697 02bd 0B       		.uleb128 0xb
 2698 02be 3B       		.uleb128 0x3b
 2699 02bf 0B       		.uleb128 0xb
 2700 02c0 27       		.uleb128 0x27
 2701 02c1 19       		.uleb128 0x19
 2702 02c2 3C       		.uleb128 0x3c
 2703 02c3 19       		.uleb128 0x19
 2704 02c4 01       		.uleb128 0x1
 2705 02c5 13       		.uleb128 0x13
 2706 02c6 00       		.byte	0
 2707 02c7 00       		.byte	0
 2708 02c8 36       		.uleb128 0x36
 2709 02c9 2E       		.uleb128 0x2e
 2710 02ca 01       		.byte	0x1
 2711 02cb 3F       		.uleb128 0x3f
 2712 02cc 19       		.uleb128 0x19
 2713 02cd 03       		.uleb128 0x3
 2714 02ce 0E       		.uleb128 0xe
 2715 02cf 3A       		.uleb128 0x3a
 2716 02d0 0B       		.uleb128 0xb
 2717 02d1 3B       		.uleb128 0x3b
 2718 02d2 0B       		.uleb128 0xb
 2719 02d3 27       		.uleb128 0x27
 2720 02d4 19       		.uleb128 0x19
 2721 02d5 49       		.uleb128 0x49
 2722 02d6 13       		.uleb128 0x13
 2723 02d7 3C       		.uleb128 0x3c
 2724 02d8 19       		.uleb128 0x19
 2725 02d9 01       		.uleb128 0x1
 2726 02da 13       		.uleb128 0x13
 2727 02db 00       		.byte	0
 2728 02dc 00       		.byte	0
 2729 02dd 37       		.uleb128 0x37
 2730 02de 2E       		.uleb128 0x2e
 2731 02df 01       		.byte	0x1
ARM GAS  /tmp/ccc3A5Vh.s 			page 49


 2732 02e0 3F       		.uleb128 0x3f
 2733 02e1 19       		.uleb128 0x19
 2734 02e2 03       		.uleb128 0x3
 2735 02e3 0E       		.uleb128 0xe
 2736 02e4 3A       		.uleb128 0x3a
 2737 02e5 0B       		.uleb128 0xb
 2738 02e6 3B       		.uleb128 0x3b
 2739 02e7 05       		.uleb128 0x5
 2740 02e8 27       		.uleb128 0x27
 2741 02e9 19       		.uleb128 0x19
 2742 02ea 3C       		.uleb128 0x3c
 2743 02eb 19       		.uleb128 0x19
 2744 02ec 01       		.uleb128 0x1
 2745 02ed 13       		.uleb128 0x13
 2746 02ee 00       		.byte	0
 2747 02ef 00       		.byte	0
 2748 02f0 38       		.uleb128 0x38
 2749 02f1 2E       		.uleb128 0x2e
 2750 02f2 01       		.byte	0x1
 2751 02f3 3F       		.uleb128 0x3f
 2752 02f4 19       		.uleb128 0x19
 2753 02f5 03       		.uleb128 0x3
 2754 02f6 0E       		.uleb128 0xe
 2755 02f7 3A       		.uleb128 0x3a
 2756 02f8 0B       		.uleb128 0xb
 2757 02f9 3B       		.uleb128 0x3b
 2758 02fa 0B       		.uleb128 0xb
 2759 02fb 27       		.uleb128 0x27
 2760 02fc 19       		.uleb128 0x19
 2761 02fd 49       		.uleb128 0x49
 2762 02fe 13       		.uleb128 0x13
 2763 02ff 3C       		.uleb128 0x3c
 2764 0300 19       		.uleb128 0x19
 2765 0301 00       		.byte	0
 2766 0302 00       		.byte	0
 2767 0303 00       		.byte	0
 2768              		.section	.debug_loc,"",%progbits
 2769              	.Ldebug_loc0:
 2770              	.LLST0:
 2771 0000 00000000 		.4byte	.LVL2
 2772 0004 32000000 		.4byte	.LVL7
 2773 0008 0100     		.2byte	0x1
 2774 000a 50       		.byte	0x50
 2775 000b 32000000 		.4byte	.LVL7
 2776 000f 41000000 		.4byte	.LVL9-1
 2777 0013 0100     		.2byte	0x1
 2778 0015 51       		.byte	0x51
 2779 0016 41000000 		.4byte	.LVL9-1
 2780 001a 42000000 		.4byte	.LVL9
 2781 001e 0400     		.2byte	0x4
 2782 0020 F3       		.byte	0xf3
 2783 0021 01       		.uleb128 0x1
 2784 0022 50       		.byte	0x50
 2785 0023 9F       		.byte	0x9f
 2786 0024 42000000 		.4byte	.LVL9
 2787 0028 59000000 		.4byte	.LVL11-1
 2788 002c 0100     		.2byte	0x1
ARM GAS  /tmp/ccc3A5Vh.s 			page 50


 2789 002e 50       		.byte	0x50
 2790 002f 59000000 		.4byte	.LVL11-1
 2791 0033 5A000000 		.4byte	.LFE231
 2792 0037 0400     		.2byte	0x4
 2793 0039 F3       		.byte	0xf3
 2794 003a 01       		.uleb128 0x1
 2795 003b 50       		.byte	0x50
 2796 003c 9F       		.byte	0x9f
 2797 003d 00000000 		.4byte	0
 2798 0041 00000000 		.4byte	0
 2799              	.LLST1:
 2800 0045 10000000 		.4byte	.LVL3
 2801 0049 1A000000 		.4byte	.LVL5
 2802 004d 0100     		.2byte	0x1
 2803 004f 53       		.byte	0x53
 2804 0050 1A000000 		.4byte	.LVL5
 2805 0054 20000000 		.4byte	.LVL6
 2806 0058 0200     		.2byte	0x2
 2807 005a 70       		.byte	0x70
 2808 005b 1E       		.sleb128 30
 2809 005c 20000000 		.4byte	.LVL6
 2810 0060 41000000 		.4byte	.LVL9-1
 2811 0064 0100     		.2byte	0x1
 2812 0066 53       		.byte	0x53
 2813 0067 42000000 		.4byte	.LVL9
 2814 006b 59000000 		.4byte	.LVL11-1
 2815 006f 0100     		.2byte	0x1
 2816 0071 53       		.byte	0x53
 2817 0072 00000000 		.4byte	0
 2818 0076 00000000 		.4byte	0
 2819              	.LLST2:
 2820 007a 18000000 		.4byte	.LVL4
 2821 007e 20000000 		.4byte	.LVL6
 2822 0082 0200     		.2byte	0x2
 2823 0084 30       		.byte	0x30
 2824 0085 9F       		.byte	0x9f
 2825 0086 00000000 		.4byte	0
 2826 008a 00000000 		.4byte	0
 2827              	.LLST3:
 2828 008e 38000000 		.4byte	.LVL8
 2829 0092 42000000 		.4byte	.LVL9
 2830 0096 0200     		.2byte	0x2
 2831 0098 30       		.byte	0x30
 2832 0099 9F       		.byte	0x9f
 2833 009a 00000000 		.4byte	0
 2834 009e 00000000 		.4byte	0
 2835              	.LLST4:
 2836 00a2 00000000 		.4byte	.LVL12
 2837 00a6 0D000000 		.4byte	.LVL13-1
 2838 00aa 0100     		.2byte	0x1
 2839 00ac 50       		.byte	0x50
 2840 00ad 0D000000 		.4byte	.LVL13-1
 2841 00b1 3C000000 		.4byte	.LFE232
 2842 00b5 0400     		.2byte	0x4
 2843 00b7 F3       		.byte	0xf3
 2844 00b8 01       		.uleb128 0x1
 2845 00b9 50       		.byte	0x50
ARM GAS  /tmp/ccc3A5Vh.s 			page 51


 2846 00ba 9F       		.byte	0x9f
 2847 00bb 00000000 		.4byte	0
 2848 00bf 00000000 		.4byte	0
 2849              	.LLST5:
 2850 00c3 00000000 		.4byte	.LVL12
 2851 00c7 0D000000 		.4byte	.LVL13-1
 2852 00cb 0100     		.2byte	0x1
 2853 00cd 51       		.byte	0x51
 2854 00ce 0D000000 		.4byte	.LVL13-1
 2855 00d2 3C000000 		.4byte	.LFE232
 2856 00d6 0100     		.2byte	0x1
 2857 00d8 57       		.byte	0x57
 2858 00d9 00000000 		.4byte	0
 2859 00dd 00000000 		.4byte	0
 2860              	.LLST6:
 2861 00e1 00000000 		.4byte	.LVL12
 2862 00e5 0D000000 		.4byte	.LVL13-1
 2863 00e9 0100     		.2byte	0x1
 2864 00eb 52       		.byte	0x52
 2865 00ec 0D000000 		.4byte	.LVL13-1
 2866 00f0 3C000000 		.4byte	.LFE232
 2867 00f4 0100     		.2byte	0x1
 2868 00f6 56       		.byte	0x56
 2869 00f7 00000000 		.4byte	0
 2870 00fb 00000000 		.4byte	0
 2871              	.LLST7:
 2872 00ff 00000000 		.4byte	.LVL12
 2873 0103 0D000000 		.4byte	.LVL13-1
 2874 0107 0100     		.2byte	0x1
 2875 0109 53       		.byte	0x53
 2876 010a 0D000000 		.4byte	.LVL13-1
 2877 010e 3C000000 		.4byte	.LFE232
 2878 0112 0100     		.2byte	0x1
 2879 0114 55       		.byte	0x55
 2880 0115 00000000 		.4byte	0
 2881 0119 00000000 		.4byte	0
 2882              	.LLST8:
 2883 011d 0E000000 		.4byte	.LVL13
 2884 0121 23000000 		.4byte	.LVL15-1
 2885 0125 0100     		.2byte	0x1
 2886 0127 50       		.byte	0x50
 2887 0128 00000000 		.4byte	0
 2888 012c 00000000 		.4byte	0
 2889              	.LLST9:
 2890 0130 2C000000 		.4byte	.LVL16
 2891 0134 2F000000 		.4byte	.LVL17-1
 2892 0138 0100     		.2byte	0x1
 2893 013a 50       		.byte	0x50
 2894 013b 2F000000 		.4byte	.LVL17-1
 2895 013f 38000000 		.4byte	.LVL18
 2896 0143 0100     		.2byte	0x1
 2897 0145 54       		.byte	0x54
 2898 0146 00000000 		.4byte	0
 2899 014a 00000000 		.4byte	0
 2900              	.LLST10:
 2901 014e 10000000 		.4byte	.LVL14
 2902 0152 38000000 		.4byte	.LVL18
ARM GAS  /tmp/ccc3A5Vh.s 			page 52


 2903 0156 0300     		.2byte	0x3
 2904 0158 08       		.byte	0x8
 2905 0159 20       		.byte	0x20
 2906 015a 9F       		.byte	0x9f
 2907 015b 00000000 		.4byte	0
 2908 015f 00000000 		.4byte	0
 2909              	.LLST11:
 2910 0163 30000000 		.4byte	.LVL17
 2911 0167 38000000 		.4byte	.LVL18
 2912 016b 0200     		.2byte	0x2
 2913 016d 30       		.byte	0x30
 2914 016e 9F       		.byte	0x9f
 2915 016f 00000000 		.4byte	0
 2916 0173 00000000 		.4byte	0
 2917              	.LLST12:
 2918 0177 00000000 		.4byte	.LVL19
 2919 017b 11000000 		.4byte	.LVL20-1
 2920 017f 0100     		.2byte	0x1
 2921 0181 50       		.byte	0x50
 2922 0182 11000000 		.4byte	.LVL20-1
 2923 0186 44000000 		.4byte	.LFE233
 2924 018a 0100     		.2byte	0x1
 2925 018c 55       		.byte	0x55
 2926 018d 00000000 		.4byte	0
 2927 0191 00000000 		.4byte	0
 2928              	.LLST13:
 2929 0195 00000000 		.4byte	.LVL19
 2930 0199 11000000 		.4byte	.LVL20-1
 2931 019d 0100     		.2byte	0x1
 2932 019f 51       		.byte	0x51
 2933 01a0 11000000 		.4byte	.LVL20-1
 2934 01a4 44000000 		.4byte	.LFE233
 2935 01a8 0100     		.2byte	0x1
 2936 01aa 57       		.byte	0x57
 2937 01ab 00000000 		.4byte	0
 2938 01af 00000000 		.4byte	0
 2939              	.LLST14:
 2940 01b3 00000000 		.4byte	.LVL19
 2941 01b7 11000000 		.4byte	.LVL20-1
 2942 01bb 0100     		.2byte	0x1
 2943 01bd 52       		.byte	0x52
 2944 01be 11000000 		.4byte	.LVL20-1
 2945 01c2 44000000 		.4byte	.LFE233
 2946 01c6 0100     		.2byte	0x1
 2947 01c8 56       		.byte	0x56
 2948 01c9 00000000 		.4byte	0
 2949 01cd 00000000 		.4byte	0
 2950              	.LLST15:
 2951 01d1 00000000 		.4byte	.LVL19
 2952 01d5 11000000 		.4byte	.LVL20-1
 2953 01d9 0100     		.2byte	0x1
 2954 01db 53       		.byte	0x53
 2955 01dc 11000000 		.4byte	.LVL20-1
 2956 01e0 44000000 		.4byte	.LFE233
 2957 01e4 0100     		.2byte	0x1
 2958 01e6 58       		.byte	0x58
 2959 01e7 00000000 		.4byte	0
ARM GAS  /tmp/ccc3A5Vh.s 			page 53


 2960 01eb 00000000 		.4byte	0
 2961              	.LLST16:
 2962 01ef 12000000 		.4byte	.LVL20
 2963 01f3 27000000 		.4byte	.LVL22-1
 2964 01f7 0100     		.2byte	0x1
 2965 01f9 50       		.byte	0x50
 2966 01fa 00000000 		.4byte	0
 2967 01fe 00000000 		.4byte	0
 2968              	.LLST17:
 2969 0202 32000000 		.4byte	.LVL23
 2970 0206 35000000 		.4byte	.LVL24-1
 2971 020a 0100     		.2byte	0x1
 2972 020c 50       		.byte	0x50
 2973 020d 35000000 		.4byte	.LVL24-1
 2974 0211 3E000000 		.4byte	.LVL25
 2975 0215 0100     		.2byte	0x1
 2976 0217 54       		.byte	0x54
 2977 0218 00000000 		.4byte	0
 2978 021c 00000000 		.4byte	0
 2979              	.LLST18:
 2980 0220 14000000 		.4byte	.LVL21
 2981 0224 3E000000 		.4byte	.LVL25
 2982 0228 0300     		.2byte	0x3
 2983 022a 08       		.byte	0x8
 2984 022b 20       		.byte	0x20
 2985 022c 9F       		.byte	0x9f
 2986 022d 00000000 		.4byte	0
 2987 0231 00000000 		.4byte	0
 2988              	.LLST19:
 2989 0235 36000000 		.4byte	.LVL24
 2990 0239 3E000000 		.4byte	.LVL25
 2991 023d 0200     		.2byte	0x2
 2992 023f 30       		.byte	0x30
 2993 0240 9F       		.byte	0x9f
 2994 0241 00000000 		.4byte	0
 2995 0245 00000000 		.4byte	0
 2996              		.section	.debug_aranges,"",%progbits
 2997 0000 34000000 		.4byte	0x34
 2998 0004 0200     		.2byte	0x2
 2999 0006 00000000 		.4byte	.Ldebug_info0
 3000 000a 04       		.byte	0x4
 3001 000b 00       		.byte	0
 3002 000c 0000     		.2byte	0
 3003 000e 0000     		.2byte	0
 3004 0010 00000000 		.4byte	.LFB230
 3005 0014 14000000 		.4byte	.LFE230-.LFB230
 3006 0018 00000000 		.4byte	.LFB231
 3007 001c 5A000000 		.4byte	.LFE231-.LFB231
 3008 0020 00000000 		.4byte	.LFB232
 3009 0024 3C000000 		.4byte	.LFE232-.LFB232
 3010 0028 00000000 		.4byte	.LFB233
 3011 002c 44000000 		.4byte	.LFE233-.LFB233
 3012 0030 00000000 		.4byte	0
 3013 0034 00000000 		.4byte	0
 3014              		.section	.debug_ranges,"",%progbits
 3015              	.Ldebug_ranges0:
 3016 0000 00000000 		.4byte	.LFB230
ARM GAS  /tmp/ccc3A5Vh.s 			page 54


 3017 0004 14000000 		.4byte	.LFE230
 3018 0008 00000000 		.4byte	.LFB231
 3019 000c 5A000000 		.4byte	.LFE231
 3020 0010 00000000 		.4byte	.LFB232
 3021 0014 3C000000 		.4byte	.LFE232
 3022 0018 00000000 		.4byte	.LFB233
 3023 001c 44000000 		.4byte	.LFE233
 3024 0020 00000000 		.4byte	0
 3025 0024 00000000 		.4byte	0
 3026              		.section	.debug_line,"",%progbits
 3027              	.Ldebug_line0:
 3028 0000 89020000 		.section	.debug_str,"MS",%progbits,1
 3028      0200A301 
 3028      00000201 
 3028      FB0E0D00 
 3028      01010101 
 3029              	.LASF43:
 3030 0000 63685F74 		.ascii	"ch_threads_list\000"
 3030      68726561 
 3030      64735F6C 
 3030      69737400 
 3031              	.LASF44:
 3032 0010 74687265 		.ascii	"threads_queue_t\000"
 3032      6164735F 
 3032      71756575 
 3032      655F7400 
 3033              	.LASF33:
 3034 0020 705F7761 		.ascii	"p_waiting\000"
 3034      6974696E 
 3034      6700
 3035              	.LASF84:
 3036 002a 77746D74 		.ascii	"wtmtxp\000"
 3036      787000
 3037              	.LASF111:
 3038 0031 6D656D6F 		.ascii	"memory_pool_t\000"
 3038      72795F70 
 3038      6F6F6C5F 
 3038      7400
 3039              	.LASF93:
 3040 003f 63686172 		.ascii	"char\000"
 3040      00
 3041              	.LASF75:
 3042 0044 72656761 		.ascii	"regarm_t\000"
 3042      726D5F74 
 3042      00
 3043              	.LASF24:
 3044 004d 705F7072 		.ascii	"p_prio\000"
 3044      696F00
 3045              	.LASF20:
 3046 0054 73797374 		.ascii	"systime_t\000"
 3046      696D655F 
 3046      7400
 3047              	.LASF91:
 3048 005e 6D5F6F77 		.ascii	"m_owner\000"
 3048      6E657200 
 3049              	.LASF87:
 3050 0066 735F7175 		.ascii	"s_queue\000"
ARM GAS  /tmp/ccc3A5Vh.s 			page 55


 3050      65756500 
 3051              	.LASF64:
 3052 006e 76745F73 		.ascii	"vt_systime\000"
 3052      79737469 
 3052      6D6500
 3053              	.LASF34:
 3054 0079 705F6D73 		.ascii	"p_msgqueue\000"
 3054      67717565 
 3054      756500
 3055              	.LASF0:
 3056 0084 756E7369 		.ascii	"unsigned int\000"
 3056      676E6564 
 3056      20696E74 
 3056      00
 3057              	.LASF102:
 3058 0091 6E657874 		.ascii	"next\000"
 3058      00
 3059              	.LASF41:
 3060 0096 74687265 		.ascii	"threads_list_t\000"
 3060      6164735F 
 3060      6C697374 
 3060      5F7400
 3061              	.LASF100:
 3062 00a5 685F6672 		.ascii	"h_free\000"
 3062      656500
 3063              	.LASF103:
 3064 00ac 68656170 		.ascii	"heap\000"
 3064      00
 3065              	.LASF81:
 3066 00b1 77746F62 		.ascii	"wtobjp\000"
 3066      6A7000
 3067              	.LASF112:
 3068 00b8 706F7274 		.ascii	"port_lock\000"
 3068      5F6C6F63 
 3068      6B00
 3069              	.LASF71:
 3070 00c2 76746C69 		.ascii	"vtlist\000"
 3070      737400
 3071              	.LASF132:
 3072 00c9 2E2E2F6F 		.ascii	"../os/rt/src/chdynamic.c\000"
 3072      732F7274 
 3072      2F737263 
 3072      2F636864 
 3072      796E616D 
 3073              	.LASF47:
 3074 00e2 63685F72 		.ascii	"ch_ready_list\000"
 3074      65616479 
 3074      5F6C6973 
 3074      7400
 3075              	.LASF73:
 3076 00f0 69646C65 		.ascii	"idle_thread_wa\000"
 3076      5F746872 
 3076      6561645F 
 3076      776100
 3077              	.LASF85:
 3078 00ff 65776D61 		.ascii	"ewmask\000"
 3078      736B00
ARM GAS  /tmp/ccc3A5Vh.s 			page 56


 3079              	.LASF45:
 3080 0106 63685F74 		.ascii	"ch_threads_queue\000"
 3080      68726561 
 3080      64735F71 
 3080      75657565 
 3080      00
 3081              	.LASF54:
 3082 0117 76746675 		.ascii	"vtfunc_t\000"
 3082      6E635F74 
 3082      00
 3083              	.LASF88:
 3084 0120 735F636E 		.ascii	"s_cnt\000"
 3084      7400
 3085              	.LASF66:
 3086 0126 63685F73 		.ascii	"ch_system_debug\000"
 3086      79737465 
 3086      6D5F6465 
 3086      62756700 
 3087              	.LASF9:
 3088 0136 75696E74 		.ascii	"uint32_t\000"
 3088      33325F74 
 3088      00
 3089              	.LASF18:
 3090 013f 6576656E 		.ascii	"eventmask_t\000"
 3090      746D6173 
 3090      6B5F7400 
 3091              	.LASF49:
 3092 014b 725F7072 		.ascii	"r_prio\000"
 3092      696F00
 3093              	.LASF61:
 3094 0152 76745F70 		.ascii	"vt_par\000"
 3094      617200
 3095              	.LASF86:
 3096 0159 63685F73 		.ascii	"ch_semaphore\000"
 3096      656D6170 
 3096      686F7265 
 3096      00
 3097              	.LASF16:
 3098 0166 74707269 		.ascii	"tprio_t\000"
 3098      6F5F7400 
 3099              	.LASF56:
 3100 016e 63685F76 		.ascii	"ch_virtual_timer\000"
 3100      69727475 
 3100      616C5F74 
 3100      696D6572 
 3100      00
 3101              	.LASF94:
 3102 017f 7466756E 		.ascii	"tfunc_t\000"
 3102      635F7400 
 3103              	.LASF11:
 3104 0187 6C6F6E67 		.ascii	"long long unsigned int\000"
 3104      206C6F6E 
 3104      6720756E 
 3104      7369676E 
 3104      65642069 
 3105              	.LASF107:
 3106 019e 70685F6E 		.ascii	"ph_next\000"
ARM GAS  /tmp/ccc3A5Vh.s 			page 57


 3106      65787400 
 3107              	.LASF131:
 3108 01a6 474E5520 		.ascii	"GNU C 4.9.2 -mcpu=cortex-m4 -mfloat-abi=soft -mfp16"
 3108      4320342E 
 3108      392E3220 
 3108      2D6D6370 
 3108      753D636F 
 3109 01d9 2D666F72 		.ascii	"-format=none -mno-thumb-interwork -mthumb -mfpu=vfp"
 3109      6D61743D 
 3109      6E6F6E65 
 3109      202D6D6E 
 3109      6F2D7468 
 3110 020c 76332D64 		.ascii	"v3-d16 -mtls-dialect=gnu -ggdb -O2 -fomit-frame-poi"
 3110      3136202D 
 3110      6D746C73 
 3110      2D646961 
 3110      6C656374 
 3111 023f 6E746572 		.ascii	"nter -falign-functions=16 -ffunction-sections -fdat"
 3111      202D6661 
 3111      6C69676E 
 3111      2D66756E 
 3111      6374696F 
 3112 0272 612D7365 		.ascii	"a-sections -fno-common\000"
 3112      6374696F 
 3112      6E73202D 
 3112      666E6F2D 
 3112      636F6D6D 
 3113              	.LASF19:
 3114 0289 636E745F 		.ascii	"cnt_t\000"
 3114      7400
 3115              	.LASF116:
 3116 028f 63685379 		.ascii	"chSysUnlock\000"
 3116      73556E6C 
 3116      6F636B00 
 3117              	.LASF26:
 3118 029b 705F6E65 		.ascii	"p_newer\000"
 3118      77657200 
 3119              	.LASF135:
 3120 02a3 76616C75 		.ascii	"value\000"
 3120      6500
 3121              	.LASF63:
 3122 02a9 63685F76 		.ascii	"ch_virtual_timers_list\000"
 3122      69727475 
 3122      616C5F74 
 3122      696D6572 
 3122      735F6C69 
 3123              	.LASF21:
 3124 02c0 74687265 		.ascii	"thread_t\000"
 3124      61645F74 
 3124      00
 3125              	.LASF134:
 3126 02c9 68656170 		.ascii	"heap_header\000"
 3126      5F686561 
 3126      64657200 
 3127              	.LASF3:
 3128 02d5 73697A65 		.ascii	"size_t\000"
 3128      5F7400
ARM GAS  /tmp/ccc3A5Vh.s 			page 58


 3129              	.LASF79:
 3130 02dc 7264796D 		.ascii	"rdymsg\000"
 3130      736700
 3131              	.LASF89:
 3132 02e3 63685F6D 		.ascii	"ch_mutex\000"
 3132      75746578 
 3132      00
 3133              	.LASF114:
 3134 02ec 63685379 		.ascii	"chSysLock\000"
 3134      734C6F63 
 3134      6B00
 3135              	.LASF28:
 3136 02f6 705F6E61 		.ascii	"p_name\000"
 3136      6D6500
 3137              	.LASF121:
 3138 02fd 7072696F 		.ascii	"prio\000"
 3138      00
 3139              	.LASF99:
 3140 0302 685F7072 		.ascii	"h_provider\000"
 3140      6F766964 
 3140      657200
 3141              	.LASF118:
 3142 030d 63685468 		.ascii	"chThdAddRef\000"
 3142      64416464 
 3142      52656600 
 3143              	.LASF125:
 3144 0319 6368506F 		.ascii	"chPoolFree\000"
 3144      6F6C4672 
 3144      656500
 3145              	.LASF59:
 3146 0324 76745F64 		.ascii	"vt_delta\000"
 3146      656C7461 
 3146      00
 3147              	.LASF40:
 3148 032d 74687265 		.ascii	"thread_reference_t\000"
 3148      61645F72 
 3148      65666572 
 3148      656E6365 
 3148      5F7400
 3149              	.LASF123:
 3150 0340 63685468 		.ascii	"chThdCreateFromMemoryPool\000"
 3150      64437265 
 3150      61746546 
 3150      726F6D4D 
 3150      656D6F72 
 3151              	.LASF13:
 3152 035a 74737461 		.ascii	"tstate_t\000"
 3152      74655F74 
 3152      00
 3153              	.LASF27:
 3154 0363 705F6F6C 		.ascii	"p_older\000"
 3154      64657200 
 3155              	.LASF29:
 3156 036b 705F7374 		.ascii	"p_state\000"
 3156      61746500 
 3157              	.LASF6:
 3158 0373 75696E74 		.ascii	"uint8_t\000"
ARM GAS  /tmp/ccc3A5Vh.s 			page 59


 3158      385F7400 
 3159              	.LASF108:
 3160 037b 6D705F6E 		.ascii	"mp_next\000"
 3160      65787400 
 3161              	.LASF127:
 3162 0383 63684865 		.ascii	"chHeapAlloc\000"
 3162      6170416C 
 3162      6C6F6300 
 3163              	.LASF39:
 3164 038f 705F6D70 		.ascii	"p_mpool\000"
 3164      6F6F6C00 
 3165              	.LASF37:
 3166 0397 705F6D74 		.ascii	"p_mtxlist\000"
 3166      786C6973 
 3166      7400
 3167              	.LASF42:
 3168 03a1 63685F74 		.ascii	"ch_thread\000"
 3168      68726561 
 3168      6400
 3169              	.LASF101:
 3170 03ab 685F6D74 		.ascii	"h_mtx\000"
 3170      7800
 3171              	.LASF65:
 3172 03b1 73797374 		.ascii	"system_debug_t\000"
 3172      656D5F64 
 3172      65627567 
 3172      5F7400
 3173              	.LASF5:
 3174 03c0 6C6F6E67 		.ascii	"long long int\000"
 3174      206C6F6E 
 3174      6720696E 
 3174      7400
 3175              	.LASF48:
 3176 03ce 725F7175 		.ascii	"r_queue\000"
 3176      65756500 
 3177              	.LASF51:
 3178 03d6 725F6E65 		.ascii	"r_newer\000"
 3178      77657200 
 3179              	.LASF17:
 3180 03de 6D73675F 		.ascii	"msg_t\000"
 3180      7400
 3181              	.LASF126:
 3182 03e4 63684865 		.ascii	"chHeapFree\000"
 3182      61704672 
 3182      656500
 3183              	.LASF77:
 3184 03ef 636F6E74 		.ascii	"context\000"
 3184      65787400 
 3185              	.LASF30:
 3186 03f7 705F666C 		.ascii	"p_flags\000"
 3186      61677300 
 3187              	.LASF55:
 3188 03ff 76697274 		.ascii	"virtual_timer_t\000"
 3188      75616C5F 
 3188      74696D65 
 3188      725F7400 
 3189              	.LASF105:
ARM GAS  /tmp/ccc3A5Vh.s 			page 60


 3190 040f 73697A65 		.ascii	"size\000"
 3190      00
 3191              	.LASF15:
 3192 0414 74736C69 		.ascii	"tslices_t\000"
 3192      6365735F 
 3192      7400
 3193              	.LASF52:
 3194 041e 725F6F6C 		.ascii	"r_older\000"
 3194      64657200 
 3195              	.LASF133:
 3196 0426 2F686F6D 		.ascii	"/home/bunnie/code/chibios-netvcr/netvcr\000"
 3196      652F6275 
 3196      6E6E6965 
 3196      2F636F64 
 3196      652F6368 
 3197              	.LASF136:
 3198 044e 63685468 		.ascii	"chThdRelease\000"
 3198      6452656C 
 3198      65617365 
 3198      00
 3199              	.LASF109:
 3200 045b 6D705F6F 		.ascii	"mp_object_size\000"
 3200      626A6563 
 3200      745F7369 
 3200      7A6500
 3201              	.LASF67:
 3202 046a 70616E69 		.ascii	"panic_msg\000"
 3202      635F6D73 
 3202      6700
 3203              	.LASF35:
 3204 0474 705F6D73 		.ascii	"p_msg\000"
 3204      6700
 3205              	.LASF12:
 3206 047a 746D6F64 		.ascii	"tmode_t\000"
 3206      655F7400 
 3207              	.LASF72:
 3208 0482 6D61696E 		.ascii	"mainthread\000"
 3208      74687265 
 3208      616400
 3209              	.LASF38:
 3210 048d 705F7265 		.ascii	"p_realprio\000"
 3210      616C7072 
 3210      696F00
 3211              	.LASF122:
 3212 0498 72656673 		.ascii	"refs\000"
 3212      00
 3213              	.LASF2:
 3214 049d 73686F72 		.ascii	"short int\000"
 3214      7420696E 
 3214      7400
 3215              	.LASF98:
 3216 04a7 6D656D6F 		.ascii	"memory_heap\000"
 3216      72795F68 
 3216      65617000 
 3217              	.LASF53:
 3218 04b3 725F6375 		.ascii	"r_current\000"
 3218      7272656E 
ARM GAS  /tmp/ccc3A5Vh.s 			page 61


 3218      7400
 3219              	.LASF36:
 3220 04bd 705F6570 		.ascii	"p_epending\000"
 3220      656E6469 
 3220      6E6700
 3221              	.LASF90:
 3222 04c8 6D5F7175 		.ascii	"m_queue\000"
 3222      65756500 
 3223              	.LASF78:
 3224 04d0 706F7274 		.ascii	"port_intctx\000"
 3224      5F696E74 
 3224      63747800 
 3225              	.LASF124:
 3226 04dc 49544D5F 		.ascii	"ITM_RxBuffer\000"
 3226      52784275 
 3226      66666572 
 3226      00
 3227              	.LASF69:
 3228 04e9 63685F73 		.ascii	"ch_system\000"
 3228      79737465 
 3228      6D00
 3229              	.LASF115:
 3230 04f3 5F5F7365 		.ascii	"__set_BASEPRI\000"
 3230      745F4241 
 3230      53455052 
 3230      4900
 3231              	.LASF22:
 3232 0501 705F6E65 		.ascii	"p_next\000"
 3232      787400
 3233              	.LASF10:
 3234 0508 75696E74 		.ascii	"uint64_t\000"
 3234      36345F74 
 3234      00
 3235              	.LASF25:
 3236 0511 705F6374 		.ascii	"p_ctx\000"
 3236      7800
 3237              	.LASF70:
 3238 0517 726C6973 		.ascii	"rlist\000"
 3238      7400
 3239              	.LASF130:
 3240 051d 6368506F 		.ascii	"chPoolAlloc\000"
 3240      6F6C416C 
 3240      6C6F6300 
 3241              	.LASF96:
 3242 0529 6D656D67 		.ascii	"memgetfunc_t\000"
 3242      65746675 
 3242      6E635F74 
 3242      00
 3243              	.LASF23:
 3244 0536 705F7072 		.ascii	"p_prev\000"
 3244      657600
 3245              	.LASF74:
 3246 053d 73697A65 		.ascii	"sizetype\000"
 3246      74797065 
 3246      00
 3247              	.LASF14:
 3248 0546 74726566 		.ascii	"trefs_t\000"
ARM GAS  /tmp/ccc3A5Vh.s 			page 62


 3248      735F7400 
 3249              	.LASF46:
 3250 054e 72656164 		.ascii	"ready_list_t\000"
 3250      795F6C69 
 3250      73745F74 
 3250      00
 3251              	.LASF4:
 3252 055b 696E7433 		.ascii	"int32_t\000"
 3252      325F7400 
 3253              	.LASF83:
 3254 0563 77747365 		.ascii	"wtsemp\000"
 3254      6D7000
 3255              	.LASF119:
 3256 056a 63685468 		.ascii	"chThdCreateFromHeap\000"
 3256      64437265 
 3256      61746546 
 3256      726F6D48 
 3256      65617000 
 3257              	.LASF95:
 3258 057e 6D757465 		.ascii	"mutex_t\000"
 3258      785F7400 
 3259              	.LASF128:
 3260 0586 63685468 		.ascii	"chThdCreateI\000"
 3260      64437265 
 3260      61746549 
 3260      00
 3261              	.LASF7:
 3262 0593 756E7369 		.ascii	"unsigned char\000"
 3262      676E6564 
 3262      20636861 
 3262      7200
 3263              	.LASF62:
 3264 05a1 76697274 		.ascii	"virtual_timers_list_t\000"
 3264      75616C5F 
 3264      74696D65 
 3264      72735F6C 
 3264      6973745F 
 3265              	.LASF31:
 3266 05b7 705F7265 		.ascii	"p_refs\000"
 3266      667300
 3267              	.LASF32:
 3268 05be 705F7072 		.ascii	"p_preempt\000"
 3268      65656D70 
 3268      7400
 3269              	.LASF129:
 3270 05c8 63685363 		.ascii	"chSchWakeupS\000"
 3270      6857616B 
 3270      65757053 
 3270      00
 3271              	.LASF106:
 3272 05d5 706F6F6C 		.ascii	"pool_header\000"
 3272      5F686561 
 3272      64657200 
 3273              	.LASF57:
 3274 05e1 76745F6E 		.ascii	"vt_next\000"
 3274      65787400 
 3275              	.LASF68:
ARM GAS  /tmp/ccc3A5Vh.s 			page 63


 3276 05e9 63685F73 		.ascii	"ch_system_t\000"
 3276      79737465 
 3276      6D5F7400 
 3277              	.LASF82:
 3278 05f5 77747472 		.ascii	"wttrp\000"
 3278      7000
 3279              	.LASF92:
 3280 05fb 6D5F6E65 		.ascii	"m_next\000"
 3280      787400
 3281              	.LASF120:
 3282 0602 68656170 		.ascii	"heapp\000"
 3282      7000
 3283              	.LASF1:
 3284 0608 7369676E 		.ascii	"signed char\000"
 3284      65642063 
 3284      68617200 
 3285              	.LASF8:
 3286 0614 73686F72 		.ascii	"short unsigned int\000"
 3286      7420756E 
 3286      7369676E 
 3286      65642069 
 3286      6E7400
 3287              	.LASF50:
 3288 0627 725F6374 		.ascii	"r_ctx\000"
 3288      7800
 3289              	.LASF76:
 3290 062d 73746B61 		.ascii	"stkalign_t\000"
 3290      6C69676E 
 3290      5F7400
 3291              	.LASF117:
 3292 0638 5F5F6675 		.ascii	"__func__\000"
 3292      6E635F5F 
 3292      00
 3293              	.LASF97:
 3294 0641 6D656D6F 		.ascii	"memory_heap_t\000"
 3294      72795F68 
 3294      6561705F 
 3294      7400
 3295              	.LASF60:
 3296 064f 76745F66 		.ascii	"vt_func\000"
 3296      756E6300 
 3297              	.LASF113:
 3298 0657 706F7274 		.ascii	"port_unlock\000"
 3298      5F756E6C 
 3298      6F636B00 
 3299              	.LASF58:
 3300 0663 76745F70 		.ascii	"vt_prev\000"
 3300      72657600 
 3301              	.LASF104:
 3302 066b 616C6967 		.ascii	"align\000"
 3302      6E00
 3303              	.LASF80:
 3304 0671 65786974 		.ascii	"exitcode\000"
 3304      636F6465 
 3304      00
 3305              	.LASF110:
 3306 067a 6D705F70 		.ascii	"mp_provider\000"
ARM GAS  /tmp/ccc3A5Vh.s 			page 64


 3306      726F7669 
 3306      64657200 
 3307              		.ident	"GCC: (Debian 4.9.2-10) 4.9.2"
 3308              		.section	.note.GNU-stack,"",%progbits
ARM GAS  /tmp/ccc3A5Vh.s 			page 65


DEFINED SYMBOLS
                            *ABS*:00000000 chdynamic.c
     /tmp/ccc3A5Vh.s:19     .text.chThdAddRef:00000000 $t
     /tmp/ccc3A5Vh.s:25     .text.chThdAddRef:00000000 chThdAddRef
     /tmp/ccc3A5Vh.s:78     .text.chThdRelease:00000000 $t
     /tmp/ccc3A5Vh.s:84     .text.chThdRelease:00000000 chThdRelease
     /tmp/ccc3A5Vh.s:218    .text.chThdCreateFromHeap:00000000 $t
     /tmp/ccc3A5Vh.s:224    .text.chThdCreateFromHeap:00000000 chThdCreateFromHeap
     /tmp/ccc3A5Vh.s:314    .text.chThdCreateFromMemoryPool:00000000 $t
     /tmp/ccc3A5Vh.s:320    .text.chThdCreateFromMemoryPool:00000000 chThdCreateFromMemoryPool
                     .debug_frame:00000010 $d

UNDEFINED SYMBOLS
chPoolFree
chHeapFree
chHeapAlloc
chThdCreateI
chSchWakeupS
chPoolAlloc
