ARM GAS  /tmp/ccc3A5Vh.s 			page 1


   1              		.syntax unified
   2              		.cpu cortex-m4
   3              		.fpu softvfp
   4              		.eabi_attribute 20, 1
   5              		.eabi_attribute 21, 1
   6              		.eabi_attribute 23, 3
   7              		.eabi_attribute 24, 1
   8              		.eabi_attribute 25, 1
   9              		.eabi_attribute 26, 2
  10              		.eabi_attribute 30, 2
  11              		.eabi_attribute 34, 1
  12              		.eabi_attribute 18, 4
  13              		.thumb
  14              		.file	"chdynamic.c"
  15              		.text
  16              	.Ltext0:
  17              		.cfi_sections	.debug_frame
  18              		.section	.text.chThdAddRef,"ax",%progbits
  19              		.align	2
  20              		.p2align 4,,15
  21              		.global	chThdAddRef
  22              		.thumb
  23              		.thumb_func
  24              		.type	chThdAddRef, %function
  25              	chThdAddRef:
  26              	.LFB230:
  27              		.file 1 "../os/rt/src/chdynamic.c"
  28              		.loc 1 68 0
  29              		.cfi_startproc
  30              		@ args = 0, pretend = 0, frame = 0
  31              		@ frame_needed = 0, uses_anonymous_args = 0
  32              		@ link register save eliminated.
  33              	.LVL0:
  34              	.LBB64:
  35              	.LBB65:
  36              	.LBB66:
  37              	.LBB67:
  38              		.file 2 "../os/ext/CMSIS/include/core_cmFunc.h"
  39              		.loc 2 548 0
  40 0000 2023     		movs	r3, #32
  41              	#APP
  42              	@ 548 "../os/ext/CMSIS/include/core_cmFunc.h" 1
  43 0002 83F31188 		MSR basepri, r3
  44              	@ 0 "" 2
  45              		.thumb
  46              	.LBE67:
  47              	.LBE66:
  48              	.LBE65:
  49              	.LBE64:
  50              		.loc 1 72 0
  51 0006 837F     		ldrb	r3, [r0, #30]	@ zero_extendqisi2
  52 0008 0133     		adds	r3, r3, #1
  53 000a 8377     		strb	r3, [r0, #30]
  54              	.LVL1:
  55              	.LBB68:
  56              	.LBB69:
  57              	.LBB70:
ARM GAS  /tmp/ccc3A5Vh.s 			page 2


  58              	.LBB71:
  59              	.LBB72:
  60              		.loc 2 548 0
  61 000c 0023     		movs	r3, #0
  62              	#APP
  63              	@ 548 "../os/ext/CMSIS/include/core_cmFunc.h" 1
  64 000e 83F31188 		MSR basepri, r3
  65              	@ 0 "" 2
  66              		.thumb
  67              	.LBE72:
  68              	.LBE71:
  69              	.LBE70:
  70              	.LBE69:
  71              	.LBE68:
  72              		.loc 1 76 0
  73 0012 7047     		bx	lr
  74              		.cfi_endproc
  75              	.LFE230:
  76              		.size	chThdAddRef, .-chThdAddRef
  77 0014 AFF30080 		.section	.text.chThdRelease,"ax",%progbits
  77      AFF30080 
  77      AFF30080 
  78              		.align	2
  79              		.p2align 4,,15
  80              		.global	chThdRelease
  81              		.thumb
  82              		.thumb_func
  83              		.type	chThdRelease, %function
  84              	chThdRelease:
  85              	.LFB231:
  86              		.loc 1 91 0
  87              		.cfi_startproc
  88              		@ args = 0, pretend = 0, frame = 0
  89              		@ frame_needed = 0, uses_anonymous_args = 0
  90              		@ link register save eliminated.
  91              	.LVL2:
  92 0000 0146     		mov	r1, r0
  93              	.LBB73:
  94              	.LBB74:
  95              	.LBB75:
  96              	.LBB76:
  97              		.loc 2 548 0
  98 0002 2023     		movs	r3, #32
  99              	#APP
 100              	@ 548 "../os/ext/CMSIS/include/core_cmFunc.h" 1
 101 0004 83F31188 		MSR basepri, r3
 102              	@ 0 "" 2
 103              		.thumb
 104              	.LBE76:
 105              	.LBE75:
 106              	.LBE74:
 107              	.LBE73:
 108              		.loc 1 96 0
 109 0008 837F     		ldrb	r3, [r0, #30]	@ zero_extendqisi2
 110 000a 013B     		subs	r3, r3, #1
 111 000c DBB2     		uxtb	r3, r3
 112 000e 8377     		strb	r3, [r0, #30]
ARM GAS  /tmp/ccc3A5Vh.s 			page 3


 113              	.LVL3:
 114              		.loc 1 102 0
 115 0010 13B9     		cbnz	r3, .L3
 116              		.loc 1 102 0 is_stmt 0 discriminator 1
 117 0012 027F     		ldrb	r2, [r0, #28]	@ zero_extendqisi2
 118 0014 0F2A     		cmp	r2, #15
 119 0016 03D0     		beq	.L8
 120              	.L3:
 121              	.LVL4:
 122              	.LBB77:
 123              	.LBB78:
 124              	.LBB79:
 125              	.LBB80:
 126              	.LBB81:
 127              		.loc 2 548 0 is_stmt 1
 128 0018 0023     		movs	r3, #0
 129              	.LVL5:
 130              	#APP
 131              	@ 548 "../os/ext/CMSIS/include/core_cmFunc.h" 1
 132 001a 83F31188 		MSR basepri, r3
 133              	@ 0 "" 2
 134              		.thumb
 135 001e 7047     		bx	lr
 136              	.LVL6:
 137              	.L8:
 138              	.LBE81:
 139              	.LBE80:
 140              	.LBE79:
 141              	.LBE78:
 142              	.LBE77:
 143              		.loc 1 103 0
 144 0020 427F     		ldrb	r2, [r0, #29]	@ zero_extendqisi2
 145 0022 02F00302 		and	r2, r2, #3
 146 0026 012A     		cmp	r2, #1
 147 0028 0BD0     		beq	.L4
 148 002a 022A     		cmp	r2, #2
 149 002c F4D1     		bne	.L3
 150              		.loc 1 116 0
 151 002e 4269     		ldr	r2, [r0, #20]
 152 0030 0069     		ldr	r0, [r0, #16]
 153              	.LVL7:
 154 0032 1061     		str	r0, [r2, #16]
 155 0034 0869     		ldr	r0, [r1, #16]
 156 0036 4261     		str	r2, [r0, #20]
 157              	.LVL8:
 158              	.LBB82:
 159              	.LBB83:
 160              	.LBB84:
 161              	.LBB85:
 162              	.LBB86:
 163              		.loc 2 548 0
 164              	#APP
 165              	@ 548 "../os/ext/CMSIS/include/core_cmFunc.h" 1
 166 0038 83F31188 		MSR basepri, r3
 167              	@ 0 "" 2
 168              		.thumb
 169              	.LBE86:
ARM GAS  /tmp/ccc3A5Vh.s 			page 4


 170              	.LBE85:
 171              	.LBE84:
 172              	.LBE83:
 173              	.LBE82:
 174              		.loc 1 119 0
 175 003c 086C     		ldr	r0, [r1, #64]
 176 003e FFF7FEBF 		b	chPoolFree
 177              	.LVL9:
 178              	.L4:
 179              		.loc 1 107 0
 180 0042 4269     		ldr	r2, [r0, #20]
 181              		.loc 1 91 0
 182 0044 10B4     		push	{r4}
 183              		.cfi_def_cfa_offset 4
 184              		.cfi_offset 4, -4
 185              		.loc 1 107 0
 186 0046 0469     		ldr	r4, [r0, #16]
 187 0048 1461     		str	r4, [r2, #16]
 188 004a 0169     		ldr	r1, [r0, #16]
 189 004c 4A61     		str	r2, [r1, #20]
 190              	.LVL10:
 191              	.LBB87:
 192              	.LBB88:
 193              	.LBB89:
 194              	.LBB90:
 195              	.LBB91:
 196              		.loc 2 548 0
 197              	#APP
 198              	@ 548 "../os/ext/CMSIS/include/core_cmFunc.h" 1
 199 004e 83F31188 		MSR basepri, r3
 200              	@ 0 "" 2
 201              		.thumb
 202              	.LBE91:
 203              	.LBE90:
 204              	.LBE89:
 205              	.LBE88:
 206              	.LBE87:
 207              		.loc 1 129 0
 208 0052 5DF8044B 		ldr	r4, [sp], #4
 209              		.cfi_restore 4
 210              		.cfi_def_cfa_offset 0
 211              		.loc 1 110 0
 212 0056 FFF7FEBF 		b	chHeapFree
 213              	.LVL11:
 214              		.cfi_endproc
 215              	.LFE231:
 216              		.size	chThdRelease, .-chThdRelease
 217 005a 00BFAFF3 		.section	.text.chThdCreateFromHeap,"ax",%progbits
 217      0080
 218              		.align	2
 219              		.p2align 4,,15
 220              		.global	chThdCreateFromHeap
 221              		.thumb
 222              		.thumb_func
 223              		.type	chThdCreateFromHeap, %function
 224              	chThdCreateFromHeap:
 225              	.LFB232:
ARM GAS  /tmp/ccc3A5Vh.s 			page 5


 226              		.loc 1 155 0
 227              		.cfi_startproc
 228              		@ args = 4, pretend = 0, frame = 0
 229              		@ frame_needed = 0, uses_anonymous_args = 0
 230              	.LVL12:
 231 0000 F0B5     		push	{r4, r5, r6, r7, lr}
 232              		.cfi_def_cfa_offset 20
 233              		.cfi_offset 4, -20
 234              		.cfi_offset 5, -16
 235              		.cfi_offset 6, -12
 236              		.cfi_offset 7, -8
 237              		.cfi_offset 14, -4
 238 0002 83B0     		sub	sp, sp, #12
 239              		.cfi_def_cfa_offset 32
 240              		.loc 1 155 0
 241 0004 1646     		mov	r6, r2
 242 0006 1D46     		mov	r5, r3
 243 0008 0F46     		mov	r7, r1
 244              		.loc 1 159 0
 245 000a FFF7FEFF 		bl	chHeapAlloc
 246              	.LVL13:
 247              		.loc 1 160 0
 248 000e 98B1     		cbz	r0, .L10
 249              	.LVL14:
 250              	.LBB92:
 251              	.LBB93:
 252              	.LBB94:
 253              	.LBB95:
 254              		.loc 2 548 0
 255 0010 2023     		movs	r3, #32
 256              	#APP
 257              	@ 548 "../os/ext/CMSIS/include/core_cmFunc.h" 1
 258 0012 83F31188 		MSR basepri, r3
 259              	@ 0 "" 2
 260              		.thumb
 261              	.LBE95:
 262              	.LBE94:
 263              	.LBE93:
 264              	.LBE92:
 265              		.loc 1 174 0
 266 0016 089B     		ldr	r3, [sp, #32]
 267 0018 0093     		str	r3, [sp]
 268 001a 3946     		mov	r1, r7
 269 001c 3246     		mov	r2, r6
 270 001e 2B46     		mov	r3, r5
 271 0020 FFF7FEFF 		bl	chThdCreateI
 272              	.LVL15:
 273              		.loc 1 175 0
 274 0024 0123     		movs	r3, #1
 275 0026 4377     		strb	r3, [r0, #29]
 276              		.loc 1 176 0
 277 0028 0021     		movs	r1, #0
 278              		.loc 1 174 0
 279 002a 0446     		mov	r4, r0
 280              	.LVL16:
 281              		.loc 1 176 0
 282 002c FFF7FEFF 		bl	chSchWakeupS
ARM GAS  /tmp/ccc3A5Vh.s 			page 6


 283              	.LVL17:
 284              	.LBB96:
 285              	.LBB97:
 286              	.LBB98:
 287              	.LBB99:
 288              	.LBB100:
 289              		.loc 2 548 0
 290 0030 0023     		movs	r3, #0
 291              	#APP
 292              	@ 548 "../os/ext/CMSIS/include/core_cmFunc.h" 1
 293 0032 83F31188 		MSR basepri, r3
 294              	@ 0 "" 2
 295              		.thumb
 296              	.LBE100:
 297              	.LBE99:
 298              	.LBE98:
 299              	.LBE97:
 300              	.LBE96:
 301              		.loc 1 179 0
 302 0036 2046     		mov	r0, r4
 303              	.LVL18:
 304              	.L10:
 305              		.loc 1 180 0
 306 0038 03B0     		add	sp, sp, #12
 307              		.cfi_def_cfa_offset 20
 308              		@ sp needed
 309 003a F0BD     		pop	{r4, r5, r6, r7, pc}
 310              		.cfi_endproc
 311              	.LFE232:
 312              		.size	chThdCreateFromHeap, .-chThdCreateFromHeap
 313 003c AFF30080 		.section	.text.chThdCreateFromMemoryPool,"ax",%progbits
 314              		.align	2
 315              		.p2align 4,,15
 316              		.global	chThdCreateFromMemoryPool
 317              		.thumb
 318              		.thumb_func
 319              		.type	chThdCreateFromMemoryPool, %function
 320              	chThdCreateFromMemoryPool:
 321              	.LFB233:
 322              		.loc 1 207 0
 323              		.cfi_startproc
 324              		@ args = 0, pretend = 0, frame = 0
 325              		@ frame_needed = 0, uses_anonymous_args = 0
 326              	.LVL19:
 327 0000 2DE9F041 		push	{r4, r5, r6, r7, r8, lr}
 328              		.cfi_def_cfa_offset 24
 329              		.cfi_offset 4, -24
 330              		.cfi_offset 5, -20
 331              		.cfi_offset 6, -16
 332              		.cfi_offset 7, -12
 333              		.cfi_offset 8, -8
 334              		.cfi_offset 14, -4
 335 0004 82B0     		sub	sp, sp, #8
 336              		.cfi_def_cfa_offset 32
 337              		.loc 1 207 0
 338 0006 0F46     		mov	r7, r1
 339 0008 1646     		mov	r6, r2
ARM GAS  /tmp/ccc3A5Vh.s 			page 7


 340 000a 9846     		mov	r8, r3
 341 000c 0546     		mov	r5, r0
 342              		.loc 1 213 0
 343 000e FFF7FEFF 		bl	chPoolAlloc
 344              	.LVL20:
 345              		.loc 1 214 0
 346 0012 A0B1     		cbz	r0, .L14
 347              	.LVL21:
 348              	.LBB101:
 349              	.LBB102:
 350              	.LBB103:
 351              	.LBB104:
 352              		.loc 2 548 0
 353 0014 2023     		movs	r3, #32
 354              	#APP
 355              	@ 548 "../os/ext/CMSIS/include/core_cmFunc.h" 1
 356 0016 83F31188 		MSR basepri, r3
 357              	@ 0 "" 2
 358              		.thumb
 359              	.LBE104:
 360              	.LBE103:
 361              	.LBE102:
 362              	.LBE101:
 363              		.loc 1 228 0
 364 001a 6968     		ldr	r1, [r5, #4]
 365 001c CDF80080 		str	r8, [sp]
 366 0020 3A46     		mov	r2, r7
 367 0022 3346     		mov	r3, r6
 368 0024 FFF7FEFF 		bl	chThdCreateI
 369              	.LVL22:
 370              		.loc 1 229 0
 371 0028 0223     		movs	r3, #2
 372 002a 4377     		strb	r3, [r0, #29]
 373              		.loc 1 230 0
 374 002c 0564     		str	r5, [r0, #64]
 375              		.loc 1 231 0
 376 002e 0021     		movs	r1, #0
 377              		.loc 1 228 0
 378 0030 0446     		mov	r4, r0
 379              	.LVL23:
 380              		.loc 1 231 0
 381 0032 FFF7FEFF 		bl	chSchWakeupS
 382              	.LVL24:
 383              	.LBB105:
 384              	.LBB106:
 385              	.LBB107:
 386              	.LBB108:
 387              	.LBB109:
 388              		.loc 2 548 0
 389 0036 0023     		movs	r3, #0
 390              	#APP
 391              	@ 548 "../os/ext/CMSIS/include/core_cmFunc.h" 1
 392 0038 83F31188 		MSR basepri, r3
 393              	@ 0 "" 2
 394              		.thumb
 395              	.LBE109:
 396              	.LBE108:
ARM GAS  /tmp/ccc3A5Vh.s 			page 8


 397              	.LBE107:
 398              	.LBE106:
 399              	.LBE105:
 400              		.loc 1 234 0
 401 003c 2046     		mov	r0, r4
 402              	.LVL25:
 403              	.L14:
 404              		.loc 1 235 0
 405 003e 02B0     		add	sp, sp, #8
 406              		.cfi_def_cfa_offset 24
 407              		@ sp needed
 408 0040 BDE8F081 		pop	{r4, r5, r6, r7, r8, pc}
 409              		.cfi_endproc
 410              	.LFE233:
 411              		.size	chThdCreateFromMemoryPool, .-chThdCreateFromMemoryPool
 412 0044 AFF30080 		.text
 412      AFF30080 
 412      AFF30080 
 413              	.Letext0:
 414              		.file 3 "/usr/lib/gcc/arm-linux-gnueabihf/4.9/include/stddef.h"
 415              		.file 4 "/usr/include/stdint.h"
 416              		.file 5 "../os/rt/ports/ARMCMx/compilers/GCC/chtypes.h"
 417              		.file 6 "../os/rt/include/chsystypes.h"
 418              		.file 7 "../os/rt/include/chschd.h"
 419              		.file 8 "../os/rt/ports/ARMCMx/chcore.h"
 420              		.file 9 "../os/rt/ports/ARMCMx/chcore_v7m.h"
 421              		.file 10 "../os/rt/include/chsem.h"
 422              		.file 11 "../os/rt/include/chmtx.h"
 423              		.file 12 "../os/rt/include/chthreads.h"
 424              		.file 13 "../os/rt/include/chmemcore.h"
 425              		.file 14 "../os/rt/include/chheap.h"
 426              		.file 15 "../os/rt/include/chmempools.h"
 427              		.file 16 "../os/rt/include/chsys.h"
 428              		.file 17 "../os/ext/CMSIS/include/core_cm4.h"
 3308              		.section	.note.GNU-stack,"",%progbits
ARM GAS  /tmp/ccc3A5Vh.s 			page 65

