ARM GAS  /tmp/cczO4Ks7.s 			page 1


   1              		.syntax unified
   2              		.cpu cortex-m4
   3              		.fpu softvfp
   4              		.eabi_attribute 20, 1
   5              		.eabi_attribute 21, 1
   6              		.eabi_attribute 23, 3
   7              		.eabi_attribute 24, 1
   8              		.eabi_attribute 25, 1
   9              		.eabi_attribute 26, 2
  10              		.eabi_attribute 30, 2
  11              		.eabi_attribute 34, 1
  12              		.eabi_attribute 18, 4
  13              		.thumb
  14              		.file	"chthreads.c"
  15              		.text
  16              	.Ltext0:
  17              		.cfi_sections	.debug_frame
  18              		.section	.text._thread_init,"ax",%progbits
  19              		.align	2
  20              		.p2align 4,,15
  21              		.global	_thread_init
  22              		.thumb
  23              		.thumb_func
  24              		.type	_thread_init, %function
  25              	_thread_init:
  26              	.LFB230:
  27              		.file 1 "../os/rt/src/chthreads.c"
  28              		.loc 1 91 0
  29              		.cfi_startproc
  30              		@ args = 0, pretend = 0, frame = 0
  31              		@ frame_needed = 0, uses_anonymous_args = 0
  32              	.LVL0:
  33 0000 2DE9F041 		push	{r4, r5, r6, r7, r8, lr}
  34              		.cfi_def_cfa_offset 24
  35              		.cfi_offset 4, -24
  36              		.cfi_offset 5, -20
  37              		.cfi_offset 6, -16
  38              		.cfi_offset 7, -12
  39              		.cfi_offset 8, -8
  40              		.cfi_offset 14, -4
  41              		.loc 1 114 0
  42 0004 104C     		ldr	r4, .L3
  43              		.loc 1 100 0
  44 0006 C163     		str	r1, [r0, #60]
  45              		.loc 1 114 0
  46 0008 6669     		ldr	r6, [r4, #20]
  47 000a 4661     		str	r6, [r0, #20]
  48              		.loc 1 95 0
  49 000c 0022     		movs	r2, #0
  50              		.loc 1 120 0
  51 000e 00F12805 		add	r5, r0, #40
  52              		.loc 1 94 0
  53 0012 4FF00208 		mov	r8, #2
  54              		.loc 1 97 0
  55 0016 4FF0140C 		mov	ip, #20
  56              		.loc 1 110 0
  57 001a 4FF0010E 		mov	lr, #1
ARM GAS  /tmp/cczO4Ks7.s 			page 2


  58              		.loc 1 117 0
  59 001e 00F12407 		add	r7, r0, #36
  60              		.loc 1 93 0
  61 0022 8160     		str	r1, [r0, #8]
  62              		.loc 1 114 0
  63 0024 0461     		str	r4, [r0, #16]
  64              		.loc 1 94 0
  65 0026 80F81C80 		strb	r8, [r0, #28]
  66              		.loc 1 97 0
  67 002a 80F81FC0 		strb	ip, [r0, #31]
  68              		.loc 1 110 0
  69 002e 80F81EE0 		strb	lr, [r0, #30]
  70              		.loc 1 95 0
  71 0032 4277     		strb	r2, [r0, #29]
  72              		.loc 1 101 0
  73 0034 8263     		str	r2, [r0, #56]
  74              		.loc 1 104 0
  75 0036 4263     		str	r2, [r0, #52]
  76              		.loc 1 113 0
  77 0038 8261     		str	r2, [r0, #24]
  78              		.loc 1 114 0
  79 003a 3061     		str	r0, [r6, #16]
  80 003c 6061     		str	r0, [r4, #20]
  81              	.LVL1:
  82              	.LBB184:
  83              	.LBB185:
  84              		.file 2 "../os/rt/include/chschd.h"
  85              		.loc 2 566 0
  86 003e 4762     		str	r7, [r0, #36]
  87              	.LBE185:
  88              	.LBE184:
  89              	.LBB186:
  90              	.LBB187:
  91              		.loc 2 604 0
  92 0040 8562     		str	r5, [r0, #40]
  93              		.loc 2 605 0
  94 0042 C562     		str	r5, [r0, #44]
  95              	.LBE187:
  96              	.LBE186:
  97              		.loc 1 132 0
  98 0044 BDE8F081 		pop	{r4, r5, r6, r7, r8, pc}
  99              	.LVL2:
 100              	.L4:
 101              		.align	2
 102              	.L3:
 103 0048 00000000 		.word	ch
 104              		.cfi_endproc
 105              	.LFE230:
 106              		.size	_thread_init, .-_thread_init
 107 004c AFF30080 		.section	.text.chThdCreateI,"ax",%progbits
 108              		.align	2
 109              		.p2align 4,,15
 110              		.global	chThdCreateI
 111              		.thumb
 112              		.thumb_func
 113              		.type	chThdCreateI, %function
 114              	chThdCreateI:
ARM GAS  /tmp/cczO4Ks7.s 			page 3


 115              	.LFB231:
 116              		.loc 1 177 0
 117              		.cfi_startproc
 118              		@ args = 4, pretend = 0, frame = 0
 119              		@ frame_needed = 0, uses_anonymous_args = 0
 120              	.LVL3:
 121 0000 2DE9F04F 		push	{r4, r5, r6, r7, r8, r9, r10, fp, lr}
 122              		.cfi_def_cfa_offset 36
 123              		.cfi_offset 4, -36
 124              		.cfi_offset 5, -32
 125              		.cfi_offset 6, -28
 126              		.cfi_offset 7, -24
 127              		.cfi_offset 8, -20
 128              		.cfi_offset 9, -16
 129              		.cfi_offset 10, -12
 130              		.cfi_offset 11, -8
 131              		.cfi_offset 14, -4
 132              	.LBB188:
 133              	.LBB189:
 134              		.loc 1 114 0
 135 0004 174D     		ldr	r5, .L7
 136              	.LBE189:
 137              	.LBE188:
 138              		.loc 1 186 0
 139 0006 DFF86090 		ldr	r9, .L7+4
 140              	.LBB198:
 141              	.LBB194:
 142              		.loc 1 114 0
 143 000a D5F814E0 		ldr	lr, [r5, #20]
 144              	.LBE194:
 145              	.LBE198:
 146              		.loc 1 186 0
 147 000e 099F     		ldr	r7, [sp, #36]
 148 0010 2439     		subs	r1, r1, #36
 149              	.LVL4:
 150 0012 4618     		adds	r6, r0, r1
 151 0014 C660     		str	r6, [r0, #12]
 152              	.LBB199:
 153              	.LBB195:
 154              		.loc 1 94 0
 155 0016 4FF0020B 		mov	fp, #2
 156              	.LBE195:
 157              	.LBE199:
 158              		.loc 1 186 0
 159 001a 4350     		str	r3, [r0, r1]
 160              	.LBB200:
 161              	.LBB196:
 162              		.loc 1 97 0
 163 001c 4FF0140A 		mov	r10, #20
 164              		.loc 1 95 0
 165 0020 0023     		movs	r3, #0
 166              	.LVL5:
 167              		.loc 1 120 0
 168 0022 00F12801 		add	r1, r0, #40
 169              	.LVL6:
 170              		.loc 1 110 0
 171 0026 4FF00108 		mov	r8, #1
ARM GAS  /tmp/cczO4Ks7.s 			page 4


 172              		.loc 1 117 0
 173 002a 00F1240C 		add	ip, r0, #36
 174              	.LBE196:
 175              	.LBE200:
 176              		.loc 1 186 0
 177 002e 7760     		str	r7, [r6, #4]
 178 0030 C6F82090 		str	r9, [r6, #32]
 179              	.LVL7:
 180              	.LBB201:
 181              	.LBB197:
 182              		.loc 1 93 0
 183 0034 8260     		str	r2, [r0, #8]
 184              		.loc 1 114 0
 185 0036 0561     		str	r5, [r0, #16]
 186 0038 C0F814E0 		str	lr, [r0, #20]
 187              		.loc 1 100 0
 188 003c C263     		str	r2, [r0, #60]
 189              		.loc 1 94 0
 190 003e 80F81CB0 		strb	fp, [r0, #28]
 191              	.LVL8:
 192              		.loc 1 97 0
 193 0042 80F81FA0 		strb	r10, [r0, #31]
 194              		.loc 1 110 0
 195 0046 80F81E80 		strb	r8, [r0, #30]
 196              		.loc 1 95 0
 197 004a 4377     		strb	r3, [r0, #29]
 198              		.loc 1 101 0
 199 004c 8363     		str	r3, [r0, #56]
 200              		.loc 1 104 0
 201 004e 4363     		str	r3, [r0, #52]
 202              		.loc 1 113 0
 203 0050 8361     		str	r3, [r0, #24]
 204              		.loc 1 114 0
 205 0052 CEF81000 		str	r0, [lr, #16]
 206              	.LBB190:
 207              	.LBB191:
 208              		.loc 2 566 0
 209 0056 C0F824C0 		str	ip, [r0, #36]
 210              	.LBE191:
 211              	.LBE190:
 212              		.loc 1 114 0
 213 005a 6861     		str	r0, [r5, #20]
 214              	.LVL9:
 215              	.LBB192:
 216              	.LBB193:
 217              		.loc 2 604 0
 218 005c 8162     		str	r1, [r0, #40]
 219              		.loc 2 605 0
 220 005e C162     		str	r1, [r0, #44]
 221              	.LBE193:
 222              	.LBE192:
 223              	.LBE197:
 224              	.LBE201:
 225              		.loc 1 189 0
 226 0060 BDE8F08F 		pop	{r4, r5, r6, r7, r8, r9, r10, fp, pc}
 227              	.LVL10:
 228              	.L8:
ARM GAS  /tmp/cczO4Ks7.s 			page 5


 229              		.align	2
 230              	.L7:
 231 0064 00000000 		.word	ch
 232 0068 00000000 		.word	_port_thread_start
 233              		.cfi_endproc
 234              	.LFE231:
 235              		.size	chThdCreateI, .-chThdCreateI
 236 006c AFF30080 		.section	.text.chThdCreateStatic,"ax",%progbits
 237              		.align	2
 238              		.p2align 4,,15
 239              		.global	chThdCreateStatic
 240              		.thumb
 241              		.thumb_func
 242              		.type	chThdCreateStatic, %function
 243              	chThdCreateStatic:
 244              	.LFB232:
 245              		.loc 1 208 0
 246              		.cfi_startproc
 247              		@ args = 4, pretend = 0, frame = 0
 248              		@ frame_needed = 0, uses_anonymous_args = 0
 249              	.LVL11:
 250 0000 2DE9F84F 		push	{r3, r4, r5, r6, r7, r8, r9, r10, fp, lr}
 251              		.cfi_def_cfa_offset 40
 252              		.cfi_offset 3, -40
 253              		.cfi_offset 4, -36
 254              		.cfi_offset 5, -32
 255              		.cfi_offset 6, -28
 256              		.cfi_offset 7, -24
 257              		.cfi_offset 8, -20
 258              		.cfi_offset 9, -16
 259              		.cfi_offset 10, -12
 260              		.cfi_offset 11, -8
 261              		.cfi_offset 14, -4
 262              		.loc 1 208 0
 263 0004 9646     		mov	lr, r2
 264 0006 0446     		mov	r4, r0
 265              	.LBB202:
 266              	.LBB203:
 267              	.LBB204:
 268              	.LBB205:
 269              		.file 3 "../os/ext/CMSIS/include/core_cmFunc.h"
 270              		.loc 3 548 0
 271 0008 2022     		movs	r2, #32
 272              	.LVL12:
 273              	#APP
 274              	@ 548 "../os/ext/CMSIS/include/core_cmFunc.h" 1
 275 000a 82F31188 		MSR basepri, r2
 276              	@ 0 "" 2
 277              	.LVL13:
 278              		.thumb
 279              	.LBE205:
 280              	.LBE204:
 281              	.LBE203:
 282              	.LBE202:
 283              	.LBB206:
 284              	.LBB207:
 285              	.LBB208:
ARM GAS  /tmp/cczO4Ks7.s 			page 6


 286              	.LBB209:
 287              		.loc 1 114 0
 288 000e 1A4E     		ldr	r6, .L11
 289              	.LBE209:
 290              	.LBE208:
 291              		.loc 1 186 0
 292 0010 DFF868B0 		ldr	fp, .L11+4
 293              	.LBB219:
 294              	.LBB214:
 295              		.loc 1 114 0
 296 0014 7269     		ldr	r2, [r6, #20]
 297              	.LBE214:
 298              	.LBE219:
 299              		.loc 1 186 0
 300 0016 2439     		subs	r1, r1, #36
 301              	.LVL14:
 302 0018 4718     		adds	r7, r0, r1
 303 001a C760     		str	r7, [r0, #12]
 304              	.LBB220:
 305              	.LBB215:
 306              		.loc 1 95 0
 307 001c 0025     		movs	r5, #0
 308              	.LBE215:
 309              	.LBE220:
 310              		.loc 1 186 0
 311 001e 4350     		str	r3, [r0, r1]
 312              	.LBB221:
 313              	.LBB216:
 314              		.loc 1 117 0
 315 0020 00F1240C 		add	ip, r0, #36
 316              		.loc 1 120 0
 317 0024 00F12803 		add	r3, r0, #40
 318              	.LVL15:
 319              	.LBE216:
 320              	.LBE221:
 321              		.loc 1 186 0
 322 0028 0A99     		ldr	r1, [sp, #40]
 323              	.LVL16:
 324 002a 7960     		str	r1, [r7, #4]
 325              	.LBB222:
 326              	.LBB217:
 327              		.loc 1 94 0
 328 002c 4FF0020A 		mov	r10, #2
 329              		.loc 1 97 0
 330 0030 4FF01409 		mov	r9, #20
 331              		.loc 1 110 0
 332 0034 4FF00108 		mov	r8, #1
 333              	.LBE217:
 334              	.LBE222:
 335              		.loc 1 186 0
 336 0038 C7F820B0 		str	fp, [r7, #32]
 337              	.LVL17:
 338              	.LBE207:
 339              	.LBE206:
 340              		.loc 1 222 0
 341 003c 2946     		mov	r1, r5
 342              	.LBB225:
ARM GAS  /tmp/cczO4Ks7.s 			page 7


 343              	.LBB224:
 344              	.LBB223:
 345              	.LBB218:
 346              		.loc 1 93 0
 347 003e C0F808E0 		str	lr, [r0, #8]
 348              		.loc 1 114 0
 349 0042 0661     		str	r6, [r0, #16]
 350 0044 4261     		str	r2, [r0, #20]
 351              		.loc 1 100 0
 352 0046 C0F83CE0 		str	lr, [r0, #60]
 353              		.loc 1 94 0
 354 004a 80F81CA0 		strb	r10, [r0, #28]
 355              	.LVL18:
 356              		.loc 1 97 0
 357 004e 80F81F90 		strb	r9, [r0, #31]
 358              		.loc 1 110 0
 359 0052 80F81E80 		strb	r8, [r0, #30]
 360              		.loc 1 95 0
 361 0056 4577     		strb	r5, [r0, #29]
 362              		.loc 1 101 0
 363 0058 8563     		str	r5, [r0, #56]
 364              		.loc 1 104 0
 365 005a 4563     		str	r5, [r0, #52]
 366              		.loc 1 113 0
 367 005c 8561     		str	r5, [r0, #24]
 368              		.loc 1 114 0
 369 005e 1061     		str	r0, [r2, #16]
 370              	.LBB210:
 371              	.LBB211:
 372              		.loc 2 566 0
 373 0060 C0F824C0 		str	ip, [r0, #36]
 374              	.LBE211:
 375              	.LBE210:
 376              	.LBB212:
 377              	.LBB213:
 378              		.loc 2 604 0
 379 0064 8362     		str	r3, [r0, #40]
 380              		.loc 2 605 0
 381 0066 C362     		str	r3, [r0, #44]
 382              	.LBE213:
 383              	.LBE212:
 384              		.loc 1 114 0
 385 0068 7061     		str	r0, [r6, #20]
 386              	.LVL19:
 387              	.LBE218:
 388              	.LBE223:
 389              	.LBE224:
 390              	.LBE225:
 391              		.loc 1 222 0
 392 006a FFF7FEFF 		bl	chSchWakeupS
 393              	.LVL20:
 394              	.LBB226:
 395              	.LBB227:
 396              	.LBB228:
 397              	.LBB229:
 398              	.LBB230:
 399              		.loc 3 548 0
ARM GAS  /tmp/cczO4Ks7.s 			page 8


 400              	#APP
 401              	@ 548 "../os/ext/CMSIS/include/core_cmFunc.h" 1
 402 006e 85F31188 		MSR basepri, r5
 403              	@ 0 "" 2
 404              		.thumb
 405              	.LBE230:
 406              	.LBE229:
 407              	.LBE228:
 408              	.LBE227:
 409              	.LBE226:
 410              		.loc 1 226 0
 411 0072 2046     		mov	r0, r4
 412 0074 BDE8F88F 		pop	{r3, r4, r5, r6, r7, r8, r9, r10, fp, pc}
 413              	.LVL21:
 414              	.L12:
 415              		.align	2
 416              	.L11:
 417 0078 00000000 		.word	ch
 418 007c 00000000 		.word	_port_thread_start
 419              		.cfi_endproc
 420              	.LFE232:
 421              		.size	chThdCreateStatic, .-chThdCreateStatic
 422              		.section	.text.chThdStart,"ax",%progbits
 423              		.align	2
 424              		.p2align 4,,15
 425              		.global	chThdStart
 426              		.thumb
 427              		.thumb_func
 428              		.type	chThdStart, %function
 429              	chThdStart:
 430              	.LFB233:
 431              		.loc 1 237 0
 432              		.cfi_startproc
 433              		@ args = 0, pretend = 0, frame = 0
 434              		@ frame_needed = 0, uses_anonymous_args = 0
 435              	.LVL22:
 436 0000 08B5     		push	{r3, lr}
 437              		.cfi_def_cfa_offset 8
 438              		.cfi_offset 3, -8
 439              		.cfi_offset 14, -4
 440              	.LBB231:
 441              	.LBB232:
 442              	.LBB233:
 443              	.LBB234:
 444              		.loc 3 548 0
 445 0002 2023     		movs	r3, #32
 446              	#APP
 447              	@ 548 "../os/ext/CMSIS/include/core_cmFunc.h" 1
 448 0004 83F31188 		MSR basepri, r3
 449              	@ 0 "" 2
 450              	.LVL23:
 451              		.thumb
 452              	.LBE234:
 453              	.LBE233:
 454              	.LBE232:
 455              	.LBE231:
 456              	.LBB235:
ARM GAS  /tmp/cczO4Ks7.s 			page 9


 457              	.LBB236:
 458              		.file 4 "../os/rt/include/chthreads.h"
 459              		.loc 4 249 0
 460 0008 FFF7FEFF 		bl	chSchReadyI
 461              	.LVL24:
 462              	.LBE236:
 463              	.LBE235:
 464              	.LBB237:
 465              	.LBB238:
 466              	.LBB239:
 467              	.LBB240:
 468              	.LBB241:
 469              		.loc 3 548 0
 470 000c 0023     		movs	r3, #0
 471              	#APP
 472              	@ 548 "../os/ext/CMSIS/include/core_cmFunc.h" 1
 473 000e 83F31188 		MSR basepri, r3
 474              	@ 0 "" 2
 475              		.thumb
 476              	.LBE241:
 477              	.LBE240:
 478              	.LBE239:
 479              	.LBE238:
 480              	.LBE237:
 481              		.loc 1 244 0
 482 0012 08BD     		pop	{r3, pc}
 483              		.cfi_endproc
 484              	.LFE233:
 485              		.size	chThdStart, .-chThdStart
 486 0014 AFF30080 		.section	.text.chThdSetPriority,"ax",%progbits
 486      AFF30080 
 486      AFF30080 
 487              		.align	2
 488              		.p2align 4,,15
 489              		.global	chThdSetPriority
 490              		.thumb
 491              		.thumb_func
 492              		.type	chThdSetPriority, %function
 493              	chThdSetPriority:
 494              	.LFB234:
 495              		.loc 1 258 0
 496              		.cfi_startproc
 497              		@ args = 0, pretend = 0, frame = 0
 498              		@ frame_needed = 0, uses_anonymous_args = 0
 499              	.LVL25:
 500 0000 10B5     		push	{r4, lr}
 501              		.cfi_def_cfa_offset 8
 502              		.cfi_offset 4, -8
 503              		.cfi_offset 14, -4
 504              	.LBB242:
 505              	.LBB243:
 506              	.LBB244:
 507              	.LBB245:
 508              		.loc 3 548 0
 509 0002 2023     		movs	r3, #32
 510              	#APP
 511              	@ 548 "../os/ext/CMSIS/include/core_cmFunc.h" 1
ARM GAS  /tmp/cczO4Ks7.s 			page 10


 512 0004 83F31188 		MSR basepri, r3
 513              	@ 0 "" 2
 514              		.thumb
 515              	.LBE245:
 516              	.LBE244:
 517              	.LBE243:
 518              	.LBE242:
 519              		.loc 1 265 0
 520 0008 084B     		ldr	r3, .L20
 521 000a 9B69     		ldr	r3, [r3, #24]
 522 000c DC6B     		ldr	r4, [r3, #60]
 523              	.LVL26:
 524              		.loc 1 266 0
 525 000e 9968     		ldr	r1, [r3, #8]
 526 0010 8C42     		cmp	r4, r1
 527 0012 01D0     		beq	.L16
 528              		.loc 1 266 0 is_stmt 0 discriminator 1
 529 0014 8142     		cmp	r1, r0
 530 0016 00D2     		bcs	.L17
 531              	.L16:
 532              		.loc 1 267 0 is_stmt 1
 533 0018 9860     		str	r0, [r3, #8]
 534              	.L17:
 535              		.loc 1 269 0
 536 001a D863     		str	r0, [r3, #60]
 537              		.loc 1 274 0
 538 001c FFF7FEFF 		bl	chSchRescheduleS
 539              	.LVL27:
 540              	.LBB246:
 541              	.LBB247:
 542              	.LBB248:
 543              	.LBB249:
 544              	.LBB250:
 545              		.loc 3 548 0
 546 0020 0023     		movs	r3, #0
 547              	#APP
 548              	@ 548 "../os/ext/CMSIS/include/core_cmFunc.h" 1
 549 0022 83F31188 		MSR basepri, r3
 550              	@ 0 "" 2
 551              		.thumb
 552              	.LBE250:
 553              	.LBE249:
 554              	.LBE248:
 555              	.LBE247:
 556              	.LBE246:
 557              		.loc 1 278 0
 558 0026 2046     		mov	r0, r4
 559 0028 10BD     		pop	{r4, pc}
 560              	.LVL28:
 561              	.L21:
 562 002a 00BF     		.align	2
 563              	.L20:
 564 002c 00000000 		.word	ch
 565              		.cfi_endproc
 566              	.LFE234:
 567              		.size	chThdSetPriority, .-chThdSetPriority
 568              		.section	.text.chThdTerminate,"ax",%progbits
ARM GAS  /tmp/cczO4Ks7.s 			page 11


 569              		.align	2
 570              		.p2align 4,,15
 571              		.global	chThdTerminate
 572              		.thumb
 573              		.thumb_func
 574              		.type	chThdTerminate, %function
 575              	chThdTerminate:
 576              	.LFB235:
 577              		.loc 1 292 0
 578              		.cfi_startproc
 579              		@ args = 0, pretend = 0, frame = 0
 580              		@ frame_needed = 0, uses_anonymous_args = 0
 581              		@ link register save eliminated.
 582              	.LVL29:
 583              	.LBB251:
 584              	.LBB252:
 585              	.LBB253:
 586              	.LBB254:
 587              		.loc 3 548 0
 588 0000 2023     		movs	r3, #32
 589              	#APP
 590              	@ 548 "../os/ext/CMSIS/include/core_cmFunc.h" 1
 591 0002 83F31188 		MSR basepri, r3
 592              	@ 0 "" 2
 593              		.thumb
 594              	.LBE254:
 595              	.LBE253:
 596              	.LBE252:
 597              	.LBE251:
 598              		.loc 1 295 0
 599 0006 437F     		ldrb	r3, [r0, #29]	@ zero_extendqisi2
 600 0008 43F00403 		orr	r3, r3, #4
 601 000c 4377     		strb	r3, [r0, #29]
 602              	.LVL30:
 603              	.LBB255:
 604              	.LBB256:
 605              	.LBB257:
 606              	.LBB258:
 607              	.LBB259:
 608              		.loc 3 548 0
 609 000e 0023     		movs	r3, #0
 610              	#APP
 611              	@ 548 "../os/ext/CMSIS/include/core_cmFunc.h" 1
 612 0010 83F31188 		MSR basepri, r3
 613              	@ 0 "" 2
 614              		.thumb
 615 0014 7047     		bx	lr
 616              	.LBE259:
 617              	.LBE258:
 618              	.LBE257:
 619              	.LBE256:
 620              	.LBE255:
 621              		.cfi_endproc
 622              	.LFE235:
 623              		.size	chThdTerminate, .-chThdTerminate
 624 0016 00BFAFF3 		.section	.text.chThdSleep,"ax",%progbits
 624      0080AFF3 
ARM GAS  /tmp/cczO4Ks7.s 			page 12


 624      0080
 625              		.align	2
 626              		.p2align 4,,15
 627              		.global	chThdSleep
 628              		.thumb
 629              		.thumb_func
 630              		.type	chThdSleep, %function
 631              	chThdSleep:
 632              	.LFB236:
 633              		.loc 1 311 0
 634              		.cfi_startproc
 635              		@ args = 0, pretend = 0, frame = 0
 636              		@ frame_needed = 0, uses_anonymous_args = 0
 637              	.LVL31:
 638 0000 08B5     		push	{r3, lr}
 639              		.cfi_def_cfa_offset 8
 640              		.cfi_offset 3, -8
 641              		.cfi_offset 14, -4
 642              		.loc 1 311 0
 643 0002 0146     		mov	r1, r0
 644              	.LBB260:
 645              	.LBB261:
 646              	.LBB262:
 647              	.LBB263:
 648              		.loc 3 548 0
 649 0004 2023     		movs	r3, #32
 650              	#APP
 651              	@ 548 "../os/ext/CMSIS/include/core_cmFunc.h" 1
 652 0006 83F31188 		MSR basepri, r3
 653              	@ 0 "" 2
 654              	.LVL32:
 655              		.thumb
 656              	.LBE263:
 657              	.LBE262:
 658              	.LBE261:
 659              	.LBE260:
 660              	.LBB264:
 661              	.LBB265:
 662              		.loc 4 268 0
 663 000a 0820     		movs	r0, #8
 664              	.LVL33:
 665 000c FFF7FEFF 		bl	chSchGoSleepTimeoutS
 666              	.LVL34:
 667              	.LBE265:
 668              	.LBE264:
 669              	.LBB266:
 670              	.LBB267:
 671              	.LBB268:
 672              	.LBB269:
 673              	.LBB270:
 674              		.loc 3 548 0
 675 0010 0023     		movs	r3, #0
 676              	#APP
 677              	@ 548 "../os/ext/CMSIS/include/core_cmFunc.h" 1
 678 0012 83F31188 		MSR basepri, r3
 679              	@ 0 "" 2
 680              		.thumb
ARM GAS  /tmp/cczO4Ks7.s 			page 13


 681 0016 08BD     		pop	{r3, pc}
 682              	.LBE270:
 683              	.LBE269:
 684              	.LBE268:
 685              	.LBE267:
 686              	.LBE266:
 687              		.cfi_endproc
 688              	.LFE236:
 689              		.size	chThdSleep, .-chThdSleep
 690 0018 AFF30080 		.section	.text.chThdSleepUntil,"ax",%progbits
 690      AFF30080 
 691              		.align	2
 692              		.p2align 4,,15
 693              		.global	chThdSleepUntil
 694              		.thumb
 695              		.thumb_func
 696              		.type	chThdSleepUntil, %function
 697              	chThdSleepUntil:
 698              	.LFB237:
 699              		.loc 1 331 0
 700              		.cfi_startproc
 701              		@ args = 0, pretend = 0, frame = 0
 702              		@ frame_needed = 0, uses_anonymous_args = 0
 703              	.LVL35:
 704 0000 08B5     		push	{r3, lr}
 705              		.cfi_def_cfa_offset 8
 706              		.cfi_offset 3, -8
 707              		.cfi_offset 14, -4
 708              	.LBB271:
 709              	.LBB272:
 710              	.LBB273:
 711              	.LBB274:
 712              		.loc 3 548 0
 713 0002 2023     		movs	r3, #32
 714              	#APP
 715              	@ 548 "../os/ext/CMSIS/include/core_cmFunc.h" 1
 716 0004 83F31188 		MSR basepri, r3
 717              	@ 0 "" 2
 718              		.thumb
 719              	.LBE274:
 720              	.LBE273:
 721              	.LBE272:
 722              	.LBE271:
 723              	.LBB275:
 724              	.LBB276:
 725              		.file 5 "../os/rt/include/chvt.h"
 726              		.loc 5 231 0
 727 0008 054B     		ldr	r3, .L31
 728 000a 996A     		ldr	r1, [r3, #40]
 729              	.LVL36:
 730              	.LBE276:
 731              	.LBE275:
 732              		.loc 1 335 0
 733 000c 411A     		subs	r1, r0, r1
 734              	.LVL37:
 735 000e 02D0     		beq	.L26
 736              	.LVL38:
ARM GAS  /tmp/cczO4Ks7.s 			page 14


 737              	.LBB277:
 738              	.LBB278:
 739              		.loc 4 268 0
 740 0010 0820     		movs	r0, #8
 741 0012 FFF7FEFF 		bl	chSchGoSleepTimeoutS
 742              	.LVL39:
 743              	.L26:
 744              	.LBE278:
 745              	.LBE277:
 746              	.LBB279:
 747              	.LBB280:
 748              	.LBB281:
 749              	.LBB282:
 750              	.LBB283:
 751              		.loc 3 548 0
 752 0016 0023     		movs	r3, #0
 753              	#APP
 754              	@ 548 "../os/ext/CMSIS/include/core_cmFunc.h" 1
 755 0018 83F31188 		MSR basepri, r3
 756              	@ 0 "" 2
 757              		.thumb
 758 001c 08BD     		pop	{r3, pc}
 759              	.L32:
 760 001e 00BF     		.align	2
 761              	.L31:
 762 0020 00000000 		.word	ch
 763              	.LBE283:
 764              	.LBE282:
 765              	.LBE281:
 766              	.LBE280:
 767              	.LBE279:
 768              		.cfi_endproc
 769              	.LFE237:
 770              		.size	chThdSleepUntil, .-chThdSleepUntil
 771 0024 AFF30080 		.section	.text.chThdSleepUntilWindowed,"ax",%progbits
 771      AFF30080 
 771      AFF30080 
 772              		.align	2
 773              		.p2align 4,,15
 774              		.global	chThdSleepUntilWindowed
 775              		.thumb
 776              		.thumb_func
 777              		.type	chThdSleepUntilWindowed, %function
 778              	chThdSleepUntilWindowed:
 779              	.LFB238:
 780              		.loc 1 355 0
 781              		.cfi_startproc
 782              		@ args = 0, pretend = 0, frame = 0
 783              		@ frame_needed = 0, uses_anonymous_args = 0
 784              	.LVL40:
 785 0000 10B5     		push	{r4, lr}
 786              		.cfi_def_cfa_offset 8
 787              		.cfi_offset 4, -8
 788              		.cfi_offset 14, -4
 789              	.LBB284:
 790              	.LBB285:
 791              	.LBB286:
ARM GAS  /tmp/cczO4Ks7.s 			page 15


 792              	.LBB287:
 793              		.loc 3 548 0
 794 0002 2022     		movs	r2, #32
 795              	.LBE287:
 796              	.LBE286:
 797              	.LBE285:
 798              	.LBE284:
 799              		.loc 1 355 0
 800 0004 0C46     		mov	r4, r1
 801              	.LBB291:
 802              	.LBB290:
 803              	.LBB289:
 804              	.LBB288:
 805              		.loc 3 548 0
 806              	#APP
 807              	@ 548 "../os/ext/CMSIS/include/core_cmFunc.h" 1
 808 0006 82F31188 		MSR basepri, r2
 809              	@ 0 "" 2
 810              		.thumb
 811              	.LBE288:
 812              	.LBE289:
 813              	.LBE290:
 814              	.LBE291:
 815              	.LBB292:
 816              	.LBB293:
 817              		.loc 5 231 0
 818 000a 074A     		ldr	r2, .L36
 819 000c 916A     		ldr	r1, [r2, #40]
 820              	.LVL41:
 821              	.LBE293:
 822              	.LBE292:
 823              	.LBB294:
 824              	.LBB295:
 825              		.loc 5 288 0
 826 000e 221A     		subs	r2, r4, r0
 827 0010 0B1A     		subs	r3, r1, r0
 828              	.LBE295:
 829              	.LBE294:
 830              		.loc 1 360 0
 831 0012 9342     		cmp	r3, r2
 832 0014 03D2     		bcs	.L34
 833              	.LVL42:
 834              	.LBB296:
 835              	.LBB297:
 836              		.loc 4 268 0
 837 0016 611A     		subs	r1, r4, r1
 838              	.LVL43:
 839 0018 0820     		movs	r0, #8
 840              	.LVL44:
 841 001a FFF7FEFF 		bl	chSchGoSleepTimeoutS
 842              	.LVL45:
 843              	.L34:
 844              	.LBE297:
 845              	.LBE296:
 846              	.LBB298:
 847              	.LBB299:
 848              	.LBB300:
ARM GAS  /tmp/cczO4Ks7.s 			page 16


 849              	.LBB301:
 850              	.LBB302:
 851              		.loc 3 548 0
 852 001e 0023     		movs	r3, #0
 853              	#APP
 854              	@ 548 "../os/ext/CMSIS/include/core_cmFunc.h" 1
 855 0020 83F31188 		MSR basepri, r3
 856              	@ 0 "" 2
 857              		.thumb
 858              	.LBE302:
 859              	.LBE301:
 860              	.LBE300:
 861              	.LBE299:
 862              	.LBE298:
 863              		.loc 1 366 0
 864 0024 2046     		mov	r0, r4
 865 0026 10BD     		pop	{r4, pc}
 866              	.LVL46:
 867              	.L37:
 868              		.align	2
 869              	.L36:
 870 0028 00000000 		.word	ch
 871              		.cfi_endproc
 872              	.LFE238:
 873              		.size	chThdSleepUntilWindowed, .-chThdSleepUntilWindowed
 874 002c AFF30080 		.section	.text.chThdYield,"ax",%progbits
 875              		.align	2
 876              		.p2align 4,,15
 877              		.global	chThdYield
 878              		.thumb
 879              		.thumb_func
 880              		.type	chThdYield, %function
 881              	chThdYield:
 882              	.LFB239:
 883              		.loc 1 375 0
 884              		.cfi_startproc
 885              		@ args = 0, pretend = 0, frame = 0
 886              		@ frame_needed = 0, uses_anonymous_args = 0
 887              	.LVL47:
 888 0000 08B5     		push	{r3, lr}
 889              		.cfi_def_cfa_offset 8
 890              		.cfi_offset 3, -8
 891              		.cfi_offset 14, -4
 892              	.LBB316:
 893              	.LBB317:
 894              	.LBB318:
 895              	.LBB319:
 896              		.loc 3 548 0
 897 0002 2023     		movs	r3, #32
 898              	#APP
 899              	@ 548 "../os/ext/CMSIS/include/core_cmFunc.h" 1
 900 0004 83F31188 		MSR basepri, r3
 901              	@ 0 "" 2
 902              		.thumb
 903              	.LBE319:
 904              	.LBE318:
 905              	.LBE317:
ARM GAS  /tmp/cczO4Ks7.s 			page 17


 906              	.LBE316:
 907              	.LBB320:
 908              	.LBB321:
 909              	.LBB322:
 910              	.LBB323:
 911              		.loc 2 731 0
 912 0008 064B     		ldr	r3, .L41
 913 000a 1A68     		ldr	r2, [r3]
 914 000c 9B69     		ldr	r3, [r3, #24]
 915              	.LBE323:
 916              	.LBE322:
 917              		.loc 2 745 0
 918 000e 9268     		ldr	r2, [r2, #8]
 919 0010 9B68     		ldr	r3, [r3, #8]
 920 0012 9A42     		cmp	r2, r3
 921 0014 01D3     		bcc	.L39
 922              		.loc 2 746 0
 923 0016 FFF7FEFF 		bl	chSchDoRescheduleBehind
 924              	.LVL48:
 925              	.L39:
 926              	.LBE321:
 927              	.LBE320:
 928              	.LBB324:
 929              	.LBB325:
 930              	.LBB326:
 931              	.LBB327:
 932              	.LBB328:
 933              		.loc 3 548 0
 934 001a 0023     		movs	r3, #0
 935              	#APP
 936              	@ 548 "../os/ext/CMSIS/include/core_cmFunc.h" 1
 937 001c 83F31188 		MSR basepri, r3
 938              	@ 0 "" 2
 939              		.thumb
 940 0020 08BD     		pop	{r3, pc}
 941              	.L42:
 942 0022 00BF     		.align	2
 943              	.L41:
 944 0024 00000000 		.word	ch
 945              	.LBE328:
 946              	.LBE327:
 947              	.LBE326:
 948              	.LBE325:
 949              	.LBE324:
 950              		.cfi_endproc
 951              	.LFE239:
 952              		.size	chThdYield, .-chThdYield
 953 0028 AFF30080 		.section	.text.chThdExitS,"ax",%progbits
 953      AFF30080 
 954              		.align	2
 955              		.p2align 4,,15
 956              		.global	chThdExitS
 957              		.thumb
 958              		.thumb_func
 959              		.type	chThdExitS, %function
 960              	chThdExitS:
 961              	.LFB241:
ARM GAS  /tmp/cczO4Ks7.s 			page 18


 962              		.loc 1 417 0
 963              		.cfi_startproc
 964              		@ args = 0, pretend = 0, frame = 0
 965              		@ frame_needed = 0, uses_anonymous_args = 0
 966              	.LVL49:
 967 0000 38B5     		push	{r3, r4, r5, lr}
 968              		.cfi_def_cfa_offset 16
 969              		.cfi_offset 3, -16
 970              		.cfi_offset 4, -12
 971              		.cfi_offset 5, -8
 972              		.cfi_offset 14, -4
 973              		.loc 1 418 0
 974 0002 0E4B     		ldr	r3, .L51
 975 0004 9C69     		ldr	r4, [r3, #24]
 976              	.LVL50:
 977              	.LBB329:
 978              	.LBB330:
 979              		.loc 2 592 0
 980 0006 636A     		ldr	r3, [r4, #36]
 981              	.LBE330:
 982              	.LBE329:
 983              		.loc 1 420 0
 984 0008 2062     		str	r0, [r4, #32]
 985              		.loc 1 425 0
 986 000a 04F12405 		add	r5, r4, #36
 987              	.LVL51:
 988 000e 9D42     		cmp	r5, r3
 989 0010 07D0     		beq	.L48
 990              	.LVL52:
 991              	.L47:
 992              	.LBB332:
 993              	.LBB333:
 994              		.loc 2 646 0
 995 0012 1A68     		ldr	r2, [r3]
 996 0014 6262     		str	r2, [r4, #36]
 997              	.LBE333:
 998              	.LBE332:
 999              		.loc 1 426 0
 1000 0016 1846     		mov	r0, r3
 1001 0018 FFF7FEFF 		bl	chSchReadyI
 1002              	.LVL53:
 1003              	.LBB334:
 1004              	.LBB331:
 1005              		.loc 2 592 0
 1006 001c 636A     		ldr	r3, [r4, #36]
 1007              	.LBE331:
 1008              	.LBE334:
 1009              		.loc 1 425 0
 1010 001e AB42     		cmp	r3, r5
 1011 0020 F7D1     		bne	.L47
 1012              	.LVL54:
 1013              	.L48:
 1014              		.loc 1 432 0
 1015 0022 637F     		ldrb	r3, [r4, #29]	@ zero_extendqisi2
 1016 0024 9B07     		lsls	r3, r3, #30
 1017 0026 04D1     		bne	.L46
 1018              		.loc 1 433 0
ARM GAS  /tmp/cczO4Ks7.s 			page 19


 1019 0028 6369     		ldr	r3, [r4, #20]
 1020 002a 2269     		ldr	r2, [r4, #16]
 1021 002c 1A61     		str	r2, [r3, #16]
 1022 002e 2269     		ldr	r2, [r4, #16]
 1023 0030 5361     		str	r3, [r2, #20]
 1024              	.L46:
 1025              		.loc 1 436 0
 1026 0032 0F20     		movs	r0, #15
 1027              		.loc 1 440 0
 1028 0034 BDE83840 		pop	{r3, r4, r5, lr}
 1029              		.cfi_restore 14
 1030              		.cfi_restore 5
 1031              		.cfi_restore 4
 1032              		.cfi_restore 3
 1033              		.cfi_def_cfa_offset 0
 1034              	.LVL55:
 1035              		.loc 1 436 0
 1036 0038 FFF7FEBF 		b	chSchGoSleepS
 1037              	.LVL56:
 1038              	.L52:
 1039              		.align	2
 1040              	.L51:
 1041 003c 00000000 		.word	ch
 1042              		.cfi_endproc
 1043              	.LFE241:
 1044              		.size	chThdExitS, .-chThdExitS
 1045              		.section	.text.chThdExit,"ax",%progbits
 1046              		.align	2
 1047              		.p2align 4,,15
 1048              		.global	chThdExit
 1049              		.thumb
 1050              		.thumb_func
 1051              		.type	chThdExit, %function
 1052              	chThdExit:
 1053              	.LFB240:
 1054              		.loc 1 396 0
 1055              		.cfi_startproc
 1056              		@ args = 0, pretend = 0, frame = 0
 1057              		@ frame_needed = 0, uses_anonymous_args = 0
 1058              		@ link register save eliminated.
 1059              	.LVL57:
 1060              	.LBB335:
 1061              	.LBB336:
 1062              	.LBB337:
 1063              	.LBB338:
 1064              		.loc 3 548 0
 1065 0000 2023     		movs	r3, #32
 1066              	#APP
 1067              	@ 548 "../os/ext/CMSIS/include/core_cmFunc.h" 1
 1068 0002 83F31188 		MSR basepri, r3
 1069              	@ 0 "" 2
 1070              		.thumb
 1071              	.LBE338:
 1072              	.LBE337:
 1073              	.LBE336:
 1074              	.LBE335:
 1075              		.loc 1 399 0
ARM GAS  /tmp/cczO4Ks7.s 			page 20


 1076 0006 FFF7FEBF 		b	chThdExitS
 1077              	.LVL58:
 1078              		.cfi_endproc
 1079              	.LFE240:
 1080              		.size	chThdExit, .-chThdExit
 1081 000a 00BFAFF3 		.section	.text.chThdWait,"ax",%progbits
 1081      0080
 1082              		.align	2
 1083              		.p2align 4,,15
 1084              		.global	chThdWait
 1085              		.thumb
 1086              		.thumb_func
 1087              		.type	chThdWait, %function
 1088              	chThdWait:
 1089              	.LFB242:
 1090              		.loc 1 474 0
 1091              		.cfi_startproc
 1092              		@ args = 0, pretend = 0, frame = 0
 1093              		@ frame_needed = 0, uses_anonymous_args = 0
 1094              	.LVL59:
 1095 0000 38B5     		push	{r3, r4, r5, lr}
 1096              		.cfi_def_cfa_offset 16
 1097              		.cfi_offset 3, -16
 1098              		.cfi_offset 4, -12
 1099              		.cfi_offset 5, -8
 1100              		.cfi_offset 14, -4
 1101              		.loc 1 474 0
 1102 0002 0446     		mov	r4, r0
 1103              	.LBB339:
 1104              	.LBB340:
 1105              	.LBB341:
 1106              	.LBB342:
 1107              		.loc 3 548 0
 1108 0004 2023     		movs	r3, #32
 1109              	#APP
 1110              	@ 548 "../os/ext/CMSIS/include/core_cmFunc.h" 1
 1111 0006 83F31188 		MSR basepri, r3
 1112              	@ 0 "" 2
 1113              		.thumb
 1114              	.LBE342:
 1115              	.LBE341:
 1116              	.LBE340:
 1117              	.LBE339:
 1118              		.loc 1 484 0
 1119 000a 037F     		ldrb	r3, [r0, #28]	@ zero_extendqisi2
 1120 000c 0F2B     		cmp	r3, #15
 1121 000e 07D0     		beq	.L55
 1122              		.loc 1 485 0
 1123 0010 084B     		ldr	r3, .L60
 1124              	.LBB343:
 1125              	.LBB344:
 1126              		.loc 2 639 0
 1127 0012 426A     		ldr	r2, [r0, #36]
 1128              	.LBE344:
 1129              	.LBE343:
 1130              		.loc 1 485 0
 1131 0014 9B69     		ldr	r3, [r3, #24]
ARM GAS  /tmp/cczO4Ks7.s 			page 21


 1132              	.LVL60:
 1133              		.loc 1 486 0
 1134 0016 0920     		movs	r0, #9
 1135              	.LVL61:
 1136              	.LBB346:
 1137              	.LBB345:
 1138              		.loc 2 639 0
 1139 0018 1A60     		str	r2, [r3]
 1140              		.loc 2 640 0
 1141 001a 6362     		str	r3, [r4, #36]
 1142              	.LBE345:
 1143              	.LBE346:
 1144              		.loc 1 486 0
 1145 001c FFF7FEFF 		bl	chSchGoSleepS
 1146              	.LVL62:
 1147              	.L55:
 1148              		.loc 1 488 0
 1149 0020 256A     		ldr	r5, [r4, #32]
 1150              	.LVL63:
 1151              	.LBB347:
 1152              	.LBB348:
 1153              	.LBB349:
 1154              	.LBB350:
 1155              	.LBB351:
 1156              		.loc 3 548 0
 1157 0022 0023     		movs	r3, #0
 1158              	#APP
 1159              	@ 548 "../os/ext/CMSIS/include/core_cmFunc.h" 1
 1160 0024 83F31188 		MSR basepri, r3
 1161              	@ 0 "" 2
 1162              		.thumb
 1163              	.LBE351:
 1164              	.LBE350:
 1165              	.LBE349:
 1166              	.LBE348:
 1167              	.LBE347:
 1168              		.loc 1 493 0
 1169 0028 2046     		mov	r0, r4
 1170 002a FFF7FEFF 		bl	chThdRelease
 1171              	.LVL64:
 1172              		.loc 1 497 0
 1173 002e 2846     		mov	r0, r5
 1174 0030 38BD     		pop	{r3, r4, r5, pc}
 1175              	.LVL65:
 1176              	.L61:
 1177 0032 00BF     		.align	2
 1178              	.L60:
 1179 0034 00000000 		.word	ch
 1180              		.cfi_endproc
 1181              	.LFE242:
 1182              		.size	chThdWait, .-chThdWait
 1183 0038 AFF30080 		.section	.text.chThdSuspendS,"ax",%progbits
 1183      AFF30080 
 1184              		.align	2
 1185              		.p2align 4,,15
 1186              		.global	chThdSuspendS
 1187              		.thumb
ARM GAS  /tmp/cczO4Ks7.s 			page 22


 1188              		.thumb_func
 1189              		.type	chThdSuspendS, %function
 1190              	chThdSuspendS:
 1191              	.LFB243:
 1192              		.loc 1 510 0
 1193              		.cfi_startproc
 1194              		@ args = 0, pretend = 0, frame = 0
 1195              		@ frame_needed = 0, uses_anonymous_args = 0
 1196              	.LVL66:
 1197 0000 10B5     		push	{r4, lr}
 1198              		.cfi_def_cfa_offset 8
 1199              		.cfi_offset 4, -8
 1200              		.cfi_offset 14, -4
 1201              	.LBB352:
 1202              	.LBB353:
 1203              		.loc 4 176 0
 1204 0002 054C     		ldr	r4, .L64
 1205 0004 A369     		ldr	r3, [r4, #24]
 1206              	.LBE353:
 1207              	.LBE352:
 1208              		.loc 1 515 0
 1209 0006 0360     		str	r3, [r0]
 1210              		.loc 1 510 0
 1211 0008 0246     		mov	r2, r0
 1212              		.loc 1 516 0
 1213 000a 1A62     		str	r2, [r3, #32]
 1214              		.loc 1 517 0
 1215 000c 0320     		movs	r0, #3
 1216              	.LVL67:
 1217 000e FFF7FEFF 		bl	chSchGoSleepS
 1218              	.LVL68:
 1219              		.loc 1 519 0
 1220 0012 A369     		ldr	r3, [r4, #24]
 1221              		.loc 1 520 0
 1222 0014 186A     		ldr	r0, [r3, #32]
 1223 0016 10BD     		pop	{r4, pc}
 1224              	.L65:
 1225              		.align	2
 1226              	.L64:
 1227 0018 00000000 		.word	ch
 1228              		.cfi_endproc
 1229              	.LFE243:
 1230              		.size	chThdSuspendS, .-chThdSuspendS
 1231 001c AFF30080 		.section	.text.chThdSuspendTimeoutS,"ax",%progbits
 1232              		.align	2
 1233              		.p2align 4,,15
 1234              		.global	chThdSuspendTimeoutS
 1235              		.thumb
 1236              		.thumb_func
 1237              		.type	chThdSuspendTimeoutS, %function
 1238              	chThdSuspendTimeoutS:
 1239              	.LFB244:
 1240              		.loc 1 541 0
 1241              		.cfi_startproc
 1242              		@ args = 0, pretend = 0, frame = 0
 1243              		@ frame_needed = 0, uses_anonymous_args = 0
 1244              		@ link register save eliminated.
ARM GAS  /tmp/cczO4Ks7.s 			page 23


 1245              	.LVL69:
 1246              	.LBB354:
 1247              	.LBB355:
 1248              		.loc 4 176 0
 1249 0000 054B     		ldr	r3, .L68
 1250              	.LBE355:
 1251              	.LBE354:
 1252              		.loc 1 541 0
 1253 0002 0246     		mov	r2, r0
 1254              	.LBB357:
 1255              	.LBB356:
 1256              		.loc 4 176 0
 1257 0004 9B69     		ldr	r3, [r3, #24]
 1258              	.LBE356:
 1259              	.LBE357:
 1260              		.loc 1 546 0
 1261 0006 21B1     		cbz	r1, .L67
 1262              		.loc 1 550 0
 1263 0008 0360     		str	r3, [r0]
 1264              		.loc 1 553 0
 1265 000a 0320     		movs	r0, #3
 1266              	.LVL70:
 1267              		.loc 1 551 0
 1268 000c 1A62     		str	r2, [r3, #32]
 1269              		.loc 1 553 0
 1270 000e FFF7FEBF 		b	chSchGoSleepTimeoutS
 1271              	.LVL71:
 1272              	.L67:
 1273              		.loc 1 554 0
 1274 0012 4FF0FF30 		mov	r0, #-1
 1275              	.LVL72:
 1276 0016 7047     		bx	lr
 1277              	.L69:
 1278              		.align	2
 1279              	.L68:
 1280 0018 00000000 		.word	ch
 1281              		.cfi_endproc
 1282              	.LFE244:
 1283              		.size	chThdSuspendTimeoutS, .-chThdSuspendTimeoutS
 1284 001c AFF30080 		.section	.text.chThdResumeI,"ax",%progbits
 1285              		.align	2
 1286              		.p2align 4,,15
 1287              		.global	chThdResumeI
 1288              		.thumb
 1289              		.thumb_func
 1290              		.type	chThdResumeI, %function
 1291              	chThdResumeI:
 1292              	.LFB245:
 1293              		.loc 1 566 0
 1294              		.cfi_startproc
 1295              		@ args = 0, pretend = 0, frame = 0
 1296              		@ frame_needed = 0, uses_anonymous_args = 0
 1297              		@ link register save eliminated.
 1298              	.LVL73:
 1299              		.loc 1 568 0
 1300 0000 0368     		ldr	r3, [r0]
 1301 0002 2BB1     		cbz	r3, .L70
ARM GAS  /tmp/cczO4Ks7.s 			page 24


 1302              	.LVL74:
 1303              	.LBB358:
 1304              		.loc 1 574 0
 1305 0004 0022     		movs	r2, #0
 1306 0006 0260     		str	r2, [r0]
 1307              		.loc 1 576 0
 1308 0008 1846     		mov	r0, r3
 1309              	.LVL75:
 1310              		.loc 1 575 0
 1311 000a 1962     		str	r1, [r3, #32]
 1312              		.loc 1 576 0
 1313 000c FFF7FEBF 		b	chSchReadyI
 1314              	.LVL76:
 1315              	.L70:
 1316 0010 7047     		bx	lr
 1317              	.LBE358:
 1318              		.cfi_endproc
 1319              	.LFE245:
 1320              		.size	chThdResumeI, .-chThdResumeI
 1321 0012 00BFAFF3 		.section	.text.chThdResumeS,"ax",%progbits
 1321      0080AFF3 
 1321      0080AFF3 
 1321      0080
 1322              		.align	2
 1323              		.p2align 4,,15
 1324              		.global	chThdResumeS
 1325              		.thumb
 1326              		.thumb_func
 1327              		.type	chThdResumeS, %function
 1328              	chThdResumeS:
 1329              	.LFB246:
 1330              		.loc 1 590 0
 1331              		.cfi_startproc
 1332              		@ args = 0, pretend = 0, frame = 0
 1333              		@ frame_needed = 0, uses_anonymous_args = 0
 1334              		@ link register save eliminated.
 1335              	.LVL77:
 1336              		.loc 1 590 0
 1337 0000 0346     		mov	r3, r0
 1338              		.loc 1 592 0
 1339 0002 0068     		ldr	r0, [r0]
 1340              	.LVL78:
 1341 0004 18B1     		cbz	r0, .L72
 1342              	.LVL79:
 1343              	.LBB359:
 1344              		.loc 1 598 0
 1345 0006 0022     		movs	r2, #0
 1346 0008 1A60     		str	r2, [r3]
 1347              		.loc 1 599 0
 1348 000a FFF7FEBF 		b	chSchWakeupS
 1349              	.LVL80:
 1350              	.L72:
 1351 000e 7047     		bx	lr
 1352              	.LBE359:
 1353              		.cfi_endproc
 1354              	.LFE246:
 1355              		.size	chThdResumeS, .-chThdResumeS
ARM GAS  /tmp/cczO4Ks7.s 			page 25


 1356              		.section	.text.chThdResume,"ax",%progbits
 1357              		.align	2
 1358              		.p2align 4,,15
 1359              		.global	chThdResume
 1360              		.thumb
 1361              		.thumb_func
 1362              		.type	chThdResume, %function
 1363              	chThdResume:
 1364              	.LFB247:
 1365              		.loc 1 613 0
 1366              		.cfi_startproc
 1367              		@ args = 0, pretend = 0, frame = 0
 1368              		@ frame_needed = 0, uses_anonymous_args = 0
 1369              	.LVL81:
 1370              	.LBB360:
 1371              	.LBB361:
 1372              	.LBB362:
 1373              	.LBB363:
 1374              		.loc 3 548 0
 1375 0000 2023     		movs	r3, #32
 1376              	#APP
 1377              	@ 548 "../os/ext/CMSIS/include/core_cmFunc.h" 1
 1378 0002 83F31188 		MSR basepri, r3
 1379              	@ 0 "" 2
 1380              	.LVL82:
 1381              		.thumb
 1382              	.LBE363:
 1383              	.LBE362:
 1384              	.LBE361:
 1385              	.LBE360:
 1386              	.LBB364:
 1387              	.LBB365:
 1388              		.loc 1 592 0
 1389 0006 0268     		ldr	r2, [r0]
 1390 0008 52B1     		cbz	r2, .L80
 1391 000a 0346     		mov	r3, r0
 1392              	.LVL83:
 1393              	.LBE365:
 1394              	.LBE364:
 1395              		.loc 1 613 0
 1396 000c 10B5     		push	{r4, lr}
 1397              		.cfi_def_cfa_offset 8
 1398              		.cfi_offset 4, -8
 1399              		.cfi_offset 14, -4
 1400              	.LBB368:
 1401              	.LBB367:
 1402              	.LBB366:
 1403              		.loc 1 598 0
 1404 000e 0024     		movs	r4, #0
 1405 0010 1C60     		str	r4, [r3]
 1406              		.loc 1 599 0
 1407 0012 1046     		mov	r0, r2
 1408              	.LVL84:
 1409 0014 FFF7FEFF 		bl	chSchWakeupS
 1410              	.LVL85:
 1411              	.LBE366:
 1412              	.LBE367:
ARM GAS  /tmp/cczO4Ks7.s 			page 26


 1413              	.LBE368:
 1414              	.LBB369:
 1415              	.LBB370:
 1416              	.LBB371:
 1417              	.LBB372:
 1418              	.LBB373:
 1419              		.loc 3 548 0
 1420 0018 0023     		movs	r3, #0
 1421              	#APP
 1422              	@ 548 "../os/ext/CMSIS/include/core_cmFunc.h" 1
 1423 001a 83F31188 		MSR basepri, r3
 1424              	@ 0 "" 2
 1425              		.thumb
 1426 001e 10BD     		pop	{r4, pc}
 1427              	.LVL86:
 1428              	.L80:
 1429              		.cfi_def_cfa_offset 0
 1430              		.cfi_restore 4
 1431              		.cfi_restore 14
 1432 0020 0023     		movs	r3, #0
 1433              	#APP
 1434              	@ 548 "../os/ext/CMSIS/include/core_cmFunc.h" 1
 1435 0022 83F31188 		MSR basepri, r3
 1436              	@ 0 "" 2
 1437              		.thumb
 1438 0026 7047     		bx	lr
 1439              	.LBE373:
 1440              	.LBE372:
 1441              	.LBE371:
 1442              	.LBE370:
 1443              	.LBE369:
 1444              		.cfi_endproc
 1445              	.LFE247:
 1446              		.size	chThdResume, .-chThdResume
 1447 0028 AFF30080 		.section	.text.chThdEnqueueTimeoutS,"ax",%progbits
 1447      AFF30080 
 1448              		.align	2
 1449              		.p2align 4,,15
 1450              		.global	chThdEnqueueTimeoutS
 1451              		.thumb
 1452              		.thumb_func
 1453              		.type	chThdEnqueueTimeoutS, %function
 1454              	chThdEnqueueTimeoutS:
 1455              	.LFB248:
 1456              		.loc 1 643 0
 1457              		.cfi_startproc
 1458              		@ args = 0, pretend = 0, frame = 0
 1459              		@ frame_needed = 0, uses_anonymous_args = 0
 1460              		@ link register save eliminated.
 1461              	.LVL87:
 1462              		.loc 1 645 0
 1463 0000 69B1     		cbz	r1, .L82
 1464              		.loc 1 649 0
 1465 0002 084B     		ldr	r3, .L84
 1466              		.loc 1 643 0
 1467 0004 10B4     		push	{r4}
 1468              		.cfi_def_cfa_offset 4
ARM GAS  /tmp/cczO4Ks7.s 			page 27


 1469              		.cfi_offset 4, -4
 1470 0006 0246     		mov	r2, r0
 1471              	.LBB374:
 1472              	.LBB375:
 1473              		.loc 2 666 0
 1474 0008 4468     		ldr	r4, [r0, #4]
 1475              	.LBE375:
 1476              	.LBE374:
 1477              		.loc 1 649 0
 1478 000a 9B69     		ldr	r3, [r3, #24]
 1479              	.LVL88:
 1480              		.loc 1 651 0
 1481 000c 0420     		movs	r0, #4
 1482              	.LVL89:
 1483              	.LBB377:
 1484              	.LBB376:
 1485              		.loc 2 666 0
 1486 000e 83E81400 		stmia	r3, {r2, r4}
 1487              		.loc 2 667 0
 1488 0012 2360     		str	r3, [r4]
 1489              		.loc 2 668 0
 1490 0014 5360     		str	r3, [r2, #4]
 1491              	.LBE376:
 1492              	.LBE377:
 1493              		.loc 1 652 0
 1494 0016 5DF8044B 		ldr	r4, [sp], #4
 1495              		.cfi_restore 4
 1496              		.cfi_def_cfa_offset 0
 1497              		.loc 1 651 0
 1498 001a FFF7FEBF 		b	chSchGoSleepTimeoutS
 1499              	.LVL90:
 1500              	.L82:
 1501              		.loc 1 652 0
 1502 001e 4FF0FF30 		mov	r0, #-1
 1503              	.LVL91:
 1504 0022 7047     		bx	lr
 1505              	.L85:
 1506              		.align	2
 1507              	.L84:
 1508 0024 00000000 		.word	ch
 1509              		.cfi_endproc
 1510              	.LFE248:
 1511              		.size	chThdEnqueueTimeoutS, .-chThdEnqueueTimeoutS
 1512 0028 AFF30080 		.section	.text.chThdDequeueNextI,"ax",%progbits
 1512      AFF30080 
 1513              		.align	2
 1514              		.p2align 4,,15
 1515              		.global	chThdDequeueNextI
 1516              		.thumb
 1517              		.thumb_func
 1518              		.type	chThdDequeueNextI, %function
 1519              	chThdDequeueNextI:
 1520              	.LFB249:
 1521              		.loc 1 663 0
 1522              		.cfi_startproc
 1523              		@ args = 0, pretend = 0, frame = 0
 1524              		@ frame_needed = 0, uses_anonymous_args = 0
ARM GAS  /tmp/cczO4Ks7.s 			page 28


 1525              		@ link register save eliminated.
 1526              	.LVL92:
 1527              	.LBB378:
 1528              	.LBB379:
 1529              		.loc 2 631 0
 1530 0000 0268     		ldr	r2, [r0]
 1531              	.LBE379:
 1532              	.LBE378:
 1533              		.loc 1 665 0
 1534 0002 9042     		cmp	r0, r2
 1535              		.loc 1 663 0
 1536 0004 0346     		mov	r3, r0
 1537              	.LVL93:
 1538              		.loc 1 665 0
 1539 0006 09D0     		beq	.L89
 1540              	.LVL94:
 1541              		.loc 1 663 0
 1542 0008 10B4     		push	{r4}
 1543              		.cfi_def_cfa_offset 4
 1544              		.cfi_offset 4, -4
 1545              	.LBB380:
 1546              	.LBB381:
 1547              	.LBB382:
 1548              	.LBB383:
 1549              		.loc 2 674 0
 1550 000a 1468     		ldr	r4, [r2]
 1551 000c 0460     		str	r4, [r0]
 1552              		.loc 2 675 0
 1553 000e 6360     		str	r3, [r4, #4]
 1554              	.LBE383:
 1555              	.LBE382:
 1556              		.loc 4 321 0
 1557 0010 1162     		str	r1, [r2, #32]
 1558              		.loc 4 322 0
 1559 0012 1046     		mov	r0, r2
 1560              	.LVL95:
 1561              	.LBE381:
 1562              	.LBE380:
 1563              		.loc 1 668 0
 1564 0014 5DF8044B 		ldr	r4, [sp], #4
 1565              		.cfi_restore 4
 1566              		.cfi_def_cfa_offset 0
 1567              	.LBB385:
 1568              	.LBB384:
 1569              		.loc 4 322 0
 1570 0018 FFF7FEBF 		b	chSchReadyI
 1571              	.LVL96:
 1572              	.L89:
 1573 001c 7047     		bx	lr
 1574              	.LBE384:
 1575              	.LBE385:
 1576              		.cfi_endproc
 1577              	.LFE249:
 1578              		.size	chThdDequeueNextI, .-chThdDequeueNextI
 1579 001e 00BF     		.section	.text.chThdDequeueAllI,"ax",%progbits
 1580              		.align	2
 1581              		.p2align 4,,15
ARM GAS  /tmp/cczO4Ks7.s 			page 29


 1582              		.global	chThdDequeueAllI
 1583              		.thumb
 1584              		.thumb_func
 1585              		.type	chThdDequeueAllI, %function
 1586              	chThdDequeueAllI:
 1587              	.LFB250:
 1588              		.loc 1 678 0
 1589              		.cfi_startproc
 1590              		@ args = 0, pretend = 0, frame = 0
 1591              		@ frame_needed = 0, uses_anonymous_args = 0
 1592              	.LVL97:
 1593 0000 38B5     		push	{r3, r4, r5, lr}
 1594              		.cfi_def_cfa_offset 16
 1595              		.cfi_offset 3, -16
 1596              		.cfi_offset 4, -12
 1597              		.cfi_offset 5, -8
 1598              		.cfi_offset 14, -4
 1599              	.LBB386:
 1600              	.LBB387:
 1601              		.loc 2 631 0
 1602 0002 0368     		ldr	r3, [r0]
 1603              	.LBE387:
 1604              	.LBE386:
 1605              		.loc 1 680 0
 1606 0004 9842     		cmp	r0, r3
 1607              		.loc 1 678 0
 1608 0006 0446     		mov	r4, r0
 1609              	.LVL98:
 1610 0008 0D46     		mov	r5, r1
 1611              		.loc 1 680 0
 1612 000a 09D0     		beq	.L90
 1613              	.LVL99:
 1614              	.L92:
 1615              	.LBB389:
 1616              	.LBB390:
 1617              	.LBB391:
 1618              	.LBB392:
 1619              		.loc 2 674 0
 1620 000c 1A68     		ldr	r2, [r3]
 1621 000e 2260     		str	r2, [r4]
 1622              	.LBE392:
 1623              	.LBE391:
 1624              		.loc 4 322 0
 1625 0010 1846     		mov	r0, r3
 1626              	.LBB394:
 1627              	.LBB393:
 1628              		.loc 2 675 0
 1629 0012 5460     		str	r4, [r2, #4]
 1630              	.LBE393:
 1631              	.LBE394:
 1632              		.loc 4 321 0
 1633 0014 1D62     		str	r5, [r3, #32]
 1634              		.loc 4 322 0
 1635 0016 FFF7FEFF 		bl	chSchReadyI
 1636              	.LVL100:
 1637              	.LBE390:
 1638              	.LBE389:
ARM GAS  /tmp/cczO4Ks7.s 			page 30


 1639              	.LBB395:
 1640              	.LBB388:
 1641              		.loc 2 631 0
 1642 001a 2368     		ldr	r3, [r4]
 1643              	.LBE388:
 1644              	.LBE395:
 1645              		.loc 1 680 0
 1646 001c 9C42     		cmp	r4, r3
 1647 001e F5D1     		bne	.L92
 1648              	.LVL101:
 1649              	.L90:
 1650 0020 38BD     		pop	{r3, r4, r5, pc}
 1651              		.cfi_endproc
 1652              	.LFE250:
 1653              		.size	chThdDequeueAllI, .-chThdDequeueAllI
 1654 0022 00BFAFF3 		.text
 1654      0080AFF3 
 1654      0080AFF3 
 1654      0080
 1655              	.Letext0:
 1656              		.file 6 "/usr/lib/gcc/arm-linux-gnueabihf/4.9/include/stddef.h"
 1657              		.file 7 "/usr/include/stdint.h"
 1658              		.file 8 "../os/rt/ports/ARMCMx/compilers/GCC/chtypes.h"
 1659              		.file 9 "../os/rt/include/chsystypes.h"
 1660              		.file 10 "../os/rt/ports/ARMCMx/chcore.h"
 1661              		.file 11 "../os/rt/ports/ARMCMx/chcore_v7m.h"
 1662              		.file 12 "../os/rt/include/chsem.h"
 1663              		.file 13 "../os/rt/include/chmtx.h"
 1664              		.file 14 "../os/rt/include/chsys.h"
 1665              		.file 15 "../os/ext/CMSIS/include/core_cm4.h"
 1666              		.file 16 "../os/rt/include/chdynamic.h"
 7279              		.section	.note.GNU-stack,"",%progbits
ARM GAS  /tmp/cczO4Ks7.s 			page 136

