ARM GAS  /tmp/ccMAJEgQ.s 			page 1


   1              		.syntax unified
   2              		.cpu cortex-m4
   3              		.fpu softvfp
   4              		.eabi_attribute 20, 1
   5              		.eabi_attribute 21, 1
   6              		.eabi_attribute 23, 3
   7              		.eabi_attribute 24, 1
   8              		.eabi_attribute 25, 1
   9              		.eabi_attribute 26, 2
  10              		.eabi_attribute 30, 2
  11              		.eabi_attribute 34, 1
  12              		.eabi_attribute 18, 4
  13              		.thumb
  14              		.file	"CopyToRam.c"
  15              		.text
  16              	.Ltext0:
  17              		.cfi_sections	.debug_frame
  18              		.section	.text.RelocateFunction,"ax",%progbits
  19              		.align	2
  20              		.p2align 4,,-1
  21              		.global	RelocateFunction
  22              		.thumb
  23              		.thumb_func
  24              		.type	RelocateFunction, %function
  25              	RelocateFunction:
  26              	.LFB10:
  27              		.file 1 "../ext/C90TFS/source/CopyToRam.c"
  28              		.loc 1 63 0
  29              		.cfi_startproc
  30              		@ args = 0, pretend = 0, frame = 0
  31              		@ frame_needed = 0, uses_anonymous_args = 0
  32              		@ link register save eliminated.
  33              	.LVL0:
  34              		.loc 1 70 0
  35 0000 4908     		lsrs	r1, r1, #1
  36              	.LVL1:
  37              		.loc 1 66 0
  38 0002 02F1FF32 		add	r2, r2, #-1
  39              	.LVL2:
  40              		.loc 1 70 0
  41 0006 0ED0     		beq	.L8
  42              		.loc 1 63 0 discriminator 3
  43 0008 30B4     		push	{r4, r5}
  44              		.cfi_def_cfa_offset 8
  45              		.cfi_offset 4, -8
  46              		.cfi_offset 5, -4
  47              		.loc 1 70 0 discriminator 3
  48 000a 0023     		movs	r3, #0
  49 000c 0546     		mov	r5, r0
  50              	.LVL3:
  51              	.L3:
  52              		.loc 1 72 0 discriminator 3
  53 000e 32F8024B 		ldrh	r4, [r2], #2
  54              	.LVL4:
  55              		.loc 1 70 0 discriminator 3
  56 0012 0133     		adds	r3, r3, #1
  57              	.LVL5:
ARM GAS  /tmp/ccMAJEgQ.s 			page 2


  58 0014 9BB2     		uxth	r3, r3
  59              		.loc 1 72 0 discriminator 3
  60 0016 A4B2     		uxth	r4, r4
  61              	.LVL6:
  62              		.loc 1 70 0 discriminator 3
  63 0018 9942     		cmp	r1, r3
  64              		.loc 1 74 0 discriminator 3
  65 001a 25F8024B 		strh	r4, [r5], #2	@ movhi
  66              	.LVL7:
  67              		.loc 1 70 0 discriminator 3
  68 001e F6D8     		bhi	.L3
  69              		.loc 1 77 0
  70 0020 0130     		adds	r0, r0, #1
  71              	.LVL8:
  72              		.loc 1 78 0
  73 0022 30BC     		pop	{r4, r5}
  74              		.cfi_restore 5
  75              		.cfi_restore 4
  76              		.cfi_def_cfa_offset 0
  77              	.LVL9:
  78 0024 7047     		bx	lr
  79              	.LVL10:
  80              	.L8:
  81              		.loc 1 77 0
  82 0026 0130     		adds	r0, r0, #1
  83              	.LVL11:
  84              		.loc 1 78 0
  85 0028 7047     		bx	lr
  86              		.cfi_endproc
  87              	.LFE10:
  88              		.size	RelocateFunction, .-RelocateFunction
  89 002a 00BFAFF3 		.text
  89      0080
  90              	.Letext0:
  91              		.file 2 "/usr/include/stdint.h"
  92              		.file 3 "../ext/C90TFS/include/SSD_Types.h"
 609              		.section	.note.GNU-stack,"",%progbits
ARM GAS  /tmp/ccMAJEgQ.s 			page 14

