ARM GAS  /tmp/cc7koxSc.s 			page 1


   1              		.syntax unified
   2              		.cpu cortex-m4
   3              		.fpu softvfp
   4              		.eabi_attribute 20, 1
   5              		.eabi_attribute 21, 1
   6              		.eabi_attribute 23, 3
   7              		.eabi_attribute 24, 1
   8              		.eabi_attribute 25, 1
   9              		.eabi_attribute 26, 2
  10              		.eabi_attribute 30, 2
  11              		.eabi_attribute 34, 1
  12              		.eabi_attribute 18, 4
  13              		.thumb
  14              		.file	"crt1.c"
  15              		.text
  16              	.Ltext0:
  17              		.cfi_sections	.debug_frame
  18              		.section	.text.__core_init,"ax",%progbits
  19              		.align	2
  20              		.p2align 4,,15
  21              		.weak	__core_init
  22              		.thumb
  23              		.thumb_func
  24              		.type	__core_init, %function
  25              	__core_init:
  26              	.LFB123:
  27              		.file 1 "../os/common/ports/ARMCMx/compilers/GCC/crt1.c"
  28              		.loc 1 136 0
  29              		.cfi_startproc
  30              		@ args = 0, pretend = 0, frame = 0
  31              		@ frame_needed = 0, uses_anonymous_args = 0
  32              		@ link register save eliminated.
  33 0000 7047     		bx	lr
  34              		.cfi_endproc
  35              	.LFE123:
  36              		.size	__core_init, .-__core_init
  37 0002 00BFAFF3 		.section	.text.__early_init,"ax",%progbits
  37      0080AFF3 
  37      0080AFF3 
  37      0080
  38              		.align	2
  39              		.p2align 4,,15
  40              		.weak	__early_init
  41              		.thumb
  42              		.thumb_func
  43              		.type	__early_init, %function
  44              	__early_init:
  45              	.LFB124:
  46              		.loc 1 155 0
  47              		.cfi_startproc
  48              		@ args = 0, pretend = 0, frame = 0
  49              		@ frame_needed = 0, uses_anonymous_args = 0
  50              		@ link register save eliminated.
  51 0000 7047     		bx	lr
  52              		.cfi_endproc
  53              	.LFE124:
  54              		.size	__early_init, .-__early_init
ARM GAS  /tmp/cc7koxSc.s 			page 2


  55 0002 00BFAFF3 		.section	.text.__late_init,"ax",%progbits
  55      0080AFF3 
  55      0080AFF3 
  55      0080
  56              		.align	2
  57              		.p2align 4,,15
  58              		.weak	__late_init
  59              		.thumb
  60              		.thumb_func
  61              		.type	__late_init, %function
  62              	__late_init:
  63              	.LFB125:
  64              		.loc 1 169 0
  65              		.cfi_startproc
  66              		@ args = 0, pretend = 0, frame = 0
  67              		@ frame_needed = 0, uses_anonymous_args = 0
  68              		@ link register save eliminated.
  69 0000 7047     		bx	lr
  70              		.cfi_endproc
  71              	.LFE125:
  72              		.size	__late_init, .-__late_init
  73 0002 00BFAFF3 		.section	.text.__default_exit,"ax",%progbits
  73      0080AFF3 
  73      0080AFF3 
  73      0080
  74              		.align	2
  75              		.p2align 4,,15
  76              		.weak	__default_exit
  77              		.thumb
  78              		.thumb_func
  79              		.type	__default_exit, %function
  80              	__default_exit:
  81              	.LFB126:
  82              		.loc 1 182 0
  83              		.cfi_startproc
  84              		@ Volatile: function does not return.
  85              		@ args = 0, pretend = 0, frame = 0
  86              		@ frame_needed = 0, uses_anonymous_args = 0
  87              		@ link register save eliminated.
  88              	.L5:
  89              		.loc 1 186 0 discriminator 1
  90 0000 FEE7     		b	.L5
  91              		.cfi_endproc
  92              	.LFE126:
  93              		.size	__default_exit, .-__default_exit
  94 0002 00BFAFF3 		.section	.text.__init_ram_areas,"ax",%progbits
  94      0080AFF3 
  94      0080AFF3 
  94      0080
  95              		.align	2
  96              		.p2align 4,,15
  97              		.global	__init_ram_areas
  98              		.thumb
  99              		.thumb_func
 100              		.type	__init_ram_areas, %function
 101              	__init_ram_areas:
 102              	.LFB127:
ARM GAS  /tmp/cc7koxSc.s 			page 3


 103              		.loc 1 192 0
 104              		.cfi_startproc
 105              		@ args = 0, pretend = 0, frame = 0
 106              		@ frame_needed = 0, uses_anonymous_args = 0
 107              		@ link register save eliminated.
 108              	.LVL0:
 109 0000 F0B4     		push	{r4, r5, r6, r7}
 110              		.cfi_def_cfa_offset 16
 111              		.cfi_offset 4, -16
 112              		.cfi_offset 5, -12
 113              		.cfi_offset 6, -8
 114              		.cfi_offset 7, -4
 115              		.loc 1 194 0
 116 0002 114E     		ldr	r6, .L21
 117              	.LBB2:
 118              		.loc 1 209 0
 119 0004 0025     		movs	r5, #0
 120 0006 06F18007 		add	r7, r6, #128
 121              	.LVL1:
 122              	.L10:
 123              		.loc 1 197 0
 124 000a 96E81A00 		ldmia	r6, {r1, r3, r4}
 125              	.LVL2:
 126              		.loc 1 201 0
 127 000e A342     		cmp	r3, r4
 128 0010 0DD2     		bcs	.L7
 129 0012 0439     		subs	r1, r1, #4
 130              	.LVL3:
 131 0014 1A46     		mov	r2, r3
 132              	.LVL4:
 133              	.L8:
 134              		.loc 1 202 0
 135 0016 51F8040F 		ldr	r0, [r1, #4]!
 136              	.LVL5:
 137 001a 42F8040B 		str	r0, [r2], #4
 138              	.LVL6:
 139              		.loc 1 201 0
 140 001e A242     		cmp	r2, r4
 141 0020 F9D3     		bcc	.L8
 142 0022 DA43     		mvns	r2, r3
 143              	.LVL7:
 144 0024 1444     		add	r4, r4, r2
 145 0026 24F00304 		bic	r4, r4, #3
 146 002a 0434     		adds	r4, r4, #4
 147 002c 2344     		add	r3, r3, r4
 148              	.LVL8:
 149              	.L7:
 150              		.loc 1 208 0
 151 002e F268     		ldr	r2, [r6, #12]
 152 0030 9342     		cmp	r3, r2
 153 0032 03D2     		bcs	.L13
 154              	.L12:
 155              		.loc 1 209 0
 156 0034 43F8045B 		str	r5, [r3], #4
 157              	.LVL9:
 158              		.loc 1 208 0
 159 0038 9342     		cmp	r3, r2
ARM GAS  /tmp/cc7koxSc.s 			page 4


 160 003a FBD3     		bcc	.L12
 161              	.L13:
 162              		.loc 1 212 0
 163 003c 1036     		adds	r6, r6, #16
 164              	.LVL10:
 165              	.LBE2:
 166              		.loc 1 214 0
 167 003e BE42     		cmp	r6, r7
 168 0040 E3D3     		bcc	.L10
 169              		.loc 1 216 0
 170 0042 F0BC     		pop	{r4, r5, r6, r7}
 171              		.cfi_restore 7
 172              		.cfi_restore 6
 173              		.cfi_restore 5
 174              		.cfi_restore 4
 175              		.cfi_def_cfa_offset 0
 176              	.LVL11:
 177 0044 7047     		bx	lr
 178              	.L22:
 179 0046 00BF     		.align	2
 180              	.L21:
 181 0048 00000000 		.word	.LANCHOR0
 182              		.cfi_endproc
 183              	.LFE127:
 184              		.size	__init_ram_areas, .-__init_ram_areas
 185 004c AFF30080 		.section	.rodata.ram_areas,"a",%progbits
 186              		.align	2
 187              	.LANCHOR0 = . + 0
 188              		.type	ram_areas, %object
 189              		.size	ram_areas, 128
 190              	ram_areas:
 191 0000 00000000 		.word	__ram0_init_text__
 192 0004 00000000 		.word	__ram0_init__
 193 0008 00000000 		.word	__ram0_clear__
 194 000c 00000000 		.word	__ram0_noinit__
 195 0010 00000000 		.word	__ram1_init_text__
 196 0014 00000000 		.word	__ram1_init__
 197 0018 00000000 		.word	__ram1_clear__
 198 001c 00000000 		.word	__ram1_noinit__
 199 0020 00000000 		.word	__ram2_init_text__
 200 0024 00000000 		.word	__ram2_init__
 201 0028 00000000 		.word	__ram2_clear__
 202 002c 00000000 		.word	__ram2_noinit__
 203 0030 00000000 		.word	__ram3_init_text__
 204 0034 00000000 		.word	__ram3_init__
 205 0038 00000000 		.word	__ram3_clear__
 206 003c 00000000 		.word	__ram3_noinit__
 207 0040 00000000 		.word	__ram4_init_text__
 208 0044 00000000 		.word	__ram4_init__
 209 0048 00000000 		.word	__ram4_clear__
 210 004c 00000000 		.word	__ram4_noinit__
 211 0050 00000000 		.word	__ram5_init_text__
 212 0054 00000000 		.word	__ram5_init__
 213 0058 00000000 		.word	__ram5_clear__
 214 005c 00000000 		.word	__ram5_noinit__
 215 0060 00000000 		.word	__ram6_init_text__
 216 0064 00000000 		.word	__ram6_init__
ARM GAS  /tmp/cc7koxSc.s 			page 5


 217 0068 00000000 		.word	__ram6_clear__
 218 006c 00000000 		.word	__ram6_noinit__
 219 0070 00000000 		.word	__ram7_init_text__
 220 0074 00000000 		.word	__ram7_init__
 221 0078 00000000 		.word	__ram7_clear__
 222 007c 00000000 		.word	__ram7_noinit__
 223              		.text
 224              	.Letext0:
 225              		.file 2 "/usr/include/stdint.h"
 226              		.file 3 "../os/ext/CMSIS/include/core_cm4.h"
 1040              		.section	.note.GNU-stack,"",%progbits
ARM GAS  /tmp/cc7koxSc.s 			page 23

