ARM GAS  /tmp/ccZ5JO4S.s 			page 1


   1              		.syntax unified
   2              		.cpu cortex-m4
   3              		.fpu softvfp
   4              		.eabi_attribute 20, 1
   5              		.eabi_attribute 21, 1
   6              		.eabi_attribute 23, 3
   7              		.eabi_attribute 24, 1
   8              		.eabi_attribute 25, 1
   9              		.eabi_attribute 26, 2
  10              		.eabi_attribute 30, 2
  11              		.eabi_attribute 34, 1
  12              		.eabi_attribute 18, 4
  13              		.thumb
  14              		.file	"FlashEraseSector.c"
  15              		.text
  16              	.Ltext0:
  17              		.cfi_sections	.debug_frame
  18              		.section	.text.FlashEraseSector,"ax",%progbits
  19              		.align	2
  20              		.p2align 4,,-1
  21              		.global	FlashEraseSector
  22              		.thumb
  23              		.thumb_func
  24              		.type	FlashEraseSector, %function
  25              	FlashEraseSector:
  26              	.LFB10:
  27              		.file 1 "../ext/C90TFS/source/FlashEraseSector.c"
  28              		.loc 1 68 0
  29              		.cfi_startproc
  30              		@ args = 0, pretend = 0, frame = 0
  31              		@ frame_needed = 0, uses_anonymous_args = 0
  32              	.LVL0:
  33 0000 2DE9F843 		push	{r3, r4, r5, r6, r7, r8, r9, lr}
  34              		.cfi_def_cfa_offset 32
  35              		.cfi_offset 3, -32
  36              		.cfi_offset 4, -28
  37              		.cfi_offset 5, -24
  38              		.cfi_offset 6, -20
  39              		.cfi_offset 7, -16
  40              		.cfi_offset 8, -12
  41              		.cfi_offset 9, -8
  42              		.cfi_offset 14, -4
  43              		.loc 1 68 0
  44 0004 0446     		mov	r4, r0
  45              		.loc 1 88 0
  46 0006 4068     		ldr	r0, [r0, #4]
  47              	.LVL1:
  48              		.loc 1 89 0
  49 0008 8142     		cmp	r1, r0
  50 000a 0CD3     		bcc	.L5
  51 000c 1F46     		mov	r7, r3
  52              		.loc 1 89 0 is_stmt 0 discriminator 1
  53 000e A368     		ldr	r3, [r4, #8]
  54              	.LVL2:
  55 0010 0344     		add	r3, r3, r0
  56 0012 9942     		cmp	r1, r3
  57 0014 07D2     		bcs	.L5
ARM GAS  /tmp/ccZ5JO4S.s 			page 2


  58              	.LVL3:
  59              		.loc 1 102 0 is_stmt 1
  60 0016 C2F30903 		ubfx	r3, r2, #0, #10
  61 001a 1646     		mov	r6, r2
  62 001c 33B1     		cbz	r3, .L15
  63              		.loc 1 105 0
  64 001e 4FF40050 		mov	r0, #8192
  65              	.LVL4:
  66 0022 BDE8F883 		pop	{r3, r4, r5, r6, r7, r8, r9, pc}
  67              	.LVL5:
  68              	.L5:
  69 0026 2020     		movs	r0, #32
  70              	.LVL6:
  71 0028 BDE8F883 		pop	{r3, r4, r5, r6, r7, r8, r9, pc}
  72              	.LVL7:
  73              	.L15:
  74              		.loc 1 91 0
  75 002c 0D1A     		subs	r5, r1, r0
  76              	.LVL8:
  77              		.loc 1 108 0
  78 002e 0AB3     		cbz	r2, .L7
  79              		.loc 1 112 0
  80 0030 4FF03109 		mov	r9, #49
  81              		.loc 1 116 0
  82 0034 4FF00908 		mov	r8, #9
  83 0038 00E0     		b	.L3
  84              	.LVL9:
  85              	.L17:
  86              		.loc 1 108 0 discriminator 1
  87 003a C8B9     		cbnz	r0, .L16
  88              	.LVL10:
  89              	.L3:
  90              		.loc 1 112 0
  91 003c 2368     		ldr	r3, [r4]
  92 003e 83F80090 		strb	r9, [r3]
  93              	.LVL11:
  94              		.loc 1 115 0
  95 0042 2368     		ldr	r3, [r4]
  96              		.loc 1 116 0
  97 0044 83F80780 		strb	r8, [r3, #7]
  98              	.LVL12:
  99              		.loc 1 118 0
 100 0048 2368     		ldr	r3, [r4]
 101              		.loc 1 119 0
 102 004a C5F30742 		ubfx	r2, r5, #16, #8
 103 004e 9A71     		strb	r2, [r3, #6]
 104              	.LVL13:
 105              		.loc 1 121 0
 106 0050 2368     		ldr	r3, [r4]
 107              		.loc 1 122 0
 108 0052 C5F30722 		ubfx	r2, r5, #8, #8
 109 0056 5A71     		strb	r2, [r3, #5]
 110              	.LVL14:
 111              		.loc 1 124 0
 112 0058 2268     		ldr	r2, [r4]
 113              		.loc 1 125 0
 114 005a EBB2     		uxtb	r3, r5
ARM GAS  /tmp/ccZ5JO4S.s 			page 3


 115 005c 1371     		strb	r3, [r2, #4]
 116              	.LVL15:
 117              		.loc 1 128 0
 118 005e 2046     		mov	r0, r4
 119 0060 B847     		blx	r7
 120              	.LVL16:
 121              		.loc 1 108 0
 122 0062 B6F58066 		subs	r6, r6, #1024
 123              	.LVL17:
 124              		.loc 1 132 0
 125 0066 05F58065 		add	r5, r5, #1024
 126              	.LVL18:
 127              		.loc 1 108 0
 128 006a E6D1     		bne	.L17
 129              	.LVL19:
 130              	.L2:
 131              		.loc 1 145 0
 132 006c BDE8F883 		pop	{r3, r4, r5, r6, r7, r8, r9, pc}
 133              	.LVL20:
 134              	.L16:
 135 0070 BDE8F883 		pop	{r3, r4, r5, r6, r7, r8, r9, pc}
 136              	.LVL21:
 137              	.L7:
 138              		.loc 1 70 0
 139 0074 1046     		mov	r0, r2
 140              	.LVL22:
 141 0076 F9E7     		b	.L2
 142              		.cfi_endproc
 143              	.LFE10:
 144              		.size	FlashEraseSector, .-FlashEraseSector
 145 0078 AFF30080 		.text
 145      AFF30080 
 146              	.Letext0:
 147              		.file 2 "/usr/include/stdint.h"
 148              		.file 3 "../ext/C90TFS/include/SSD_Types.h"
 931              		.section	.note.GNU-stack,"",%progbits
ARM GAS  /tmp/ccZ5JO4S.s 			page 20

