ARM GAS  /tmp/cc1Jd8yk.s 			page 1


   1              		.syntax unified
   2              		.cpu cortex-m4
   3              		.fpu softvfp
   4              		.eabi_attribute 20, 1
   5              		.eabi_attribute 21, 1
   6              		.eabi_attribute 23, 3
   7              		.eabi_attribute 24, 1
   8              		.eabi_attribute 25, 1
   9              		.eabi_attribute 26, 2
  10              		.eabi_attribute 30, 2
  11              		.eabi_attribute 34, 1
  12              		.eabi_attribute 18, 4
  13              		.thumb
  14              		.file	"FlashSecurityBypass.c"
  15              		.text
  16              	.Ltext0:
  17              		.cfi_sections	.debug_frame
  18              		.section	.text.FlashSecurityBypass,"ax",%progbits
  19              		.align	2
  20              		.p2align 4,,-1
  21              		.global	FlashSecurityBypass
  22              		.thumb
  23              		.thumb_func
  24              		.type	FlashSecurityBypass, %function
  25              	FlashSecurityBypass:
  26              	.LFB10:
  27              		.file 1 "../ext/C90TFS/source/FlashSecurityBypass.c"
  28              		.loc 1 68 0
  29              		.cfi_startproc
  30              		@ args = 0, pretend = 0, frame = 0
  31              		@ frame_needed = 0, uses_anonymous_args = 0
  32              		@ link register save eliminated.
  33              	.LVL0:
  34 0000 30B4     		push	{r4, r5}
  35              		.cfi_def_cfa_offset 8
  36              		.cfi_offset 4, -8
  37              		.cfi_offset 5, -4
  38              		.loc 1 75 0
  39 0002 0468     		ldr	r4, [r0]
  40 0004 3125     		movs	r5, #49
  41 0006 2570     		strb	r5, [r4]
  42              	.LVL1:
  43              		.loc 1 78 0
  44 0008 0468     		ldr	r4, [r0]
  45              		.loc 1 79 0
  46 000a 4525     		movs	r5, #69
  47 000c E571     		strb	r5, [r4, #7]
  48              	.LVL2:
  49              		.loc 1 82 0
  50 000e 0468     		ldr	r4, [r0]
  51              		.loc 1 83 0
  52 0010 0D78     		ldrb	r5, [r1]	@ zero_extendqisi2
  53 0012 2572     		strb	r5, [r4, #8]
  54              	.LVL3:
  55              		.loc 1 82 0
  56 0014 0468     		ldr	r4, [r0]
  57              	.LVL4:
ARM GAS  /tmp/cc1Jd8yk.s 			page 2


  58              		.loc 1 83 0
  59 0016 4D78     		ldrb	r5, [r1, #1]	@ zero_extendqisi2
  60 0018 6572     		strb	r5, [r4, #9]
  61              	.LVL5:
  62              		.loc 1 82 0
  63 001a 0468     		ldr	r4, [r0]
  64              	.LVL6:
  65              		.loc 1 83 0
  66 001c 8D78     		ldrb	r5, [r1, #2]	@ zero_extendqisi2
  67 001e A572     		strb	r5, [r4, #10]
  68              	.LVL7:
  69              		.loc 1 82 0
  70 0020 0468     		ldr	r4, [r0]
  71              	.LVL8:
  72              		.loc 1 83 0
  73 0022 CD78     		ldrb	r5, [r1, #3]	@ zero_extendqisi2
  74 0024 E572     		strb	r5, [r4, #11]
  75              	.LVL9:
  76              		.loc 1 82 0
  77 0026 0468     		ldr	r4, [r0]
  78              	.LVL10:
  79              		.loc 1 83 0
  80 0028 0D79     		ldrb	r5, [r1, #4]	@ zero_extendqisi2
  81 002a 2573     		strb	r5, [r4, #12]
  82              	.LVL11:
  83              		.loc 1 82 0
  84 002c 0468     		ldr	r4, [r0]
  85              	.LVL12:
  86              		.loc 1 83 0
  87 002e 4D79     		ldrb	r5, [r1, #5]	@ zero_extendqisi2
  88 0030 6573     		strb	r5, [r4, #13]
  89              	.LVL13:
  90              		.loc 1 82 0
  91 0032 0468     		ldr	r4, [r0]
  92              	.LVL14:
  93              		.loc 1 83 0
  94 0034 8D79     		ldrb	r5, [r1, #6]	@ zero_extendqisi2
  95 0036 A573     		strb	r5, [r4, #14]
  96              	.LVL15:
  97              		.loc 1 82 0
  98 0038 0368     		ldr	r3, [r0]
  99              	.LVL16:
 100              		.loc 1 83 0
 101 003a C979     		ldrb	r1, [r1, #7]	@ zero_extendqisi2
 102              	.LVL17:
 103 003c D973     		strb	r1, [r3, #15]
 104              	.LVL18:
 105              		.loc 1 97 0
 106 003e 30BC     		pop	{r4, r5}
 107              		.cfi_restore 5
 108              		.cfi_restore 4
 109              		.cfi_def_cfa_offset 0
 110              		.loc 1 85 0
 111 0040 1047     		bx	r2
 112              	.LVL19:
 113              		.cfi_endproc
 114              	.LFE10:
ARM GAS  /tmp/cc1Jd8yk.s 			page 3


 115              		.size	FlashSecurityBypass, .-FlashSecurityBypass
 116 0042 00BFAFF3 		.text
 116      0080AFF3 
 116      0080AFF3 
 116      0080
 117              	.Letext0:
 118              		.file 2 "/usr/include/stdint.h"
 119              		.file 3 "../ext/C90TFS/include/SSD_Types.h"
 853              		.section	.note.GNU-stack,"",%progbits
ARM GAS  /tmp/cc1Jd8yk.s 			page 18

