ARM GAS  /tmp/ccdVFgt8.s 			page 1


   1              		.syntax unified
   2              		.cpu cortex-m4
   3              		.fpu softvfp
   4              		.eabi_attribute 20, 1
   5              		.eabi_attribute 21, 1
   6              		.eabi_attribute 23, 3
   7              		.eabi_attribute 24, 1
   8              		.eabi_attribute 25, 1
   9              		.eabi_attribute 26, 2
  10              		.eabi_attribute 30, 2
  11              		.eabi_attribute 34, 1
  12              		.eabi_attribute 18, 4
  13              		.thumb
  14              		.file	"FlashReadOnce.c"
  15              		.text
  16              	.Ltext0:
  17              		.cfi_sections	.debug_frame
  18              		.section	.text.FlashReadOnce,"ax",%progbits
  19              		.align	2
  20              		.p2align 4,,-1
  21              		.global	FlashReadOnce
  22              		.thumb
  23              		.thumb_func
  24              		.type	FlashReadOnce, %function
  25              	FlashReadOnce:
  26              	.LFB10:
  27              		.file 1 "../ext/C90TFS/source/FlashReadOnce.c"
  28              		.loc 1 67 0
  29              		.cfi_startproc
  30              		@ args = 0, pretend = 0, frame = 0
  31              		@ frame_needed = 0, uses_anonymous_args = 0
  32              	.LVL0:
  33 0000 70B5     		push	{r4, r5, r6, lr}
  34              		.cfi_def_cfa_offset 16
  35              		.cfi_offset 4, -16
  36              		.cfi_offset 5, -12
  37              		.cfi_offset 6, -8
  38              		.cfi_offset 14, -4
  39              		.loc 1 73 0
  40 0002 0568     		ldr	r5, [r0]
  41 0004 3126     		movs	r6, #49
  42 0006 2E70     		strb	r6, [r5]
  43              		.loc 1 76 0
  44 0008 0568     		ldr	r5, [r0]
  45              		.loc 1 77 0
  46 000a 4126     		movs	r6, #65
  47 000c EE71     		strb	r6, [r5, #7]
  48              		.loc 1 79 0
  49 000e 0568     		ldr	r5, [r0]
  50              		.loc 1 80 0
  51 0010 A971     		strb	r1, [r5, #6]
  52              		.loc 1 67 0
  53 0012 0446     		mov	r4, r0
  54 0014 1546     		mov	r5, r2
  55              		.loc 1 83 0
  56 0016 9847     		blx	r3
  57              	.LVL1:
ARM GAS  /tmp/ccdVFgt8.s 			page 2


  58              		.loc 1 85 0
  59 0018 58B9     		cbnz	r0, .L4
  60              	.LVL2:
  61 001a 2368     		ldr	r3, [r4]
  62              		.loc 1 91 0
  63 001c 1B7A     		ldrb	r3, [r3, #8]	@ zero_extendqisi2
  64 001e 2B70     		strb	r3, [r5]
  65              	.LVL3:
  66              		.loc 1 90 0
  67 0020 2368     		ldr	r3, [r4]
  68              	.LVL4:
  69              		.loc 1 91 0
  70 0022 5B7A     		ldrb	r3, [r3, #9]	@ zero_extendqisi2
  71              	.LVL5:
  72 0024 6B70     		strb	r3, [r5, #1]
  73              	.LVL6:
  74              		.loc 1 90 0
  75 0026 2368     		ldr	r3, [r4]
  76              	.LVL7:
  77              		.loc 1 91 0
  78 0028 9B7A     		ldrb	r3, [r3, #10]	@ zero_extendqisi2
  79              	.LVL8:
  80 002a AB70     		strb	r3, [r5, #2]
  81              	.LVL9:
  82              		.loc 1 90 0
  83 002c 2368     		ldr	r3, [r4]
  84              	.LVL10:
  85              		.loc 1 91 0
  86 002e DB7A     		ldrb	r3, [r3, #11]	@ zero_extendqisi2
  87              	.LVL11:
  88 0030 EB70     		strb	r3, [r5, #3]
  89              	.LVL12:
  90              	.L4:
  91              		.loc 1 103 0
  92 0032 70BD     		pop	{r4, r5, r6, pc}
  93              		.cfi_endproc
  94              	.LFE10:
  95              		.size	FlashReadOnce, .-FlashReadOnce
  96 0034 AFF30080 		.text
  96      AFF30080 
  96      AFF30080 
  97              	.Letext0:
  98              		.file 2 "/usr/include/stdint.h"
  99              		.file 3 "../ext/C90TFS/include/SSD_Types.h"
 808              		.section	.note.GNU-stack,"",%progbits
ARM GAS  /tmp/ccdVFgt8.s 			page 18

