ARM GAS  /tmp/ccyT6tvy.s 			page 1


   1              		.syntax unified
   2              		.cpu cortex-m4
   3              		.fpu softvfp
   4              		.eabi_attribute 20, 1
   5              		.eabi_attribute 21, 1
   6              		.eabi_attribute 23, 3
   7              		.eabi_attribute 24, 1
   8              		.eabi_attribute 25, 1
   9              		.eabi_attribute 26, 2
  10              		.eabi_attribute 30, 2
  11              		.eabi_attribute 34, 1
  12              		.eabi_attribute 18, 4
  13              		.thumb
  14              		.file	"FlashProgramCheck.c"
  15              		.text
  16              	.Ltext0:
  17              		.cfi_sections	.debug_frame
  18              		.section	.text.FlashProgramCheck,"ax",%progbits
  19              		.align	2
  20              		.p2align 4,,-1
  21              		.global	FlashProgramCheck
  22              		.thumb
  23              		.thumb_func
  24              		.type	FlashProgramCheck, %function
  25              	FlashProgramCheck:
  26              	.LFB10:
  27              		.file 1 "../ext/C90TFS/source/FlashProgramCheck.c"
  28              		.loc 1 73 0
  29              		.cfi_startproc
  30              		@ args = 12, pretend = 0, frame = 0
  31              		@ frame_needed = 0, uses_anonymous_args = 0
  32              	.LVL0:
  33 0000 2DE9F84F 		push	{r3, r4, r5, r6, r7, r8, r9, r10, fp, lr}
  34              		.cfi_def_cfa_offset 40
  35              		.cfi_offset 3, -40
  36              		.cfi_offset 4, -36
  37              		.cfi_offset 5, -32
  38              		.cfi_offset 6, -28
  39              		.cfi_offset 7, -24
  40              		.cfi_offset 8, -20
  41              		.cfi_offset 9, -16
  42              		.cfi_offset 10, -12
  43              		.cfi_offset 11, -8
  44              		.cfi_offset 14, -4
  45              		.loc 1 73 0
  46 0004 1546     		mov	r5, r2
  47              		.loc 1 81 0
  48 0006 AA07     		lsls	r2, r5, #30
  49              	.LVL1:
  50              		.loc 1 73 0
  51 0008 9DF82C70 		ldrb	r7, [sp, #44]	@ zero_extendqisi2
  52              		.loc 1 81 0
  53 000c 03D0     		beq	.L12
  54              		.loc 1 83 0
  55 000e 4FF40050 		mov	r0, #8192
  56              	.LVL2:
  57 0012 BDE8F88F 		pop	{r3, r4, r5, r6, r7, r8, r9, r10, fp, pc}
ARM GAS  /tmp/ccyT6tvy.s 			page 2


  58              	.LVL3:
  59              	.L12:
  60              		.loc 1 98 0
  61 0016 4668     		ldr	r6, [r0, #4]
  62              	.LVL4:
  63              		.loc 1 99 0
  64 0018 B142     		cmp	r1, r6
  65 001a 0446     		mov	r4, r0
  66 001c 3CD3     		bcc	.L8
  67              		.loc 1 99 0 is_stmt 0 discriminator 1
  68 001e 8268     		ldr	r2, [r0, #8]
  69 0020 3244     		add	r2, r2, r6
  70 0022 9142     		cmp	r1, r2
  71 0024 38D2     		bcs	.L8
  72              		.loc 1 101 0 is_stmt 1
  73 0026 C6EB010B 		rsb	fp, r6, r1
  74              	.LVL5:
  75              		.loc 1 109 0
  76 002a 002D     		cmp	r5, #0
  77 002c 34D0     		beq	.L8
  78 002e 03F10408 		add	r8, r3, #4
  79              		.loc 1 113 0
  80 0032 4FF0310A 		mov	r10, #49
  81              		.loc 1 117 0
  82 0036 4FF00209 		mov	r9, #2
  83              	.LVL6:
  84              	.L4:
  85              		.loc 1 113 0
  86 003a 2168     		ldr	r1, [r4]
  87              		.loc 1 137 0
  88 003c 0C9B     		ldr	r3, [sp, #48]
  89              		.loc 1 113 0
  90 003e 81F800A0 		strb	r10, [r1]
  91              	.LVL7:
  92              		.loc 1 116 0
  93 0042 2168     		ldr	r1, [r4]
  94              		.loc 1 117 0
  95 0044 81F80790 		strb	r9, [r1, #7]
  96              	.LVL8:
  97              		.loc 1 119 0
  98 0048 2168     		ldr	r1, [r4]
  99              		.loc 1 120 0
 100 004a CBF30740 		ubfx	r0, fp, #16, #8
 101 004e 8871     		strb	r0, [r1, #6]
 102              	.LVL9:
 103              		.loc 1 122 0
 104 0050 2168     		ldr	r1, [r4]
 105              		.loc 1 123 0
 106 0052 CBF30720 		ubfx	r0, fp, #8, #8
 107 0056 4871     		strb	r0, [r1, #5]
 108              	.LVL10:
 109              		.loc 1 125 0
 110 0058 2168     		ldr	r1, [r4]
 111              		.loc 1 126 0
 112 005a 5FFA8BF0 		uxtb	r0, fp
 113 005e 0871     		strb	r0, [r1, #4]
 114              	.LVL11:
ARM GAS  /tmp/ccyT6tvy.s 			page 3


 115              		.loc 1 128 0
 116 0060 2168     		ldr	r1, [r4]
 117              		.loc 1 129 0
 118 0062 CF72     		strb	r7, [r1, #11]
 119              	.LVL12:
 120              		.loc 1 133 0
 121 0064 2168     		ldr	r1, [r4]
 122              		.loc 1 134 0
 123 0066 18F8040C 		ldrb	r0, [r8, #-4]	@ zero_extendqisi2
 124 006a 0873     		strb	r0, [r1, #12]
 125              	.LVL13:
 126              		.loc 1 133 0
 127 006c 2168     		ldr	r1, [r4]
 128              		.loc 1 134 0
 129 006e 18F8030C 		ldrb	r0, [r8, #-3]	@ zero_extendqisi2
 130 0072 4873     		strb	r0, [r1, #13]
 131              	.LVL14:
 132              		.loc 1 133 0
 133 0074 2168     		ldr	r1, [r4]
 134              		.loc 1 134 0
 135 0076 18F8020C 		ldrb	r0, [r8, #-2]	@ zero_extendqisi2
 136 007a 8873     		strb	r0, [r1, #14]
 137              	.LVL15:
 138              		.loc 1 133 0
 139 007c 2168     		ldr	r1, [r4]
 140              		.loc 1 134 0
 141 007e 18F8010C 		ldrb	r0, [r8, #-1]	@ zero_extendqisi2
 142 0082 C873     		strb	r0, [r1, #15]
 143              	.LVL16:
 144              		.loc 1 137 0
 145 0084 2046     		mov	r0, r4
 146 0086 9847     		blx	r3
 147              	.LVL17:
 148 0088 08F10408 		add	r8, r8, #4
 149              		.loc 1 140 0
 150 008c 38B1     		cbz	r0, .L3
 151              		.loc 1 151 0
 152 008e 0A9B     		ldr	r3, [sp, #40]
 153 0090 5E44     		add	r6, r6, fp
 154              	.LVL18:
 155 0092 1E60     		str	r6, [r3]
 156              	.LVL19:
 157 0094 BDE8F88F 		pop	{r3, r4, r5, r6, r7, r8, r9, r10, fp, pc}
 158              	.LVL20:
 159              	.L8:
 160              		.loc 1 109 0
 161 0098 2020     		movs	r0, #32
 162              	.LVL21:
 163              		.loc 1 170 0
 164 009a BDE8F88F 		pop	{r3, r4, r5, r6, r7, r8, r9, r10, fp, pc}
 165              	.LVL22:
 166              	.L3:
 167              		.loc 1 109 0
 168 009e 043D     		subs	r5, r5, #4
 169              	.LVL23:
 170              		.loc 1 157 0
 171 00a0 0BF1040B 		add	fp, fp, #4
ARM GAS  /tmp/ccyT6tvy.s 			page 4


 172              	.LVL24:
 173              		.loc 1 109 0
 174 00a4 C9D1     		bne	.L4
 175 00a6 BDE8F88F 		pop	{r3, r4, r5, r6, r7, r8, r9, r10, fp, pc}
 176              		.cfi_endproc
 177              	.LFE10:
 178              		.size	FlashProgramCheck, .-FlashProgramCheck
 179 00aa 00BFAFF3 		.text
 179      0080
 180              	.Letext0:
 181              		.file 2 "/usr/include/stdint.h"
 182              		.file 3 "../ext/C90TFS/include/SSD_Types.h"
 1115              		.section	.note.GNU-stack,"",%progbits
ARM GAS  /tmp/ccyT6tvy.s 			page 23

