ARM GAS  /tmp/cc97AAyy.s 			page 1


   1              		.syntax unified
   2              		.cpu cortex-m4
   3              		.fpu softvfp
   4              		.eabi_attribute 20, 1
   5              		.eabi_attribute 21, 1
   6              		.eabi_attribute 23, 3
   7              		.eabi_attribute 24, 1
   8              		.eabi_attribute 25, 1
   9              		.eabi_attribute 26, 2
  10              		.eabi_attribute 30, 2
  11              		.eabi_attribute 34, 1
  12              		.eabi_attribute 18, 4
  13              		.thumb
  14              		.file	"FlashProgram.c"
  15              		.text
  16              	.Ltext0:
  17              		.cfi_sections	.debug_frame
  18              		.section	.text.FlashProgram,"ax",%progbits
  19              		.align	2
  20              		.p2align 4,,-1
  21              		.global	FlashProgram
  22              		.thumb
  23              		.thumb_func
  24              		.type	FlashProgram, %function
  25              	FlashProgram:
  26              	.LFB10:
  27              		.file 1 "../ext/C90TFS/source/FlashProgram.c"
  28              		.loc 1 68 0
  29              		.cfi_startproc
  30              		@ args = 4, pretend = 0, frame = 0
  31              		@ frame_needed = 0, uses_anonymous_args = 0
  32              	.LVL0:
  33 0000 2DE9F047 		push	{r4, r5, r6, r7, r8, r9, r10, lr}
  34              		.cfi_def_cfa_offset 32
  35              		.cfi_offset 4, -32
  36              		.cfi_offset 5, -28
  37              		.cfi_offset 6, -24
  38              		.cfi_offset 7, -20
  39              		.cfi_offset 8, -16
  40              		.cfi_offset 9, -12
  41              		.cfi_offset 10, -8
  42              		.cfi_offset 14, -4
  43              		.loc 1 73 0
  44 0004 12F0030F 		tst	r2, #3
  45              		.loc 1 68 0
  46 0008 9246     		mov	r10, r2
  47              	.LVL1:
  48 000a 089F     		ldr	r7, [sp, #32]
  49              		.loc 1 73 0
  50 000c 03D0     		beq	.L15
  51              		.loc 1 75 0
  52 000e 4FF40050 		mov	r0, #8192
  53              	.LVL2:
  54 0012 BDE8F087 		pop	{r4, r5, r6, r7, r8, r9, r10, pc}
  55              	.LVL3:
  56              	.L15:
  57              		.loc 1 90 0
ARM GAS  /tmp/cc97AAyy.s 			page 2


  58 0016 4668     		ldr	r6, [r0, #4]
  59              		.loc 1 91 0
  60 0018 B142     		cmp	r1, r6
  61 001a 0446     		mov	r4, r0
  62              	.LVL4:
  63 001c 36D3     		bcc	.L6
  64              		.loc 1 91 0 is_stmt 0 discriminator 1
  65 001e 8268     		ldr	r2, [r0, #8]
  66              	.LVL5:
  67 0020 3244     		add	r2, r2, r6
  68 0022 9142     		cmp	r1, r2
  69 0024 32D2     		bcs	.L6
  70              		.loc 1 93 0 is_stmt 1
  71 0026 8E1B     		subs	r6, r1, r6
  72              	.LVL6:
  73              		.loc 1 100 0
  74 0028 BAF1000F 		cmp	r10, #0
  75 002c 33D0     		beq	.L7
  76 002e 1D46     		mov	r5, r3
  77 0030 F61A     		subs	r6, r6, r3
  78              	.LVL7:
  79              		.loc 1 104 0
  80 0032 4FF03109 		mov	r9, #49
  81              		.loc 1 111 0
  82 0036 4FF00608 		mov	r8, #6
  83 003a 00E0     		b	.L3
  84              	.LVL8:
  85              	.L17:
  86              		.loc 1 100 0 discriminator 1
  87 003c 48BB     		cbnz	r0, .L16
  88              	.LVL9:
  89              	.L3:
  90              		.loc 1 104 0
  91 003e 2368     		ldr	r3, [r4]
  92 0040 83F80090 		strb	r9, [r3]
  93              		.loc 1 110 0
  94 0044 2368     		ldr	r3, [r4]
  95              		.loc 1 111 0
  96 0046 83F80780 		strb	r8, [r3, #7]
  97              		.loc 1 113 0
  98 004a 2268     		ldr	r2, [r4]
  99 004c AB19     		adds	r3, r5, r6
 100              	.LVL10:
 101              		.loc 1 114 0
 102 004e C3F30741 		ubfx	r1, r3, #16, #8
 103 0052 9171     		strb	r1, [r2, #6]
 104              	.LVL11:
 105              		.loc 1 115 0
 106 0054 2268     		ldr	r2, [r4]
 107              		.loc 1 116 0
 108 0056 C3F30721 		ubfx	r1, r3, #8, #8
 109 005a 5171     		strb	r1, [r2, #5]
 110              	.LVL12:
 111              		.loc 1 117 0
 112 005c 2168     		ldr	r1, [r4]
 113 005e DBB2     		uxtb	r3, r3
 114              	.LVL13:
ARM GAS  /tmp/cc97AAyy.s 			page 3


 115              		.loc 1 118 0
 116 0060 0B71     		strb	r3, [r1, #4]
 117              	.LVL14:
 118              		.loc 1 122 0
 119 0062 2368     		ldr	r3, [r4]
 120              		.loc 1 123 0
 121 0064 2A78     		ldrb	r2, [r5]	@ zero_extendqisi2
 122 0066 1A72     		strb	r2, [r3, #8]
 123              	.LVL15:
 124              		.loc 1 122 0
 125 0068 2368     		ldr	r3, [r4]
 126              		.loc 1 123 0
 127 006a 6A78     		ldrb	r2, [r5, #1]	@ zero_extendqisi2
 128 006c 5A72     		strb	r2, [r3, #9]
 129              	.LVL16:
 130              		.loc 1 122 0
 131 006e 2368     		ldr	r3, [r4]
 132              		.loc 1 123 0
 133 0070 AA78     		ldrb	r2, [r5, #2]	@ zero_extendqisi2
 134 0072 9A72     		strb	r2, [r3, #10]
 135              	.LVL17:
 136              		.loc 1 122 0
 137 0074 2368     		ldr	r3, [r4]
 138              		.loc 1 123 0
 139 0076 EA78     		ldrb	r2, [r5, #3]	@ zero_extendqisi2
 140 0078 DA72     		strb	r2, [r3, #11]
 141              	.LVL18:
 142              		.loc 1 127 0
 143 007a 2046     		mov	r0, r4
 144 007c B847     		blx	r7
 145              	.LVL19:
 146              		.loc 1 100 0
 147 007e BAF1040A 		subs	r10, r10, #4
 148              	.LVL20:
 149              		.loc 1 134 0
 150 0082 05F10405 		add	r5, r5, #4
 151              	.LVL21:
 152              		.loc 1 100 0
 153 0086 D9D1     		bne	.L17
 154              	.LVL22:
 155              	.L2:
 156              		.loc 1 146 0
 157 0088 BDE8F087 		pop	{r4, r5, r6, r7, r8, r9, r10, pc}
 158              	.LVL23:
 159              	.L6:
 160 008c 2020     		movs	r0, #32
 161              	.LVL24:
 162 008e BDE8F087 		pop	{r4, r5, r6, r7, r8, r9, r10, pc}
 163              	.LVL25:
 164              	.L16:
 165 0092 BDE8F087 		pop	{r4, r5, r6, r7, r8, r9, r10, pc}
 166              	.LVL26:
 167              	.L7:
 168              		.loc 1 69 0
 169 0096 5046     		mov	r0, r10
 170              	.LVL27:
 171 0098 F6E7     		b	.L2
ARM GAS  /tmp/cc97AAyy.s 			page 4


 172              		.cfi_endproc
 173              	.LFE10:
 174              		.size	FlashProgram, .-FlashProgram
 175 009a 00BFAFF3 		.text
 175      0080
 176              	.Letext0:
 177              		.file 2 "/usr/include/stdint.h"
 178              		.file 3 "../ext/C90TFS/include/SSD_Types.h"
 1057              		.section	.note.GNU-stack,"",%progbits
ARM GAS  /tmp/cc97AAyy.s 			page 22

