ARM GAS  /tmp/ccvLY8ks.s 			page 1


   1              		.syntax unified
   2              		.cpu cortex-m4
   3              		.fpu softvfp
   4              		.eabi_attribute 20, 1
   5              		.eabi_attribute 21, 1
   6              		.eabi_attribute 23, 3
   7              		.eabi_attribute 24, 1
   8              		.eabi_attribute 25, 1
   9              		.eabi_attribute 26, 2
  10              		.eabi_attribute 30, 2
  11              		.eabi_attribute 34, 1
  12              		.eabi_attribute 18, 4
  13              		.thumb
  14              		.file	"FlashCommandSequence.c"
  15              		.text
  16              	.Ltext0:
  17              		.cfi_sections	.debug_frame
  18              		.section	.text.FlashCommandSequence,"ax",%progbits
  19              		.align	2
  20              		.p2align 4,,-1
  21              		.global	FlashCommandSequence
  22              		.thumb
  23              		.thumb_func
  24              		.type	FlashCommandSequence, %function
  25              	FlashCommandSequence:
  26              	.LFB10:
  27              		.file 1 "../ext/C90TFS/source/FlashCommandSequence.c"
  28              		.loc 1 64 0
  29              		.cfi_startproc
  30              		@ args = 0, pretend = 0, frame = 0
  31              		@ frame_needed = 0, uses_anonymous_args = 0
  32              	.LVL0:
  33 0000 38B5     		push	{r3, r4, r5, lr}
  34              		.cfi_def_cfa_offset 16
  35              		.cfi_offset 3, -16
  36              		.cfi_offset 4, -12
  37              		.cfi_offset 5, -8
  38              		.cfi_offset 14, -4
  39              		.loc 1 70 0
  40 0002 0268     		ldr	r2, [r0]
  41 0004 1378     		ldrb	r3, [r2]	@ zero_extendqisi2
  42 0006 43F08003 		orr	r3, r3, #128
  43 000a 1370     		strb	r3, [r2]
  44              		.loc 1 64 0
  45 000c 0446     		mov	r4, r0
  46              	.LVL1:
  47 000e 0568     		ldr	r5, [r0]
  48              		.loc 1 74 0
  49 0010 02E0     		b	.L3
  50              	.LVL2:
  51              	.L4:
  52              		.loc 1 78 0
  53 0012 236A     		ldr	r3, [r4, #32]
  54 0014 5A1C     		adds	r2, r3, #1
  55 0016 07D1     		bne	.L9
  56              	.L3:
  57              		.loc 1 74 0
ARM GAS  /tmp/ccvLY8ks.s 			page 2


  58 0018 2B78     		ldrb	r3, [r5]	@ zero_extendqisi2
  59 001a 1B06     		lsls	r3, r3, #24
  60 001c F9D5     		bpl	.L4
  61              	.LVL3:
  62              		.loc 1 85 0
  63 001e 2368     		ldr	r3, [r4]
  64 0020 1878     		ldrb	r0, [r3]	@ zero_extendqisi2
  65              	.LVL4:
  66              		.loc 1 87 0
  67 0022 00F03100 		and	r0, r0, #49
  68              	.LVL5:
  69 0026 38BD     		pop	{r3, r4, r5, pc}
  70              	.LVL6:
  71              	.L9:
  72              		.loc 1 80 0
  73 0028 9847     		blx	r3
  74              	.LVL7:
  75 002a F5E7     		b	.L3
  76              		.cfi_endproc
  77              	.LFE10:
  78              		.size	FlashCommandSequence, .-FlashCommandSequence
  79 002c AFF30080 		.text
  80              	.Letext0:
  81              		.file 2 "/usr/include/stdint.h"
  82              		.file 3 "../ext/C90TFS/include/SSD_Types.h"
 594              		.section	.note.GNU-stack,"",%progbits
ARM GAS  /tmp/ccvLY8ks.s 			page 14

