ARM GAS  /tmp/cc9AkjAW.s 			page 1


   1              		.syntax unified
   2              		.cpu cortex-m4
   3              		.fpu softvfp
   4              		.eabi_attribute 20, 1
   5              		.eabi_attribute 21, 1
   6              		.eabi_attribute 23, 3
   7              		.eabi_attribute 24, 1
   8              		.eabi_attribute 25, 1
   9              		.eabi_attribute 26, 2
  10              		.eabi_attribute 30, 2
  11              		.eabi_attribute 34, 1
  12              		.eabi_attribute 18, 4
  13              		.thumb
  14              		.file	"hal.c"
  15              		.text
  16              	.Ltext0:
  17              		.cfi_sections	.debug_frame
  18              		.section	.text.halInit,"ax",%progbits
  19              		.align	2
  20              		.p2align 4,,15
  21              		.global	halInit
  22              		.thumb
  23              		.thumb_func
  24              		.type	halInit, %function
  25              	halInit:
  26              	.LFB267:
  27              		.file 1 "../os/hal/src/hal.c"
  28              		.loc 1 56 0
  29              		.cfi_startproc
  30              		@ args = 0, pretend = 0, frame = 0
  31              		@ frame_needed = 0, uses_anonymous_args = 0
  32 0000 08B5     		push	{r3, lr}
  33              		.cfi_def_cfa_offset 8
  34              		.cfi_offset 3, -8
  35              		.cfi_offset 14, -4
  36              		.loc 1 62 0
  37 0002 FFF7FEFF 		bl	hal_lld_init
  38              	.LVL0:
  39              		.loc 1 65 0
  40 0006 0648     		ldr	r0, .L3
  41 0008 FFF7FEFF 		bl	_pal_lld_init
  42              	.LVL1:
  43              		.loc 1 77 0
  44 000c FFF7FEFF 		bl	extInit
  45              	.LVL2:
  46              		.loc 1 98 0
  47 0010 FFF7FEFF 		bl	sdInit
  48              	.LVL3:
  49              		.loc 1 133 0
  50 0014 FFF7FEFF 		bl	boardInit
  51              	.LVL4:
  52              		.loc 1 142 0
  53 0018 BDE80840 		pop	{r3, lr}
  54              		.cfi_restore 14
  55              		.cfi_restore 3
  56              		.cfi_def_cfa_offset 0
  57              		.loc 1 140 0
ARM GAS  /tmp/cc9AkjAW.s 			page 2


  58 001c FFF7FEBF 		b	stInit
  59              	.LVL5:
  60              	.L4:
  61              		.align	2
  62              	.L3:
  63 0020 00000000 		.word	pal_default_config
  64              		.cfi_endproc
  65              	.LFE267:
  66              		.size	halInit, .-halInit
  67 0024 AFF30080 		.text
  67      AFF30080 
  67      AFF30080 
  68              	.Letext0:
  69              		.file 2 "/usr/include/stdint.h"
  70              		.file 3 "../os/rt/ports/ARMCMx/compilers/GCC/chtypes.h"
  71              		.file 4 "../os/rt/include/chsystypes.h"
  72              		.file 5 "../os/rt/include/chschd.h"
  73              		.file 6 "../os/ext/CMSIS/KINETIS/mk20d5.h"
  74              		.file 7 "../os/rt/ports/ARMCMx/chcore.h"
  75              		.file 8 "../os/rt/ports/ARMCMx/chcore_v7m.h"
  76              		.file 9 "../os/rt/include/chsem.h"
  77              		.file 10 "../os/rt/include/chmtx.h"
  78              		.file 11 "../os/hal/ports/KINETIS/K20x/pal_lld.h"
  79              		.file 12 "../os/ext/CMSIS/include/core_cm4.h"
  80              		.file 13 "../os/hal/ports/KINETIS/K20x/hal_lld.h"
  81              		.file 14 "../os/hal/include/ext.h"
  82              		.file 15 "../os/hal/include/serial.h"
  83              		.file 16 "../os/hal/boards/KOSAGI_NETVCR/board.h"
  84              		.file 17 "../os/hal/include/st.h"
  85              		.file 18 "../os/hal/osal/rt/osal.h"
  86              		.section	.debug_info,"",%progbits
  87              	.Ldebug_info0:
  88 0000 76070000 		.4byte	0x776
  89 0004 0400     		.2byte	0x4
  90 0006 00000000 		.4byte	.Ldebug_abbrev0
  91 000a 04       		.byte	0x4
  92 000b 01       		.uleb128 0x1
  93 000c 4A000000 		.4byte	.LASF116
  94 0010 01       		.byte	0x1
  95 0011 E0010000 		.4byte	.LASF117
  96 0015 75040000 		.4byte	.LASF118
  97 0019 00000000 		.4byte	.Ldebug_ranges0+0
  98 001d 00000000 		.4byte	0
  99 0021 00000000 		.4byte	.Ldebug_line0
 100 0025 02       		.uleb128 0x2
 101 0026 04       		.byte	0x4
 102 0027 05       		.byte	0x5
 103 0028 696E7400 		.ascii	"int\000"
 104 002c 03       		.uleb128 0x3
 105 002d 04       		.byte	0x4
 106 002e 07       		.byte	0x7
 107 002f 44020000 		.4byte	.LASF0
 108 0033 03       		.uleb128 0x3
 109 0034 01       		.byte	0x1
 110 0035 06       		.byte	0x6
 111 0036 A0010000 		.4byte	.LASF1
 112 003a 03       		.uleb128 0x3
ARM GAS  /tmp/cc9AkjAW.s 			page 3


 113 003b 02       		.byte	0x2
 114 003c 05       		.byte	0x5
 115 003d DD030000 		.4byte	.LASF2
 116 0041 04       		.uleb128 0x4
 117 0042 B5030000 		.4byte	.LASF4
 118 0046 02       		.byte	0x2
 119 0047 26       		.byte	0x26
 120 0048 25000000 		.4byte	0x25
 121 004c 03       		.uleb128 0x3
 122 004d 08       		.byte	0x8
 123 004e 05       		.byte	0x5
 124 004f 92010000 		.4byte	.LASF3
 125 0053 04       		.uleb128 0x4
 126 0054 3A050000 		.4byte	.LASF5
 127 0058 02       		.byte	0x2
 128 0059 30       		.byte	0x30
 129 005a 5E000000 		.4byte	0x5e
 130 005e 03       		.uleb128 0x3
 131 005f 01       		.byte	0x1
 132 0060 08       		.byte	0x8
 133 0061 BD030000 		.4byte	.LASF6
 134 0065 03       		.uleb128 0x3
 135 0066 02       		.byte	0x2
 136 0067 07       		.byte	0x7
 137 0068 86020000 		.4byte	.LASF7
 138 006c 04       		.uleb128 0x4
 139 006d 3F040000 		.4byte	.LASF8
 140 0071 02       		.byte	0x2
 141 0072 33       		.byte	0x33
 142 0073 2C000000 		.4byte	0x2c
 143 0077 04       		.uleb128 0x4
 144 0078 26000000 		.4byte	.LASF9
 145 007c 02       		.byte	0x2
 146 007d 3A       		.byte	0x3a
 147 007e 82000000 		.4byte	0x82
 148 0082 03       		.uleb128 0x3
 149 0083 08       		.byte	0x8
 150 0084 07       		.byte	0x7
 151 0085 2D010000 		.4byte	.LASF10
 152 0089 04       		.uleb128 0x4
 153 008a C0020000 		.4byte	.LASF11
 154 008e 03       		.byte	0x3
 155 008f 3C       		.byte	0x3c
 156 0090 53000000 		.4byte	0x53
 157 0094 04       		.uleb128 0x4
 158 0095 D7010000 		.4byte	.LASF12
 159 0099 03       		.byte	0x3
 160 009a 3D       		.byte	0x3d
 161 009b 53000000 		.4byte	0x53
 162 009f 04       		.uleb128 0x4
 163 00a0 6F030000 		.4byte	.LASF13
 164 00a4 03       		.byte	0x3
 165 00a5 3E       		.byte	0x3e
 166 00a6 53000000 		.4byte	0x53
 167 00aa 04       		.uleb128 0x4
 168 00ab C3010000 		.4byte	.LASF14
 169 00af 03       		.byte	0x3
ARM GAS  /tmp/cc9AkjAW.s 			page 4


 170 00b0 3F       		.byte	0x3f
 171 00b1 53000000 		.4byte	0x53
 172 00b5 04       		.uleb128 0x4
 173 00b6 97030000 		.4byte	.LASF15
 174 00ba 03       		.byte	0x3
 175 00bb 40       		.byte	0x40
 176 00bc 6C000000 		.4byte	0x6c
 177 00c0 04       		.uleb128 0x4
 178 00c1 AE020000 		.4byte	.LASF16
 179 00c5 03       		.byte	0x3
 180 00c6 41       		.byte	0x41
 181 00c7 41000000 		.4byte	0x41
 182 00cb 04       		.uleb128 0x4
 183 00cc D6020000 		.4byte	.LASF17
 184 00d0 03       		.byte	0x3
 185 00d1 43       		.byte	0x43
 186 00d2 6C000000 		.4byte	0x6c
 187 00d6 04       		.uleb128 0x4
 188 00d7 3E020000 		.4byte	.LASF18
 189 00db 03       		.byte	0x3
 190 00dc 45       		.byte	0x45
 191 00dd 41000000 		.4byte	0x41
 192 00e1 04       		.uleb128 0x4
 193 00e2 AD040000 		.4byte	.LASF19
 194 00e6 04       		.byte	0x4
 195 00e7 33       		.byte	0x33
 196 00e8 6C000000 		.4byte	0x6c
 197 00ec 04       		.uleb128 0x4
 198 00ed 9D040000 		.4byte	.LASF20
 199 00f1 04       		.byte	0x4
 200 00f2 3F       		.byte	0x3f
 201 00f3 F7000000 		.4byte	0xf7
 202 00f7 05       		.uleb128 0x5
 203 00f8 99020000 		.4byte	.LASF41
 204 00fc 44       		.byte	0x44
 205 00fd 05       		.byte	0x5
 206 00fe C2       		.byte	0xc2
 207 00ff F0010000 		.4byte	0x1f0
 208 0103 06       		.uleb128 0x6
 209 0104 07040000 		.4byte	.LASF21
 210 0108 05       		.byte	0x5
 211 0109 C3       		.byte	0xc3
 212 010a FB010000 		.4byte	0x1fb
 213 010e 00       		.byte	0
 214 010f 06       		.uleb128 0x6
 215 0110 87030000 		.4byte	.LASF22
 216 0114 05       		.byte	0x5
 217 0115 C5       		.byte	0xc5
 218 0116 FB010000 		.4byte	0x1fb
 219 011a 04       		.byte	0x4
 220 011b 06       		.uleb128 0x6
 221 011c 86010000 		.4byte	.LASF23
 222 0120 05       		.byte	0x5
 223 0121 C7       		.byte	0xc7
 224 0122 B5000000 		.4byte	0xb5
 225 0126 08       		.byte	0x8
 226 0127 06       		.uleb128 0x6
ARM GAS  /tmp/cc9AkjAW.s 			page 5


 227 0128 9B050000 		.4byte	.LASF24
 228 012c 05       		.byte	0x5
 229 012d C8       		.byte	0xc8
 230 012e 88040000 		.4byte	0x488
 231 0132 0C       		.byte	0xc
 232 0133 06       		.uleb128 0x6
 233 0134 F9010000 		.4byte	.LASF25
 234 0138 05       		.byte	0x5
 235 0139 CA       		.byte	0xca
 236 013a FB010000 		.4byte	0x1fb
 237 013e 10       		.byte	0x10
 238 013f 06       		.uleb128 0x6
 239 0140 44030000 		.4byte	.LASF26
 240 0144 05       		.byte	0x5
 241 0145 CB       		.byte	0xcb
 242 0146 FB010000 		.4byte	0x1fb
 243 014a 14       		.byte	0x14
 244 014b 06       		.uleb128 0x6
 245 014c 4E050000 		.4byte	.LASF27
 246 0150 05       		.byte	0x5
 247 0151 D2       		.byte	0xd2
 248 0152 E7050000 		.4byte	0x5e7
 249 0156 18       		.byte	0x18
 250 0157 06       		.uleb128 0x6
 251 0158 E7030000 		.4byte	.LASF28
 252 015c 05       		.byte	0x5
 253 015d DD       		.byte	0xdd
 254 015e 94000000 		.4byte	0x94
 255 0162 1C       		.byte	0x1c
 256 0163 06       		.uleb128 0x6
 257 0164 0E040000 		.4byte	.LASF29
 258 0168 05       		.byte	0x5
 259 0169 E1       		.byte	0xe1
 260 016a 89000000 		.4byte	0x89
 261 016e 1D       		.byte	0x1d
 262 016f 06       		.uleb128 0x6
 263 0170 15050000 		.4byte	.LASF30
 264 0174 05       		.byte	0x5
 265 0175 E6       		.byte	0xe6
 266 0176 9F000000 		.4byte	0x9f
 267 017a 1E       		.byte	0x1e
 268 017b 06       		.uleb128 0x6
 269 017c EF030000 		.4byte	.LASF31
 270 0180 05       		.byte	0x5
 271 0181 EC       		.byte	0xec
 272 0182 AA000000 		.4byte	0xaa
 273 0186 1F       		.byte	0x1f
 274 0187 07       		.uleb128 0x7
 275 0188 705F7500 		.ascii	"p_u\000"
 276 018c 05       		.byte	0x5
 277 018d 3101     		.2byte	0x131
 278 018f 22050000 		.4byte	0x522
 279 0193 20       		.byte	0x20
 280 0194 08       		.uleb128 0x8
 281 0195 01030000 		.4byte	.LASF32
 282 0199 05       		.byte	0x5
 283 019a 3601     		.2byte	0x136
ARM GAS  /tmp/cc9AkjAW.s 			page 6


 284 019c 01020000 		.4byte	0x201
 285 01a0 24       		.byte	0x24
 286 01a1 08       		.uleb128 0x8
 287 01a2 60020000 		.4byte	.LASF33
 288 01a6 05       		.byte	0x5
 289 01a7 3C01     		.2byte	0x13c
 290 01a9 25020000 		.4byte	0x225
 291 01ad 28       		.byte	0x28
 292 01ae 08       		.uleb128 0x8
 293 01af 60050000 		.4byte	.LASF34
 294 01b3 05       		.byte	0x5
 295 01b4 4001     		.2byte	0x140
 296 01b6 C0000000 		.4byte	0xc0
 297 01ba 30       		.byte	0x30
 298 01bb 08       		.uleb128 0x8
 299 01bc 34040000 		.4byte	.LASF35
 300 01c0 05       		.byte	0x5
 301 01c1 4601     		.2byte	0x146
 302 01c3 CB000000 		.4byte	0xcb
 303 01c7 34       		.byte	0x34
 304 01c8 08       		.uleb128 0x8
 305 01c9 D3030000 		.4byte	.LASF36
 306 01cd 05       		.byte	0x5
 307 01ce 4D01     		.2byte	0x14d
 308 01d0 E1050000 		.4byte	0x5e1
 309 01d4 38       		.byte	0x38
 310 01d5 08       		.uleb128 0x8
 311 01d6 B7040000 		.4byte	.LASF37
 312 01da 05       		.byte	0x5
 313 01db 5101     		.2byte	0x151
 314 01dd B5000000 		.4byte	0xb5
 315 01e1 3C       		.byte	0x3c
 316 01e2 08       		.uleb128 0x8
 317 01e3 AC010000 		.4byte	.LASF38
 318 01e7 05       		.byte	0x5
 319 01e8 5801     		.2byte	0x158
 320 01ea D8020000 		.4byte	0x2d8
 321 01ee 40       		.byte	0x40
 322 01ef 00       		.byte	0
 323 01f0 04       		.uleb128 0x4
 324 01f1 14030000 		.4byte	.LASF39
 325 01f5 04       		.byte	0x4
 326 01f6 44       		.byte	0x44
 327 01f7 FB010000 		.4byte	0x1fb
 328 01fb 09       		.uleb128 0x9
 329 01fc 04       		.byte	0x4
 330 01fd EC000000 		.4byte	0xec
 331 0201 04       		.uleb128 0x4
 332 0202 ED020000 		.4byte	.LASF40
 333 0206 04       		.byte	0x4
 334 0207 49       		.byte	0x49
 335 0208 0C020000 		.4byte	0x20c
 336 020c 05       		.uleb128 0x5
 337 020d 60040000 		.4byte	.LASF42
 338 0211 04       		.byte	0x4
 339 0212 05       		.byte	0x5
 340 0213 B0       		.byte	0xb0
ARM GAS  /tmp/cc9AkjAW.s 			page 7


 341 0214 25020000 		.4byte	0x225
 342 0218 06       		.uleb128 0x6
 343 0219 07040000 		.4byte	.LASF21
 344 021d 05       		.byte	0x5
 345 021e B1       		.byte	0xb1
 346 021f FB010000 		.4byte	0x1fb
 347 0223 00       		.byte	0
 348 0224 00       		.byte	0
 349 0225 04       		.uleb128 0x4
 350 0226 FC040000 		.4byte	.LASF43
 351 022a 04       		.byte	0x4
 352 022b 50       		.byte	0x50
 353 022c 30020000 		.4byte	0x230
 354 0230 05       		.uleb128 0x5
 355 0231 75010000 		.4byte	.LASF44
 356 0235 08       		.byte	0x8
 357 0236 05       		.byte	0x5
 358 0237 B7       		.byte	0xb7
 359 0238 55020000 		.4byte	0x255
 360 023c 06       		.uleb128 0x6
 361 023d 07040000 		.4byte	.LASF21
 362 0241 05       		.byte	0x5
 363 0242 B8       		.byte	0xb8
 364 0243 FB010000 		.4byte	0x1fb
 365 0247 00       		.byte	0
 366 0248 06       		.uleb128 0x6
 367 0249 87030000 		.4byte	.LASF22
 368 024d 05       		.byte	0x5
 369 024e B9       		.byte	0xb9
 370 024f FB010000 		.4byte	0x1fb
 371 0253 04       		.byte	0x4
 372 0254 00       		.byte	0
 373 0255 04       		.uleb128 0x4
 374 0256 00000000 		.4byte	.LASF45
 375 025a 04       		.byte	0x4
 376 025b 57       		.byte	0x57
 377 025c 60020000 		.4byte	0x260
 378 0260 0A       		.uleb128 0xa
 379 0261 C8020000 		.4byte	.LASF46
 380 0265 1C       		.byte	0x1c
 381 0266 05       		.byte	0x5
 382 0267 9001     		.2byte	0x190
 383 0269 BC020000 		.4byte	0x2bc
 384 026d 08       		.uleb128 0x8
 385 026e 4F040000 		.4byte	.LASF47
 386 0272 05       		.byte	0x5
 387 0273 9101     		.2byte	0x191
 388 0275 25020000 		.4byte	0x225
 389 0279 00       		.byte	0
 390 027a 08       		.uleb128 0x8
 391 027b F9030000 		.4byte	.LASF48
 392 027f 05       		.byte	0x5
 393 0280 9201     		.2byte	0x192
 394 0282 B5000000 		.4byte	0xb5
 395 0286 08       		.byte	0x8
 396 0287 08       		.uleb128 0x8
 397 0288 4C030000 		.4byte	.LASF49
ARM GAS  /tmp/cc9AkjAW.s 			page 8


 398 028c 05       		.byte	0x5
 399 028d 9401     		.2byte	0x194
 400 028f 88040000 		.4byte	0x488
 401 0293 0C       		.byte	0xc
 402 0294 08       		.uleb128 0x8
 403 0295 09020000 		.4byte	.LASF50
 404 0299 05       		.byte	0x5
 405 029a 9701     		.2byte	0x197
 406 029c FB010000 		.4byte	0x1fb
 407 02a0 10       		.byte	0x10
 408 02a1 08       		.uleb128 0x8
 409 02a2 67030000 		.4byte	.LASF51
 410 02a6 05       		.byte	0x5
 411 02a7 9801     		.2byte	0x198
 412 02a9 FB010000 		.4byte	0x1fb
 413 02ad 14       		.byte	0x14
 414 02ae 08       		.uleb128 0x8
 415 02af 5D030000 		.4byte	.LASF52
 416 02b3 05       		.byte	0x5
 417 02b4 9B01     		.2byte	0x19b
 418 02b6 FB010000 		.4byte	0x1fb
 419 02ba 18       		.byte	0x18
 420 02bb 00       		.byte	0
 421 02bc 04       		.uleb128 0x4
 422 02bd C2040000 		.4byte	.LASF53
 423 02c1 04       		.byte	0x4
 424 02c2 5C       		.byte	0x5c
 425 02c3 C7020000 		.4byte	0x2c7
 426 02c7 09       		.uleb128 0x9
 427 02c8 04       		.byte	0x4
 428 02c9 CD020000 		.4byte	0x2cd
 429 02cd 0B       		.uleb128 0xb
 430 02ce D8020000 		.4byte	0x2d8
 431 02d2 0C       		.uleb128 0xc
 432 02d3 D8020000 		.4byte	0x2d8
 433 02d7 00       		.byte	0
 434 02d8 0D       		.uleb128 0xd
 435 02d9 04       		.byte	0x4
 436 02da 04       		.uleb128 0x4
 437 02db 77030000 		.4byte	.LASF54
 438 02df 04       		.byte	0x4
 439 02e0 61       		.byte	0x61
 440 02e1 E5020000 		.4byte	0x2e5
 441 02e5 0A       		.uleb128 0xa
 442 02e6 16040000 		.4byte	.LASF55
 443 02ea 14       		.byte	0x14
 444 02eb 05       		.byte	0x5
 445 02ec 6B01     		.2byte	0x16b
 446 02ee 34030000 		.4byte	0x334
 447 02f2 08       		.uleb128 0x8
 448 02f3 51020000 		.4byte	.LASF56
 449 02f7 05       		.byte	0x5
 450 02f8 6C01     		.2byte	0x16c
 451 02fa F9050000 		.4byte	0x5f9
 452 02fe 00       		.byte	0
 453 02ff 08       		.uleb128 0x8
 454 0300 1A020000 		.4byte	.LASF57
ARM GAS  /tmp/cc9AkjAW.s 			page 9


 455 0304 05       		.byte	0x5
 456 0305 6D01     		.2byte	0x16d
 457 0307 F9050000 		.4byte	0x5f9
 458 030b 04       		.byte	0x4
 459 030c 08       		.uleb128 0x8
 460 030d 57040000 		.4byte	.LASF58
 461 0311 05       		.byte	0x5
 462 0312 6E01     		.2byte	0x16e
 463 0314 E1000000 		.4byte	0xe1
 464 0318 08       		.byte	0x8
 465 0319 08       		.uleb128 0x8
 466 031a A1050000 		.4byte	.LASF59
 467 031e 05       		.byte	0x5
 468 031f 6F01     		.2byte	0x16f
 469 0321 BC020000 		.4byte	0x2bc
 470 0325 0C       		.byte	0xc
 471 0326 08       		.uleb128 0x8
 472 0327 F5040000 		.4byte	.LASF60
 473 032b 05       		.byte	0x5
 474 032c 7101     		.2byte	0x171
 475 032e D8020000 		.4byte	0x2d8
 476 0332 10       		.byte	0x10
 477 0333 00       		.byte	0
 478 0334 04       		.uleb128 0x4
 479 0335 52010000 		.4byte	.LASF61
 480 0339 04       		.byte	0x4
 481 033a 66       		.byte	0x66
 482 033b 3F030000 		.4byte	0x33f
 483 033f 0A       		.uleb128 0xa
 484 0340 2D030000 		.4byte	.LASF62
 485 0344 10       		.byte	0x10
 486 0345 05       		.byte	0x5
 487 0346 7B01     		.2byte	0x17b
 488 0348 81030000 		.4byte	0x381
 489 034c 08       		.uleb128 0x8
 490 034d 51020000 		.4byte	.LASF56
 491 0351 05       		.byte	0x5
 492 0352 7C01     		.2byte	0x17c
 493 0354 F9050000 		.4byte	0x5f9
 494 0358 00       		.byte	0
 495 0359 08       		.uleb128 0x8
 496 035a 1A020000 		.4byte	.LASF57
 497 035e 05       		.byte	0x5
 498 035f 7E01     		.2byte	0x17e
 499 0361 F9050000 		.4byte	0x5f9
 500 0365 04       		.byte	0x4
 501 0366 08       		.uleb128 0x8
 502 0367 57040000 		.4byte	.LASF58
 503 036b 05       		.byte	0x5
 504 036c 8001     		.2byte	0x180
 505 036e E1000000 		.4byte	0xe1
 506 0372 08       		.byte	0x8
 507 0373 08       		.uleb128 0x8
 508 0374 55050000 		.4byte	.LASF63
 509 0378 05       		.byte	0x5
 510 0379 8201     		.2byte	0x182
 511 037b FF050000 		.4byte	0x5ff
ARM GAS  /tmp/cc9AkjAW.s 			page 10


 512 037f 0C       		.byte	0xc
 513 0380 00       		.byte	0
 514 0381 04       		.uleb128 0x4
 515 0382 3B000000 		.4byte	.LASF64
 516 0386 04       		.byte	0x4
 517 0387 6B       		.byte	0x6b
 518 0388 8C030000 		.4byte	0x38c
 519 038c 0A       		.uleb128 0xa
 520 038d 9F030000 		.4byte	.LASF65
 521 0391 04       		.byte	0x4
 522 0392 05       		.byte	0x5
 523 0393 A201     		.2byte	0x1a2
 524 0395 A7030000 		.4byte	0x3a7
 525 0399 08       		.uleb128 0x8
 526 039a CB040000 		.4byte	.LASF66
 527 039e 05       		.byte	0x5
 528 039f AA01     		.2byte	0x1aa
 529 03a1 04060000 		.4byte	0x604
 530 03a5 00       		.byte	0
 531 03a6 00       		.byte	0
 532 03a7 04       		.uleb128 0x4
 533 03a8 B4020000 		.4byte	.LASF67
 534 03ac 04       		.byte	0x4
 535 03ad 70       		.byte	0x70
 536 03ae B2030000 		.4byte	0x3b2
 537 03b2 0E       		.uleb128 0xe
 538 03b3 CD010000 		.4byte	.LASF68
 539 03b7 5001     		.2byte	0x150
 540 03b9 05       		.byte	0x5
 541 03ba C201     		.2byte	0x1c2
 542 03bc 02040000 		.4byte	0x402
 543 03c0 08       		.uleb128 0x8
 544 03c1 34050000 		.4byte	.LASF69
 545 03c5 05       		.byte	0x5
 546 03c6 C601     		.2byte	0x1c6
 547 03c8 55020000 		.4byte	0x255
 548 03cc 00       		.byte	0
 549 03cd 08       		.uleb128 0x8
 550 03ce BC010000 		.4byte	.LASF70
 551 03d2 05       		.byte	0x5
 552 03d3 CA01     		.2byte	0x1ca
 553 03d5 34030000 		.4byte	0x334
 554 03d9 1C       		.byte	0x1c
 555 03da 07       		.uleb128 0x7
 556 03db 64626700 		.ascii	"dbg\000"
 557 03df 05       		.byte	0x5
 558 03e0 CE01     		.2byte	0x1ce
 559 03e2 81030000 		.4byte	0x381
 560 03e6 2C       		.byte	0x2c
 561 03e7 08       		.uleb128 0x8
 562 03e8 A3020000 		.4byte	.LASF71
 563 03ec 05       		.byte	0x5
 564 03ed D201     		.2byte	0x1d2
 565 03ef EC000000 		.4byte	0xec
 566 03f3 30       		.byte	0x30
 567 03f4 08       		.uleb128 0x8
 568 03f5 2F020000 		.4byte	.LASF72
ARM GAS  /tmp/cc9AkjAW.s 			page 11


 569 03f9 05       		.byte	0x5
 570 03fa E301     		.2byte	0x1e3
 571 03fc 09060000 		.4byte	0x609
 572 0400 78       		.byte	0x78
 573 0401 00       		.byte	0
 574 0402 03       		.uleb128 0x3
 575 0403 04       		.byte	0x4
 576 0404 07       		.byte	0x7
 577 0405 0B030000 		.4byte	.LASF73
 578 0409 0F       		.uleb128 0xf
 579 040a 6C000000 		.4byte	0x6c
 580 040e 10       		.uleb128 0x10
 581 040f 18       		.byte	0x18
 582 0410 06       		.byte	0x6
 583 0411 5001     		.2byte	0x150
 584 0413 66040000 		.4byte	0x466
 585 0417 08       		.uleb128 0x8
 586 0418 42050000 		.4byte	.LASF74
 587 041c 06       		.byte	0x6
 588 041d 5201     		.2byte	0x152
 589 041f 09040000 		.4byte	0x409
 590 0423 00       		.byte	0
 591 0424 08       		.uleb128 0x8
 592 0425 F4010000 		.4byte	.LASF75
 593 0429 06       		.byte	0x6
 594 042a 5301     		.2byte	0x153
 595 042c 09040000 		.4byte	0x409
 596 0430 04       		.byte	0x4
 597 0431 08       		.uleb128 0x8
 598 0432 4D010000 		.4byte	.LASF76
 599 0436 06       		.byte	0x6
 600 0437 5401     		.2byte	0x154
 601 0439 09040000 		.4byte	0x409
 602 043d 08       		.byte	0x8
 603 043e 08       		.uleb128 0x8
 604 043f 1A000000 		.4byte	.LASF77
 605 0443 06       		.byte	0x6
 606 0444 5501     		.2byte	0x155
 607 0446 09040000 		.4byte	0x409
 608 044a 0C       		.byte	0xc
 609 044b 08       		.uleb128 0x8
 610 044c 8D010000 		.4byte	.LASF78
 611 0450 06       		.byte	0x6
 612 0451 5601     		.2byte	0x156
 613 0453 09040000 		.4byte	0x409
 614 0457 10       		.byte	0x10
 615 0458 08       		.uleb128 0x8
 616 0459 FC020000 		.4byte	.LASF79
 617 045d 06       		.byte	0x6
 618 045e 5701     		.2byte	0x157
 619 0460 09040000 		.4byte	0x409
 620 0464 14       		.byte	0x14
 621 0465 00       		.byte	0
 622 0466 11       		.uleb128 0x11
 623 0467 6B020000 		.4byte	.LASF80
 624 046b 06       		.byte	0x6
 625 046c 5801     		.2byte	0x158
ARM GAS  /tmp/cc9AkjAW.s 			page 12


 626 046e 0E040000 		.4byte	0x40e
 627 0472 04       		.uleb128 0x4
 628 0473 11020000 		.4byte	.LASF81
 629 0477 07       		.byte	0x7
 630 0478 65       		.byte	0x65
 631 0479 D8020000 		.4byte	0x2d8
 632 047d 04       		.uleb128 0x4
 633 047e E2020000 		.4byte	.LASF82
 634 0482 07       		.byte	0x7
 635 0483 6D       		.byte	0x6d
 636 0484 77000000 		.4byte	0x77
 637 0488 05       		.uleb128 0x5
 638 0489 E0040000 		.4byte	.LASF83
 639 048d 04       		.byte	0x4
 640 048e 07       		.byte	0x7
 641 048f 89       		.byte	0x89
 642 0490 A1040000 		.4byte	0x4a1
 643 0494 12       		.uleb128 0x12
 644 0495 72313300 		.ascii	"r13\000"
 645 0499 07       		.byte	0x7
 646 049a 8A       		.byte	0x8a
 647 049b 1C050000 		.4byte	0x51c
 648 049f 00       		.byte	0
 649 04a0 00       		.byte	0
 650 04a1 05       		.uleb128 0x5
 651 04a2 2F000000 		.4byte	.LASF84
 652 04a6 24       		.byte	0x24
 653 04a7 08       		.byte	0x8
 654 04a8 FD       		.byte	0xfd
 655 04a9 1C050000 		.4byte	0x51c
 656 04ad 07       		.uleb128 0x7
 657 04ae 723400   		.ascii	"r4\000"
 658 04b1 08       		.byte	0x8
 659 04b2 1001     		.2byte	0x110
 660 04b4 72040000 		.4byte	0x472
 661 04b8 00       		.byte	0
 662 04b9 07       		.uleb128 0x7
 663 04ba 723500   		.ascii	"r5\000"
 664 04bd 08       		.byte	0x8
 665 04be 1101     		.2byte	0x111
 666 04c0 72040000 		.4byte	0x472
 667 04c4 04       		.byte	0x4
 668 04c5 07       		.uleb128 0x7
 669 04c6 723600   		.ascii	"r6\000"
 670 04c9 08       		.byte	0x8
 671 04ca 1201     		.2byte	0x112
 672 04cc 72040000 		.4byte	0x472
 673 04d0 08       		.byte	0x8
 674 04d1 07       		.uleb128 0x7
 675 04d2 723700   		.ascii	"r7\000"
 676 04d5 08       		.byte	0x8
 677 04d6 1301     		.2byte	0x113
 678 04d8 72040000 		.4byte	0x472
 679 04dc 0C       		.byte	0xc
 680 04dd 07       		.uleb128 0x7
 681 04de 723800   		.ascii	"r8\000"
 682 04e1 08       		.byte	0x8
ARM GAS  /tmp/cc9AkjAW.s 			page 13


 683 04e2 1401     		.2byte	0x114
 684 04e4 72040000 		.4byte	0x472
 685 04e8 10       		.byte	0x10
 686 04e9 07       		.uleb128 0x7
 687 04ea 723900   		.ascii	"r9\000"
 688 04ed 08       		.byte	0x8
 689 04ee 1501     		.2byte	0x115
 690 04f0 72040000 		.4byte	0x472
 691 04f4 14       		.byte	0x14
 692 04f5 07       		.uleb128 0x7
 693 04f6 72313000 		.ascii	"r10\000"
 694 04fa 08       		.byte	0x8
 695 04fb 1601     		.2byte	0x116
 696 04fd 72040000 		.4byte	0x472
 697 0501 18       		.byte	0x18
 698 0502 07       		.uleb128 0x7
 699 0503 72313100 		.ascii	"r11\000"
 700 0507 08       		.byte	0x8
 701 0508 1701     		.2byte	0x117
 702 050a 72040000 		.4byte	0x472
 703 050e 1C       		.byte	0x1c
 704 050f 07       		.uleb128 0x7
 705 0510 6C7200   		.ascii	"lr\000"
 706 0513 08       		.byte	0x8
 707 0514 1801     		.2byte	0x118
 708 0516 72040000 		.4byte	0x472
 709 051a 20       		.byte	0x20
 710 051b 00       		.byte	0
 711 051c 09       		.uleb128 0x9
 712 051d 04       		.byte	0x4
 713 051e A1040000 		.4byte	0x4a1
 714 0522 13       		.uleb128 0x13
 715 0523 04       		.byte	0x4
 716 0524 05       		.byte	0x5
 717 0525 FA       		.byte	0xfa
 718 0526 7F050000 		.4byte	0x57f
 719 052a 14       		.uleb128 0x14
 720 052b 1F000000 		.4byte	.LASF85
 721 052f 05       		.byte	0x5
 722 0530 0101     		.2byte	0x101
 723 0532 C0000000 		.4byte	0xc0
 724 0536 14       		.uleb128 0x14
 725 0537 44010000 		.4byte	.LASF86
 726 053b 05       		.byte	0x5
 727 053c 0801     		.2byte	0x108
 728 053e C0000000 		.4byte	0xc0
 729 0542 14       		.uleb128 0x14
 730 0543 47050000 		.4byte	.LASF87
 731 0547 05       		.byte	0x5
 732 0548 0F01     		.2byte	0x10f
 733 054a D8020000 		.4byte	0x2d8
 734 054e 14       		.uleb128 0x14
 735 054f 14000000 		.4byte	.LASF88
 736 0553 05       		.byte	0x5
 737 0554 1601     		.2byte	0x116
 738 0556 7F050000 		.4byte	0x57f
 739 055a 14       		.uleb128 0x14
ARM GAS  /tmp/cc9AkjAW.s 			page 14


 740 055b 59020000 		.4byte	.LASF89
 741 055f 05       		.byte	0x5
 742 0560 1E01     		.2byte	0x11e
 743 0562 AA050000 		.4byte	0x5aa
 744 0566 14       		.uleb128 0x14
 745 0567 48040000 		.4byte	.LASF90
 746 056b 05       		.byte	0x5
 747 056c 2701     		.2byte	0x127
 748 056e E1050000 		.4byte	0x5e1
 749 0572 14       		.uleb128 0x14
 750 0573 00040000 		.4byte	.LASF91
 751 0577 05       		.byte	0x5
 752 0578 2F01     		.2byte	0x12f
 753 057a CB000000 		.4byte	0xcb
 754 057e 00       		.byte	0
 755 057f 09       		.uleb128 0x9
 756 0580 04       		.byte	0x4
 757 0581 F0010000 		.4byte	0x1f0
 758 0585 05       		.uleb128 0x5
 759 0586 27040000 		.4byte	.LASF92
 760 058a 0C       		.byte	0xc
 761 058b 09       		.byte	0x9
 762 058c 34       		.byte	0x34
 763 058d AA050000 		.4byte	0x5aa
 764 0591 06       		.uleb128 0x6
 765 0592 01020000 		.4byte	.LASF93
 766 0596 09       		.byte	0x9
 767 0597 35       		.byte	0x35
 768 0598 25020000 		.4byte	0x225
 769 059c 00       		.byte	0
 770 059d 06       		.uleb128 0x6
 771 059e 80020000 		.4byte	.LASF94
 772 05a2 09       		.byte	0x9
 773 05a3 37       		.byte	0x37
 774 05a4 D6000000 		.4byte	0xd6
 775 05a8 08       		.byte	0x8
 776 05a9 00       		.byte	0
 777 05aa 09       		.uleb128 0x9
 778 05ab 04       		.byte	0x4
 779 05ac 85050000 		.4byte	0x585
 780 05b0 05       		.uleb128 0x5
 781 05b1 0C050000 		.4byte	.LASF95
 782 05b5 10       		.byte	0x10
 783 05b6 0A       		.byte	0xa
 784 05b7 39       		.byte	0x39
 785 05b8 E1050000 		.4byte	0x5e1
 786 05bc 06       		.uleb128 0x6
 787 05bd B4010000 		.4byte	.LASF96
 788 05c1 0A       		.byte	0xa
 789 05c2 3A       		.byte	0x3a
 790 05c3 25020000 		.4byte	0x225
 791 05c7 00       		.byte	0
 792 05c8 06       		.uleb128 0x6
 793 05c9 80050000 		.4byte	.LASF97
 794 05cd 0A       		.byte	0xa
 795 05ce 3C       		.byte	0x3c
 796 05cf FB010000 		.4byte	0x1fb
ARM GAS  /tmp/cc9AkjAW.s 			page 15


 797 05d3 08       		.byte	0x8
 798 05d4 06       		.uleb128 0x6
 799 05d5 A6040000 		.4byte	.LASF98
 800 05d9 0A       		.byte	0xa
 801 05da 3E       		.byte	0x3e
 802 05db 24060000 		.4byte	0x624
 803 05df 0C       		.byte	0xc
 804 05e0 00       		.byte	0
 805 05e1 09       		.uleb128 0x9
 806 05e2 04       		.byte	0x4
 807 05e3 B0050000 		.4byte	0x5b0
 808 05e7 09       		.uleb128 0x9
 809 05e8 04       		.byte	0x4
 810 05e9 ED050000 		.4byte	0x5ed
 811 05ed 15       		.uleb128 0x15
 812 05ee F2050000 		.4byte	0x5f2
 813 05f2 03       		.uleb128 0x3
 814 05f3 01       		.byte	0x1
 815 05f4 08       		.byte	0x8
 816 05f5 70040000 		.4byte	.LASF99
 817 05f9 09       		.uleb128 0x9
 818 05fa 04       		.byte	0x4
 819 05fb DA020000 		.4byte	0x2da
 820 05ff 0F       		.uleb128 0xf
 821 0600 E1000000 		.4byte	0xe1
 822 0604 0F       		.uleb128 0xf
 823 0605 E7050000 		.4byte	0x5e7
 824 0609 16       		.uleb128 0x16
 825 060a 7D040000 		.4byte	0x47d
 826 060e 19060000 		.4byte	0x619
 827 0612 17       		.uleb128 0x17
 828 0613 02040000 		.4byte	0x402
 829 0617 1A       		.byte	0x1a
 830 0618 00       		.byte	0
 831 0619 04       		.uleb128 0x4
 832 061a 27020000 		.4byte	.LASF100
 833 061e 0A       		.byte	0xa
 834 061f 34       		.byte	0x34
 835 0620 B0050000 		.4byte	0x5b0
 836 0624 09       		.uleb128 0x9
 837 0625 04       		.byte	0x4
 838 0626 19060000 		.4byte	0x619
 839 062a 03       		.uleb128 0x3
 840 062b 01       		.byte	0x1
 841 062c 02       		.byte	0x2
 842 062d AF030000 		.4byte	.LASF101
 843 0631 04       		.uleb128 0x4
 844 0632 6D050000 		.4byte	.LASF102
 845 0636 0B       		.byte	0xb
 846 0637 46       		.byte	0x46
 847 0638 6C000000 		.4byte	0x6c
 848 063c 04       		.uleb128 0x4
 849 063d D5040000 		.4byte	.LASF103
 850 0641 0B       		.byte	0xb
 851 0642 4E       		.byte	0x4e
 852 0643 47060000 		.4byte	0x647
 853 0647 09       		.uleb128 0x9
ARM GAS  /tmp/cc9AkjAW.s 			page 16


 854 0648 04       		.byte	0x4
 855 0649 66040000 		.4byte	0x466
 856 064d 18       		.uleb128 0x18
 857 064e 84       		.byte	0x84
 858 064f 0B       		.byte	0xb
 859 0650 55       		.byte	0x55
 860 0651 6E060000 		.4byte	0x66e
 861 0655 06       		.uleb128 0x6
 862 0656 22020000 		.4byte	.LASF104
 863 065a 0B       		.byte	0xb
 864 065b 56       		.byte	0x56
 865 065c 3C060000 		.4byte	0x63c
 866 0660 00       		.byte	0
 867 0661 06       		.uleb128 0x6
 868 0662 A9050000 		.4byte	.LASF105
 869 0666 0B       		.byte	0xb
 870 0667 57       		.byte	0x57
 871 0668 6E060000 		.4byte	0x66e
 872 066c 04       		.byte	0x4
 873 066d 00       		.byte	0
 874 066e 16       		.uleb128 0x16
 875 066f 31060000 		.4byte	0x631
 876 0673 7E060000 		.4byte	0x67e
 877 0677 17       		.uleb128 0x17
 878 0678 02040000 		.4byte	0x402
 879 067c 1F       		.byte	0x1f
 880 067d 00       		.byte	0
 881 067e 04       		.uleb128 0x4
 882 067f 52030000 		.4byte	.LASF106
 883 0683 0B       		.byte	0xb
 884 0684 58       		.byte	0x58
 885 0685 4D060000 		.4byte	0x64d
 886 0689 19       		.uleb128 0x19
 887 068a 9402     		.2byte	0x294
 888 068c 0B       		.byte	0xb
 889 068d 63       		.byte	0x63
 890 068e 9F060000 		.4byte	0x69f
 891 0692 06       		.uleb128 0x6
 892 0693 27030000 		.4byte	.LASF107
 893 0697 0B       		.byte	0xb
 894 0698 64       		.byte	0x64
 895 0699 9F060000 		.4byte	0x69f
 896 069d 00       		.byte	0
 897 069e 00       		.byte	0
 898 069f 16       		.uleb128 0x16
 899 06a0 7E060000 		.4byte	0x67e
 900 06a4 AF060000 		.4byte	0x6af
 901 06a8 17       		.uleb128 0x17
 902 06a9 02040000 		.4byte	0x402
 903 06ad 04       		.byte	0x4
 904 06ae 00       		.byte	0
 905 06af 04       		.uleb128 0x4
 906 06b0 76050000 		.4byte	.LASF108
 907 06b4 0B       		.byte	0xb
 908 06b5 65       		.byte	0x65
 909 06b6 89060000 		.4byte	0x689
 910 06ba 1A       		.uleb128 0x1a
ARM GAS  /tmp/cc9AkjAW.s 			page 17


 911 06bb 8E030000 		.4byte	.LASF119
 912 06bf 12       		.byte	0x12
 913 06c0 C101     		.2byte	0x1c1
 914 06c2 03       		.byte	0x3
 915 06c3 1B       		.uleb128 0x1b
 916 06c4 78020000 		.4byte	.LASF120
 917 06c8 01       		.byte	0x1
 918 06c9 38       		.byte	0x38
 919 06ca 00000000 		.4byte	.LFB267
 920 06ce 24000000 		.4byte	.LFE267-.LFB267
 921 06d2 01       		.uleb128 0x1
 922 06d3 9C       		.byte	0x9c
 923 06d4 0F070000 		.4byte	0x70f
 924 06d8 1C       		.uleb128 0x1c
 925 06d9 06000000 		.4byte	.LVL0
 926 06dd 3C070000 		.4byte	0x73c
 927 06e1 1C       		.uleb128 0x1c
 928 06e2 0C000000 		.4byte	.LVL1
 929 06e6 44070000 		.4byte	0x744
 930 06ea 1C       		.uleb128 0x1c
 931 06eb 10000000 		.4byte	.LVL2
 932 06ef 5C070000 		.4byte	0x75c
 933 06f3 1C       		.uleb128 0x1c
 934 06f4 14000000 		.4byte	.LVL3
 935 06f8 63070000 		.4byte	0x763
 936 06fc 1C       		.uleb128 0x1c
 937 06fd 18000000 		.4byte	.LVL4
 938 0701 6B070000 		.4byte	0x76b
 939 0705 1D       		.uleb128 0x1d
 940 0706 20000000 		.4byte	.LVL5
 941 070a 72070000 		.4byte	0x772
 942 070e 00       		.byte	0
 943 070f 1E       		.uleb128 0x1e
 944 0710 68010000 		.4byte	.LASF109
 945 0714 0C       		.byte	0xc
 946 0715 FA06     		.2byte	0x6fa
 947 0717 1B070000 		.4byte	0x71b
 948 071b 0F       		.uleb128 0xf
 949 071c 41000000 		.4byte	0x41
 950 0720 1F       		.uleb128 0x1f
 951 0721 636800   		.ascii	"ch\000"
 952 0724 05       		.byte	0x5
 953 0725 0902     		.2byte	0x209
 954 0727 A7030000 		.4byte	0x3a7
 955 072b 1E       		.uleb128 0x1e
 956 072c 88050000 		.4byte	.LASF110
 957 0730 0B       		.byte	0xb
 958 0731 6201     		.2byte	0x162
 959 0733 37070000 		.4byte	0x737
 960 0737 15       		.uleb128 0x15
 961 0738 AF060000 		.4byte	0x6af
 962 073c 20       		.uleb128 0x20
 963 073d E8040000 		.4byte	.LASF111
 964 0741 0D       		.byte	0xd
 965 0742 0501     		.2byte	0x105
 966 0744 21       		.uleb128 0x21
 967 0745 1C050000 		.4byte	.LASF121
ARM GAS  /tmp/cc9AkjAW.s 			page 18


 968 0749 0B       		.byte	0xb
 969 074a 6801     		.2byte	0x168
 970 074c 56070000 		.4byte	0x756
 971 0750 0C       		.uleb128 0xc
 972 0751 56070000 		.4byte	0x756
 973 0755 00       		.byte	0
 974 0756 09       		.uleb128 0x9
 975 0757 04       		.byte	0x4
 976 0758 37070000 		.4byte	0x737
 977 075c 22       		.uleb128 0x22
 978 075d CB030000 		.4byte	.LASF112
 979 0761 0E       		.byte	0xe
 980 0762 85       		.byte	0x85
 981 0763 20       		.uleb128 0x20
 982 0764 66050000 		.4byte	.LASF113
 983 0768 0F       		.byte	0xf
 984 0769 0E01     		.2byte	0x10e
 985 076b 22       		.uleb128 0x22
 986 076c 2A050000 		.4byte	.LASF114
 987 0770 10       		.byte	0x10
 988 0771 22       		.byte	0x22
 989 0772 22       		.uleb128 0x22
 990 0773 0D000000 		.4byte	.LASF115
 991 0777 11       		.byte	0x11
 992 0778 56       		.byte	0x56
 993 0779 00       		.byte	0
 994              		.section	.debug_abbrev,"",%progbits
 995              	.Ldebug_abbrev0:
 996 0000 01       		.uleb128 0x1
 997 0001 11       		.uleb128 0x11
 998 0002 01       		.byte	0x1
 999 0003 25       		.uleb128 0x25
 1000 0004 0E       		.uleb128 0xe
 1001 0005 13       		.uleb128 0x13
 1002 0006 0B       		.uleb128 0xb
 1003 0007 03       		.uleb128 0x3
 1004 0008 0E       		.uleb128 0xe
 1005 0009 1B       		.uleb128 0x1b
 1006 000a 0E       		.uleb128 0xe
 1007 000b 55       		.uleb128 0x55
 1008 000c 17       		.uleb128 0x17
 1009 000d 11       		.uleb128 0x11
 1010 000e 01       		.uleb128 0x1
 1011 000f 10       		.uleb128 0x10
 1012 0010 17       		.uleb128 0x17
 1013 0011 00       		.byte	0
 1014 0012 00       		.byte	0
 1015 0013 02       		.uleb128 0x2
 1016 0014 24       		.uleb128 0x24
 1017 0015 00       		.byte	0
 1018 0016 0B       		.uleb128 0xb
 1019 0017 0B       		.uleb128 0xb
 1020 0018 3E       		.uleb128 0x3e
 1021 0019 0B       		.uleb128 0xb
 1022 001a 03       		.uleb128 0x3
 1023 001b 08       		.uleb128 0x8
 1024 001c 00       		.byte	0
ARM GAS  /tmp/cc9AkjAW.s 			page 19


 1025 001d 00       		.byte	0
 1026 001e 03       		.uleb128 0x3
 1027 001f 24       		.uleb128 0x24
 1028 0020 00       		.byte	0
 1029 0021 0B       		.uleb128 0xb
 1030 0022 0B       		.uleb128 0xb
 1031 0023 3E       		.uleb128 0x3e
 1032 0024 0B       		.uleb128 0xb
 1033 0025 03       		.uleb128 0x3
 1034 0026 0E       		.uleb128 0xe
 1035 0027 00       		.byte	0
 1036 0028 00       		.byte	0
 1037 0029 04       		.uleb128 0x4
 1038 002a 16       		.uleb128 0x16
 1039 002b 00       		.byte	0
 1040 002c 03       		.uleb128 0x3
 1041 002d 0E       		.uleb128 0xe
 1042 002e 3A       		.uleb128 0x3a
 1043 002f 0B       		.uleb128 0xb
 1044 0030 3B       		.uleb128 0x3b
 1045 0031 0B       		.uleb128 0xb
 1046 0032 49       		.uleb128 0x49
 1047 0033 13       		.uleb128 0x13
 1048 0034 00       		.byte	0
 1049 0035 00       		.byte	0
 1050 0036 05       		.uleb128 0x5
 1051 0037 13       		.uleb128 0x13
 1052 0038 01       		.byte	0x1
 1053 0039 03       		.uleb128 0x3
 1054 003a 0E       		.uleb128 0xe
 1055 003b 0B       		.uleb128 0xb
 1056 003c 0B       		.uleb128 0xb
 1057 003d 3A       		.uleb128 0x3a
 1058 003e 0B       		.uleb128 0xb
 1059 003f 3B       		.uleb128 0x3b
 1060 0040 0B       		.uleb128 0xb
 1061 0041 01       		.uleb128 0x1
 1062 0042 13       		.uleb128 0x13
 1063 0043 00       		.byte	0
 1064 0044 00       		.byte	0
 1065 0045 06       		.uleb128 0x6
 1066 0046 0D       		.uleb128 0xd
 1067 0047 00       		.byte	0
 1068 0048 03       		.uleb128 0x3
 1069 0049 0E       		.uleb128 0xe
 1070 004a 3A       		.uleb128 0x3a
 1071 004b 0B       		.uleb128 0xb
 1072 004c 3B       		.uleb128 0x3b
 1073 004d 0B       		.uleb128 0xb
 1074 004e 49       		.uleb128 0x49
 1075 004f 13       		.uleb128 0x13
 1076 0050 38       		.uleb128 0x38
 1077 0051 0B       		.uleb128 0xb
 1078 0052 00       		.byte	0
 1079 0053 00       		.byte	0
 1080 0054 07       		.uleb128 0x7
 1081 0055 0D       		.uleb128 0xd
ARM GAS  /tmp/cc9AkjAW.s 			page 20


 1082 0056 00       		.byte	0
 1083 0057 03       		.uleb128 0x3
 1084 0058 08       		.uleb128 0x8
 1085 0059 3A       		.uleb128 0x3a
 1086 005a 0B       		.uleb128 0xb
 1087 005b 3B       		.uleb128 0x3b
 1088 005c 05       		.uleb128 0x5
 1089 005d 49       		.uleb128 0x49
 1090 005e 13       		.uleb128 0x13
 1091 005f 38       		.uleb128 0x38
 1092 0060 0B       		.uleb128 0xb
 1093 0061 00       		.byte	0
 1094 0062 00       		.byte	0
 1095 0063 08       		.uleb128 0x8
 1096 0064 0D       		.uleb128 0xd
 1097 0065 00       		.byte	0
 1098 0066 03       		.uleb128 0x3
 1099 0067 0E       		.uleb128 0xe
 1100 0068 3A       		.uleb128 0x3a
 1101 0069 0B       		.uleb128 0xb
 1102 006a 3B       		.uleb128 0x3b
 1103 006b 05       		.uleb128 0x5
 1104 006c 49       		.uleb128 0x49
 1105 006d 13       		.uleb128 0x13
 1106 006e 38       		.uleb128 0x38
 1107 006f 0B       		.uleb128 0xb
 1108 0070 00       		.byte	0
 1109 0071 00       		.byte	0
 1110 0072 09       		.uleb128 0x9
 1111 0073 0F       		.uleb128 0xf
 1112 0074 00       		.byte	0
 1113 0075 0B       		.uleb128 0xb
 1114 0076 0B       		.uleb128 0xb
 1115 0077 49       		.uleb128 0x49
 1116 0078 13       		.uleb128 0x13
 1117 0079 00       		.byte	0
 1118 007a 00       		.byte	0
 1119 007b 0A       		.uleb128 0xa
 1120 007c 13       		.uleb128 0x13
 1121 007d 01       		.byte	0x1
 1122 007e 03       		.uleb128 0x3
 1123 007f 0E       		.uleb128 0xe
 1124 0080 0B       		.uleb128 0xb
 1125 0081 0B       		.uleb128 0xb
 1126 0082 3A       		.uleb128 0x3a
 1127 0083 0B       		.uleb128 0xb
 1128 0084 3B       		.uleb128 0x3b
 1129 0085 05       		.uleb128 0x5
 1130 0086 01       		.uleb128 0x1
 1131 0087 13       		.uleb128 0x13
 1132 0088 00       		.byte	0
 1133 0089 00       		.byte	0
 1134 008a 0B       		.uleb128 0xb
 1135 008b 15       		.uleb128 0x15
 1136 008c 01       		.byte	0x1
 1137 008d 27       		.uleb128 0x27
 1138 008e 19       		.uleb128 0x19
ARM GAS  /tmp/cc9AkjAW.s 			page 21


 1139 008f 01       		.uleb128 0x1
 1140 0090 13       		.uleb128 0x13
 1141 0091 00       		.byte	0
 1142 0092 00       		.byte	0
 1143 0093 0C       		.uleb128 0xc
 1144 0094 05       		.uleb128 0x5
 1145 0095 00       		.byte	0
 1146 0096 49       		.uleb128 0x49
 1147 0097 13       		.uleb128 0x13
 1148 0098 00       		.byte	0
 1149 0099 00       		.byte	0
 1150 009a 0D       		.uleb128 0xd
 1151 009b 0F       		.uleb128 0xf
 1152 009c 00       		.byte	0
 1153 009d 0B       		.uleb128 0xb
 1154 009e 0B       		.uleb128 0xb
 1155 009f 00       		.byte	0
 1156 00a0 00       		.byte	0
 1157 00a1 0E       		.uleb128 0xe
 1158 00a2 13       		.uleb128 0x13
 1159 00a3 01       		.byte	0x1
 1160 00a4 03       		.uleb128 0x3
 1161 00a5 0E       		.uleb128 0xe
 1162 00a6 0B       		.uleb128 0xb
 1163 00a7 05       		.uleb128 0x5
 1164 00a8 3A       		.uleb128 0x3a
 1165 00a9 0B       		.uleb128 0xb
 1166 00aa 3B       		.uleb128 0x3b
 1167 00ab 05       		.uleb128 0x5
 1168 00ac 01       		.uleb128 0x1
 1169 00ad 13       		.uleb128 0x13
 1170 00ae 00       		.byte	0
 1171 00af 00       		.byte	0
 1172 00b0 0F       		.uleb128 0xf
 1173 00b1 35       		.uleb128 0x35
 1174 00b2 00       		.byte	0
 1175 00b3 49       		.uleb128 0x49
 1176 00b4 13       		.uleb128 0x13
 1177 00b5 00       		.byte	0
 1178 00b6 00       		.byte	0
 1179 00b7 10       		.uleb128 0x10
 1180 00b8 13       		.uleb128 0x13
 1181 00b9 01       		.byte	0x1
 1182 00ba 0B       		.uleb128 0xb
 1183 00bb 0B       		.uleb128 0xb
 1184 00bc 3A       		.uleb128 0x3a
 1185 00bd 0B       		.uleb128 0xb
 1186 00be 3B       		.uleb128 0x3b
 1187 00bf 05       		.uleb128 0x5
 1188 00c0 01       		.uleb128 0x1
 1189 00c1 13       		.uleb128 0x13
 1190 00c2 00       		.byte	0
 1191 00c3 00       		.byte	0
 1192 00c4 11       		.uleb128 0x11
 1193 00c5 16       		.uleb128 0x16
 1194 00c6 00       		.byte	0
 1195 00c7 03       		.uleb128 0x3
ARM GAS  /tmp/cc9AkjAW.s 			page 22


 1196 00c8 0E       		.uleb128 0xe
 1197 00c9 3A       		.uleb128 0x3a
 1198 00ca 0B       		.uleb128 0xb
 1199 00cb 3B       		.uleb128 0x3b
 1200 00cc 05       		.uleb128 0x5
 1201 00cd 49       		.uleb128 0x49
 1202 00ce 13       		.uleb128 0x13
 1203 00cf 00       		.byte	0
 1204 00d0 00       		.byte	0
 1205 00d1 12       		.uleb128 0x12
 1206 00d2 0D       		.uleb128 0xd
 1207 00d3 00       		.byte	0
 1208 00d4 03       		.uleb128 0x3
 1209 00d5 08       		.uleb128 0x8
 1210 00d6 3A       		.uleb128 0x3a
 1211 00d7 0B       		.uleb128 0xb
 1212 00d8 3B       		.uleb128 0x3b
 1213 00d9 0B       		.uleb128 0xb
 1214 00da 49       		.uleb128 0x49
 1215 00db 13       		.uleb128 0x13
 1216 00dc 38       		.uleb128 0x38
 1217 00dd 0B       		.uleb128 0xb
 1218 00de 00       		.byte	0
 1219 00df 00       		.byte	0
 1220 00e0 13       		.uleb128 0x13
 1221 00e1 17       		.uleb128 0x17
 1222 00e2 01       		.byte	0x1
 1223 00e3 0B       		.uleb128 0xb
 1224 00e4 0B       		.uleb128 0xb
 1225 00e5 3A       		.uleb128 0x3a
 1226 00e6 0B       		.uleb128 0xb
 1227 00e7 3B       		.uleb128 0x3b
 1228 00e8 0B       		.uleb128 0xb
 1229 00e9 01       		.uleb128 0x1
 1230 00ea 13       		.uleb128 0x13
 1231 00eb 00       		.byte	0
 1232 00ec 00       		.byte	0
 1233 00ed 14       		.uleb128 0x14
 1234 00ee 0D       		.uleb128 0xd
 1235 00ef 00       		.byte	0
 1236 00f0 03       		.uleb128 0x3
 1237 00f1 0E       		.uleb128 0xe
 1238 00f2 3A       		.uleb128 0x3a
 1239 00f3 0B       		.uleb128 0xb
 1240 00f4 3B       		.uleb128 0x3b
 1241 00f5 05       		.uleb128 0x5
 1242 00f6 49       		.uleb128 0x49
 1243 00f7 13       		.uleb128 0x13
 1244 00f8 00       		.byte	0
 1245 00f9 00       		.byte	0
 1246 00fa 15       		.uleb128 0x15
 1247 00fb 26       		.uleb128 0x26
 1248 00fc 00       		.byte	0
 1249 00fd 49       		.uleb128 0x49
 1250 00fe 13       		.uleb128 0x13
 1251 00ff 00       		.byte	0
 1252 0100 00       		.byte	0
ARM GAS  /tmp/cc9AkjAW.s 			page 23


 1253 0101 16       		.uleb128 0x16
 1254 0102 01       		.uleb128 0x1
 1255 0103 01       		.byte	0x1
 1256 0104 49       		.uleb128 0x49
 1257 0105 13       		.uleb128 0x13
 1258 0106 01       		.uleb128 0x1
 1259 0107 13       		.uleb128 0x13
 1260 0108 00       		.byte	0
 1261 0109 00       		.byte	0
 1262 010a 17       		.uleb128 0x17
 1263 010b 21       		.uleb128 0x21
 1264 010c 00       		.byte	0
 1265 010d 49       		.uleb128 0x49
 1266 010e 13       		.uleb128 0x13
 1267 010f 2F       		.uleb128 0x2f
 1268 0110 0B       		.uleb128 0xb
 1269 0111 00       		.byte	0
 1270 0112 00       		.byte	0
 1271 0113 18       		.uleb128 0x18
 1272 0114 13       		.uleb128 0x13
 1273 0115 01       		.byte	0x1
 1274 0116 0B       		.uleb128 0xb
 1275 0117 0B       		.uleb128 0xb
 1276 0118 3A       		.uleb128 0x3a
 1277 0119 0B       		.uleb128 0xb
 1278 011a 3B       		.uleb128 0x3b
 1279 011b 0B       		.uleb128 0xb
 1280 011c 01       		.uleb128 0x1
 1281 011d 13       		.uleb128 0x13
 1282 011e 00       		.byte	0
 1283 011f 00       		.byte	0
 1284 0120 19       		.uleb128 0x19
 1285 0121 13       		.uleb128 0x13
 1286 0122 01       		.byte	0x1
 1287 0123 0B       		.uleb128 0xb
 1288 0124 05       		.uleb128 0x5
 1289 0125 3A       		.uleb128 0x3a
 1290 0126 0B       		.uleb128 0xb
 1291 0127 3B       		.uleb128 0x3b
 1292 0128 0B       		.uleb128 0xb
 1293 0129 01       		.uleb128 0x1
 1294 012a 13       		.uleb128 0x13
 1295 012b 00       		.byte	0
 1296 012c 00       		.byte	0
 1297 012d 1A       		.uleb128 0x1a
 1298 012e 2E       		.uleb128 0x2e
 1299 012f 00       		.byte	0
 1300 0130 03       		.uleb128 0x3
 1301 0131 0E       		.uleb128 0xe
 1302 0132 3A       		.uleb128 0x3a
 1303 0133 0B       		.uleb128 0xb
 1304 0134 3B       		.uleb128 0x3b
 1305 0135 05       		.uleb128 0x5
 1306 0136 27       		.uleb128 0x27
 1307 0137 19       		.uleb128 0x19
 1308 0138 20       		.uleb128 0x20
 1309 0139 0B       		.uleb128 0xb
ARM GAS  /tmp/cc9AkjAW.s 			page 24


 1310 013a 00       		.byte	0
 1311 013b 00       		.byte	0
 1312 013c 1B       		.uleb128 0x1b
 1313 013d 2E       		.uleb128 0x2e
 1314 013e 01       		.byte	0x1
 1315 013f 3F       		.uleb128 0x3f
 1316 0140 19       		.uleb128 0x19
 1317 0141 03       		.uleb128 0x3
 1318 0142 0E       		.uleb128 0xe
 1319 0143 3A       		.uleb128 0x3a
 1320 0144 0B       		.uleb128 0xb
 1321 0145 3B       		.uleb128 0x3b
 1322 0146 0B       		.uleb128 0xb
 1323 0147 27       		.uleb128 0x27
 1324 0148 19       		.uleb128 0x19
 1325 0149 11       		.uleb128 0x11
 1326 014a 01       		.uleb128 0x1
 1327 014b 12       		.uleb128 0x12
 1328 014c 06       		.uleb128 0x6
 1329 014d 40       		.uleb128 0x40
 1330 014e 18       		.uleb128 0x18
 1331 014f 9742     		.uleb128 0x2117
 1332 0151 19       		.uleb128 0x19
 1333 0152 01       		.uleb128 0x1
 1334 0153 13       		.uleb128 0x13
 1335 0154 00       		.byte	0
 1336 0155 00       		.byte	0
 1337 0156 1C       		.uleb128 0x1c
 1338 0157 898201   		.uleb128 0x4109
 1339 015a 00       		.byte	0
 1340 015b 11       		.uleb128 0x11
 1341 015c 01       		.uleb128 0x1
 1342 015d 31       		.uleb128 0x31
 1343 015e 13       		.uleb128 0x13
 1344 015f 00       		.byte	0
 1345 0160 00       		.byte	0
 1346 0161 1D       		.uleb128 0x1d
 1347 0162 898201   		.uleb128 0x4109
 1348 0165 00       		.byte	0
 1349 0166 11       		.uleb128 0x11
 1350 0167 01       		.uleb128 0x1
 1351 0168 9542     		.uleb128 0x2115
 1352 016a 19       		.uleb128 0x19
 1353 016b 31       		.uleb128 0x31
 1354 016c 13       		.uleb128 0x13
 1355 016d 00       		.byte	0
 1356 016e 00       		.byte	0
 1357 016f 1E       		.uleb128 0x1e
 1358 0170 34       		.uleb128 0x34
 1359 0171 00       		.byte	0
 1360 0172 03       		.uleb128 0x3
 1361 0173 0E       		.uleb128 0xe
 1362 0174 3A       		.uleb128 0x3a
 1363 0175 0B       		.uleb128 0xb
 1364 0176 3B       		.uleb128 0x3b
 1365 0177 05       		.uleb128 0x5
 1366 0178 49       		.uleb128 0x49
ARM GAS  /tmp/cc9AkjAW.s 			page 25


 1367 0179 13       		.uleb128 0x13
 1368 017a 3F       		.uleb128 0x3f
 1369 017b 19       		.uleb128 0x19
 1370 017c 3C       		.uleb128 0x3c
 1371 017d 19       		.uleb128 0x19
 1372 017e 00       		.byte	0
 1373 017f 00       		.byte	0
 1374 0180 1F       		.uleb128 0x1f
 1375 0181 34       		.uleb128 0x34
 1376 0182 00       		.byte	0
 1377 0183 03       		.uleb128 0x3
 1378 0184 08       		.uleb128 0x8
 1379 0185 3A       		.uleb128 0x3a
 1380 0186 0B       		.uleb128 0xb
 1381 0187 3B       		.uleb128 0x3b
 1382 0188 05       		.uleb128 0x5
 1383 0189 49       		.uleb128 0x49
 1384 018a 13       		.uleb128 0x13
 1385 018b 3F       		.uleb128 0x3f
 1386 018c 19       		.uleb128 0x19
 1387 018d 3C       		.uleb128 0x3c
 1388 018e 19       		.uleb128 0x19
 1389 018f 00       		.byte	0
 1390 0190 00       		.byte	0
 1391 0191 20       		.uleb128 0x20
 1392 0192 2E       		.uleb128 0x2e
 1393 0193 00       		.byte	0
 1394 0194 3F       		.uleb128 0x3f
 1395 0195 19       		.uleb128 0x19
 1396 0196 03       		.uleb128 0x3
 1397 0197 0E       		.uleb128 0xe
 1398 0198 3A       		.uleb128 0x3a
 1399 0199 0B       		.uleb128 0xb
 1400 019a 3B       		.uleb128 0x3b
 1401 019b 05       		.uleb128 0x5
 1402 019c 27       		.uleb128 0x27
 1403 019d 19       		.uleb128 0x19
 1404 019e 3C       		.uleb128 0x3c
 1405 019f 19       		.uleb128 0x19
 1406 01a0 00       		.byte	0
 1407 01a1 00       		.byte	0
 1408 01a2 21       		.uleb128 0x21
 1409 01a3 2E       		.uleb128 0x2e
 1410 01a4 01       		.byte	0x1
 1411 01a5 3F       		.uleb128 0x3f
 1412 01a6 19       		.uleb128 0x19
 1413 01a7 03       		.uleb128 0x3
 1414 01a8 0E       		.uleb128 0xe
 1415 01a9 3A       		.uleb128 0x3a
 1416 01aa 0B       		.uleb128 0xb
 1417 01ab 3B       		.uleb128 0x3b
 1418 01ac 05       		.uleb128 0x5
 1419 01ad 27       		.uleb128 0x27
 1420 01ae 19       		.uleb128 0x19
 1421 01af 3C       		.uleb128 0x3c
 1422 01b0 19       		.uleb128 0x19
 1423 01b1 01       		.uleb128 0x1
ARM GAS  /tmp/cc9AkjAW.s 			page 26


 1424 01b2 13       		.uleb128 0x13
 1425 01b3 00       		.byte	0
 1426 01b4 00       		.byte	0
 1427 01b5 22       		.uleb128 0x22
 1428 01b6 2E       		.uleb128 0x2e
 1429 01b7 00       		.byte	0
 1430 01b8 3F       		.uleb128 0x3f
 1431 01b9 19       		.uleb128 0x19
 1432 01ba 03       		.uleb128 0x3
 1433 01bb 0E       		.uleb128 0xe
 1434 01bc 3A       		.uleb128 0x3a
 1435 01bd 0B       		.uleb128 0xb
 1436 01be 3B       		.uleb128 0x3b
 1437 01bf 0B       		.uleb128 0xb
 1438 01c0 27       		.uleb128 0x27
 1439 01c1 19       		.uleb128 0x19
 1440 01c2 3C       		.uleb128 0x3c
 1441 01c3 19       		.uleb128 0x19
 1442 01c4 00       		.byte	0
 1443 01c5 00       		.byte	0
 1444 01c6 00       		.byte	0
 1445              		.section	.debug_aranges,"",%progbits
 1446 0000 1C000000 		.4byte	0x1c
 1447 0004 0200     		.2byte	0x2
 1448 0006 00000000 		.4byte	.Ldebug_info0
 1449 000a 04       		.byte	0x4
 1450 000b 00       		.byte	0
 1451 000c 0000     		.2byte	0
 1452 000e 0000     		.2byte	0
 1453 0010 00000000 		.4byte	.LFB267
 1454 0014 24000000 		.4byte	.LFE267-.LFB267
 1455 0018 00000000 		.4byte	0
 1456 001c 00000000 		.4byte	0
 1457              		.section	.debug_ranges,"",%progbits
 1458              	.Ldebug_ranges0:
 1459 0000 00000000 		.4byte	.LFB267
 1460 0004 24000000 		.4byte	.LFE267
 1461 0008 00000000 		.4byte	0
 1462 000c 00000000 		.4byte	0
 1463              		.section	.debug_line,"",%progbits
 1464              	.Ldebug_line0:
 1465 0000 03020000 		.section	.debug_str,"MS",%progbits,1
 1465      0200DF01 
 1465      00000201 
 1465      FB0E0D00 
 1465      01010101 
 1466              	.LASF45:
 1467 0000 72656164 		.ascii	"ready_list_t\000"
 1467      795F6C69 
 1467      73745F74 
 1467      00
 1468              	.LASF115:
 1469 000d 7374496E 		.ascii	"stInit\000"
 1469      697400
 1470              	.LASF88:
 1471 0014 77747472 		.ascii	"wttrp\000"
 1471      7000
ARM GAS  /tmp/cc9AkjAW.s 			page 27


 1472              	.LASF77:
 1473 001a 50544F52 		.ascii	"PTOR\000"
 1473      00
 1474              	.LASF85:
 1475 001f 7264796D 		.ascii	"rdymsg\000"
 1475      736700
 1476              	.LASF9:
 1477 0026 75696E74 		.ascii	"uint64_t\000"
 1477      36345F74 
 1477      00
 1478              	.LASF84:
 1479 002f 706F7274 		.ascii	"port_intctx\000"
 1479      5F696E74 
 1479      63747800 
 1480              	.LASF64:
 1481 003b 73797374 		.ascii	"system_debug_t\000"
 1481      656D5F64 
 1481      65627567 
 1481      5F7400
 1482              	.LASF116:
 1483 004a 474E5520 		.ascii	"GNU C 4.9.2 -mcpu=cortex-m4 -mfloat-abi=soft -mfp16"
 1483      4320342E 
 1483      392E3220 
 1483      2D6D6370 
 1483      753D636F 
 1484 007d 2D666F72 		.ascii	"-format=none -mno-thumb-interwork -mthumb -mfpu=vfp"
 1484      6D61743D 
 1484      6E6F6E65 
 1484      202D6D6E 
 1484      6F2D7468 
 1485 00b0 76332D64 		.ascii	"v3-d16 -mtls-dialect=gnu -ggdb -O2 -fomit-frame-poi"
 1485      3136202D 
 1485      6D746C73 
 1485      2D646961 
 1485      6C656374 
 1486 00e3 6E746572 		.ascii	"nter -falign-functions=16 -ffunction-sections -fdat"
 1486      202D6661 
 1486      6C69676E 
 1486      2D66756E 
 1486      6374696F 
 1487 0116 612D7365 		.ascii	"a-sections -fno-common\000"
 1487      6374696F 
 1487      6E73202D 
 1487      666E6F2D 
 1487      636F6D6D 
 1488              	.LASF10:
 1489 012d 6C6F6E67 		.ascii	"long long unsigned int\000"
 1489      206C6F6E 
 1489      6720756E 
 1489      7369676E 
 1489      65642069 
 1490              	.LASF86:
 1491 0144 65786974 		.ascii	"exitcode\000"
 1491      636F6465 
 1491      00
 1492              	.LASF76:
 1493 014d 50434F52 		.ascii	"PCOR\000"
ARM GAS  /tmp/cc9AkjAW.s 			page 28


 1493      00
 1494              	.LASF61:
 1495 0152 76697274 		.ascii	"virtual_timers_list_t\000"
 1495      75616C5F 
 1495      74696D65 
 1495      72735F6C 
 1495      6973745F 
 1496              	.LASF109:
 1497 0168 49544D5F 		.ascii	"ITM_RxBuffer\000"
 1497      52784275 
 1497      66666572 
 1497      00
 1498              	.LASF44:
 1499 0175 63685F74 		.ascii	"ch_threads_queue\000"
 1499      68726561 
 1499      64735F71 
 1499      75657565 
 1499      00
 1500              	.LASF23:
 1501 0186 705F7072 		.ascii	"p_prio\000"
 1501      696F00
 1502              	.LASF78:
 1503 018d 50444952 		.ascii	"PDIR\000"
 1503      00
 1504              	.LASF3:
 1505 0192 6C6F6E67 		.ascii	"long long int\000"
 1505      206C6F6E 
 1505      6720696E 
 1505      7400
 1506              	.LASF1:
 1507 01a0 7369676E 		.ascii	"signed char\000"
 1507      65642063 
 1507      68617200 
 1508              	.LASF38:
 1509 01ac 705F6D70 		.ascii	"p_mpool\000"
 1509      6F6F6C00 
 1510              	.LASF96:
 1511 01b4 6D5F7175 		.ascii	"m_queue\000"
 1511      65756500 
 1512              	.LASF70:
 1513 01bc 76746C69 		.ascii	"vtlist\000"
 1513      737400
 1514              	.LASF14:
 1515 01c3 74736C69 		.ascii	"tslices_t\000"
 1515      6365735F 
 1515      7400
 1516              	.LASF68:
 1517 01cd 63685F73 		.ascii	"ch_system\000"
 1517      79737465 
 1517      6D00
 1518              	.LASF12:
 1519 01d7 74737461 		.ascii	"tstate_t\000"
 1519      74655F74 
 1519      00
 1520              	.LASF117:
 1521 01e0 2E2E2F6F 		.ascii	"../os/hal/src/hal.c\000"
 1521      732F6861 
ARM GAS  /tmp/cc9AkjAW.s 			page 29


 1521      6C2F7372 
 1521      632F6861 
 1521      6C2E6300 
 1522              	.LASF75:
 1523 01f4 50534F52 		.ascii	"PSOR\000"
 1523      00
 1524              	.LASF25:
 1525 01f9 705F6E65 		.ascii	"p_newer\000"
 1525      77657200 
 1526              	.LASF93:
 1527 0201 735F7175 		.ascii	"s_queue\000"
 1527      65756500 
 1528              	.LASF50:
 1529 0209 725F6E65 		.ascii	"r_newer\000"
 1529      77657200 
 1530              	.LASF81:
 1531 0211 72656761 		.ascii	"regarm_t\000"
 1531      726D5F74 
 1531      00
 1532              	.LASF57:
 1533 021a 76745F70 		.ascii	"vt_prev\000"
 1533      72657600 
 1534              	.LASF104:
 1535 0222 706F7274 		.ascii	"port\000"
 1535      00
 1536              	.LASF100:
 1537 0227 6D757465 		.ascii	"mutex_t\000"
 1537      785F7400 
 1538              	.LASF72:
 1539 022f 69646C65 		.ascii	"idle_thread_wa\000"
 1539      5F746872 
 1539      6561645F 
 1539      776100
 1540              	.LASF18:
 1541 023e 636E745F 		.ascii	"cnt_t\000"
 1541      7400
 1542              	.LASF0:
 1543 0244 756E7369 		.ascii	"unsigned int\000"
 1543      676E6564 
 1543      20696E74 
 1543      00
 1544              	.LASF56:
 1545 0251 76745F6E 		.ascii	"vt_next\000"
 1545      65787400 
 1546              	.LASF89:
 1547 0259 77747365 		.ascii	"wtsemp\000"
 1547      6D7000
 1548              	.LASF33:
 1549 0260 705F6D73 		.ascii	"p_msgqueue\000"
 1549      67717565 
 1549      756500
 1550              	.LASF80:
 1551 026b 4750494F 		.ascii	"GPIO_TypeDef\000"
 1551      5F547970 
 1551      65446566 
 1551      00
 1552              	.LASF120:
ARM GAS  /tmp/cc9AkjAW.s 			page 30


 1553 0278 68616C49 		.ascii	"halInit\000"
 1553      6E697400 
 1554              	.LASF94:
 1555 0280 735F636E 		.ascii	"s_cnt\000"
 1555      7400
 1556              	.LASF7:
 1557 0286 73686F72 		.ascii	"short unsigned int\000"
 1557      7420756E 
 1557      7369676E 
 1557      65642069 
 1557      6E7400
 1558              	.LASF41:
 1559 0299 63685F74 		.ascii	"ch_thread\000"
 1559      68726561 
 1559      6400
 1560              	.LASF71:
 1561 02a3 6D61696E 		.ascii	"mainthread\000"
 1561      74687265 
 1561      616400
 1562              	.LASF16:
 1563 02ae 6D73675F 		.ascii	"msg_t\000"
 1563      7400
 1564              	.LASF67:
 1565 02b4 63685F73 		.ascii	"ch_system_t\000"
 1565      79737465 
 1565      6D5F7400 
 1566              	.LASF11:
 1567 02c0 746D6F64 		.ascii	"tmode_t\000"
 1567      655F7400 
 1568              	.LASF46:
 1569 02c8 63685F72 		.ascii	"ch_ready_list\000"
 1569      65616479 
 1569      5F6C6973 
 1569      7400
 1570              	.LASF17:
 1571 02d6 6576656E 		.ascii	"eventmask_t\000"
 1571      746D6173 
 1571      6B5F7400 
 1572              	.LASF82:
 1573 02e2 73746B61 		.ascii	"stkalign_t\000"
 1573      6C69676E 
 1573      5F7400
 1574              	.LASF40:
 1575 02ed 74687265 		.ascii	"threads_list_t\000"
 1575      6164735F 
 1575      6C697374 
 1575      5F7400
 1576              	.LASF79:
 1577 02fc 50444452 		.ascii	"PDDR\000"
 1577      00
 1578              	.LASF32:
 1579 0301 705F7761 		.ascii	"p_waiting\000"
 1579      6974696E 
 1579      6700
 1580              	.LASF73:
 1581 030b 73697A65 		.ascii	"sizetype\000"
 1581      74797065 
ARM GAS  /tmp/cc9AkjAW.s 			page 31


 1581      00
 1582              	.LASF39:
 1583 0314 74687265 		.ascii	"thread_reference_t\000"
 1583      61645F72 
 1583      65666572 
 1583      656E6365 
 1583      5F7400
 1584              	.LASF107:
 1585 0327 706F7274 		.ascii	"ports\000"
 1585      7300
 1586              	.LASF62:
 1587 032d 63685F76 		.ascii	"ch_virtual_timers_list\000"
 1587      69727475 
 1587      616C5F74 
 1587      696D6572 
 1587      735F6C69 
 1588              	.LASF26:
 1589 0344 705F6F6C 		.ascii	"p_older\000"
 1589      64657200 
 1590              	.LASF49:
 1591 034c 725F6374 		.ascii	"r_ctx\000"
 1591      7800
 1592              	.LASF106:
 1593 0352 506F7274 		.ascii	"PortConfig\000"
 1593      436F6E66 
 1593      696700
 1594              	.LASF52:
 1595 035d 725F6375 		.ascii	"r_current\000"
 1595      7272656E 
 1595      7400
 1596              	.LASF51:
 1597 0367 725F6F6C 		.ascii	"r_older\000"
 1597      64657200 
 1598              	.LASF13:
 1599 036f 74726566 		.ascii	"trefs_t\000"
 1599      735F7400 
 1600              	.LASF54:
 1601 0377 76697274 		.ascii	"virtual_timer_t\000"
 1601      75616C5F 
 1601      74696D65 
 1601      725F7400 
 1602              	.LASF22:
 1603 0387 705F7072 		.ascii	"p_prev\000"
 1603      657600
 1604              	.LASF119:
 1605 038e 6F73616C 		.ascii	"osalInit\000"
 1605      496E6974 
 1605      00
 1606              	.LASF15:
 1607 0397 74707269 		.ascii	"tprio_t\000"
 1607      6F5F7400 
 1608              	.LASF65:
 1609 039f 63685F73 		.ascii	"ch_system_debug\000"
 1609      79737465 
 1609      6D5F6465 
 1609      62756700 
 1610              	.LASF101:
ARM GAS  /tmp/cc9AkjAW.s 			page 32


 1611 03af 5F426F6F 		.ascii	"_Bool\000"
 1611      6C00
 1612              	.LASF4:
 1613 03b5 696E7433 		.ascii	"int32_t\000"
 1613      325F7400 
 1614              	.LASF6:
 1615 03bd 756E7369 		.ascii	"unsigned char\000"
 1615      676E6564 
 1615      20636861 
 1615      7200
 1616              	.LASF112:
 1617 03cb 65787449 		.ascii	"extInit\000"
 1617      6E697400 
 1618              	.LASF36:
 1619 03d3 705F6D74 		.ascii	"p_mtxlist\000"
 1619      786C6973 
 1619      7400
 1620              	.LASF2:
 1621 03dd 73686F72 		.ascii	"short int\000"
 1621      7420696E 
 1621      7400
 1622              	.LASF28:
 1623 03e7 705F7374 		.ascii	"p_state\000"
 1623      61746500 
 1624              	.LASF31:
 1625 03ef 705F7072 		.ascii	"p_preempt\000"
 1625      65656D70 
 1625      7400
 1626              	.LASF48:
 1627 03f9 725F7072 		.ascii	"r_prio\000"
 1627      696F00
 1628              	.LASF91:
 1629 0400 65776D61 		.ascii	"ewmask\000"
 1629      736B00
 1630              	.LASF21:
 1631 0407 705F6E65 		.ascii	"p_next\000"
 1631      787400
 1632              	.LASF29:
 1633 040e 705F666C 		.ascii	"p_flags\000"
 1633      61677300 
 1634              	.LASF55:
 1635 0416 63685F76 		.ascii	"ch_virtual_timer\000"
 1635      69727475 
 1635      616C5F74 
 1635      696D6572 
 1635      00
 1636              	.LASF92:
 1637 0427 63685F73 		.ascii	"ch_semaphore\000"
 1637      656D6170 
 1637      686F7265 
 1637      00
 1638              	.LASF35:
 1639 0434 705F6570 		.ascii	"p_epending\000"
 1639      656E6469 
 1639      6E6700
 1640              	.LASF8:
 1641 043f 75696E74 		.ascii	"uint32_t\000"
ARM GAS  /tmp/cc9AkjAW.s 			page 33


 1641      33325F74 
 1641      00
 1642              	.LASF90:
 1643 0448 77746D74 		.ascii	"wtmtxp\000"
 1643      787000
 1644              	.LASF47:
 1645 044f 725F7175 		.ascii	"r_queue\000"
 1645      65756500 
 1646              	.LASF58:
 1647 0457 76745F64 		.ascii	"vt_delta\000"
 1647      656C7461 
 1647      00
 1648              	.LASF42:
 1649 0460 63685F74 		.ascii	"ch_threads_list\000"
 1649      68726561 
 1649      64735F6C 
 1649      69737400 
 1650              	.LASF99:
 1651 0470 63686172 		.ascii	"char\000"
 1651      00
 1652              	.LASF118:
 1653 0475 2F686F6D 		.ascii	"/home/bunnie/code/chibios-netvcr/netvcr\000"
 1653      652F6275 
 1653      6E6E6965 
 1653      2F636F64 
 1653      652F6368 
 1654              	.LASF20:
 1655 049d 74687265 		.ascii	"thread_t\000"
 1655      61645F74 
 1655      00
 1656              	.LASF98:
 1657 04a6 6D5F6E65 		.ascii	"m_next\000"
 1657      787400
 1658              	.LASF19:
 1659 04ad 73797374 		.ascii	"systime_t\000"
 1659      696D655F 
 1659      7400
 1660              	.LASF37:
 1661 04b7 705F7265 		.ascii	"p_realprio\000"
 1661      616C7072 
 1661      696F00
 1662              	.LASF53:
 1663 04c2 76746675 		.ascii	"vtfunc_t\000"
 1663      6E635F74 
 1663      00
 1664              	.LASF66:
 1665 04cb 70616E69 		.ascii	"panic_msg\000"
 1665      635F6D73 
 1665      6700
 1666              	.LASF103:
 1667 04d5 696F706F 		.ascii	"ioportid_t\000"
 1667      72746964 
 1667      5F7400
 1668              	.LASF83:
 1669 04e0 636F6E74 		.ascii	"context\000"
 1669      65787400 
 1670              	.LASF111:
ARM GAS  /tmp/cc9AkjAW.s 			page 34


 1671 04e8 68616C5F 		.ascii	"hal_lld_init\000"
 1671      6C6C645F 
 1671      696E6974 
 1671      00
 1672              	.LASF60:
 1673 04f5 76745F70 		.ascii	"vt_par\000"
 1673      617200
 1674              	.LASF43:
 1675 04fc 74687265 		.ascii	"threads_queue_t\000"
 1675      6164735F 
 1675      71756575 
 1675      655F7400 
 1676              	.LASF95:
 1677 050c 63685F6D 		.ascii	"ch_mutex\000"
 1677      75746578 
 1677      00
 1678              	.LASF30:
 1679 0515 705F7265 		.ascii	"p_refs\000"
 1679      667300
 1680              	.LASF121:
 1681 051c 5F70616C 		.ascii	"_pal_lld_init\000"
 1681      5F6C6C64 
 1681      5F696E69 
 1681      7400
 1682              	.LASF114:
 1683 052a 626F6172 		.ascii	"boardInit\000"
 1683      64496E69 
 1683      7400
 1684              	.LASF69:
 1685 0534 726C6973 		.ascii	"rlist\000"
 1685      7400
 1686              	.LASF5:
 1687 053a 75696E74 		.ascii	"uint8_t\000"
 1687      385F7400 
 1688              	.LASF74:
 1689 0542 50444F52 		.ascii	"PDOR\000"
 1689      00
 1690              	.LASF87:
 1691 0547 77746F62 		.ascii	"wtobjp\000"
 1691      6A7000
 1692              	.LASF27:
 1693 054e 705F6E61 		.ascii	"p_name\000"
 1693      6D6500
 1694              	.LASF63:
 1695 0555 76745F73 		.ascii	"vt_systime\000"
 1695      79737469 
 1695      6D6500
 1696              	.LASF34:
 1697 0560 705F6D73 		.ascii	"p_msg\000"
 1697      6700
 1698              	.LASF113:
 1699 0566 7364496E 		.ascii	"sdInit\000"
 1699      697400
 1700              	.LASF102:
 1701 056d 696F6D6F 		.ascii	"iomode_t\000"
 1701      64655F74 
 1701      00
ARM GAS  /tmp/cc9AkjAW.s 			page 35


 1702              	.LASF108:
 1703 0576 50414C43 		.ascii	"PALConfig\000"
 1703      6F6E6669 
 1703      6700
 1704              	.LASF97:
 1705 0580 6D5F6F77 		.ascii	"m_owner\000"
 1705      6E657200 
 1706              	.LASF110:
 1707 0588 70616C5F 		.ascii	"pal_default_config\000"
 1707      64656661 
 1707      756C745F 
 1707      636F6E66 
 1707      696700
 1708              	.LASF24:
 1709 059b 705F6374 		.ascii	"p_ctx\000"
 1709      7800
 1710              	.LASF59:
 1711 05a1 76745F66 		.ascii	"vt_func\000"
 1711      756E6300 
 1712              	.LASF105:
 1713 05a9 70616473 		.ascii	"pads\000"
 1713      00
 1714              		.ident	"GCC: (Debian 4.9.2-10) 4.9.2"
 1715              		.section	.note.GNU-stack,"",%progbits
ARM GAS  /tmp/cc9AkjAW.s 			page 36


DEFINED SYMBOLS
                            *ABS*:00000000 hal.c
     /tmp/cc9AkjAW.s:19     .text.halInit:00000000 $t
     /tmp/cc9AkjAW.s:25     .text.halInit:00000000 halInit
     /tmp/cc9AkjAW.s:63     .text.halInit:00000020 $d
                     .debug_frame:00000010 $d
     /tmp/cc9AkjAW.s:67     .text.halInit:00000024 $t

UNDEFINED SYMBOLS
hal_lld_init
_pal_lld_init
extInit
sdInit
boardInit
stInit
pal_default_config
