ARM GAS  /tmp/cc9AkjAW.s 			page 1


   1              		.syntax unified
   2              		.cpu cortex-m4
   3              		.fpu softvfp
   4              		.eabi_attribute 20, 1
   5              		.eabi_attribute 21, 1
   6              		.eabi_attribute 23, 3
   7              		.eabi_attribute 24, 1
   8              		.eabi_attribute 25, 1
   9              		.eabi_attribute 26, 2
  10              		.eabi_attribute 30, 2
  11              		.eabi_attribute 34, 1
  12              		.eabi_attribute 18, 4
  13              		.thumb
  14              		.file	"hal.c"
  15              		.text
  16              	.Ltext0:
  17              		.cfi_sections	.debug_frame
  18              		.section	.text.halInit,"ax",%progbits
  19              		.align	2
  20              		.p2align 4,,15
  21              		.global	halInit
  22              		.thumb
  23              		.thumb_func
  24              		.type	halInit, %function
  25              	halInit:
  26              	.LFB267:
  27              		.file 1 "../os/hal/src/hal.c"
  28              		.loc 1 56 0
  29              		.cfi_startproc
  30              		@ args = 0, pretend = 0, frame = 0
  31              		@ frame_needed = 0, uses_anonymous_args = 0
  32 0000 08B5     		push	{r3, lr}
  33              		.cfi_def_cfa_offset 8
  34              		.cfi_offset 3, -8
  35              		.cfi_offset 14, -4
  36              		.loc 1 62 0
  37 0002 FFF7FEFF 		bl	hal_lld_init
  38              	.LVL0:
  39              		.loc 1 65 0
  40 0006 0648     		ldr	r0, .L3
  41 0008 FFF7FEFF 		bl	_pal_lld_init
  42              	.LVL1:
  43              		.loc 1 77 0
  44 000c FFF7FEFF 		bl	extInit
  45              	.LVL2:
  46              		.loc 1 98 0
  47 0010 FFF7FEFF 		bl	sdInit
  48              	.LVL3:
  49              		.loc 1 133 0
  50 0014 FFF7FEFF 		bl	boardInit
  51              	.LVL4:
  52              		.loc 1 142 0
  53 0018 BDE80840 		pop	{r3, lr}
  54              		.cfi_restore 14
  55              		.cfi_restore 3
  56              		.cfi_def_cfa_offset 0
  57              		.loc 1 140 0
ARM GAS  /tmp/cc9AkjAW.s 			page 2


  58 001c FFF7FEBF 		b	stInit
  59              	.LVL5:
  60              	.L4:
  61              		.align	2
  62              	.L3:
  63 0020 00000000 		.word	pal_default_config
  64              		.cfi_endproc
  65              	.LFE267:
  66              		.size	halInit, .-halInit
  67 0024 AFF30080 		.text
  67      AFF30080 
  67      AFF30080 
  68              	.Letext0:
  69              		.file 2 "/usr/include/stdint.h"
  70              		.file 3 "../os/rt/ports/ARMCMx/compilers/GCC/chtypes.h"
  71              		.file 4 "../os/rt/include/chsystypes.h"
  72              		.file 5 "../os/rt/include/chschd.h"
  73              		.file 6 "../os/ext/CMSIS/KINETIS/mk20d5.h"
  74              		.file 7 "../os/rt/ports/ARMCMx/chcore.h"
  75              		.file 8 "../os/rt/ports/ARMCMx/chcore_v7m.h"
  76              		.file 9 "../os/rt/include/chsem.h"
  77              		.file 10 "../os/rt/include/chmtx.h"
  78              		.file 11 "../os/hal/ports/KINETIS/K20x/pal_lld.h"
  79              		.file 12 "../os/ext/CMSIS/include/core_cm4.h"
  80              		.file 13 "../os/hal/ports/KINETIS/K20x/hal_lld.h"
  81              		.file 14 "../os/hal/include/ext.h"
  82              		.file 15 "../os/hal/include/serial.h"
  83              		.file 16 "../os/hal/boards/KOSAGI_NETVCR/board.h"
  84              		.file 17 "../os/hal/include/st.h"
  85              		.file 18 "../os/hal/osal/rt/osal.h"
 1715              		.section	.note.GNU-stack,"",%progbits
ARM GAS  /tmp/cc9AkjAW.s 			page 36

