ARM GAS  /tmp/ccGeb85Q.s 			page 1


   1              		.syntax unified
   2              		.cpu cortex-m4
   3              		.fpu softvfp
   4              		.eabi_attribute 20, 1
   5              		.eabi_attribute 21, 1
   6              		.eabi_attribute 23, 3
   7              		.eabi_attribute 24, 1
   8              		.eabi_attribute 25, 1
   9              		.eabi_attribute 26, 2
  10              		.eabi_attribute 30, 2
  11              		.eabi_attribute 34, 1
  12              		.eabi_attribute 18, 4
  13              		.thumb
  14              		.file	"memstreams.c"
  15              		.text
  16              	.Ltext0:
  17              		.cfi_sections	.debug_frame
  18              		.section	.text.put,"ax",%progbits
  19              		.align	2
  20              		.p2align 4,,15
  21              		.thumb
  22              		.thumb_func
  23              		.type	put, %function
  24              	put:
  25              	.LFB281:
  26              		.file 1 "../os/hal/lib/streams/memstreams.c"
  27              		.loc 1 66 0
  28              		.cfi_startproc
  29              		@ args = 0, pretend = 0, frame = 0
  30              		@ frame_needed = 0, uses_anonymous_args = 0
  31              		@ link register save eliminated.
  32              	.LVL0:
  33              		.loc 1 69 0
  34 0000 C368     		ldr	r3, [r0, #12]
  35 0002 8268     		ldr	r2, [r0, #8]
  36 0004 9A42     		cmp	r2, r3
  37 0006 06D0     		beq	.L3
  38              		.loc 1 71 0
  39 0008 4268     		ldr	r2, [r0, #4]
  40 000a D154     		strb	r1, [r2, r3]
  41              		.loc 1 72 0
  42 000c C368     		ldr	r3, [r0, #12]
  43 000e 0133     		adds	r3, r3, #1
  44 0010 C360     		str	r3, [r0, #12]
  45              		.loc 1 73 0
  46 0012 0020     		movs	r0, #0
  47              	.LVL1:
  48 0014 7047     		bx	lr
  49              	.LVL2:
  50              	.L3:
  51              		.loc 1 70 0
  52 0016 6FF00100 		mvn	r0, #1
  53              	.LVL3:
  54              		.loc 1 74 0
  55 001a 7047     		bx	lr
  56              		.cfi_endproc
  57              	.LFE281:
ARM GAS  /tmp/ccGeb85Q.s 			page 2


  58              		.size	put, .-put
  59 001c AFF30080 		.section	.text.get,"ax",%progbits
  60              		.align	2
  61              		.p2align 4,,15
  62              		.thumb
  63              		.thumb_func
  64              		.type	get, %function
  65              	get:
  66              	.LFB282:
  67              		.loc 1 76 0
  68              		.cfi_startproc
  69              		@ args = 0, pretend = 0, frame = 0
  70              		@ frame_needed = 0, uses_anonymous_args = 0
  71              		@ link register save eliminated.
  72              	.LVL4:
  73              		.loc 1 80 0
  74 0000 0369     		ldr	r3, [r0, #16]
  75 0002 C168     		ldr	r1, [r0, #12]
  76 0004 9942     		cmp	r1, r3
  77              		.loc 1 76 0
  78 0006 0246     		mov	r2, r0
  79              	.LVL5:
  80              		.loc 1 80 0
  81 0008 04D0     		beq	.L7
  82              		.loc 1 82 0
  83 000a 4168     		ldr	r1, [r0, #4]
  84 000c C85C     		ldrb	r0, [r1, r3]	@ zero_extendqisi2
  85              	.LVL6:
  86              		.loc 1 83 0
  87 000e 0133     		adds	r3, r3, #1
  88 0010 1361     		str	r3, [r2, #16]
  89              		.loc 1 84 0
  90 0012 7047     		bx	lr
  91              	.LVL7:
  92              	.L7:
  93              		.loc 1 81 0
  94 0014 6FF00100 		mvn	r0, #1
  95              	.LVL8:
  96              		.loc 1 85 0
  97 0018 7047     		bx	lr
  98              		.cfi_endproc
  99              	.LFE282:
 100              		.size	get, .-get
 101 001a 00BFAFF3 		.section	.text.reads,"ax",%progbits
 101      0080
 102              		.align	2
 103              		.p2align 4,,15
 104              		.thumb
 105              		.thumb_func
 106              		.type	reads, %function
 107              	reads:
 108              	.LFB280:
 109              		.loc 1 56 0
 110              		.cfi_startproc
 111              		@ args = 0, pretend = 0, frame = 0
 112              		@ frame_needed = 0, uses_anonymous_args = 0
 113              	.LVL9:
ARM GAS  /tmp/ccGeb85Q.s 			page 3


 114 0000 38B5     		push	{r3, r4, r5, lr}
 115              		.cfi_def_cfa_offset 16
 116              		.cfi_offset 3, -16
 117              		.cfi_offset 4, -12
 118              		.cfi_offset 5, -8
 119              		.cfi_offset 14, -4
 120              		.loc 1 56 0
 121 0002 0546     		mov	r5, r0
 122              	.LVL10:
 123              		.loc 1 61 0
 124 0004 0846     		mov	r0, r1
 125              	.LVL11:
 126              		.loc 1 59 0
 127 0006 2B69     		ldr	r3, [r5, #16]
 128 0008 EC68     		ldr	r4, [r5, #12]
 129              		.loc 1 61 0
 130 000a 6968     		ldr	r1, [r5, #4]
 131              	.LVL12:
 132              		.loc 1 59 0
 133 000c E41A     		subs	r4, r4, r3
 134 000e 9442     		cmp	r4, r2
 135 0010 28BF     		it	cs
 136 0012 1446     		movcs	r4, r2
 137              	.LVL13:
 138              		.loc 1 61 0
 139 0014 1944     		add	r1, r1, r3
 140 0016 2246     		mov	r2, r4
 141 0018 FFF7FEFF 		bl	memcpy
 142              	.LVL14:
 143              		.loc 1 62 0
 144 001c 2B69     		ldr	r3, [r5, #16]
 145 001e 2344     		add	r3, r3, r4
 146 0020 2B61     		str	r3, [r5, #16]
 147              		.loc 1 64 0
 148 0022 2046     		mov	r0, r4
 149 0024 38BD     		pop	{r3, r4, r5, pc}
 150              		.cfi_endproc
 151              	.LFE280:
 152              		.size	reads, .-reads
 153 0026 00BFAFF3 		.section	.text.writes,"ax",%progbits
 153      0080AFF3 
 153      0080
 154              		.align	2
 155              		.p2align 4,,15
 156              		.thumb
 157              		.thumb_func
 158              		.type	writes, %function
 159              	writes:
 160              	.LFB279:
 161              		.loc 1 46 0
 162              		.cfi_startproc
 163              		@ args = 0, pretend = 0, frame = 0
 164              		@ frame_needed = 0, uses_anonymous_args = 0
 165              	.LVL15:
 166 0000 38B5     		push	{r3, r4, r5, lr}
 167              		.cfi_def_cfa_offset 16
 168              		.cfi_offset 3, -16
ARM GAS  /tmp/ccGeb85Q.s 			page 4


 169              		.cfi_offset 4, -12
 170              		.cfi_offset 5, -8
 171              		.cfi_offset 14, -4
 172              		.loc 1 49 0
 173 0002 C368     		ldr	r3, [r0, #12]
 174 0004 8468     		ldr	r4, [r0, #8]
 175 0006 E41A     		subs	r4, r4, r3
 176              		.loc 1 46 0
 177 0008 0546     		mov	r5, r0
 178              	.LVL16:
 179 000a 9442     		cmp	r4, r2
 180              		.loc 1 51 0
 181 000c 4068     		ldr	r0, [r0, #4]
 182              	.LVL17:
 183 000e 28BF     		it	cs
 184 0010 1446     		movcs	r4, r2
 185              	.LVL18:
 186 0012 1844     		add	r0, r0, r3
 187 0014 2246     		mov	r2, r4
 188 0016 FFF7FEFF 		bl	memcpy
 189              	.LVL19:
 190              		.loc 1 52 0
 191 001a EB68     		ldr	r3, [r5, #12]
 192 001c 2344     		add	r3, r3, r4
 193 001e EB60     		str	r3, [r5, #12]
 194              		.loc 1 54 0
 195 0020 2046     		mov	r0, r4
 196 0022 38BD     		pop	{r3, r4, r5, pc}
 197              		.cfi_endproc
 198              	.LFE279:
 199              		.size	writes, .-writes
 200 0024 AFF30080 		.section	.text.msObjectInit,"ax",%progbits
 200      AFF30080 
 200      AFF30080 
 201              		.align	2
 202              		.p2align 4,,15
 203              		.global	msObjectInit
 204              		.thumb
 205              		.thumb_func
 206              		.type	msObjectInit, %function
 207              	msObjectInit:
 208              	.LFB283:
 209              		.loc 1 104 0
 210              		.cfi_startproc
 211              		@ args = 0, pretend = 0, frame = 0
 212              		@ frame_needed = 0, uses_anonymous_args = 0
 213              		@ link register save eliminated.
 214              	.LVL20:
 215 0000 10B4     		push	{r4}
 216              		.cfi_def_cfa_offset 4
 217              		.cfi_offset 4, -4
 218              		.loc 1 107 0
 219 0002 4160     		str	r1, [r0, #4]
 220              		.loc 1 106 0
 221 0004 044C     		ldr	r4, .L14
 222 0006 0460     		str	r4, [r0]
 223              		.loc 1 110 0
ARM GAS  /tmp/ccGeb85Q.s 			page 5


 224 0008 0021     		movs	r1, #0
 225              	.LVL21:
 226              		.loc 1 108 0
 227 000a 8260     		str	r2, [r0, #8]
 228              		.loc 1 109 0
 229 000c C360     		str	r3, [r0, #12]
 230              		.loc 1 110 0
 231 000e 0161     		str	r1, [r0, #16]
 232              		.loc 1 111 0
 233 0010 5DF8044B 		ldr	r4, [sp], #4
 234              		.cfi_restore 4
 235              		.cfi_def_cfa_offset 0
 236 0014 7047     		bx	lr
 237              	.L15:
 238 0016 00BF     		.align	2
 239              	.L14:
 240 0018 00000000 		.word	.LANCHOR0
 241              		.cfi_endproc
 242              	.LFE283:
 243              		.size	msObjectInit, .-msObjectInit
 244              		.section	.rodata.vmt,"a",%progbits
 245              		.align	2
 246              	.LANCHOR0 = . + 0
 247              		.type	vmt, %object
 248              		.size	vmt, 16
 249              	vmt:
 250 0000 00000000 		.word	writes
 251 0004 00000000 		.word	reads
 252 0008 00000000 		.word	put
 253 000c 00000000 		.word	get
 254              		.text
 255              	.Letext0:
 256              		.file 2 "/usr/lib/gcc/arm-linux-gnueabihf/4.9/include/stddef.h"
 257              		.file 3 "/usr/include/stdint.h"
 258              		.file 4 "../os/rt/ports/ARMCMx/compilers/GCC/chtypes.h"
 259              		.file 5 "../os/rt/include/chsystypes.h"
 260              		.file 6 "../os/rt/include/chschd.h"
 261              		.file 7 "../os/rt/ports/ARMCMx/chcore.h"
 262              		.file 8 "../os/rt/ports/ARMCMx/chcore_v7m.h"
 263              		.file 9 "../os/rt/include/chsem.h"
 264              		.file 10 "../os/rt/include/chmtx.h"
 265              		.file 11 "../os/hal/lib/streams/memstreams.h"
 266              		.file 12 "../os/ext/CMSIS/include/core_cm4.h"
 267              		.section	.debug_info,"",%progbits
 268              	.Ldebug_info0:
 269 0000 E1080000 		.4byte	0x8e1
 270 0004 0400     		.2byte	0x4
 271 0006 00000000 		.4byte	.Ldebug_abbrev0
 272 000a 04       		.byte	0x4
 273 000b 01       		.uleb128 0x1
 274 000c 56000000 		.4byte	.LASF106
 275 0010 01       		.byte	0x1
 276 0011 F5020000 		.4byte	.LASF107
 277 0015 88040000 		.4byte	.LASF108
 278 0019 00000000 		.4byte	.Ldebug_ranges0+0
 279 001d 00000000 		.4byte	0
 280 0021 00000000 		.4byte	.Ldebug_line0
ARM GAS  /tmp/ccGeb85Q.s 			page 6


 281 0025 02       		.uleb128 0x2
 282 0026 24000000 		.4byte	.LASF7
 283 002a 02       		.byte	0x2
 284 002b D4       		.byte	0xd4
 285 002c 30000000 		.4byte	0x30
 286 0030 03       		.uleb128 0x3
 287 0031 04       		.byte	0x4
 288 0032 07       		.byte	0x7
 289 0033 4D020000 		.4byte	.LASF0
 290 0037 03       		.uleb128 0x3
 291 0038 04       		.byte	0x4
 292 0039 07       		.byte	0x7
 293 003a 22030000 		.4byte	.LASF1
 294 003e 03       		.uleb128 0x3
 295 003f 02       		.byte	0x2
 296 0040 07       		.byte	0x7
 297 0041 7F020000 		.4byte	.LASF2
 298 0045 04       		.uleb128 0x4
 299 0046 04       		.byte	0x4
 300 0047 05       		.byte	0x5
 301 0048 696E7400 		.ascii	"int\000"
 302 004c 05       		.uleb128 0x5
 303 004d 04       		.byte	0x4
 304 004e 52000000 		.4byte	0x52
 305 0052 06       		.uleb128 0x6
 306 0053 57000000 		.4byte	0x57
 307 0057 03       		.uleb128 0x3
 308 0058 01       		.byte	0x1
 309 0059 08       		.byte	0x8
 310 005a 7E040000 		.4byte	.LASF3
 311 005e 03       		.uleb128 0x3
 312 005f 01       		.byte	0x1
 313 0060 08       		.byte	0x8
 314 0061 CC030000 		.4byte	.LASF4
 315 0065 03       		.uleb128 0x3
 316 0066 01       		.byte	0x1
 317 0067 06       		.byte	0x6
 318 0068 B3010000 		.4byte	.LASF5
 319 006c 03       		.uleb128 0x3
 320 006d 02       		.byte	0x2
 321 006e 05       		.byte	0x5
 322 006f EC030000 		.4byte	.LASF6
 323 0073 02       		.uleb128 0x2
 324 0074 C4030000 		.4byte	.LASF8
 325 0078 03       		.byte	0x3
 326 0079 26       		.byte	0x26
 327 007a 45000000 		.4byte	0x45
 328 007e 03       		.uleb128 0x3
 329 007f 08       		.byte	0x8
 330 0080 05       		.byte	0x5
 331 0081 A5010000 		.4byte	.LASF9
 332 0085 02       		.uleb128 0x2
 333 0086 24050000 		.4byte	.LASF10
 334 008a 03       		.byte	0x3
 335 008b 30       		.byte	0x30
 336 008c 5E000000 		.4byte	0x5e
 337 0090 02       		.uleb128 0x2
ARM GAS  /tmp/ccGeb85Q.s 			page 7


 338 0091 4D040000 		.4byte	.LASF11
 339 0095 03       		.byte	0x3
 340 0096 33       		.byte	0x33
 341 0097 30000000 		.4byte	0x30
 342 009b 02       		.uleb128 0x2
 343 009c 32000000 		.4byte	.LASF12
 344 00a0 03       		.byte	0x3
 345 00a1 3A       		.byte	0x3a
 346 00a2 A6000000 		.4byte	0xa6
 347 00a6 03       		.uleb128 0x3
 348 00a7 08       		.byte	0x8
 349 00a8 07       		.byte	0x7
 350 00a9 39010000 		.4byte	.LASF13
 351 00ad 02       		.uleb128 0x2
 352 00ae B5020000 		.4byte	.LASF14
 353 00b2 04       		.byte	0x4
 354 00b3 3C       		.byte	0x3c
 355 00b4 85000000 		.4byte	0x85
 356 00b8 02       		.uleb128 0x2
 357 00b9 F0010000 		.4byte	.LASF15
 358 00bd 04       		.byte	0x4
 359 00be 3D       		.byte	0x3d
 360 00bf 85000000 		.4byte	0x85
 361 00c3 02       		.uleb128 0x2
 362 00c4 0F000000 		.4byte	.LASF16
 363 00c8 04       		.byte	0x4
 364 00c9 3E       		.byte	0x3e
 365 00ca 85000000 		.4byte	0x85
 366 00ce 02       		.uleb128 0x2
 367 00cf D6010000 		.4byte	.LASF17
 368 00d3 04       		.byte	0x4
 369 00d4 3F       		.byte	0x3f
 370 00d5 85000000 		.4byte	0x85
 371 00d9 02       		.uleb128 0x2
 372 00da 99030000 		.4byte	.LASF18
 373 00de 04       		.byte	0x4
 374 00df 40       		.byte	0x40
 375 00e0 90000000 		.4byte	0x90
 376 00e4 02       		.uleb128 0x2
 377 00e5 9C020000 		.4byte	.LASF19
 378 00e9 04       		.byte	0x4
 379 00ea 41       		.byte	0x41
 380 00eb 73000000 		.4byte	0x73
 381 00ef 02       		.uleb128 0x2
 382 00f0 CB020000 		.4byte	.LASF20
 383 00f4 04       		.byte	0x4
 384 00f5 43       		.byte	0x43
 385 00f6 90000000 		.4byte	0x90
 386 00fa 02       		.uleb128 0x2
 387 00fb 47020000 		.4byte	.LASF21
 388 00ff 04       		.byte	0x4
 389 0100 45       		.byte	0x45
 390 0101 73000000 		.4byte	0x73
 391 0105 02       		.uleb128 0x2
 392 0106 C0040000 		.4byte	.LASF22
 393 010a 05       		.byte	0x5
 394 010b 33       		.byte	0x33
ARM GAS  /tmp/ccGeb85Q.s 			page 8


 395 010c 90000000 		.4byte	0x90
 396 0110 02       		.uleb128 0x2
 397 0111 B0040000 		.4byte	.LASF23
 398 0115 05       		.byte	0x5
 399 0116 3F       		.byte	0x3f
 400 0117 1B010000 		.4byte	0x11b
 401 011b 07       		.uleb128 0x7
 402 011c 92020000 		.4byte	.LASF44
 403 0120 44       		.byte	0x44
 404 0121 06       		.byte	0x6
 405 0122 C2       		.byte	0xc2
 406 0123 14020000 		.4byte	0x214
 407 0127 08       		.uleb128 0x8
 408 0128 0E040000 		.4byte	.LASF24
 409 012c 06       		.byte	0x6
 410 012d C3       		.byte	0xc3
 411 012e 1F020000 		.4byte	0x21f
 412 0132 00       		.byte	0
 413 0133 08       		.uleb128 0x8
 414 0134 92030000 		.4byte	.LASF25
 415 0138 06       		.byte	0x6
 416 0139 C5       		.byte	0xc5
 417 013a 1F020000 		.4byte	0x21f
 418 013e 04       		.byte	0x4
 419 013f 08       		.uleb128 0x8
 420 0140 98010000 		.4byte	.LASF26
 421 0144 06       		.byte	0x6
 422 0145 C7       		.byte	0xc7
 423 0146 D9000000 		.4byte	0xd9
 424 014a 08       		.byte	0x8
 425 014b 08       		.uleb128 0x8
 426 014c 4C050000 		.4byte	.LASF27
 427 0150 06       		.byte	0x6
 428 0151 C8       		.byte	0xc8
 429 0152 3C040000 		.4byte	0x43c
 430 0156 0C       		.byte	0xc
 431 0157 08       		.uleb128 0x8
 432 0158 07020000 		.4byte	.LASF28
 433 015c 06       		.byte	0x6
 434 015d CA       		.byte	0xca
 435 015e 1F020000 		.4byte	0x21f
 436 0162 10       		.byte	0x10
 437 0163 08       		.uleb128 0x8
 438 0164 55030000 		.4byte	.LASF29
 439 0168 06       		.byte	0x6
 440 0169 CB       		.byte	0xcb
 441 016a 1F020000 		.4byte	0x21f
 442 016e 14       		.byte	0x14
 443 016f 08       		.uleb128 0x8
 444 0170 1D040000 		.4byte	.LASF30
 445 0174 06       		.byte	0x6
 446 0175 D2       		.byte	0xd2
 447 0176 4C000000 		.4byte	0x4c
 448 017a 18       		.byte	0x18
 449 017b 08       		.uleb128 0x8
 450 017c DA030000 		.4byte	.LASF31
 451 0180 06       		.byte	0x6
ARM GAS  /tmp/ccGeb85Q.s 			page 9


 452 0181 DD       		.byte	0xdd
 453 0182 B8000000 		.4byte	0xb8
 454 0186 1C       		.byte	0x1c
 455 0187 08       		.uleb128 0x8
 456 0188 15040000 		.4byte	.LASF32
 457 018c 06       		.byte	0x6
 458 018d E1       		.byte	0xe1
 459 018e AD000000 		.4byte	0xad
 460 0192 1D       		.byte	0x1d
 461 0193 08       		.uleb128 0x8
 462 0194 17050000 		.4byte	.LASF33
 463 0198 06       		.byte	0x6
 464 0199 E6       		.byte	0xe6
 465 019a C3000000 		.4byte	0xc3
 466 019e 1E       		.byte	0x1e
 467 019f 08       		.uleb128 0x8
 468 01a0 F6030000 		.4byte	.LASF34
 469 01a4 06       		.byte	0x6
 470 01a5 EC       		.byte	0xec
 471 01a6 CE000000 		.4byte	0xce
 472 01aa 1F       		.byte	0x1f
 473 01ab 09       		.uleb128 0x9
 474 01ac 705F7500 		.ascii	"p_u\000"
 475 01b0 06       		.byte	0x6
 476 01b1 3101     		.2byte	0x131
 477 01b3 D6040000 		.4byte	0x4d6
 478 01b7 20       		.byte	0x20
 479 01b8 0A       		.uleb128 0xa
 480 01b9 18030000 		.4byte	.LASF35
 481 01bd 06       		.byte	0x6
 482 01be 3601     		.2byte	0x136
 483 01c0 25020000 		.4byte	0x225
 484 01c4 24       		.byte	0x24
 485 01c5 0A       		.uleb128 0xa
 486 01c6 69020000 		.4byte	.LASF36
 487 01ca 06       		.byte	0x6
 488 01cb 3C01     		.2byte	0x13c
 489 01cd 49020000 		.4byte	0x249
 490 01d1 28       		.byte	0x28
 491 01d2 0A       		.uleb128 0xa
 492 01d3 3E050000 		.4byte	.LASF37
 493 01d7 06       		.byte	0x6
 494 01d8 4001     		.2byte	0x140
 495 01da E4000000 		.4byte	0xe4
 496 01de 30       		.byte	0x30
 497 01df 0A       		.uleb128 0xa
 498 01e0 42040000 		.4byte	.LASF38
 499 01e4 06       		.byte	0x6
 500 01e5 4601     		.2byte	0x146
 501 01e7 EF000000 		.4byte	0xef
 502 01eb 34       		.byte	0x34
 503 01ec 0A       		.uleb128 0xa
 504 01ed E2030000 		.4byte	.LASF39
 505 01f1 06       		.byte	0x6
 506 01f2 4D01     		.2byte	0x14d
 507 01f4 95050000 		.4byte	0x595
 508 01f8 38       		.byte	0x38
ARM GAS  /tmp/ccGeb85Q.s 			page 10


 509 01f9 0A       		.uleb128 0xa
 510 01fa CA040000 		.4byte	.LASF40
 511 01fe 06       		.byte	0x6
 512 01ff 5101     		.2byte	0x151
 513 0201 D9000000 		.4byte	0xd9
 514 0205 3C       		.byte	0x3c
 515 0206 0A       		.uleb128 0xa
 516 0207 BF010000 		.4byte	.LASF41
 517 020b 06       		.byte	0x6
 518 020c 5801     		.2byte	0x158
 519 020e FC020000 		.4byte	0x2fc
 520 0212 40       		.byte	0x40
 521 0213 00       		.byte	0
 522 0214 02       		.uleb128 0x2
 523 0215 2B030000 		.4byte	.LASF42
 524 0219 05       		.byte	0x5
 525 021a 44       		.byte	0x44
 526 021b 1F020000 		.4byte	0x21f
 527 021f 05       		.uleb128 0x5
 528 0220 04       		.byte	0x4
 529 0221 10010000 		.4byte	0x110
 530 0225 02       		.uleb128 0x2
 531 0226 00000000 		.4byte	.LASF43
 532 022a 05       		.byte	0x5
 533 022b 49       		.byte	0x49
 534 022c 30020000 		.4byte	0x230
 535 0230 07       		.uleb128 0x7
 536 0231 6E040000 		.4byte	.LASF45
 537 0235 04       		.byte	0x4
 538 0236 06       		.byte	0x6
 539 0237 B0       		.byte	0xb0
 540 0238 49020000 		.4byte	0x249
 541 023c 08       		.uleb128 0x8
 542 023d 0E040000 		.4byte	.LASF24
 543 0241 06       		.byte	0x6
 544 0242 B1       		.byte	0xb1
 545 0243 1F020000 		.4byte	0x21f
 546 0247 00       		.byte	0
 547 0248 00       		.byte	0
 548 0249 02       		.uleb128 0x2
 549 024a FE040000 		.4byte	.LASF46
 550 024e 05       		.byte	0x5
 551 024f 50       		.byte	0x50
 552 0250 54020000 		.4byte	0x254
 553 0254 07       		.uleb128 0x7
 554 0255 87010000 		.4byte	.LASF47
 555 0259 08       		.byte	0x8
 556 025a 06       		.byte	0x6
 557 025b B7       		.byte	0xb7
 558 025c 79020000 		.4byte	0x279
 559 0260 08       		.uleb128 0x8
 560 0261 0E040000 		.4byte	.LASF24
 561 0265 06       		.byte	0x6
 562 0266 B8       		.byte	0xb8
 563 0267 1F020000 		.4byte	0x21f
 564 026b 00       		.byte	0
 565 026c 08       		.uleb128 0x8
ARM GAS  /tmp/ccGeb85Q.s 			page 11


 566 026d 92030000 		.4byte	.LASF25
 567 0271 06       		.byte	0x6
 568 0272 B9       		.byte	0xb9
 569 0273 1F020000 		.4byte	0x21f
 570 0277 04       		.byte	0x4
 571 0278 00       		.byte	0
 572 0279 02       		.uleb128 0x2
 573 027a 17000000 		.4byte	.LASF48
 574 027e 05       		.byte	0x5
 575 027f 57       		.byte	0x57
 576 0280 84020000 		.4byte	0x284
 577 0284 0B       		.uleb128 0xb
 578 0285 BD020000 		.4byte	.LASF49
 579 0289 1C       		.byte	0x1c
 580 028a 06       		.byte	0x6
 581 028b 9001     		.2byte	0x190
 582 028d E0020000 		.4byte	0x2e0
 583 0291 0A       		.uleb128 0xa
 584 0292 5D040000 		.4byte	.LASF50
 585 0296 06       		.byte	0x6
 586 0297 9101     		.2byte	0x191
 587 0299 49020000 		.4byte	0x249
 588 029d 00       		.byte	0
 589 029e 0A       		.uleb128 0xa
 590 029f 00040000 		.4byte	.LASF51
 591 02a3 06       		.byte	0x6
 592 02a4 9201     		.2byte	0x192
 593 02a6 D9000000 		.4byte	0xd9
 594 02aa 08       		.byte	0x8
 595 02ab 0A       		.uleb128 0xa
 596 02ac 5D030000 		.4byte	.LASF52
 597 02b0 06       		.byte	0x6
 598 02b1 9401     		.2byte	0x194
 599 02b3 3C040000 		.4byte	0x43c
 600 02b7 0C       		.byte	0xc
 601 02b8 0A       		.uleb128 0xa
 602 02b9 17020000 		.4byte	.LASF53
 603 02bd 06       		.byte	0x6
 604 02be 9701     		.2byte	0x197
 605 02c0 1F020000 		.4byte	0x21f
 606 02c4 10       		.byte	0x10
 607 02c5 0A       		.uleb128 0xa
 608 02c6 6D030000 		.4byte	.LASF54
 609 02ca 06       		.byte	0x6
 610 02cb 9801     		.2byte	0x198
 611 02cd 1F020000 		.4byte	0x21f
 612 02d1 14       		.byte	0x14
 613 02d2 0A       		.uleb128 0xa
 614 02d3 63030000 		.4byte	.LASF55
 615 02d7 06       		.byte	0x6
 616 02d8 9B01     		.2byte	0x19b
 617 02da 1F020000 		.4byte	0x21f
 618 02de 18       		.byte	0x18
 619 02df 00       		.byte	0
 620 02e0 02       		.uleb128 0x2
 621 02e1 D5040000 		.4byte	.LASF56
 622 02e5 05       		.byte	0x5
ARM GAS  /tmp/ccGeb85Q.s 			page 12


 623 02e6 5C       		.byte	0x5c
 624 02e7 EB020000 		.4byte	0x2eb
 625 02eb 05       		.uleb128 0x5
 626 02ec 04       		.byte	0x4
 627 02ed F1020000 		.4byte	0x2f1
 628 02f1 0C       		.uleb128 0xc
 629 02f2 FC020000 		.4byte	0x2fc
 630 02f6 0D       		.uleb128 0xd
 631 02f7 FC020000 		.4byte	0x2fc
 632 02fb 00       		.byte	0
 633 02fc 0E       		.uleb128 0xe
 634 02fd 04       		.byte	0x4
 635 02fe 02       		.uleb128 0x2
 636 02ff 82030000 		.4byte	.LASF57
 637 0303 05       		.byte	0x5
 638 0304 61       		.byte	0x61
 639 0305 09030000 		.4byte	0x309
 640 0309 0B       		.uleb128 0xb
 641 030a 24040000 		.4byte	.LASF58
 642 030e 14       		.byte	0x14
 643 030f 06       		.byte	0x6
 644 0310 6B01     		.2byte	0x16b
 645 0312 58030000 		.4byte	0x358
 646 0316 0A       		.uleb128 0xa
 647 0317 5A020000 		.4byte	.LASF59
 648 031b 06       		.byte	0x6
 649 031c 6C01     		.2byte	0x16c
 650 031e 9B050000 		.4byte	0x59b
 651 0322 00       		.byte	0
 652 0323 0A       		.uleb128 0xa
 653 0324 28020000 		.4byte	.LASF60
 654 0328 06       		.byte	0x6
 655 0329 6D01     		.2byte	0x16d
 656 032b 9B050000 		.4byte	0x59b
 657 032f 04       		.byte	0x4
 658 0330 0A       		.uleb128 0xa
 659 0331 65040000 		.4byte	.LASF61
 660 0335 06       		.byte	0x6
 661 0336 6E01     		.2byte	0x16e
 662 0338 05010000 		.4byte	0x105
 663 033c 08       		.byte	0x8
 664 033d 0A       		.uleb128 0xa
 665 033e 52050000 		.4byte	.LASF62
 666 0342 06       		.byte	0x6
 667 0343 6F01     		.2byte	0x16f
 668 0345 E0020000 		.4byte	0x2e0
 669 0349 0C       		.byte	0xc
 670 034a 0A       		.uleb128 0xa
 671 034b F7040000 		.4byte	.LASF63
 672 034f 06       		.byte	0x6
 673 0350 7101     		.2byte	0x171
 674 0352 FC020000 		.4byte	0x2fc
 675 0356 10       		.byte	0x10
 676 0357 00       		.byte	0
 677 0358 02       		.uleb128 0x2
 678 0359 64010000 		.4byte	.LASF64
 679 035d 05       		.byte	0x5
ARM GAS  /tmp/ccGeb85Q.s 			page 13


 680 035e 66       		.byte	0x66
 681 035f 63030000 		.4byte	0x363
 682 0363 0B       		.uleb128 0xb
 683 0364 3E030000 		.4byte	.LASF65
 684 0368 10       		.byte	0x10
 685 0369 06       		.byte	0x6
 686 036a 7B01     		.2byte	0x17b
 687 036c A5030000 		.4byte	0x3a5
 688 0370 0A       		.uleb128 0xa
 689 0371 5A020000 		.4byte	.LASF59
 690 0375 06       		.byte	0x6
 691 0376 7C01     		.2byte	0x17c
 692 0378 9B050000 		.4byte	0x59b
 693 037c 00       		.byte	0
 694 037d 0A       		.uleb128 0xa
 695 037e 28020000 		.4byte	.LASF60
 696 0382 06       		.byte	0x6
 697 0383 7E01     		.2byte	0x17e
 698 0385 9B050000 		.4byte	0x59b
 699 0389 04       		.byte	0x4
 700 038a 0A       		.uleb128 0xa
 701 038b 65040000 		.4byte	.LASF61
 702 038f 06       		.byte	0x6
 703 0390 8001     		.2byte	0x180
 704 0392 05010000 		.4byte	0x105
 705 0396 08       		.byte	0x8
 706 0397 0A       		.uleb128 0xa
 707 0398 33050000 		.4byte	.LASF66
 708 039c 06       		.byte	0x6
 709 039d 8201     		.2byte	0x182
 710 039f A1050000 		.4byte	0x5a1
 711 03a3 0C       		.byte	0xc
 712 03a4 00       		.byte	0
 713 03a5 02       		.uleb128 0x2
 714 03a6 47000000 		.4byte	.LASF67
 715 03aa 05       		.byte	0x5
 716 03ab 6B       		.byte	0x6b
 717 03ac B0030000 		.4byte	0x3b0
 718 03b0 0B       		.uleb128 0xb
 719 03b1 AE030000 		.4byte	.LASF68
 720 03b5 04       		.byte	0x4
 721 03b6 06       		.byte	0x6
 722 03b7 A201     		.2byte	0x1a2
 723 03b9 CB030000 		.4byte	0x3cb
 724 03bd 0A       		.uleb128 0xa
 725 03be DE040000 		.4byte	.LASF69
 726 03c2 06       		.byte	0x6
 727 03c3 AA01     		.2byte	0x1aa
 728 03c5 A6050000 		.4byte	0x5a6
 729 03c9 00       		.byte	0
 730 03ca 00       		.byte	0
 731 03cb 02       		.uleb128 0x2
 732 03cc A2020000 		.4byte	.LASF70
 733 03d0 05       		.byte	0x5
 734 03d1 70       		.byte	0x70
 735 03d2 D6030000 		.4byte	0x3d6
 736 03d6 0F       		.uleb128 0xf
ARM GAS  /tmp/ccGeb85Q.s 			page 14


 737 03d7 E6010000 		.4byte	.LASF71
 738 03db 5001     		.2byte	0x150
 739 03dd 06       		.byte	0x6
 740 03de C201     		.2byte	0x1c2
 741 03e0 26040000 		.4byte	0x426
 742 03e4 0A       		.uleb128 0xa
 743 03e5 1E050000 		.4byte	.LASF72
 744 03e9 06       		.byte	0x6
 745 03ea C601     		.2byte	0x1c6
 746 03ec 79020000 		.4byte	0x279
 747 03f0 00       		.byte	0
 748 03f1 0A       		.uleb128 0xa
 749 03f2 CF010000 		.4byte	.LASF73
 750 03f6 06       		.byte	0x6
 751 03f7 CA01     		.2byte	0x1ca
 752 03f9 58030000 		.4byte	0x358
 753 03fd 1C       		.byte	0x1c
 754 03fe 09       		.uleb128 0x9
 755 03ff 64626700 		.ascii	"dbg\000"
 756 0403 06       		.byte	0x6
 757 0404 CE01     		.2byte	0x1ce
 758 0406 A5030000 		.4byte	0x3a5
 759 040a 2C       		.byte	0x2c
 760 040b 0A       		.uleb128 0xa
 761 040c 59010000 		.4byte	.LASF74
 762 0410 06       		.byte	0x6
 763 0411 D201     		.2byte	0x1d2
 764 0413 10010000 		.4byte	0x110
 765 0417 30       		.byte	0x30
 766 0418 0A       		.uleb128 0xa
 767 0419 38020000 		.4byte	.LASF75
 768 041d 06       		.byte	0x6
 769 041e E301     		.2byte	0x1e3
 770 0420 AB050000 		.4byte	0x5ab
 771 0424 78       		.byte	0x78
 772 0425 00       		.byte	0
 773 0426 02       		.uleb128 0x2
 774 0427 1F020000 		.4byte	.LASF76
 775 042b 07       		.byte	0x7
 776 042c 65       		.byte	0x65
 777 042d FC020000 		.4byte	0x2fc
 778 0431 02       		.uleb128 0x2
 779 0432 D7020000 		.4byte	.LASF77
 780 0436 07       		.byte	0x7
 781 0437 6D       		.byte	0x6d
 782 0438 9B000000 		.4byte	0x9b
 783 043c 07       		.uleb128 0x7
 784 043d EF040000 		.4byte	.LASF78
 785 0441 04       		.byte	0x4
 786 0442 07       		.byte	0x7
 787 0443 89       		.byte	0x89
 788 0444 55040000 		.4byte	0x455
 789 0448 10       		.uleb128 0x10
 790 0449 72313300 		.ascii	"r13\000"
 791 044d 07       		.byte	0x7
 792 044e 8A       		.byte	0x8a
 793 044f D0040000 		.4byte	0x4d0
ARM GAS  /tmp/ccGeb85Q.s 			page 15


 794 0453 00       		.byte	0
 795 0454 00       		.byte	0
 796 0455 07       		.uleb128 0x7
 797 0456 3B000000 		.4byte	.LASF79
 798 045a 24       		.byte	0x24
 799 045b 08       		.byte	0x8
 800 045c FD       		.byte	0xfd
 801 045d D0040000 		.4byte	0x4d0
 802 0461 09       		.uleb128 0x9
 803 0462 723400   		.ascii	"r4\000"
 804 0465 08       		.byte	0x8
 805 0466 1001     		.2byte	0x110
 806 0468 26040000 		.4byte	0x426
 807 046c 00       		.byte	0
 808 046d 09       		.uleb128 0x9
 809 046e 723500   		.ascii	"r5\000"
 810 0471 08       		.byte	0x8
 811 0472 1101     		.2byte	0x111
 812 0474 26040000 		.4byte	0x426
 813 0478 04       		.byte	0x4
 814 0479 09       		.uleb128 0x9
 815 047a 723600   		.ascii	"r6\000"
 816 047d 08       		.byte	0x8
 817 047e 1201     		.2byte	0x112
 818 0480 26040000 		.4byte	0x426
 819 0484 08       		.byte	0x8
 820 0485 09       		.uleb128 0x9
 821 0486 723700   		.ascii	"r7\000"
 822 0489 08       		.byte	0x8
 823 048a 1301     		.2byte	0x113
 824 048c 26040000 		.4byte	0x426
 825 0490 0C       		.byte	0xc
 826 0491 09       		.uleb128 0x9
 827 0492 723800   		.ascii	"r8\000"
 828 0495 08       		.byte	0x8
 829 0496 1401     		.2byte	0x114
 830 0498 26040000 		.4byte	0x426
 831 049c 10       		.byte	0x10
 832 049d 09       		.uleb128 0x9
 833 049e 723900   		.ascii	"r9\000"
 834 04a1 08       		.byte	0x8
 835 04a2 1501     		.2byte	0x115
 836 04a4 26040000 		.4byte	0x426
 837 04a8 14       		.byte	0x14
 838 04a9 09       		.uleb128 0x9
 839 04aa 72313000 		.ascii	"r10\000"
 840 04ae 08       		.byte	0x8
 841 04af 1601     		.2byte	0x116
 842 04b1 26040000 		.4byte	0x426
 843 04b5 18       		.byte	0x18
 844 04b6 09       		.uleb128 0x9
 845 04b7 72313100 		.ascii	"r11\000"
 846 04bb 08       		.byte	0x8
 847 04bc 1701     		.2byte	0x117
 848 04be 26040000 		.4byte	0x426
 849 04c2 1C       		.byte	0x1c
 850 04c3 09       		.uleb128 0x9
ARM GAS  /tmp/ccGeb85Q.s 			page 16


 851 04c4 6C7200   		.ascii	"lr\000"
 852 04c7 08       		.byte	0x8
 853 04c8 1801     		.2byte	0x118
 854 04ca 26040000 		.4byte	0x426
 855 04ce 20       		.byte	0x20
 856 04cf 00       		.byte	0
 857 04d0 05       		.uleb128 0x5
 858 04d1 04       		.byte	0x4
 859 04d2 55040000 		.4byte	0x455
 860 04d6 11       		.uleb128 0x11
 861 04d7 04       		.byte	0x4
 862 04d8 06       		.byte	0x6
 863 04d9 FA       		.byte	0xfa
 864 04da 33050000 		.4byte	0x533
 865 04de 12       		.uleb128 0x12
 866 04df 2B000000 		.4byte	.LASF80
 867 04e3 06       		.byte	0x6
 868 04e4 0101     		.2byte	0x101
 869 04e6 E4000000 		.4byte	0xe4
 870 04ea 12       		.uleb128 0x12
 871 04eb 50010000 		.4byte	.LASF81
 872 04ef 06       		.byte	0x6
 873 04f0 0801     		.2byte	0x108
 874 04f2 E4000000 		.4byte	0xe4
 875 04f6 12       		.uleb128 0x12
 876 04f7 2C050000 		.4byte	.LASF82
 877 04fb 06       		.byte	0x6
 878 04fc 0F01     		.2byte	0x10f
 879 04fe FC020000 		.4byte	0x2fc
 880 0502 12       		.uleb128 0x12
 881 0503 E0010000 		.4byte	.LASF83
 882 0507 06       		.byte	0x6
 883 0508 1601     		.2byte	0x116
 884 050a 33050000 		.4byte	0x533
 885 050e 12       		.uleb128 0x12
 886 050f 62020000 		.4byte	.LASF84
 887 0513 06       		.byte	0x6
 888 0514 1E01     		.2byte	0x11e
 889 0516 5E050000 		.4byte	0x55e
 890 051a 12       		.uleb128 0x12
 891 051b 56040000 		.4byte	.LASF85
 892 051f 06       		.byte	0x6
 893 0520 2701     		.2byte	0x127
 894 0522 95050000 		.4byte	0x595
 895 0526 12       		.uleb128 0x12
 896 0527 07040000 		.4byte	.LASF86
 897 052b 06       		.byte	0x6
 898 052c 2F01     		.2byte	0x12f
 899 052e EF000000 		.4byte	0xef
 900 0532 00       		.byte	0
 901 0533 05       		.uleb128 0x5
 902 0534 04       		.byte	0x4
 903 0535 14020000 		.4byte	0x214
 904 0539 07       		.uleb128 0x7
 905 053a 35040000 		.4byte	.LASF87
 906 053e 0C       		.byte	0xc
 907 053f 09       		.byte	0x9
ARM GAS  /tmp/ccGeb85Q.s 			page 17


 908 0540 34       		.byte	0x34
 909 0541 5E050000 		.4byte	0x55e
 910 0545 08       		.uleb128 0x8
 911 0546 0F020000 		.4byte	.LASF88
 912 054a 09       		.byte	0x9
 913 054b 35       		.byte	0x35
 914 054c 49020000 		.4byte	0x249
 915 0550 00       		.byte	0
 916 0551 08       		.uleb128 0x8
 917 0552 74020000 		.4byte	.LASF89
 918 0556 09       		.byte	0x9
 919 0557 37       		.byte	0x37
 920 0558 FA000000 		.4byte	0xfa
 921 055c 08       		.byte	0x8
 922 055d 00       		.byte	0
 923 055e 05       		.uleb128 0x5
 924 055f 04       		.byte	0x4
 925 0560 39050000 		.4byte	0x539
 926 0564 07       		.uleb128 0x7
 927 0565 0E050000 		.4byte	.LASF90
 928 0569 10       		.byte	0x10
 929 056a 0A       		.byte	0xa
 930 056b 39       		.byte	0x39
 931 056c 95050000 		.4byte	0x595
 932 0570 08       		.uleb128 0x8
 933 0571 C7010000 		.4byte	.LASF91
 934 0575 0A       		.byte	0xa
 935 0576 3A       		.byte	0x3a
 936 0577 49020000 		.4byte	0x249
 937 057b 00       		.byte	0
 938 057c 08       		.uleb128 0x8
 939 057d 44050000 		.4byte	.LASF92
 940 0581 0A       		.byte	0xa
 941 0582 3C       		.byte	0x3c
 942 0583 1F020000 		.4byte	0x21f
 943 0587 08       		.byte	0x8
 944 0588 08       		.uleb128 0x8
 945 0589 B9040000 		.4byte	.LASF93
 946 058d 0A       		.byte	0xa
 947 058e 3E       		.byte	0x3e
 948 058f C6050000 		.4byte	0x5c6
 949 0593 0C       		.byte	0xc
 950 0594 00       		.byte	0
 951 0595 05       		.uleb128 0x5
 952 0596 04       		.byte	0x4
 953 0597 64050000 		.4byte	0x564
 954 059b 05       		.uleb128 0x5
 955 059c 04       		.byte	0x4
 956 059d FE020000 		.4byte	0x2fe
 957 05a1 13       		.uleb128 0x13
 958 05a2 05010000 		.4byte	0x105
 959 05a6 13       		.uleb128 0x13
 960 05a7 4C000000 		.4byte	0x4c
 961 05ab 14       		.uleb128 0x14
 962 05ac 31040000 		.4byte	0x431
 963 05b0 BB050000 		.4byte	0x5bb
 964 05b4 15       		.uleb128 0x15
ARM GAS  /tmp/ccGeb85Q.s 			page 18


 965 05b5 37000000 		.4byte	0x37
 966 05b9 1A       		.byte	0x1a
 967 05ba 00       		.byte	0
 968 05bb 02       		.uleb128 0x2
 969 05bc 30020000 		.4byte	.LASF94
 970 05c0 0A       		.byte	0xa
 971 05c1 34       		.byte	0x34
 972 05c2 64050000 		.4byte	0x564
 973 05c6 05       		.uleb128 0x5
 974 05c7 04       		.byte	0x4
 975 05c8 BB050000 		.4byte	0x5bb
 976 05cc 05       		.uleb128 0x5
 977 05cd 04       		.byte	0x4
 978 05ce 85000000 		.4byte	0x85
 979 05d2 16       		.uleb128 0x16
 980 05d3 25000000 		.4byte	0x25
 981 05d7 EB050000 		.4byte	0x5eb
 982 05db 0D       		.uleb128 0xd
 983 05dc FC020000 		.4byte	0x2fc
 984 05e0 0D       		.uleb128 0xd
 985 05e1 EB050000 		.4byte	0x5eb
 986 05e5 0D       		.uleb128 0xd
 987 05e6 25000000 		.4byte	0x25
 988 05ea 00       		.byte	0
 989 05eb 05       		.uleb128 0x5
 990 05ec 04       		.byte	0x4
 991 05ed F1050000 		.4byte	0x5f1
 992 05f1 06       		.uleb128 0x6
 993 05f2 85000000 		.4byte	0x85
 994 05f6 05       		.uleb128 0x5
 995 05f7 04       		.byte	0x4
 996 05f8 D2050000 		.4byte	0x5d2
 997 05fc 16       		.uleb128 0x16
 998 05fd 25000000 		.4byte	0x25
 999 0601 15060000 		.4byte	0x615
 1000 0605 0D       		.uleb128 0xd
 1001 0606 FC020000 		.4byte	0x2fc
 1002 060a 0D       		.uleb128 0xd
 1003 060b CC050000 		.4byte	0x5cc
 1004 060f 0D       		.uleb128 0xd
 1005 0610 25000000 		.4byte	0x25
 1006 0614 00       		.byte	0
 1007 0615 05       		.uleb128 0x5
 1008 0616 04       		.byte	0x4
 1009 0617 FC050000 		.4byte	0x5fc
 1010 061b 16       		.uleb128 0x16
 1011 061c E4000000 		.4byte	0xe4
 1012 0620 2F060000 		.4byte	0x62f
 1013 0624 0D       		.uleb128 0xd
 1014 0625 FC020000 		.4byte	0x2fc
 1015 0629 0D       		.uleb128 0xd
 1016 062a 85000000 		.4byte	0x85
 1017 062e 00       		.byte	0
 1018 062f 05       		.uleb128 0x5
 1019 0630 04       		.byte	0x4
 1020 0631 1B060000 		.4byte	0x61b
 1021 0635 16       		.uleb128 0x16
ARM GAS  /tmp/ccGeb85Q.s 			page 19


 1022 0636 E4000000 		.4byte	0xe4
 1023 063a 44060000 		.4byte	0x644
 1024 063e 0D       		.uleb128 0xd
 1025 063f FC020000 		.4byte	0x2fc
 1026 0643 00       		.byte	0
 1027 0644 05       		.uleb128 0x5
 1028 0645 04       		.byte	0x4
 1029 0646 35060000 		.4byte	0x635
 1030 064a 03       		.uleb128 0x3
 1031 064b 01       		.byte	0x1
 1032 064c 02       		.byte	0x2
 1033 064d BE030000 		.4byte	.LASF95
 1034 0651 07       		.uleb128 0x7
 1035 0652 75030000 		.4byte	.LASF96
 1036 0656 10       		.byte	0x10
 1037 0657 0B       		.byte	0xb
 1038 0658 3D       		.byte	0x3d
 1039 0659 8E060000 		.4byte	0x68e
 1040 065d 08       		.uleb128 0x8
 1041 065e EF020000 		.4byte	.LASF97
 1042 0662 0B       		.byte	0xb
 1043 0663 3E       		.byte	0x3e
 1044 0664 F6050000 		.4byte	0x5f6
 1045 0668 00       		.byte	0
 1046 0669 08       		.uleb128 0x8
 1047 066a 83040000 		.4byte	.LASF98
 1048 066e 0B       		.byte	0xb
 1049 066f 3E       		.byte	0x3e
 1050 0670 15060000 		.4byte	0x615
 1051 0674 04       		.byte	0x4
 1052 0675 10       		.uleb128 0x10
 1053 0676 70757400 		.ascii	"put\000"
 1054 067a 0B       		.byte	0xb
 1055 067b 3E       		.byte	0x3e
 1056 067c 2F060000 		.4byte	0x62f
 1057 0680 08       		.byte	0x8
 1058 0681 10       		.uleb128 0x10
 1059 0682 67657400 		.ascii	"get\000"
 1060 0686 0B       		.byte	0xb
 1061 0687 3E       		.byte	0x3e
 1062 0688 44060000 		.4byte	0x644
 1063 068c 0C       		.byte	0xc
 1064 068d 00       		.byte	0
 1065 068e 17       		.uleb128 0x17
 1066 068f 14       		.byte	0x14
 1067 0690 0B       		.byte	0xb
 1068 0691 46       		.byte	0x46
 1069 0692 D3060000 		.4byte	0x6d3
 1070 0696 10       		.uleb128 0x10
 1071 0697 766D7400 		.ascii	"vmt\000"
 1072 069b 0B       		.byte	0xb
 1073 069c 48       		.byte	0x48
 1074 069d D3060000 		.4byte	0x6d3
 1075 06a1 00       		.byte	0
 1076 06a2 08       		.uleb128 0x8
 1077 06a3 00020000 		.4byte	.LASF99
 1078 06a7 0B       		.byte	0xb
ARM GAS  /tmp/ccGeb85Q.s 			page 20


 1079 06a8 49       		.byte	0x49
 1080 06a9 CC050000 		.4byte	0x5cc
 1081 06ad 04       		.byte	0x4
 1082 06ae 08       		.uleb128 0x8
 1083 06af 7A020000 		.4byte	.LASF100
 1084 06b3 0B       		.byte	0xb
 1085 06b4 49       		.byte	0x49
 1086 06b5 25000000 		.4byte	0x25
 1087 06b9 08       		.byte	0x8
 1088 06ba 10       		.uleb128 0x10
 1089 06bb 656F7300 		.ascii	"eos\000"
 1090 06bf 0B       		.byte	0xb
 1091 06c0 49       		.byte	0x49
 1092 06c1 25000000 		.4byte	0x25
 1093 06c5 0C       		.byte	0xc
 1094 06c6 08       		.uleb128 0x8
 1095 06c7 E8040000 		.4byte	.LASF101
 1096 06cb 0B       		.byte	0xb
 1097 06cc 49       		.byte	0x49
 1098 06cd 25000000 		.4byte	0x25
 1099 06d1 10       		.byte	0x10
 1100 06d2 00       		.byte	0
 1101 06d3 05       		.uleb128 0x5
 1102 06d4 04       		.byte	0x4
 1103 06d5 D9060000 		.4byte	0x6d9
 1104 06d9 06       		.uleb128 0x6
 1105 06da 51060000 		.4byte	0x651
 1106 06de 02       		.uleb128 0x2
 1107 06df A1030000 		.4byte	.LASF102
 1108 06e3 0B       		.byte	0xb
 1109 06e4 4A       		.byte	0x4a
 1110 06e5 8E060000 		.4byte	0x68e
 1111 06e9 18       		.uleb128 0x18
 1112 06ea 70757400 		.ascii	"put\000"
 1113 06ee 01       		.byte	0x1
 1114 06ef 42       		.byte	0x42
 1115 06f0 E4000000 		.4byte	0xe4
 1116 06f4 00000000 		.4byte	.LFB281
 1117 06f8 1C000000 		.4byte	.LFE281-.LFB281
 1118 06fc 01       		.uleb128 0x1
 1119 06fd 9C       		.byte	0x9c
 1120 06fe 2B070000 		.4byte	0x72b
 1121 0702 19       		.uleb128 0x19
 1122 0703 697000   		.ascii	"ip\000"
 1123 0706 01       		.byte	0x1
 1124 0707 42       		.byte	0x42
 1125 0708 FC020000 		.4byte	0x2fc
 1126 070c 00000000 		.4byte	.LLST0
 1127 0710 1A       		.uleb128 0x1a
 1128 0711 6200     		.ascii	"b\000"
 1129 0713 01       		.byte	0x1
 1130 0714 42       		.byte	0x42
 1131 0715 85000000 		.4byte	0x85
 1132 0719 01       		.uleb128 0x1
 1133 071a 51       		.byte	0x51
 1134 071b 1B       		.uleb128 0x1b
 1135 071c 6D737000 		.ascii	"msp\000"
ARM GAS  /tmp/ccGeb85Q.s 			page 21


 1136 0720 01       		.byte	0x1
 1137 0721 43       		.byte	0x43
 1138 0722 2B070000 		.4byte	0x72b
 1139 0726 00000000 		.4byte	.LLST0
 1140 072a 00       		.byte	0
 1141 072b 05       		.uleb128 0x5
 1142 072c 04       		.byte	0x4
 1143 072d DE060000 		.4byte	0x6de
 1144 0731 18       		.uleb128 0x18
 1145 0732 67657400 		.ascii	"get\000"
 1146 0736 01       		.byte	0x1
 1147 0737 4C       		.byte	0x4c
 1148 0738 E4000000 		.4byte	0xe4
 1149 073c 00000000 		.4byte	.LFB282
 1150 0740 1A000000 		.4byte	.LFE282-.LFB282
 1151 0744 01       		.uleb128 0x1
 1152 0745 9C       		.byte	0x9c
 1153 0746 75070000 		.4byte	0x775
 1154 074a 19       		.uleb128 0x19
 1155 074b 697000   		.ascii	"ip\000"
 1156 074e 01       		.byte	0x1
 1157 074f 4C       		.byte	0x4c
 1158 0750 FC020000 		.4byte	0x2fc
 1159 0754 3A000000 		.4byte	.LLST2
 1160 0758 1B       		.uleb128 0x1b
 1161 0759 6200     		.ascii	"b\000"
 1162 075b 01       		.byte	0x1
 1163 075c 4D       		.byte	0x4d
 1164 075d 85000000 		.4byte	0x85
 1165 0761 6E000000 		.4byte	.LLST3
 1166 0765 1B       		.uleb128 0x1b
 1167 0766 6D737000 		.ascii	"msp\000"
 1168 076a 01       		.byte	0x1
 1169 076b 4E       		.byte	0x4e
 1170 076c 2B070000 		.4byte	0x72b
 1171 0770 81000000 		.4byte	.LLST4
 1172 0774 00       		.byte	0
 1173 0775 1C       		.uleb128 0x1c
 1174 0776 9F010000 		.4byte	.LASF103
 1175 077a 01       		.byte	0x1
 1176 077b 38       		.byte	0x38
 1177 077c 25000000 		.4byte	0x25
 1178 0780 00000000 		.4byte	.LFB280
 1179 0784 26000000 		.4byte	.LFE280-.LFB280
 1180 0788 01       		.uleb128 0x1
 1181 0789 9C       		.byte	0x9c
 1182 078a DE070000 		.4byte	0x7de
 1183 078e 19       		.uleb128 0x19
 1184 078f 697000   		.ascii	"ip\000"
 1185 0792 01       		.byte	0x1
 1186 0793 38       		.byte	0x38
 1187 0794 FC020000 		.4byte	0x2fc
 1188 0798 B5000000 		.4byte	.LLST5
 1189 079c 19       		.uleb128 0x19
 1190 079d 627000   		.ascii	"bp\000"
 1191 07a0 01       		.byte	0x1
 1192 07a1 38       		.byte	0x38
ARM GAS  /tmp/ccGeb85Q.s 			page 22


 1193 07a2 CC050000 		.4byte	0x5cc
 1194 07a6 D3000000 		.4byte	.LLST6
 1195 07aa 19       		.uleb128 0x19
 1196 07ab 6E00     		.ascii	"n\000"
 1197 07ad 01       		.byte	0x1
 1198 07ae 38       		.byte	0x38
 1199 07af 25000000 		.4byte	0x25
 1200 07b3 FF000000 		.4byte	.LLST7
 1201 07b7 1B       		.uleb128 0x1b
 1202 07b8 6D737000 		.ascii	"msp\000"
 1203 07bc 01       		.byte	0x1
 1204 07bd 39       		.byte	0x39
 1205 07be 2B070000 		.4byte	0x72b
 1206 07c2 1D010000 		.4byte	.LLST8
 1207 07c6 1D       		.uleb128 0x1d
 1208 07c7 1C000000 		.4byte	.LVL14
 1209 07cb C0080000 		.4byte	0x8c0
 1210 07cf 1E       		.uleb128 0x1e
 1211 07d0 01       		.uleb128 0x1
 1212 07d1 52       		.byte	0x52
 1213 07d2 02       		.uleb128 0x2
 1214 07d3 74       		.byte	0x74
 1215 07d4 00       		.sleb128 0
 1216 07d5 1E       		.uleb128 0x1e
 1217 07d6 01       		.uleb128 0x1
 1218 07d7 50       		.byte	0x50
 1219 07d8 03       		.uleb128 0x3
 1220 07d9 F3       		.byte	0xf3
 1221 07da 01       		.uleb128 0x1
 1222 07db 51       		.byte	0x51
 1223 07dc 00       		.byte	0
 1224 07dd 00       		.byte	0
 1225 07de 1C       		.uleb128 0x1c
 1226 07df AE020000 		.4byte	.LASF104
 1227 07e3 01       		.byte	0x1
 1228 07e4 2E       		.byte	0x2e
 1229 07e5 25000000 		.4byte	0x25
 1230 07e9 00000000 		.4byte	.LFB279
 1231 07ed 24000000 		.4byte	.LFE279-.LFB279
 1232 07f1 01       		.uleb128 0x1
 1233 07f2 9C       		.byte	0x9c
 1234 07f3 47080000 		.4byte	0x847
 1235 07f7 19       		.uleb128 0x19
 1236 07f8 697000   		.ascii	"ip\000"
 1237 07fb 01       		.byte	0x1
 1238 07fc 2E       		.byte	0x2e
 1239 07fd FC020000 		.4byte	0x2fc
 1240 0801 3B010000 		.4byte	.LLST9
 1241 0805 19       		.uleb128 0x19
 1242 0806 627000   		.ascii	"bp\000"
 1243 0809 01       		.byte	0x1
 1244 080a 2E       		.byte	0x2e
 1245 080b EB050000 		.4byte	0x5eb
 1246 080f 59010000 		.4byte	.LLST10
 1247 0813 19       		.uleb128 0x19
 1248 0814 6E00     		.ascii	"n\000"
 1249 0816 01       		.byte	0x1
ARM GAS  /tmp/ccGeb85Q.s 			page 23


 1250 0817 2E       		.byte	0x2e
 1251 0818 25000000 		.4byte	0x25
 1252 081c 7A010000 		.4byte	.LLST11
 1253 0820 1B       		.uleb128 0x1b
 1254 0821 6D737000 		.ascii	"msp\000"
 1255 0825 01       		.byte	0x1
 1256 0826 2F       		.byte	0x2f
 1257 0827 2B070000 		.4byte	0x72b
 1258 082b 98010000 		.4byte	.LLST12
 1259 082f 1D       		.uleb128 0x1d
 1260 0830 1A000000 		.4byte	.LVL19
 1261 0834 C0080000 		.4byte	0x8c0
 1262 0838 1E       		.uleb128 0x1e
 1263 0839 01       		.uleb128 0x1
 1264 083a 52       		.byte	0x52
 1265 083b 02       		.uleb128 0x2
 1266 083c 74       		.byte	0x74
 1267 083d 00       		.sleb128 0
 1268 083e 1E       		.uleb128 0x1e
 1269 083f 01       		.uleb128 0x1
 1270 0840 51       		.byte	0x51
 1271 0841 03       		.uleb128 0x3
 1272 0842 F3       		.byte	0xf3
 1273 0843 01       		.uleb128 0x1
 1274 0844 51       		.byte	0x51
 1275 0845 00       		.byte	0
 1276 0846 00       		.byte	0
 1277 0847 1F       		.uleb128 0x1f
 1278 0848 E2020000 		.4byte	.LASF109
 1279 084c 01       		.byte	0x1
 1280 084d 67       		.byte	0x67
 1281 084e 00000000 		.4byte	.LFB283
 1282 0852 1C000000 		.4byte	.LFE283-.LFB283
 1283 0856 01       		.uleb128 0x1
 1284 0857 9C       		.byte	0x9c
 1285 0858 93080000 		.4byte	0x893
 1286 085c 1A       		.uleb128 0x1a
 1287 085d 6D737000 		.ascii	"msp\000"
 1288 0861 01       		.byte	0x1
 1289 0862 67       		.byte	0x67
 1290 0863 2B070000 		.4byte	0x72b
 1291 0867 01       		.uleb128 0x1
 1292 0868 50       		.byte	0x50
 1293 0869 20       		.uleb128 0x20
 1294 086a 00020000 		.4byte	.LASF99
 1295 086e 01       		.byte	0x1
 1296 086f 67       		.byte	0x67
 1297 0870 CC050000 		.4byte	0x5cc
 1298 0874 B6010000 		.4byte	.LLST13
 1299 0878 21       		.uleb128 0x21
 1300 0879 7A020000 		.4byte	.LASF100
 1301 087d 01       		.byte	0x1
 1302 087e 68       		.byte	0x68
 1303 087f 25000000 		.4byte	0x25
 1304 0883 01       		.uleb128 0x1
 1305 0884 52       		.byte	0x52
 1306 0885 1A       		.uleb128 0x1a
ARM GAS  /tmp/ccGeb85Q.s 			page 24


 1307 0886 656F7300 		.ascii	"eos\000"
 1308 088a 01       		.byte	0x1
 1309 088b 68       		.byte	0x68
 1310 088c 25000000 		.4byte	0x25
 1311 0890 01       		.uleb128 0x1
 1312 0891 53       		.byte	0x53
 1313 0892 00       		.byte	0
 1314 0893 22       		.uleb128 0x22
 1315 0894 766D7400 		.ascii	"vmt\000"
 1316 0898 01       		.byte	0x1
 1317 0899 57       		.byte	0x57
 1318 089a D9060000 		.4byte	0x6d9
 1319 089e 05       		.uleb128 0x5
 1320 089f 03       		.byte	0x3
 1321 08a0 00000000 		.4byte	vmt
 1322 08a4 23       		.uleb128 0x23
 1323 08a5 7A010000 		.4byte	.LASF105
 1324 08a9 0C       		.byte	0xc
 1325 08aa FA06     		.2byte	0x6fa
 1326 08ac B0080000 		.4byte	0x8b0
 1327 08b0 13       		.uleb128 0x13
 1328 08b1 73000000 		.4byte	0x73
 1329 08b5 24       		.uleb128 0x24
 1330 08b6 636800   		.ascii	"ch\000"
 1331 08b9 06       		.byte	0x6
 1332 08ba 0902     		.2byte	0x209
 1333 08bc CB030000 		.4byte	0x3cb
 1334 08c0 25       		.uleb128 0x25
 1335 08c1 F9010000 		.4byte	.LASF110
 1336 08c5 FC020000 		.4byte	0x2fc
 1337 08c9 DD080000 		.4byte	0x8dd
 1338 08cd 0D       		.uleb128 0xd
 1339 08ce FC020000 		.4byte	0x2fc
 1340 08d2 0D       		.uleb128 0xd
 1341 08d3 DD080000 		.4byte	0x8dd
 1342 08d7 0D       		.uleb128 0xd
 1343 08d8 37000000 		.4byte	0x37
 1344 08dc 00       		.byte	0
 1345 08dd 05       		.uleb128 0x5
 1346 08de 04       		.byte	0x4
 1347 08df E3080000 		.4byte	0x8e3
 1348 08e3 26       		.uleb128 0x26
 1349 08e4 00       		.byte	0
 1350              		.section	.debug_abbrev,"",%progbits
 1351              	.Ldebug_abbrev0:
 1352 0000 01       		.uleb128 0x1
 1353 0001 11       		.uleb128 0x11
 1354 0002 01       		.byte	0x1
 1355 0003 25       		.uleb128 0x25
 1356 0004 0E       		.uleb128 0xe
 1357 0005 13       		.uleb128 0x13
 1358 0006 0B       		.uleb128 0xb
 1359 0007 03       		.uleb128 0x3
 1360 0008 0E       		.uleb128 0xe
 1361 0009 1B       		.uleb128 0x1b
 1362 000a 0E       		.uleb128 0xe
 1363 000b 55       		.uleb128 0x55
ARM GAS  /tmp/ccGeb85Q.s 			page 25


 1364 000c 17       		.uleb128 0x17
 1365 000d 11       		.uleb128 0x11
 1366 000e 01       		.uleb128 0x1
 1367 000f 10       		.uleb128 0x10
 1368 0010 17       		.uleb128 0x17
 1369 0011 00       		.byte	0
 1370 0012 00       		.byte	0
 1371 0013 02       		.uleb128 0x2
 1372 0014 16       		.uleb128 0x16
 1373 0015 00       		.byte	0
 1374 0016 03       		.uleb128 0x3
 1375 0017 0E       		.uleb128 0xe
 1376 0018 3A       		.uleb128 0x3a
 1377 0019 0B       		.uleb128 0xb
 1378 001a 3B       		.uleb128 0x3b
 1379 001b 0B       		.uleb128 0xb
 1380 001c 49       		.uleb128 0x49
 1381 001d 13       		.uleb128 0x13
 1382 001e 00       		.byte	0
 1383 001f 00       		.byte	0
 1384 0020 03       		.uleb128 0x3
 1385 0021 24       		.uleb128 0x24
 1386 0022 00       		.byte	0
 1387 0023 0B       		.uleb128 0xb
 1388 0024 0B       		.uleb128 0xb
 1389 0025 3E       		.uleb128 0x3e
 1390 0026 0B       		.uleb128 0xb
 1391 0027 03       		.uleb128 0x3
 1392 0028 0E       		.uleb128 0xe
 1393 0029 00       		.byte	0
 1394 002a 00       		.byte	0
 1395 002b 04       		.uleb128 0x4
 1396 002c 24       		.uleb128 0x24
 1397 002d 00       		.byte	0
 1398 002e 0B       		.uleb128 0xb
 1399 002f 0B       		.uleb128 0xb
 1400 0030 3E       		.uleb128 0x3e
 1401 0031 0B       		.uleb128 0xb
 1402 0032 03       		.uleb128 0x3
 1403 0033 08       		.uleb128 0x8
 1404 0034 00       		.byte	0
 1405 0035 00       		.byte	0
 1406 0036 05       		.uleb128 0x5
 1407 0037 0F       		.uleb128 0xf
 1408 0038 00       		.byte	0
 1409 0039 0B       		.uleb128 0xb
 1410 003a 0B       		.uleb128 0xb
 1411 003b 49       		.uleb128 0x49
 1412 003c 13       		.uleb128 0x13
 1413 003d 00       		.byte	0
 1414 003e 00       		.byte	0
 1415 003f 06       		.uleb128 0x6
 1416 0040 26       		.uleb128 0x26
 1417 0041 00       		.byte	0
 1418 0042 49       		.uleb128 0x49
 1419 0043 13       		.uleb128 0x13
 1420 0044 00       		.byte	0
ARM GAS  /tmp/ccGeb85Q.s 			page 26


 1421 0045 00       		.byte	0
 1422 0046 07       		.uleb128 0x7
 1423 0047 13       		.uleb128 0x13
 1424 0048 01       		.byte	0x1
 1425 0049 03       		.uleb128 0x3
 1426 004a 0E       		.uleb128 0xe
 1427 004b 0B       		.uleb128 0xb
 1428 004c 0B       		.uleb128 0xb
 1429 004d 3A       		.uleb128 0x3a
 1430 004e 0B       		.uleb128 0xb
 1431 004f 3B       		.uleb128 0x3b
 1432 0050 0B       		.uleb128 0xb
 1433 0051 01       		.uleb128 0x1
 1434 0052 13       		.uleb128 0x13
 1435 0053 00       		.byte	0
 1436 0054 00       		.byte	0
 1437 0055 08       		.uleb128 0x8
 1438 0056 0D       		.uleb128 0xd
 1439 0057 00       		.byte	0
 1440 0058 03       		.uleb128 0x3
 1441 0059 0E       		.uleb128 0xe
 1442 005a 3A       		.uleb128 0x3a
 1443 005b 0B       		.uleb128 0xb
 1444 005c 3B       		.uleb128 0x3b
 1445 005d 0B       		.uleb128 0xb
 1446 005e 49       		.uleb128 0x49
 1447 005f 13       		.uleb128 0x13
 1448 0060 38       		.uleb128 0x38
 1449 0061 0B       		.uleb128 0xb
 1450 0062 00       		.byte	0
 1451 0063 00       		.byte	0
 1452 0064 09       		.uleb128 0x9
 1453 0065 0D       		.uleb128 0xd
 1454 0066 00       		.byte	0
 1455 0067 03       		.uleb128 0x3
 1456 0068 08       		.uleb128 0x8
 1457 0069 3A       		.uleb128 0x3a
 1458 006a 0B       		.uleb128 0xb
 1459 006b 3B       		.uleb128 0x3b
 1460 006c 05       		.uleb128 0x5
 1461 006d 49       		.uleb128 0x49
 1462 006e 13       		.uleb128 0x13
 1463 006f 38       		.uleb128 0x38
 1464 0070 0B       		.uleb128 0xb
 1465 0071 00       		.byte	0
 1466 0072 00       		.byte	0
 1467 0073 0A       		.uleb128 0xa
 1468 0074 0D       		.uleb128 0xd
 1469 0075 00       		.byte	0
 1470 0076 03       		.uleb128 0x3
 1471 0077 0E       		.uleb128 0xe
 1472 0078 3A       		.uleb128 0x3a
 1473 0079 0B       		.uleb128 0xb
 1474 007a 3B       		.uleb128 0x3b
 1475 007b 05       		.uleb128 0x5
 1476 007c 49       		.uleb128 0x49
 1477 007d 13       		.uleb128 0x13
ARM GAS  /tmp/ccGeb85Q.s 			page 27


 1478 007e 38       		.uleb128 0x38
 1479 007f 0B       		.uleb128 0xb
 1480 0080 00       		.byte	0
 1481 0081 00       		.byte	0
 1482 0082 0B       		.uleb128 0xb
 1483 0083 13       		.uleb128 0x13
 1484 0084 01       		.byte	0x1
 1485 0085 03       		.uleb128 0x3
 1486 0086 0E       		.uleb128 0xe
 1487 0087 0B       		.uleb128 0xb
 1488 0088 0B       		.uleb128 0xb
 1489 0089 3A       		.uleb128 0x3a
 1490 008a 0B       		.uleb128 0xb
 1491 008b 3B       		.uleb128 0x3b
 1492 008c 05       		.uleb128 0x5
 1493 008d 01       		.uleb128 0x1
 1494 008e 13       		.uleb128 0x13
 1495 008f 00       		.byte	0
 1496 0090 00       		.byte	0
 1497 0091 0C       		.uleb128 0xc
 1498 0092 15       		.uleb128 0x15
 1499 0093 01       		.byte	0x1
 1500 0094 27       		.uleb128 0x27
 1501 0095 19       		.uleb128 0x19
 1502 0096 01       		.uleb128 0x1
 1503 0097 13       		.uleb128 0x13
 1504 0098 00       		.byte	0
 1505 0099 00       		.byte	0
 1506 009a 0D       		.uleb128 0xd
 1507 009b 05       		.uleb128 0x5
 1508 009c 00       		.byte	0
 1509 009d 49       		.uleb128 0x49
 1510 009e 13       		.uleb128 0x13
 1511 009f 00       		.byte	0
 1512 00a0 00       		.byte	0
 1513 00a1 0E       		.uleb128 0xe
 1514 00a2 0F       		.uleb128 0xf
 1515 00a3 00       		.byte	0
 1516 00a4 0B       		.uleb128 0xb
 1517 00a5 0B       		.uleb128 0xb
 1518 00a6 00       		.byte	0
 1519 00a7 00       		.byte	0
 1520 00a8 0F       		.uleb128 0xf
 1521 00a9 13       		.uleb128 0x13
 1522 00aa 01       		.byte	0x1
 1523 00ab 03       		.uleb128 0x3
 1524 00ac 0E       		.uleb128 0xe
 1525 00ad 0B       		.uleb128 0xb
 1526 00ae 05       		.uleb128 0x5
 1527 00af 3A       		.uleb128 0x3a
 1528 00b0 0B       		.uleb128 0xb
 1529 00b1 3B       		.uleb128 0x3b
 1530 00b2 05       		.uleb128 0x5
 1531 00b3 01       		.uleb128 0x1
 1532 00b4 13       		.uleb128 0x13
 1533 00b5 00       		.byte	0
 1534 00b6 00       		.byte	0
ARM GAS  /tmp/ccGeb85Q.s 			page 28


 1535 00b7 10       		.uleb128 0x10
 1536 00b8 0D       		.uleb128 0xd
 1537 00b9 00       		.byte	0
 1538 00ba 03       		.uleb128 0x3
 1539 00bb 08       		.uleb128 0x8
 1540 00bc 3A       		.uleb128 0x3a
 1541 00bd 0B       		.uleb128 0xb
 1542 00be 3B       		.uleb128 0x3b
 1543 00bf 0B       		.uleb128 0xb
 1544 00c0 49       		.uleb128 0x49
 1545 00c1 13       		.uleb128 0x13
 1546 00c2 38       		.uleb128 0x38
 1547 00c3 0B       		.uleb128 0xb
 1548 00c4 00       		.byte	0
 1549 00c5 00       		.byte	0
 1550 00c6 11       		.uleb128 0x11
 1551 00c7 17       		.uleb128 0x17
 1552 00c8 01       		.byte	0x1
 1553 00c9 0B       		.uleb128 0xb
 1554 00ca 0B       		.uleb128 0xb
 1555 00cb 3A       		.uleb128 0x3a
 1556 00cc 0B       		.uleb128 0xb
 1557 00cd 3B       		.uleb128 0x3b
 1558 00ce 0B       		.uleb128 0xb
 1559 00cf 01       		.uleb128 0x1
 1560 00d0 13       		.uleb128 0x13
 1561 00d1 00       		.byte	0
 1562 00d2 00       		.byte	0
 1563 00d3 12       		.uleb128 0x12
 1564 00d4 0D       		.uleb128 0xd
 1565 00d5 00       		.byte	0
 1566 00d6 03       		.uleb128 0x3
 1567 00d7 0E       		.uleb128 0xe
 1568 00d8 3A       		.uleb128 0x3a
 1569 00d9 0B       		.uleb128 0xb
 1570 00da 3B       		.uleb128 0x3b
 1571 00db 05       		.uleb128 0x5
 1572 00dc 49       		.uleb128 0x49
 1573 00dd 13       		.uleb128 0x13
 1574 00de 00       		.byte	0
 1575 00df 00       		.byte	0
 1576 00e0 13       		.uleb128 0x13
 1577 00e1 35       		.uleb128 0x35
 1578 00e2 00       		.byte	0
 1579 00e3 49       		.uleb128 0x49
 1580 00e4 13       		.uleb128 0x13
 1581 00e5 00       		.byte	0
 1582 00e6 00       		.byte	0
 1583 00e7 14       		.uleb128 0x14
 1584 00e8 01       		.uleb128 0x1
 1585 00e9 01       		.byte	0x1
 1586 00ea 49       		.uleb128 0x49
 1587 00eb 13       		.uleb128 0x13
 1588 00ec 01       		.uleb128 0x1
 1589 00ed 13       		.uleb128 0x13
 1590 00ee 00       		.byte	0
 1591 00ef 00       		.byte	0
ARM GAS  /tmp/ccGeb85Q.s 			page 29


 1592 00f0 15       		.uleb128 0x15
 1593 00f1 21       		.uleb128 0x21
 1594 00f2 00       		.byte	0
 1595 00f3 49       		.uleb128 0x49
 1596 00f4 13       		.uleb128 0x13
 1597 00f5 2F       		.uleb128 0x2f
 1598 00f6 0B       		.uleb128 0xb
 1599 00f7 00       		.byte	0
 1600 00f8 00       		.byte	0
 1601 00f9 16       		.uleb128 0x16
 1602 00fa 15       		.uleb128 0x15
 1603 00fb 01       		.byte	0x1
 1604 00fc 27       		.uleb128 0x27
 1605 00fd 19       		.uleb128 0x19
 1606 00fe 49       		.uleb128 0x49
 1607 00ff 13       		.uleb128 0x13
 1608 0100 01       		.uleb128 0x1
 1609 0101 13       		.uleb128 0x13
 1610 0102 00       		.byte	0
 1611 0103 00       		.byte	0
 1612 0104 17       		.uleb128 0x17
 1613 0105 13       		.uleb128 0x13
 1614 0106 01       		.byte	0x1
 1615 0107 0B       		.uleb128 0xb
 1616 0108 0B       		.uleb128 0xb
 1617 0109 3A       		.uleb128 0x3a
 1618 010a 0B       		.uleb128 0xb
 1619 010b 3B       		.uleb128 0x3b
 1620 010c 0B       		.uleb128 0xb
 1621 010d 01       		.uleb128 0x1
 1622 010e 13       		.uleb128 0x13
 1623 010f 00       		.byte	0
 1624 0110 00       		.byte	0
 1625 0111 18       		.uleb128 0x18
 1626 0112 2E       		.uleb128 0x2e
 1627 0113 01       		.byte	0x1
 1628 0114 03       		.uleb128 0x3
 1629 0115 08       		.uleb128 0x8
 1630 0116 3A       		.uleb128 0x3a
 1631 0117 0B       		.uleb128 0xb
 1632 0118 3B       		.uleb128 0x3b
 1633 0119 0B       		.uleb128 0xb
 1634 011a 27       		.uleb128 0x27
 1635 011b 19       		.uleb128 0x19
 1636 011c 49       		.uleb128 0x49
 1637 011d 13       		.uleb128 0x13
 1638 011e 11       		.uleb128 0x11
 1639 011f 01       		.uleb128 0x1
 1640 0120 12       		.uleb128 0x12
 1641 0121 06       		.uleb128 0x6
 1642 0122 40       		.uleb128 0x40
 1643 0123 18       		.uleb128 0x18
 1644 0124 9742     		.uleb128 0x2117
 1645 0126 19       		.uleb128 0x19
 1646 0127 01       		.uleb128 0x1
 1647 0128 13       		.uleb128 0x13
 1648 0129 00       		.byte	0
ARM GAS  /tmp/ccGeb85Q.s 			page 30


 1649 012a 00       		.byte	0
 1650 012b 19       		.uleb128 0x19
 1651 012c 05       		.uleb128 0x5
 1652 012d 00       		.byte	0
 1653 012e 03       		.uleb128 0x3
 1654 012f 08       		.uleb128 0x8
 1655 0130 3A       		.uleb128 0x3a
 1656 0131 0B       		.uleb128 0xb
 1657 0132 3B       		.uleb128 0x3b
 1658 0133 0B       		.uleb128 0xb
 1659 0134 49       		.uleb128 0x49
 1660 0135 13       		.uleb128 0x13
 1661 0136 02       		.uleb128 0x2
 1662 0137 17       		.uleb128 0x17
 1663 0138 00       		.byte	0
 1664 0139 00       		.byte	0
 1665 013a 1A       		.uleb128 0x1a
 1666 013b 05       		.uleb128 0x5
 1667 013c 00       		.byte	0
 1668 013d 03       		.uleb128 0x3
 1669 013e 08       		.uleb128 0x8
 1670 013f 3A       		.uleb128 0x3a
 1671 0140 0B       		.uleb128 0xb
 1672 0141 3B       		.uleb128 0x3b
 1673 0142 0B       		.uleb128 0xb
 1674 0143 49       		.uleb128 0x49
 1675 0144 13       		.uleb128 0x13
 1676 0145 02       		.uleb128 0x2
 1677 0146 18       		.uleb128 0x18
 1678 0147 00       		.byte	0
 1679 0148 00       		.byte	0
 1680 0149 1B       		.uleb128 0x1b
 1681 014a 34       		.uleb128 0x34
 1682 014b 00       		.byte	0
 1683 014c 03       		.uleb128 0x3
 1684 014d 08       		.uleb128 0x8
 1685 014e 3A       		.uleb128 0x3a
 1686 014f 0B       		.uleb128 0xb
 1687 0150 3B       		.uleb128 0x3b
 1688 0151 0B       		.uleb128 0xb
 1689 0152 49       		.uleb128 0x49
 1690 0153 13       		.uleb128 0x13
 1691 0154 02       		.uleb128 0x2
 1692 0155 17       		.uleb128 0x17
 1693 0156 00       		.byte	0
 1694 0157 00       		.byte	0
 1695 0158 1C       		.uleb128 0x1c
 1696 0159 2E       		.uleb128 0x2e
 1697 015a 01       		.byte	0x1
 1698 015b 03       		.uleb128 0x3
 1699 015c 0E       		.uleb128 0xe
 1700 015d 3A       		.uleb128 0x3a
 1701 015e 0B       		.uleb128 0xb
 1702 015f 3B       		.uleb128 0x3b
 1703 0160 0B       		.uleb128 0xb
 1704 0161 27       		.uleb128 0x27
 1705 0162 19       		.uleb128 0x19
ARM GAS  /tmp/ccGeb85Q.s 			page 31


 1706 0163 49       		.uleb128 0x49
 1707 0164 13       		.uleb128 0x13
 1708 0165 11       		.uleb128 0x11
 1709 0166 01       		.uleb128 0x1
 1710 0167 12       		.uleb128 0x12
 1711 0168 06       		.uleb128 0x6
 1712 0169 40       		.uleb128 0x40
 1713 016a 18       		.uleb128 0x18
 1714 016b 9742     		.uleb128 0x2117
 1715 016d 19       		.uleb128 0x19
 1716 016e 01       		.uleb128 0x1
 1717 016f 13       		.uleb128 0x13
 1718 0170 00       		.byte	0
 1719 0171 00       		.byte	0
 1720 0172 1D       		.uleb128 0x1d
 1721 0173 898201   		.uleb128 0x4109
 1722 0176 01       		.byte	0x1
 1723 0177 11       		.uleb128 0x11
 1724 0178 01       		.uleb128 0x1
 1725 0179 31       		.uleb128 0x31
 1726 017a 13       		.uleb128 0x13
 1727 017b 00       		.byte	0
 1728 017c 00       		.byte	0
 1729 017d 1E       		.uleb128 0x1e
 1730 017e 8A8201   		.uleb128 0x410a
 1731 0181 00       		.byte	0
 1732 0182 02       		.uleb128 0x2
 1733 0183 18       		.uleb128 0x18
 1734 0184 9142     		.uleb128 0x2111
 1735 0186 18       		.uleb128 0x18
 1736 0187 00       		.byte	0
 1737 0188 00       		.byte	0
 1738 0189 1F       		.uleb128 0x1f
 1739 018a 2E       		.uleb128 0x2e
 1740 018b 01       		.byte	0x1
 1741 018c 3F       		.uleb128 0x3f
 1742 018d 19       		.uleb128 0x19
 1743 018e 03       		.uleb128 0x3
 1744 018f 0E       		.uleb128 0xe
 1745 0190 3A       		.uleb128 0x3a
 1746 0191 0B       		.uleb128 0xb
 1747 0192 3B       		.uleb128 0x3b
 1748 0193 0B       		.uleb128 0xb
 1749 0194 27       		.uleb128 0x27
 1750 0195 19       		.uleb128 0x19
 1751 0196 11       		.uleb128 0x11
 1752 0197 01       		.uleb128 0x1
 1753 0198 12       		.uleb128 0x12
 1754 0199 06       		.uleb128 0x6
 1755 019a 40       		.uleb128 0x40
 1756 019b 18       		.uleb128 0x18
 1757 019c 9742     		.uleb128 0x2117
 1758 019e 19       		.uleb128 0x19
 1759 019f 01       		.uleb128 0x1
 1760 01a0 13       		.uleb128 0x13
 1761 01a1 00       		.byte	0
 1762 01a2 00       		.byte	0
ARM GAS  /tmp/ccGeb85Q.s 			page 32


 1763 01a3 20       		.uleb128 0x20
 1764 01a4 05       		.uleb128 0x5
 1765 01a5 00       		.byte	0
 1766 01a6 03       		.uleb128 0x3
 1767 01a7 0E       		.uleb128 0xe
 1768 01a8 3A       		.uleb128 0x3a
 1769 01a9 0B       		.uleb128 0xb
 1770 01aa 3B       		.uleb128 0x3b
 1771 01ab 0B       		.uleb128 0xb
 1772 01ac 49       		.uleb128 0x49
 1773 01ad 13       		.uleb128 0x13
 1774 01ae 02       		.uleb128 0x2
 1775 01af 17       		.uleb128 0x17
 1776 01b0 00       		.byte	0
 1777 01b1 00       		.byte	0
 1778 01b2 21       		.uleb128 0x21
 1779 01b3 05       		.uleb128 0x5
 1780 01b4 00       		.byte	0
 1781 01b5 03       		.uleb128 0x3
 1782 01b6 0E       		.uleb128 0xe
 1783 01b7 3A       		.uleb128 0x3a
 1784 01b8 0B       		.uleb128 0xb
 1785 01b9 3B       		.uleb128 0x3b
 1786 01ba 0B       		.uleb128 0xb
 1787 01bb 49       		.uleb128 0x49
 1788 01bc 13       		.uleb128 0x13
 1789 01bd 02       		.uleb128 0x2
 1790 01be 18       		.uleb128 0x18
 1791 01bf 00       		.byte	0
 1792 01c0 00       		.byte	0
 1793 01c1 22       		.uleb128 0x22
 1794 01c2 34       		.uleb128 0x34
 1795 01c3 00       		.byte	0
 1796 01c4 03       		.uleb128 0x3
 1797 01c5 08       		.uleb128 0x8
 1798 01c6 3A       		.uleb128 0x3a
 1799 01c7 0B       		.uleb128 0xb
 1800 01c8 3B       		.uleb128 0x3b
 1801 01c9 0B       		.uleb128 0xb
 1802 01ca 49       		.uleb128 0x49
 1803 01cb 13       		.uleb128 0x13
 1804 01cc 02       		.uleb128 0x2
 1805 01cd 18       		.uleb128 0x18
 1806 01ce 00       		.byte	0
 1807 01cf 00       		.byte	0
 1808 01d0 23       		.uleb128 0x23
 1809 01d1 34       		.uleb128 0x34
 1810 01d2 00       		.byte	0
 1811 01d3 03       		.uleb128 0x3
 1812 01d4 0E       		.uleb128 0xe
 1813 01d5 3A       		.uleb128 0x3a
 1814 01d6 0B       		.uleb128 0xb
 1815 01d7 3B       		.uleb128 0x3b
 1816 01d8 05       		.uleb128 0x5
 1817 01d9 49       		.uleb128 0x49
 1818 01da 13       		.uleb128 0x13
 1819 01db 3F       		.uleb128 0x3f
ARM GAS  /tmp/ccGeb85Q.s 			page 33


 1820 01dc 19       		.uleb128 0x19
 1821 01dd 3C       		.uleb128 0x3c
 1822 01de 19       		.uleb128 0x19
 1823 01df 00       		.byte	0
 1824 01e0 00       		.byte	0
 1825 01e1 24       		.uleb128 0x24
 1826 01e2 34       		.uleb128 0x34
 1827 01e3 00       		.byte	0
 1828 01e4 03       		.uleb128 0x3
 1829 01e5 08       		.uleb128 0x8
 1830 01e6 3A       		.uleb128 0x3a
 1831 01e7 0B       		.uleb128 0xb
 1832 01e8 3B       		.uleb128 0x3b
 1833 01e9 05       		.uleb128 0x5
 1834 01ea 49       		.uleb128 0x49
 1835 01eb 13       		.uleb128 0x13
 1836 01ec 3F       		.uleb128 0x3f
 1837 01ed 19       		.uleb128 0x19
 1838 01ee 3C       		.uleb128 0x3c
 1839 01ef 19       		.uleb128 0x19
 1840 01f0 00       		.byte	0
 1841 01f1 00       		.byte	0
 1842 01f2 25       		.uleb128 0x25
 1843 01f3 2E       		.uleb128 0x2e
 1844 01f4 01       		.byte	0x1
 1845 01f5 3F       		.uleb128 0x3f
 1846 01f6 19       		.uleb128 0x19
 1847 01f7 03       		.uleb128 0x3
 1848 01f8 0E       		.uleb128 0xe
 1849 01f9 27       		.uleb128 0x27
 1850 01fa 19       		.uleb128 0x19
 1851 01fb 49       		.uleb128 0x49
 1852 01fc 13       		.uleb128 0x13
 1853 01fd 34       		.uleb128 0x34
 1854 01fe 19       		.uleb128 0x19
 1855 01ff 3C       		.uleb128 0x3c
 1856 0200 19       		.uleb128 0x19
 1857 0201 01       		.uleb128 0x1
 1858 0202 13       		.uleb128 0x13
 1859 0203 00       		.byte	0
 1860 0204 00       		.byte	0
 1861 0205 26       		.uleb128 0x26
 1862 0206 26       		.uleb128 0x26
 1863 0207 00       		.byte	0
 1864 0208 00       		.byte	0
 1865 0209 00       		.byte	0
 1866 020a 00       		.byte	0
 1867              		.section	.debug_loc,"",%progbits
 1868              	.Ldebug_loc0:
 1869              	.LLST0:
 1870 0000 00000000 		.4byte	.LVL0
 1871 0004 14000000 		.4byte	.LVL1
 1872 0008 0100     		.2byte	0x1
 1873 000a 50       		.byte	0x50
 1874 000b 14000000 		.4byte	.LVL1
 1875 000f 16000000 		.4byte	.LVL2
 1876 0013 0400     		.2byte	0x4
ARM GAS  /tmp/ccGeb85Q.s 			page 34


 1877 0015 F3       		.byte	0xf3
 1878 0016 01       		.uleb128 0x1
 1879 0017 50       		.byte	0x50
 1880 0018 9F       		.byte	0x9f
 1881 0019 16000000 		.4byte	.LVL2
 1882 001d 1A000000 		.4byte	.LVL3
 1883 0021 0100     		.2byte	0x1
 1884 0023 50       		.byte	0x50
 1885 0024 1A000000 		.4byte	.LVL3
 1886 0028 1C000000 		.4byte	.LFE281
 1887 002c 0400     		.2byte	0x4
 1888 002e F3       		.byte	0xf3
 1889 002f 01       		.uleb128 0x1
 1890 0030 50       		.byte	0x50
 1891 0031 9F       		.byte	0x9f
 1892 0032 00000000 		.4byte	0
 1893 0036 00000000 		.4byte	0
 1894              	.LLST2:
 1895 003a 00000000 		.4byte	.LVL4
 1896 003e 0E000000 		.4byte	.LVL6
 1897 0042 0100     		.2byte	0x1
 1898 0044 50       		.byte	0x50
 1899 0045 0E000000 		.4byte	.LVL6
 1900 0049 14000000 		.4byte	.LVL7
 1901 004d 0100     		.2byte	0x1
 1902 004f 52       		.byte	0x52
 1903 0050 14000000 		.4byte	.LVL7
 1904 0054 18000000 		.4byte	.LVL8
 1905 0058 0100     		.2byte	0x1
 1906 005a 50       		.byte	0x50
 1907 005b 18000000 		.4byte	.LVL8
 1908 005f 1A000000 		.4byte	.LFE282
 1909 0063 0100     		.2byte	0x1
 1910 0065 52       		.byte	0x52
 1911 0066 00000000 		.4byte	0
 1912 006a 00000000 		.4byte	0
 1913              	.LLST3:
 1914 006e 0E000000 		.4byte	.LVL6
 1915 0072 14000000 		.4byte	.LVL7
 1916 0076 0100     		.2byte	0x1
 1917 0078 50       		.byte	0x50
 1918 0079 00000000 		.4byte	0
 1919 007d 00000000 		.4byte	0
 1920              	.LLST4:
 1921 0081 08000000 		.4byte	.LVL5
 1922 0085 0E000000 		.4byte	.LVL6
 1923 0089 0100     		.2byte	0x1
 1924 008b 50       		.byte	0x50
 1925 008c 0E000000 		.4byte	.LVL6
 1926 0090 14000000 		.4byte	.LVL7
 1927 0094 0100     		.2byte	0x1
 1928 0096 52       		.byte	0x52
 1929 0097 14000000 		.4byte	.LVL7
 1930 009b 18000000 		.4byte	.LVL8
 1931 009f 0100     		.2byte	0x1
 1932 00a1 50       		.byte	0x50
 1933 00a2 18000000 		.4byte	.LVL8
ARM GAS  /tmp/ccGeb85Q.s 			page 35


 1934 00a6 1A000000 		.4byte	.LFE282
 1935 00aa 0100     		.2byte	0x1
 1936 00ac 52       		.byte	0x52
 1937 00ad 00000000 		.4byte	0
 1938 00b1 00000000 		.4byte	0
 1939              	.LLST5:
 1940 00b5 00000000 		.4byte	.LVL9
 1941 00b9 06000000 		.4byte	.LVL11
 1942 00bd 0100     		.2byte	0x1
 1943 00bf 50       		.byte	0x50
 1944 00c0 06000000 		.4byte	.LVL11
 1945 00c4 26000000 		.4byte	.LFE280
 1946 00c8 0100     		.2byte	0x1
 1947 00ca 55       		.byte	0x55
 1948 00cb 00000000 		.4byte	0
 1949 00cf 00000000 		.4byte	0
 1950              	.LLST6:
 1951 00d3 00000000 		.4byte	.LVL9
 1952 00d7 0C000000 		.4byte	.LVL12
 1953 00db 0100     		.2byte	0x1
 1954 00dd 51       		.byte	0x51
 1955 00de 0C000000 		.4byte	.LVL12
 1956 00e2 1B000000 		.4byte	.LVL14-1
 1957 00e6 0100     		.2byte	0x1
 1958 00e8 50       		.byte	0x50
 1959 00e9 1B000000 		.4byte	.LVL14-1
 1960 00ed 26000000 		.4byte	.LFE280
 1961 00f1 0400     		.2byte	0x4
 1962 00f3 F3       		.byte	0xf3
 1963 00f4 01       		.uleb128 0x1
 1964 00f5 51       		.byte	0x51
 1965 00f6 9F       		.byte	0x9f
 1966 00f7 00000000 		.4byte	0
 1967 00fb 00000000 		.4byte	0
 1968              	.LLST7:
 1969 00ff 00000000 		.4byte	.LVL9
 1970 0103 14000000 		.4byte	.LVL13
 1971 0107 0100     		.2byte	0x1
 1972 0109 52       		.byte	0x52
 1973 010a 14000000 		.4byte	.LVL13
 1974 010e 26000000 		.4byte	.LFE280
 1975 0112 0100     		.2byte	0x1
 1976 0114 54       		.byte	0x54
 1977 0115 00000000 		.4byte	0
 1978 0119 00000000 		.4byte	0
 1979              	.LLST8:
 1980 011d 04000000 		.4byte	.LVL10
 1981 0121 06000000 		.4byte	.LVL11
 1982 0125 0100     		.2byte	0x1
 1983 0127 50       		.byte	0x50
 1984 0128 06000000 		.4byte	.LVL11
 1985 012c 26000000 		.4byte	.LFE280
 1986 0130 0100     		.2byte	0x1
 1987 0132 55       		.byte	0x55
 1988 0133 00000000 		.4byte	0
 1989 0137 00000000 		.4byte	0
 1990              	.LLST9:
ARM GAS  /tmp/ccGeb85Q.s 			page 36


 1991 013b 00000000 		.4byte	.LVL15
 1992 013f 0E000000 		.4byte	.LVL17
 1993 0143 0100     		.2byte	0x1
 1994 0145 50       		.byte	0x50
 1995 0146 0E000000 		.4byte	.LVL17
 1996 014a 24000000 		.4byte	.LFE279
 1997 014e 0100     		.2byte	0x1
 1998 0150 55       		.byte	0x55
 1999 0151 00000000 		.4byte	0
 2000 0155 00000000 		.4byte	0
 2001              	.LLST10:
 2002 0159 00000000 		.4byte	.LVL15
 2003 015d 19000000 		.4byte	.LVL19-1
 2004 0161 0100     		.2byte	0x1
 2005 0163 51       		.byte	0x51
 2006 0164 19000000 		.4byte	.LVL19-1
 2007 0168 24000000 		.4byte	.LFE279
 2008 016c 0400     		.2byte	0x4
 2009 016e F3       		.byte	0xf3
 2010 016f 01       		.uleb128 0x1
 2011 0170 51       		.byte	0x51
 2012 0171 9F       		.byte	0x9f
 2013 0172 00000000 		.4byte	0
 2014 0176 00000000 		.4byte	0
 2015              	.LLST11:
 2016 017a 00000000 		.4byte	.LVL15
 2017 017e 12000000 		.4byte	.LVL18
 2018 0182 0100     		.2byte	0x1
 2019 0184 52       		.byte	0x52
 2020 0185 12000000 		.4byte	.LVL18
 2021 0189 24000000 		.4byte	.LFE279
 2022 018d 0100     		.2byte	0x1
 2023 018f 54       		.byte	0x54
 2024 0190 00000000 		.4byte	0
 2025 0194 00000000 		.4byte	0
 2026              	.LLST12:
 2027 0198 0A000000 		.4byte	.LVL16
 2028 019c 0E000000 		.4byte	.LVL17
 2029 01a0 0100     		.2byte	0x1
 2030 01a2 50       		.byte	0x50
 2031 01a3 0E000000 		.4byte	.LVL17
 2032 01a7 24000000 		.4byte	.LFE279
 2033 01ab 0100     		.2byte	0x1
 2034 01ad 55       		.byte	0x55
 2035 01ae 00000000 		.4byte	0
 2036 01b2 00000000 		.4byte	0
 2037              	.LLST13:
 2038 01b6 00000000 		.4byte	.LVL20
 2039 01ba 0A000000 		.4byte	.LVL21
 2040 01be 0100     		.2byte	0x1
 2041 01c0 51       		.byte	0x51
 2042 01c1 0A000000 		.4byte	.LVL21
 2043 01c5 1C000000 		.4byte	.LFE283
 2044 01c9 0200     		.2byte	0x2
 2045 01cb 70       		.byte	0x70
 2046 01cc 04       		.sleb128 4
 2047 01cd 00000000 		.4byte	0
ARM GAS  /tmp/ccGeb85Q.s 			page 37


 2048 01d1 00000000 		.4byte	0
 2049              		.section	.debug_aranges,"",%progbits
 2050 0000 3C000000 		.4byte	0x3c
 2051 0004 0200     		.2byte	0x2
 2052 0006 00000000 		.4byte	.Ldebug_info0
 2053 000a 04       		.byte	0x4
 2054 000b 00       		.byte	0
 2055 000c 0000     		.2byte	0
 2056 000e 0000     		.2byte	0
 2057 0010 00000000 		.4byte	.LFB281
 2058 0014 1C000000 		.4byte	.LFE281-.LFB281
 2059 0018 00000000 		.4byte	.LFB282
 2060 001c 1A000000 		.4byte	.LFE282-.LFB282
 2061 0020 00000000 		.4byte	.LFB280
 2062 0024 26000000 		.4byte	.LFE280-.LFB280
 2063 0028 00000000 		.4byte	.LFB279
 2064 002c 24000000 		.4byte	.LFE279-.LFB279
 2065 0030 00000000 		.4byte	.LFB283
 2066 0034 1C000000 		.4byte	.LFE283-.LFB283
 2067 0038 00000000 		.4byte	0
 2068 003c 00000000 		.4byte	0
 2069              		.section	.debug_ranges,"",%progbits
 2070              	.Ldebug_ranges0:
 2071 0000 00000000 		.4byte	.LFB281
 2072 0004 1C000000 		.4byte	.LFE281
 2073 0008 00000000 		.4byte	.LFB282
 2074 000c 1A000000 		.4byte	.LFE282
 2075 0010 00000000 		.4byte	.LFB280
 2076 0014 26000000 		.4byte	.LFE280
 2077 0018 00000000 		.4byte	.LFB279
 2078 001c 24000000 		.4byte	.LFE279
 2079 0020 00000000 		.4byte	.LFB283
 2080 0024 1C000000 		.4byte	.LFE283
 2081 0028 00000000 		.4byte	0
 2082 002c 00000000 		.4byte	0
 2083              		.section	.debug_line,"",%progbits
 2084              	.Ldebug_line0:
 2085 0000 DD010000 		.section	.debug_str,"MS",%progbits,1
 2085      02006701 
 2085      00000201 
 2085      FB0E0D00 
 2085      01010101 
 2086              	.LASF43:
 2087 0000 74687265 		.ascii	"threads_list_t\000"
 2087      6164735F 
 2087      6C697374 
 2087      5F7400
 2088              	.LASF16:
 2089 000f 74726566 		.ascii	"trefs_t\000"
 2089      735F7400 
 2090              	.LASF48:
 2091 0017 72656164 		.ascii	"ready_list_t\000"
 2091      795F6C69 
 2091      73745F74 
 2091      00
 2092              	.LASF7:
 2093 0024 73697A65 		.ascii	"size_t\000"
ARM GAS  /tmp/ccGeb85Q.s 			page 38


 2093      5F7400
 2094              	.LASF80:
 2095 002b 7264796D 		.ascii	"rdymsg\000"
 2095      736700
 2096              	.LASF12:
 2097 0032 75696E74 		.ascii	"uint64_t\000"
 2097      36345F74 
 2097      00
 2098              	.LASF79:
 2099 003b 706F7274 		.ascii	"port_intctx\000"
 2099      5F696E74 
 2099      63747800 
 2100              	.LASF67:
 2101 0047 73797374 		.ascii	"system_debug_t\000"
 2101      656D5F64 
 2101      65627567 
 2101      5F7400
 2102              	.LASF106:
 2103 0056 474E5520 		.ascii	"GNU C 4.9.2 -mcpu=cortex-m4 -mfloat-abi=soft -mfp16"
 2103      4320342E 
 2103      392E3220 
 2103      2D6D6370 
 2103      753D636F 
 2104 0089 2D666F72 		.ascii	"-format=none -mno-thumb-interwork -mthumb -mfpu=vfp"
 2104      6D61743D 
 2104      6E6F6E65 
 2104      202D6D6E 
 2104      6F2D7468 
 2105 00bc 76332D64 		.ascii	"v3-d16 -mtls-dialect=gnu -ggdb -O2 -fomit-frame-poi"
 2105      3136202D 
 2105      6D746C73 
 2105      2D646961 
 2105      6C656374 
 2106 00ef 6E746572 		.ascii	"nter -falign-functions=16 -ffunction-sections -fdat"
 2106      202D6661 
 2106      6C69676E 
 2106      2D66756E 
 2106      6374696F 
 2107 0122 612D7365 		.ascii	"a-sections -fno-common\000"
 2107      6374696F 
 2107      6E73202D 
 2107      666E6F2D 
 2107      636F6D6D 
 2108              	.LASF13:
 2109 0139 6C6F6E67 		.ascii	"long long unsigned int\000"
 2109      206C6F6E 
 2109      6720756E 
 2109      7369676E 
 2109      65642069 
 2110              	.LASF81:
 2111 0150 65786974 		.ascii	"exitcode\000"
 2111      636F6465 
 2111      00
 2112              	.LASF74:
 2113 0159 6D61696E 		.ascii	"mainthread\000"
 2113      74687265 
 2113      616400
ARM GAS  /tmp/ccGeb85Q.s 			page 39


 2114              	.LASF64:
 2115 0164 76697274 		.ascii	"virtual_timers_list_t\000"
 2115      75616C5F 
 2115      74696D65 
 2115      72735F6C 
 2115      6973745F 
 2116              	.LASF105:
 2117 017a 49544D5F 		.ascii	"ITM_RxBuffer\000"
 2117      52784275 
 2117      66666572 
 2117      00
 2118              	.LASF47:
 2119 0187 63685F74 		.ascii	"ch_threads_queue\000"
 2119      68726561 
 2119      64735F71 
 2119      75657565 
 2119      00
 2120              	.LASF26:
 2121 0198 705F7072 		.ascii	"p_prio\000"
 2121      696F00
 2122              	.LASF103:
 2123 019f 72656164 		.ascii	"reads\000"
 2123      7300
 2124              	.LASF9:
 2125 01a5 6C6F6E67 		.ascii	"long long int\000"
 2125      206C6F6E 
 2125      6720696E 
 2125      7400
 2126              	.LASF5:
 2127 01b3 7369676E 		.ascii	"signed char\000"
 2127      65642063 
 2127      68617200 
 2128              	.LASF41:
 2129 01bf 705F6D70 		.ascii	"p_mpool\000"
 2129      6F6F6C00 
 2130              	.LASF91:
 2131 01c7 6D5F7175 		.ascii	"m_queue\000"
 2131      65756500 
 2132              	.LASF73:
 2133 01cf 76746C69 		.ascii	"vtlist\000"
 2133      737400
 2134              	.LASF17:
 2135 01d6 74736C69 		.ascii	"tslices_t\000"
 2135      6365735F 
 2135      7400
 2136              	.LASF83:
 2137 01e0 77747472 		.ascii	"wttrp\000"
 2137      7000
 2138              	.LASF71:
 2139 01e6 63685F73 		.ascii	"ch_system\000"
 2139      79737465 
 2139      6D00
 2140              	.LASF15:
 2141 01f0 74737461 		.ascii	"tstate_t\000"
 2141      74655F74 
 2141      00
 2142              	.LASF110:
ARM GAS  /tmp/ccGeb85Q.s 			page 40


 2143 01f9 6D656D63 		.ascii	"memcpy\000"
 2143      707900
 2144              	.LASF99:
 2145 0200 62756666 		.ascii	"buffer\000"
 2145      657200
 2146              	.LASF28:
 2147 0207 705F6E65 		.ascii	"p_newer\000"
 2147      77657200 
 2148              	.LASF88:
 2149 020f 735F7175 		.ascii	"s_queue\000"
 2149      65756500 
 2150              	.LASF53:
 2151 0217 725F6E65 		.ascii	"r_newer\000"
 2151      77657200 
 2152              	.LASF76:
 2153 021f 72656761 		.ascii	"regarm_t\000"
 2153      726D5F74 
 2153      00
 2154              	.LASF60:
 2155 0228 76745F70 		.ascii	"vt_prev\000"
 2155      72657600 
 2156              	.LASF94:
 2157 0230 6D757465 		.ascii	"mutex_t\000"
 2157      785F7400 
 2158              	.LASF75:
 2159 0238 69646C65 		.ascii	"idle_thread_wa\000"
 2159      5F746872 
 2159      6561645F 
 2159      776100
 2160              	.LASF21:
 2161 0247 636E745F 		.ascii	"cnt_t\000"
 2161      7400
 2162              	.LASF0:
 2163 024d 756E7369 		.ascii	"unsigned int\000"
 2163      676E6564 
 2163      20696E74 
 2163      00
 2164              	.LASF59:
 2165 025a 76745F6E 		.ascii	"vt_next\000"
 2165      65787400 
 2166              	.LASF84:
 2167 0262 77747365 		.ascii	"wtsemp\000"
 2167      6D7000
 2168              	.LASF36:
 2169 0269 705F6D73 		.ascii	"p_msgqueue\000"
 2169      67717565 
 2169      756500
 2170              	.LASF89:
 2171 0274 735F636E 		.ascii	"s_cnt\000"
 2171      7400
 2172              	.LASF100:
 2173 027a 73697A65 		.ascii	"size\000"
 2173      00
 2174              	.LASF2:
 2175 027f 73686F72 		.ascii	"short unsigned int\000"
 2175      7420756E 
 2175      7369676E 
ARM GAS  /tmp/ccGeb85Q.s 			page 41


 2175      65642069 
 2175      6E7400
 2176              	.LASF44:
 2177 0292 63685F74 		.ascii	"ch_thread\000"
 2177      68726561 
 2177      6400
 2178              	.LASF19:
 2179 029c 6D73675F 		.ascii	"msg_t\000"
 2179      7400
 2180              	.LASF70:
 2181 02a2 63685F73 		.ascii	"ch_system_t\000"
 2181      79737465 
 2181      6D5F7400 
 2182              	.LASF104:
 2183 02ae 77726974 		.ascii	"writes\000"
 2183      657300
 2184              	.LASF14:
 2185 02b5 746D6F64 		.ascii	"tmode_t\000"
 2185      655F7400 
 2186              	.LASF49:
 2187 02bd 63685F72 		.ascii	"ch_ready_list\000"
 2187      65616479 
 2187      5F6C6973 
 2187      7400
 2188              	.LASF20:
 2189 02cb 6576656E 		.ascii	"eventmask_t\000"
 2189      746D6173 
 2189      6B5F7400 
 2190              	.LASF77:
 2191 02d7 73746B61 		.ascii	"stkalign_t\000"
 2191      6C69676E 
 2191      5F7400
 2192              	.LASF109:
 2193 02e2 6D734F62 		.ascii	"msObjectInit\000"
 2193      6A656374 
 2193      496E6974 
 2193      00
 2194              	.LASF97:
 2195 02ef 77726974 		.ascii	"write\000"
 2195      6500
 2196              	.LASF107:
 2197 02f5 2E2E2F6F 		.ascii	"../os/hal/lib/streams/memstreams.c\000"
 2197      732F6861 
 2197      6C2F6C69 
 2197      622F7374 
 2197      7265616D 
 2198              	.LASF35:
 2199 0318 705F7761 		.ascii	"p_waiting\000"
 2199      6974696E 
 2199      6700
 2200              	.LASF1:
 2201 0322 73697A65 		.ascii	"sizetype\000"
 2201      74797065 
 2201      00
 2202              	.LASF42:
 2203 032b 74687265 		.ascii	"thread_reference_t\000"
 2203      61645F72 
ARM GAS  /tmp/ccGeb85Q.s 			page 42


 2203      65666572 
 2203      656E6365 
 2203      5F7400
 2204              	.LASF65:
 2205 033e 63685F76 		.ascii	"ch_virtual_timers_list\000"
 2205      69727475 
 2205      616C5F74 
 2205      696D6572 
 2205      735F6C69 
 2206              	.LASF29:
 2207 0355 705F6F6C 		.ascii	"p_older\000"
 2207      64657200 
 2208              	.LASF52:
 2209 035d 725F6374 		.ascii	"r_ctx\000"
 2209      7800
 2210              	.LASF55:
 2211 0363 725F6375 		.ascii	"r_current\000"
 2211      7272656E 
 2211      7400
 2212              	.LASF54:
 2213 036d 725F6F6C 		.ascii	"r_older\000"
 2213      64657200 
 2214              	.LASF96:
 2215 0375 4D656D53 		.ascii	"MemStreamVMT\000"
 2215      74726561 
 2215      6D564D54 
 2215      00
 2216              	.LASF57:
 2217 0382 76697274 		.ascii	"virtual_timer_t\000"
 2217      75616C5F 
 2217      74696D65 
 2217      725F7400 
 2218              	.LASF25:
 2219 0392 705F7072 		.ascii	"p_prev\000"
 2219      657600
 2220              	.LASF18:
 2221 0399 74707269 		.ascii	"tprio_t\000"
 2221      6F5F7400 
 2222              	.LASF102:
 2223 03a1 4D656D6F 		.ascii	"MemoryStream\000"
 2223      72795374 
 2223      7265616D 
 2223      00
 2224              	.LASF68:
 2225 03ae 63685F73 		.ascii	"ch_system_debug\000"
 2225      79737465 
 2225      6D5F6465 
 2225      62756700 
 2226              	.LASF95:
 2227 03be 5F426F6F 		.ascii	"_Bool\000"
 2227      6C00
 2228              	.LASF8:
 2229 03c4 696E7433 		.ascii	"int32_t\000"
 2229      325F7400 
 2230              	.LASF4:
 2231 03cc 756E7369 		.ascii	"unsigned char\000"
 2231      676E6564 
ARM GAS  /tmp/ccGeb85Q.s 			page 43


 2231      20636861 
 2231      7200
 2232              	.LASF31:
 2233 03da 705F7374 		.ascii	"p_state\000"
 2233      61746500 
 2234              	.LASF39:
 2235 03e2 705F6D74 		.ascii	"p_mtxlist\000"
 2235      786C6973 
 2235      7400
 2236              	.LASF6:
 2237 03ec 73686F72 		.ascii	"short int\000"
 2237      7420696E 
 2237      7400
 2238              	.LASF34:
 2239 03f6 705F7072 		.ascii	"p_preempt\000"
 2239      65656D70 
 2239      7400
 2240              	.LASF51:
 2241 0400 725F7072 		.ascii	"r_prio\000"
 2241      696F00
 2242              	.LASF86:
 2243 0407 65776D61 		.ascii	"ewmask\000"
 2243      736B00
 2244              	.LASF24:
 2245 040e 705F6E65 		.ascii	"p_next\000"
 2245      787400
 2246              	.LASF32:
 2247 0415 705F666C 		.ascii	"p_flags\000"
 2247      61677300 
 2248              	.LASF30:
 2249 041d 705F6E61 		.ascii	"p_name\000"
 2249      6D6500
 2250              	.LASF58:
 2251 0424 63685F76 		.ascii	"ch_virtual_timer\000"
 2251      69727475 
 2251      616C5F74 
 2251      696D6572 
 2251      00
 2252              	.LASF87:
 2253 0435 63685F73 		.ascii	"ch_semaphore\000"
 2253      656D6170 
 2253      686F7265 
 2253      00
 2254              	.LASF38:
 2255 0442 705F6570 		.ascii	"p_epending\000"
 2255      656E6469 
 2255      6E6700
 2256              	.LASF11:
 2257 044d 75696E74 		.ascii	"uint32_t\000"
 2257      33325F74 
 2257      00
 2258              	.LASF85:
 2259 0456 77746D74 		.ascii	"wtmtxp\000"
 2259      787000
 2260              	.LASF50:
 2261 045d 725F7175 		.ascii	"r_queue\000"
 2261      65756500 
ARM GAS  /tmp/ccGeb85Q.s 			page 44


 2262              	.LASF61:
 2263 0465 76745F64 		.ascii	"vt_delta\000"
 2263      656C7461 
 2263      00
 2264              	.LASF45:
 2265 046e 63685F74 		.ascii	"ch_threads_list\000"
 2265      68726561 
 2265      64735F6C 
 2265      69737400 
 2266              	.LASF3:
 2267 047e 63686172 		.ascii	"char\000"
 2267      00
 2268              	.LASF98:
 2269 0483 72656164 		.ascii	"read\000"
 2269      00
 2270              	.LASF108:
 2271 0488 2F686F6D 		.ascii	"/home/bunnie/code/chibios-netvcr/netvcr\000"
 2271      652F6275 
 2271      6E6E6965 
 2271      2F636F64 
 2271      652F6368 
 2272              	.LASF23:
 2273 04b0 74687265 		.ascii	"thread_t\000"
 2273      61645F74 
 2273      00
 2274              	.LASF93:
 2275 04b9 6D5F6E65 		.ascii	"m_next\000"
 2275      787400
 2276              	.LASF22:
 2277 04c0 73797374 		.ascii	"systime_t\000"
 2277      696D655F 
 2277      7400
 2278              	.LASF40:
 2279 04ca 705F7265 		.ascii	"p_realprio\000"
 2279      616C7072 
 2279      696F00
 2280              	.LASF56:
 2281 04d5 76746675 		.ascii	"vtfunc_t\000"
 2281      6E635F74 
 2281      00
 2282              	.LASF69:
 2283 04de 70616E69 		.ascii	"panic_msg\000"
 2283      635F6D73 
 2283      6700
 2284              	.LASF101:
 2285 04e8 6F666673 		.ascii	"offset\000"
 2285      657400
 2286              	.LASF78:
 2287 04ef 636F6E74 		.ascii	"context\000"
 2287      65787400 
 2288              	.LASF63:
 2289 04f7 76745F70 		.ascii	"vt_par\000"
 2289      617200
 2290              	.LASF46:
 2291 04fe 74687265 		.ascii	"threads_queue_t\000"
 2291      6164735F 
 2291      71756575 
ARM GAS  /tmp/ccGeb85Q.s 			page 45


 2291      655F7400 
 2292              	.LASF90:
 2293 050e 63685F6D 		.ascii	"ch_mutex\000"
 2293      75746578 
 2293      00
 2294              	.LASF33:
 2295 0517 705F7265 		.ascii	"p_refs\000"
 2295      667300
 2296              	.LASF72:
 2297 051e 726C6973 		.ascii	"rlist\000"
 2297      7400
 2298              	.LASF10:
 2299 0524 75696E74 		.ascii	"uint8_t\000"
 2299      385F7400 
 2300              	.LASF82:
 2301 052c 77746F62 		.ascii	"wtobjp\000"
 2301      6A7000
 2302              	.LASF66:
 2303 0533 76745F73 		.ascii	"vt_systime\000"
 2303      79737469 
 2303      6D6500
 2304              	.LASF37:
 2305 053e 705F6D73 		.ascii	"p_msg\000"
 2305      6700
 2306              	.LASF92:
 2307 0544 6D5F6F77 		.ascii	"m_owner\000"
 2307      6E657200 
 2308              	.LASF27:
 2309 054c 705F6374 		.ascii	"p_ctx\000"
 2309      7800
 2310              	.LASF62:
 2311 0552 76745F66 		.ascii	"vt_func\000"
 2311      756E6300 
 2312              		.ident	"GCC: (Debian 4.9.2-10) 4.9.2"
 2313              		.section	.note.GNU-stack,"",%progbits
ARM GAS  /tmp/ccGeb85Q.s 			page 46


DEFINED SYMBOLS
                            *ABS*:00000000 memstreams.c
     /tmp/ccGeb85Q.s:19     .text.put:00000000 $t
     /tmp/ccGeb85Q.s:24     .text.put:00000000 put
     /tmp/ccGeb85Q.s:60     .text.get:00000000 $t
     /tmp/ccGeb85Q.s:65     .text.get:00000000 get
     /tmp/ccGeb85Q.s:102    .text.reads:00000000 $t
     /tmp/ccGeb85Q.s:107    .text.reads:00000000 reads
     /tmp/ccGeb85Q.s:154    .text.writes:00000000 $t
     /tmp/ccGeb85Q.s:159    .text.writes:00000000 writes
     /tmp/ccGeb85Q.s:201    .text.msObjectInit:00000000 $t
     /tmp/ccGeb85Q.s:207    .text.msObjectInit:00000000 msObjectInit
     /tmp/ccGeb85Q.s:240    .text.msObjectInit:00000018 $d
     /tmp/ccGeb85Q.s:245    .rodata.vmt:00000000 $d
     /tmp/ccGeb85Q.s:249    .rodata.vmt:00000000 vmt
                     .debug_frame:00000010 $d
     /tmp/ccGeb85Q.s:2313   .text.msObjectInit:0000001c $t

UNDEFINED SYMBOLS
memcpy
