ARM GAS  /tmp/ccGeb85Q.s 			page 1


   1              		.syntax unified
   2              		.cpu cortex-m4
   3              		.fpu softvfp
   4              		.eabi_attribute 20, 1
   5              		.eabi_attribute 21, 1
   6              		.eabi_attribute 23, 3
   7              		.eabi_attribute 24, 1
   8              		.eabi_attribute 25, 1
   9              		.eabi_attribute 26, 2
  10              		.eabi_attribute 30, 2
  11              		.eabi_attribute 34, 1
  12              		.eabi_attribute 18, 4
  13              		.thumb
  14              		.file	"memstreams.c"
  15              		.text
  16              	.Ltext0:
  17              		.cfi_sections	.debug_frame
  18              		.section	.text.put,"ax",%progbits
  19              		.align	2
  20              		.p2align 4,,15
  21              		.thumb
  22              		.thumb_func
  23              		.type	put, %function
  24              	put:
  25              	.LFB281:
  26              		.file 1 "../os/hal/lib/streams/memstreams.c"
  27              		.loc 1 66 0
  28              		.cfi_startproc
  29              		@ args = 0, pretend = 0, frame = 0
  30              		@ frame_needed = 0, uses_anonymous_args = 0
  31              		@ link register save eliminated.
  32              	.LVL0:
  33              		.loc 1 69 0
  34 0000 C368     		ldr	r3, [r0, #12]
  35 0002 8268     		ldr	r2, [r0, #8]
  36 0004 9A42     		cmp	r2, r3
  37 0006 06D0     		beq	.L3
  38              		.loc 1 71 0
  39 0008 4268     		ldr	r2, [r0, #4]
  40 000a D154     		strb	r1, [r2, r3]
  41              		.loc 1 72 0
  42 000c C368     		ldr	r3, [r0, #12]
  43 000e 0133     		adds	r3, r3, #1
  44 0010 C360     		str	r3, [r0, #12]
  45              		.loc 1 73 0
  46 0012 0020     		movs	r0, #0
  47              	.LVL1:
  48 0014 7047     		bx	lr
  49              	.LVL2:
  50              	.L3:
  51              		.loc 1 70 0
  52 0016 6FF00100 		mvn	r0, #1
  53              	.LVL3:
  54              		.loc 1 74 0
  55 001a 7047     		bx	lr
  56              		.cfi_endproc
  57              	.LFE281:
ARM GAS  /tmp/ccGeb85Q.s 			page 2


  58              		.size	put, .-put
  59 001c AFF30080 		.section	.text.get,"ax",%progbits
  60              		.align	2
  61              		.p2align 4,,15
  62              		.thumb
  63              		.thumb_func
  64              		.type	get, %function
  65              	get:
  66              	.LFB282:
  67              		.loc 1 76 0
  68              		.cfi_startproc
  69              		@ args = 0, pretend = 0, frame = 0
  70              		@ frame_needed = 0, uses_anonymous_args = 0
  71              		@ link register save eliminated.
  72              	.LVL4:
  73              		.loc 1 80 0
  74 0000 0369     		ldr	r3, [r0, #16]
  75 0002 C168     		ldr	r1, [r0, #12]
  76 0004 9942     		cmp	r1, r3
  77              		.loc 1 76 0
  78 0006 0246     		mov	r2, r0
  79              	.LVL5:
  80              		.loc 1 80 0
  81 0008 04D0     		beq	.L7
  82              		.loc 1 82 0
  83 000a 4168     		ldr	r1, [r0, #4]
  84 000c C85C     		ldrb	r0, [r1, r3]	@ zero_extendqisi2
  85              	.LVL6:
  86              		.loc 1 83 0
  87 000e 0133     		adds	r3, r3, #1
  88 0010 1361     		str	r3, [r2, #16]
  89              		.loc 1 84 0
  90 0012 7047     		bx	lr
  91              	.LVL7:
  92              	.L7:
  93              		.loc 1 81 0
  94 0014 6FF00100 		mvn	r0, #1
  95              	.LVL8:
  96              		.loc 1 85 0
  97 0018 7047     		bx	lr
  98              		.cfi_endproc
  99              	.LFE282:
 100              		.size	get, .-get
 101 001a 00BFAFF3 		.section	.text.reads,"ax",%progbits
 101      0080
 102              		.align	2
 103              		.p2align 4,,15
 104              		.thumb
 105              		.thumb_func
 106              		.type	reads, %function
 107              	reads:
 108              	.LFB280:
 109              		.loc 1 56 0
 110              		.cfi_startproc
 111              		@ args = 0, pretend = 0, frame = 0
 112              		@ frame_needed = 0, uses_anonymous_args = 0
 113              	.LVL9:
ARM GAS  /tmp/ccGeb85Q.s 			page 3


 114 0000 38B5     		push	{r3, r4, r5, lr}
 115              		.cfi_def_cfa_offset 16
 116              		.cfi_offset 3, -16
 117              		.cfi_offset 4, -12
 118              		.cfi_offset 5, -8
 119              		.cfi_offset 14, -4
 120              		.loc 1 56 0
 121 0002 0546     		mov	r5, r0
 122              	.LVL10:
 123              		.loc 1 61 0
 124 0004 0846     		mov	r0, r1
 125              	.LVL11:
 126              		.loc 1 59 0
 127 0006 2B69     		ldr	r3, [r5, #16]
 128 0008 EC68     		ldr	r4, [r5, #12]
 129              		.loc 1 61 0
 130 000a 6968     		ldr	r1, [r5, #4]
 131              	.LVL12:
 132              		.loc 1 59 0
 133 000c E41A     		subs	r4, r4, r3
 134 000e 9442     		cmp	r4, r2
 135 0010 28BF     		it	cs
 136 0012 1446     		movcs	r4, r2
 137              	.LVL13:
 138              		.loc 1 61 0
 139 0014 1944     		add	r1, r1, r3
 140 0016 2246     		mov	r2, r4
 141 0018 FFF7FEFF 		bl	memcpy
 142              	.LVL14:
 143              		.loc 1 62 0
 144 001c 2B69     		ldr	r3, [r5, #16]
 145 001e 2344     		add	r3, r3, r4
 146 0020 2B61     		str	r3, [r5, #16]
 147              		.loc 1 64 0
 148 0022 2046     		mov	r0, r4
 149 0024 38BD     		pop	{r3, r4, r5, pc}
 150              		.cfi_endproc
 151              	.LFE280:
 152              		.size	reads, .-reads
 153 0026 00BFAFF3 		.section	.text.writes,"ax",%progbits
 153      0080AFF3 
 153      0080
 154              		.align	2
 155              		.p2align 4,,15
 156              		.thumb
 157              		.thumb_func
 158              		.type	writes, %function
 159              	writes:
 160              	.LFB279:
 161              		.loc 1 46 0
 162              		.cfi_startproc
 163              		@ args = 0, pretend = 0, frame = 0
 164              		@ frame_needed = 0, uses_anonymous_args = 0
 165              	.LVL15:
 166 0000 38B5     		push	{r3, r4, r5, lr}
 167              		.cfi_def_cfa_offset 16
 168              		.cfi_offset 3, -16
ARM GAS  /tmp/ccGeb85Q.s 			page 4


 169              		.cfi_offset 4, -12
 170              		.cfi_offset 5, -8
 171              		.cfi_offset 14, -4
 172              		.loc 1 49 0
 173 0002 C368     		ldr	r3, [r0, #12]
 174 0004 8468     		ldr	r4, [r0, #8]
 175 0006 E41A     		subs	r4, r4, r3
 176              		.loc 1 46 0
 177 0008 0546     		mov	r5, r0
 178              	.LVL16:
 179 000a 9442     		cmp	r4, r2
 180              		.loc 1 51 0
 181 000c 4068     		ldr	r0, [r0, #4]
 182              	.LVL17:
 183 000e 28BF     		it	cs
 184 0010 1446     		movcs	r4, r2
 185              	.LVL18:
 186 0012 1844     		add	r0, r0, r3
 187 0014 2246     		mov	r2, r4
 188 0016 FFF7FEFF 		bl	memcpy
 189              	.LVL19:
 190              		.loc 1 52 0
 191 001a EB68     		ldr	r3, [r5, #12]
 192 001c 2344     		add	r3, r3, r4
 193 001e EB60     		str	r3, [r5, #12]
 194              		.loc 1 54 0
 195 0020 2046     		mov	r0, r4
 196 0022 38BD     		pop	{r3, r4, r5, pc}
 197              		.cfi_endproc
 198              	.LFE279:
 199              		.size	writes, .-writes
 200 0024 AFF30080 		.section	.text.msObjectInit,"ax",%progbits
 200      AFF30080 
 200      AFF30080 
 201              		.align	2
 202              		.p2align 4,,15
 203              		.global	msObjectInit
 204              		.thumb
 205              		.thumb_func
 206              		.type	msObjectInit, %function
 207              	msObjectInit:
 208              	.LFB283:
 209              		.loc 1 104 0
 210              		.cfi_startproc
 211              		@ args = 0, pretend = 0, frame = 0
 212              		@ frame_needed = 0, uses_anonymous_args = 0
 213              		@ link register save eliminated.
 214              	.LVL20:
 215 0000 10B4     		push	{r4}
 216              		.cfi_def_cfa_offset 4
 217              		.cfi_offset 4, -4
 218              		.loc 1 107 0
 219 0002 4160     		str	r1, [r0, #4]
 220              		.loc 1 106 0
 221 0004 044C     		ldr	r4, .L14
 222 0006 0460     		str	r4, [r0]
 223              		.loc 1 110 0
ARM GAS  /tmp/ccGeb85Q.s 			page 5


 224 0008 0021     		movs	r1, #0
 225              	.LVL21:
 226              		.loc 1 108 0
 227 000a 8260     		str	r2, [r0, #8]
 228              		.loc 1 109 0
 229 000c C360     		str	r3, [r0, #12]
 230              		.loc 1 110 0
 231 000e 0161     		str	r1, [r0, #16]
 232              		.loc 1 111 0
 233 0010 5DF8044B 		ldr	r4, [sp], #4
 234              		.cfi_restore 4
 235              		.cfi_def_cfa_offset 0
 236 0014 7047     		bx	lr
 237              	.L15:
 238 0016 00BF     		.align	2
 239              	.L14:
 240 0018 00000000 		.word	.LANCHOR0
 241              		.cfi_endproc
 242              	.LFE283:
 243              		.size	msObjectInit, .-msObjectInit
 244              		.section	.rodata.vmt,"a",%progbits
 245              		.align	2
 246              	.LANCHOR0 = . + 0
 247              		.type	vmt, %object
 248              		.size	vmt, 16
 249              	vmt:
 250 0000 00000000 		.word	writes
 251 0004 00000000 		.word	reads
 252 0008 00000000 		.word	put
 253 000c 00000000 		.word	get
 254              		.text
 255              	.Letext0:
 256              		.file 2 "/usr/lib/gcc/arm-linux-gnueabihf/4.9/include/stddef.h"
 257              		.file 3 "/usr/include/stdint.h"
 258              		.file 4 "../os/rt/ports/ARMCMx/compilers/GCC/chtypes.h"
 259              		.file 5 "../os/rt/include/chsystypes.h"
 260              		.file 6 "../os/rt/include/chschd.h"
 261              		.file 7 "../os/rt/ports/ARMCMx/chcore.h"
 262              		.file 8 "../os/rt/ports/ARMCMx/chcore_v7m.h"
 263              		.file 9 "../os/rt/include/chsem.h"
 264              		.file 10 "../os/rt/include/chmtx.h"
 265              		.file 11 "../os/hal/lib/streams/memstreams.h"
 266              		.file 12 "../os/ext/CMSIS/include/core_cm4.h"
 2313              		.section	.note.GNU-stack,"",%progbits
ARM GAS  /tmp/ccGeb85Q.s 			page 46

