ARM GAS  /tmp/ccIGxmuy.s 			page 1


   1              		.syntax unified
   2              		.cpu cortex-m4
   3              		.fpu softvfp
   4              		.eabi_attribute 20, 1
   5              		.eabi_attribute 21, 1
   6              		.eabi_attribute 23, 3
   7              		.eabi_attribute 24, 1
   8              		.eabi_attribute 25, 1
   9              		.eabi_attribute 26, 2
  10              		.eabi_attribute 30, 2
  11              		.eabi_attribute 34, 1
  12              		.eabi_attribute 18, 4
  13              		.thumb
  14              		.file	"pal_lld.c"
  15              		.text
  16              	.Ltext0:
  17              		.cfi_sections	.debug_frame
  18              		.section	.text._pal_lld_readpad,"ax",%progbits
  19              		.align	2
  20              		.p2align 4,,15
  21              		.global	_pal_lld_readpad
  22              		.thumb
  23              		.thumb_func
  24              		.type	_pal_lld_readpad, %function
  25              	_pal_lld_readpad:
  26              	.LFB267:
  27              		.file 1 "../os/hal/ports/KINETIS/K20x/pal_lld.c"
  28              		.loc 1 61 0
  29              		.cfi_startproc
  30              		@ args = 0, pretend = 0, frame = 0
  31              		@ frame_needed = 0, uses_anonymous_args = 0
  32              		@ link register save eliminated.
  33              	.LVL0:
  34              		.loc 1 63 0
  35 0000 0069     		ldr	r0, [r0, #16]
  36              	.LVL1:
  37 0002 C840     		lsrs	r0, r0, r1
  38              		.loc 1 64 0
  39 0004 00F00100 		and	r0, r0, #1
  40 0008 7047     		bx	lr
  41              		.cfi_endproc
  42              	.LFE267:
  43              		.size	_pal_lld_readpad, .-_pal_lld_readpad
  44 000a 00BFAFF3 		.section	.text._pal_lld_writepad,"ax",%progbits
  44      0080
  45              		.align	2
  46              		.p2align 4,,15
  47              		.global	_pal_lld_writepad
  48              		.thumb
  49              		.thumb_func
  50              		.type	_pal_lld_writepad, %function
  51              	_pal_lld_writepad:
  52              	.LFB268:
  53              		.loc 1 83 0
  54              		.cfi_startproc
  55              		@ args = 0, pretend = 0, frame = 0
  56              		@ frame_needed = 0, uses_anonymous_args = 0
ARM GAS  /tmp/ccIGxmuy.s 			page 2


  57              		@ link register save eliminated.
  58              	.LVL2:
  59              		.loc 1 85 0
  60 0000 012A     		cmp	r2, #1
  61 0002 06D0     		beq	.L6
  62              		.loc 1 88 0
  63 0004 0268     		ldr	r2, [r0]
  64              	.LVL3:
  65 0006 0123     		movs	r3, #1
  66 0008 8B40     		lsls	r3, r3, r1
  67 000a 22EA0303 		bic	r3, r2, r3
  68 000e 0360     		str	r3, [r0]
  69 0010 7047     		bx	lr
  70              	.LVL4:
  71              	.L6:
  72              		.loc 1 86 0
  73 0012 0368     		ldr	r3, [r0]
  74 0014 8A40     		lsls	r2, r2, r1
  75              	.LVL5:
  76 0016 1A43     		orrs	r2, r2, r3
  77 0018 0260     		str	r2, [r0]
  78 001a 7047     		bx	lr
  79              		.cfi_endproc
  80              	.LFE268:
  81              		.size	_pal_lld_writepad, .-_pal_lld_writepad
  82 001c AFF30080 		.section	.text._pal_lld_setpadmode,"ax",%progbits
  83              		.align	2
  84              		.p2align 4,,15
  85              		.global	_pal_lld_setpadmode
  86              		.thumb
  87              		.thumb_func
  88              		.type	_pal_lld_setpadmode, %function
  89              	_pal_lld_setpadmode:
  90              	.LFB269:
  91              		.loc 1 107 0
  92              		.cfi_startproc
  93              		@ args = 0, pretend = 0, frame = 0
  94              		@ frame_needed = 0, uses_anonymous_args = 0
  95              		@ link register save eliminated.
  96              	.LVL6:
  97              		.loc 1 114 0
  98 0000 0123     		movs	r3, #1
  99              		.loc 1 113 0
 100 0002 062A     		cmp	r2, #6
 101              		.loc 1 107 0
 102 0004 30B4     		push	{r4, r5}
 103              		.cfi_def_cfa_offset 8
 104              		.cfi_offset 4, -8
 105              		.cfi_offset 5, -4
 106              		.loc 1 114 0
 107 0006 03FA01F3 		lsl	r3, r3, r1
 108 000a 4469     		ldr	r4, [r0, #20]
 109              		.loc 1 118 0
 110 000c 364D     		ldr	r5, .L46
 111              		.loc 1 113 0
 112 000e 26D0     		beq	.L42
 113              		.loc 1 116 0
ARM GAS  /tmp/ccIGxmuy.s 			page 3


 114 0010 24EA0303 		bic	r3, r4, r3
 115              		.loc 1 118 0
 116 0014 A842     		cmp	r0, r5
 117              		.loc 1 116 0
 118 0016 4361     		str	r3, [r0, #20]
 119              		.loc 1 118 0
 120 0018 5FD0     		beq	.L43
 121              		.loc 1 120 0
 122 001a 344B     		ldr	r3, .L46+4
 123 001c 9842     		cmp	r0, r3
 124 001e 58D0     		beq	.L44
 125              	.L12:
 126              		.loc 1 122 0
 127 0020 334B     		ldr	r3, .L46+8
 128 0022 9842     		cmp	r0, r3
 129 0024 57D0     		beq	.L31
 130              		.loc 1 124 0
 131 0026 4033     		adds	r3, r3, #64
 132 0028 9842     		cmp	r0, r3
 133 002a 58D0     		beq	.L32
 134              		.loc 1 126 0
 135 002c 314C     		ldr	r4, .L46+12
 136              		.loc 1 127 0
 137 002e 324B     		ldr	r3, .L46+16
 138 0030 A042     		cmp	r0, r4
 139 0032 0CBF     		ite	eq
 140 0034 1846     		moveq	r0, r3
 141 0036 0020     		movne	r0, #0
 142              	.LVL7:
 143              	.L11:
 144              		.loc 1 131 0
 145 0038 102A     		cmp	r2, #16
 146 003a 0ED8     		bhi	.L7
 147 003c DFE802F0 		tbb	[pc, r2]
 148              	.L16:
 149 0040 17       		.byte	(.L21-.L16)/2
 150 0041 36       		.byte	(.L17-.L16)/2
 151 0042 17       		.byte	(.L21-.L16)/2
 152 0043 3A       		.byte	(.L18-.L16)/2
 153 0044 3F       		.byte	(.L19-.L16)/2
 154 0045 36       		.byte	(.L17-.L16)/2
 155 0046 17       		.byte	(.L21-.L16)/2
 156 0047 44       		.byte	(.L20-.L16)/2
 157 0048 0D       		.byte	(.L7-.L16)/2
 158 0049 0D       		.byte	(.L7-.L16)/2
 159 004a 17       		.byte	(.L21-.L16)/2
 160 004b 1D       		.byte	(.L22-.L16)/2
 161 004c 22       		.byte	(.L23-.L16)/2
 162 004d 27       		.byte	(.L24-.L16)/2
 163 004e 09       		.byte	(.L25-.L16)/2
 164 004f 2C       		.byte	(.L26-.L16)/2
 165 0050 31       		.byte	(.L27-.L16)/2
 166 0051 00       		.p2align 1
 167              	.L25:
 168              		.loc 1 167 0
 169 0052 4FF4A063 		mov	r3, #1280
 170 0056 40F82130 		str	r3, [r0, r1, lsl #2]
ARM GAS  /tmp/ccIGxmuy.s 			page 4


 171              	.L7:
 172              		.loc 1 176 0
 173 005a 30BC     		pop	{r4, r5}
 174              		.cfi_remember_state
 175              		.cfi_restore 5
 176              		.cfi_restore 4
 177              		.cfi_def_cfa_offset 0
 178 005c 7047     		bx	lr
 179              	.LVL8:
 180              	.L42:
 181              		.cfi_restore_state
 182              		.loc 1 114 0
 183 005e 2343     		orrs	r3, r3, r4
 184              		.loc 1 118 0
 185 0060 A842     		cmp	r0, r5
 186              		.loc 1 114 0
 187 0062 4361     		str	r3, [r0, #20]
 188              		.loc 1 118 0
 189 0064 3DD0     		beq	.L45
 190              		.loc 1 120 0
 191 0066 214B     		ldr	r3, .L46+4
 192 0068 9842     		cmp	r0, r3
 193 006a D9D1     		bne	.L12
 194              		.loc 1 121 0
 195 006c 2348     		ldr	r0, .L46+20
 196              	.LVL9:
 197              	.L21:
 198              		.loc 1 155 0
 199 006e 4FF48073 		mov	r3, #256
 200 0072 40F82130 		str	r3, [r0, r1, lsl #2]
 201              		.loc 1 176 0
 202 0076 30BC     		pop	{r4, r5}
 203              		.cfi_remember_state
 204              		.cfi_restore 4
 205              		.cfi_restore 5
 206              		.cfi_def_cfa_offset 0
 207 0078 7047     		bx	lr
 208              	.L22:
 209              		.cfi_restore_state
 210              		.loc 1 158 0
 211 007a 4FF40073 		mov	r3, #512
 212 007e 40F82130 		str	r3, [r0, r1, lsl #2]
 213              		.loc 1 159 0
 214 0082 EAE7     		b	.L7
 215              	.L23:
 216              		.loc 1 161 0
 217 0084 4FF44073 		mov	r3, #768
 218 0088 40F82130 		str	r3, [r0, r1, lsl #2]
 219              		.loc 1 162 0
 220 008c E5E7     		b	.L7
 221              	.L24:
 222              		.loc 1 164 0
 223 008e 4FF48063 		mov	r3, #1024
 224 0092 40F82130 		str	r3, [r0, r1, lsl #2]
 225              		.loc 1 165 0
 226 0096 E0E7     		b	.L7
 227              	.L26:
ARM GAS  /tmp/ccIGxmuy.s 			page 5


 228              		.loc 1 170 0
 229 0098 4FF4C063 		mov	r3, #1536
 230 009c 40F82130 		str	r3, [r0, r1, lsl #2]
 231              		.loc 1 171 0
 232 00a0 DBE7     		b	.L7
 233              	.L27:
 234              		.loc 1 173 0
 235 00a2 4FF4E063 		mov	r3, #1792
 236 00a6 40F82130 		str	r3, [r0, r1, lsl #2]
 237              		.loc 1 174 0
 238 00aa D6E7     		b	.L7
 239              	.L17:
 240              		.loc 1 152 0
 241 00ac 0023     		movs	r3, #0
 242 00ae 40F82130 		str	r3, [r0, r1, lsl #2]
 243              		.loc 1 153 0
 244 00b2 D2E7     		b	.L7
 245              	.L18:
 246              		.loc 1 142 0
 247 00b4 40F20313 		movw	r3, #259
 248 00b8 40F82130 		str	r3, [r0, r1, lsl #2]
 249              		.loc 1 145 0
 250 00bc CDE7     		b	.L7
 251              	.L19:
 252              		.loc 1 147 0
 253 00be 4FF48173 		mov	r3, #258
 254 00c2 40F82130 		str	r3, [r0, r1, lsl #2]
 255              		.loc 1 149 0
 256 00c6 C8E7     		b	.L7
 257              	.L20:
 258              		.loc 1 138 0
 259 00c8 4FF49073 		mov	r3, #288
 260 00cc 40F82130 		str	r3, [r0, r1, lsl #2]
 261              		.loc 1 140 0
 262 00d0 C3E7     		b	.L7
 263              	.LVL10:
 264              	.L44:
 265              		.loc 1 121 0
 266 00d2 0A48     		ldr	r0, .L46+20
 267              	.LVL11:
 268 00d4 B0E7     		b	.L11
 269              	.LVL12:
 270              	.L31:
 271              		.loc 1 123 0
 272 00d6 0A48     		ldr	r0, .L46+24
 273              	.LVL13:
 274 00d8 AEE7     		b	.L11
 275              	.LVL14:
 276              	.L43:
 277              		.loc 1 119 0
 278 00da 0A48     		ldr	r0, .L46+28
 279              	.LVL15:
 280 00dc ACE7     		b	.L11
 281              	.LVL16:
 282              	.L32:
 283              		.loc 1 125 0
 284 00de 0A48     		ldr	r0, .L46+32
ARM GAS  /tmp/ccIGxmuy.s 			page 6


 285              	.LVL17:
 286 00e0 AAE7     		b	.L11
 287              	.LVL18:
 288              	.L45:
 289              		.loc 1 119 0
 290 00e2 0848     		ldr	r0, .L46+28
 291              	.LVL19:
 292 00e4 C3E7     		b	.L21
 293              	.L47:
 294 00e6 00BF     		.align	2
 295              	.L46:
 296 00e8 00F00F40 		.word	1074786304
 297 00ec 40F00F40 		.word	1074786368
 298 00f0 80F00F40 		.word	1074786432
 299 00f4 00F10F40 		.word	1074786560
 300 00f8 00D00440 		.word	1074057216
 301 00fc 00A00440 		.word	1074044928
 302 0100 00B00440 		.word	1074049024
 303 0104 00900440 		.word	1074040832
 304 0108 00C00440 		.word	1074053120
 305              		.cfi_endproc
 306              	.LFE269:
 307              		.size	_pal_lld_setpadmode, .-_pal_lld_setpadmode
 308 010c AFF30080 		.section	.text._pal_lld_init,"ax",%progbits
 309              		.align	2
 310              		.p2align 4,,15
 311              		.global	_pal_lld_init
 312              		.thumb
 313              		.thumb_func
 314              		.type	_pal_lld_init, %function
 315              	_pal_lld_init:
 316              	.LFB270:
 317              		.loc 1 194 0
 318              		.cfi_startproc
 319              		@ args = 0, pretend = 0, frame = 0
 320              		@ frame_needed = 0, uses_anonymous_args = 0
 321              	.LVL20:
 322              		.loc 1 199 0
 323 0000 0C49     		ldr	r1, .L54
 324 0002 41F23802 		movw	r2, #4152
 325              		.loc 1 194 0
 326 0006 F8B5     		push	{r3, r4, r5, r6, r7, lr}
 327              		.cfi_def_cfa_offset 24
 328              		.cfi_offset 3, -24
 329              		.cfi_offset 4, -20
 330              		.cfi_offset 5, -16
 331              		.cfi_offset 6, -12
 332              		.cfi_offset 7, -8
 333              		.cfi_offset 14, -4
 334              		.loc 1 199 0
 335 0008 8B58     		ldr	r3, [r1, r2]
 336 000a 43F47853 		orr	r3, r3, #15872
 337 000e 8B50     		str	r3, [r1, r2]
 338              	.LVL21:
 339 0010 0646     		mov	r6, r0
 340 0012 00F52577 		add	r7, r0, #660
 341              	.LVL22:
ARM GAS  /tmp/ccIGxmuy.s 			page 7


 342              	.L49:
 343              		.loc 1 194 0
 344 0016 3546     		mov	r5, r6
 345 0018 0024     		movs	r4, #0
 346              	.LVL23:
 347              	.L50:
 348              		.loc 1 208 0 discriminator 3
 349 001a E1B2     		uxtb	r1, r4
 350 001c 3068     		ldr	r0, [r6]
 351 001e 55F8042F 		ldr	r2, [r5, #4]!
 352              		.loc 1 207 0 discriminator 3
 353 0022 0134     		adds	r4, r4, #1
 354              	.LVL24:
 355              		.loc 1 208 0 discriminator 3
 356 0024 FFF7FEFF 		bl	_pal_lld_setpadmode
 357              	.LVL25:
 358              		.loc 1 207 0 discriminator 3
 359 0028 202C     		cmp	r4, #32
 360 002a F6D1     		bne	.L50
 361 002c 8436     		adds	r6, r6, #132
 362              		.loc 1 206 0 discriminator 2
 363 002e BE42     		cmp	r6, r7
 364 0030 F1D1     		bne	.L49
 365 0032 F8BD     		pop	{r3, r4, r5, r6, r7, pc}
 366              	.LVL26:
 367              	.L55:
 368              		.align	2
 369              	.L54:
 370 0034 00700440 		.word	1074032640
 371              		.cfi_endproc
 372              	.LFE270:
 373              		.size	_pal_lld_init, .-_pal_lld_init
 374 0038 AFF30080 		.section	.text._pal_lld_setgroupmode,"ax",%progbits
 374      AFF30080 
 375              		.align	2
 376              		.p2align 4,,15
 377              		.global	_pal_lld_setgroupmode
 378              		.thumb
 379              		.thumb_func
 380              		.type	_pal_lld_setgroupmode, %function
 381              	_pal_lld_setgroupmode:
 382              	.LFB271:
 383              		.loc 1 228 0
 384              		.cfi_startproc
 385              		@ args = 0, pretend = 0, frame = 0
 386              		@ frame_needed = 0, uses_anonymous_args = 0
 387              	.LVL27:
 388 0000 70B5     		push	{r4, r5, r6, lr}
 389              		.cfi_def_cfa_offset 16
 390              		.cfi_offset 4, -16
 391              		.cfi_offset 5, -12
 392              		.cfi_offset 6, -8
 393              		.cfi_offset 14, -4
 394              		.loc 1 228 0
 395 0002 0646     		mov	r6, r0
 396 0004 1546     		mov	r5, r2
 397              		.loc 1 234 0
ARM GAS  /tmp/ccIGxmuy.s 			page 8


 398 0006 0024     		movs	r4, #0
 399              	.LVL28:
 400              	.L57:
 401              		.loc 1 235 0 discriminator 3
 402 0008 E1B2     		uxtb	r1, r4
 403 000a 3046     		mov	r0, r6
 404 000c 2A46     		mov	r2, r5
 405              		.loc 1 234 0 discriminator 3
 406 000e 0134     		adds	r4, r4, #1
 407              	.LVL29:
 408              		.loc 1 235 0 discriminator 3
 409 0010 FFF7FEFF 		bl	_pal_lld_setpadmode
 410              	.LVL30:
 411              		.loc 1 234 0 discriminator 3
 412 0014 202C     		cmp	r4, #32
 413 0016 F7D1     		bne	.L57
 414              		.loc 1 237 0
 415 0018 70BD     		pop	{r4, r5, r6, pc}
 416              		.cfi_endproc
 417              	.LFE271:
 418              		.size	_pal_lld_setgroupmode, .-_pal_lld_setgroupmode
 419 001a 00BFAFF3 		.text
 419      0080
 420              	.Letext0:
 421              		.file 2 "/usr/include/stdint.h"
 422              		.file 3 "../os/rt/ports/ARMCMx/compilers/GCC/chtypes.h"
 423              		.file 4 "../os/rt/include/chsystypes.h"
 424              		.file 5 "../os/rt/include/chschd.h"
 425              		.file 6 "../os/ext/CMSIS/KINETIS/mk20d5.h"
 426              		.file 7 "../os/rt/ports/ARMCMx/chcore.h"
 427              		.file 8 "../os/rt/ports/ARMCMx/chcore_v7m.h"
 428              		.file 9 "../os/rt/include/chsem.h"
 429              		.file 10 "../os/rt/include/chmtx.h"
 430              		.file 11 "../os/hal/ports/KINETIS/K20x/pal_lld.h"
 431              		.file 12 "../os/ext/CMSIS/include/core_cm4.h"
 2856              		.section	.note.GNU-stack,"",%progbits
ARM GAS  /tmp/ccIGxmuy.s 			page 57

