ARM GAS  /tmp/cc9FNeDx.s 			page 1


   1              		.syntax unified
   2              		.cpu cortex-m4
   3              		.fpu softvfp
   4              		.eabi_attribute 20, 1
   5              		.eabi_attribute 21, 1
   6              		.eabi_attribute 23, 3
   7              		.eabi_attribute 24, 1
   8              		.eabi_attribute 25, 1
   9              		.eabi_attribute 26, 2
  10              		.eabi_attribute 30, 2
  11              		.eabi_attribute 34, 1
  12              		.eabi_attribute 18, 4
  13              		.thumb
  14              		.file	"PFlashSetProtection.c"
  15              		.text
  16              	.Ltext0:
  17              		.cfi_sections	.debug_frame
  18              		.section	.text.PFlashSetProtection,"ax",%progbits
  19              		.align	2
  20              		.p2align 4,,-1
  21              		.global	PFlashSetProtection
  22              		.thumb
  23              		.thumb_func
  24              		.type	PFlashSetProtection, %function
  25              	PFlashSetProtection:
  26              	.LFB10:
  27              		.file 1 "../ext/C90TFS/source/PFlashSetProtection.c"
  28              		.loc 1 66 0
  29              		.cfi_startproc
  30              		@ args = 0, pretend = 0, frame = 0
  31              		@ frame_needed = 0, uses_anonymous_args = 0
  32              		@ link register save eliminated.
  33              	.LVL0:
  34 0000 F0B4     		push	{r4, r5, r6, r7}
  35              		.cfi_def_cfa_offset 16
  36              		.cfi_offset 4, -16
  37              		.cfi_offset 5, -12
  38              		.cfi_offset 6, -8
  39              		.cfi_offset 7, -4
  40              		.loc 1 77 0
  41 0002 0268     		ldr	r2, [r0]
  42              		.loc 1 72 0
  43 0004 0C0E     		lsrs	r4, r1, #24
  44 0006 E3B2     		uxtb	r3, r4
  45              	.LVL1:
  46              		.loc 1 78 0
  47 0008 D374     		strb	r3, [r2, #19]
  48              		.loc 1 80 0
  49 000a 0368     		ldr	r3, [r0]
  50              	.LVL2:
  51              		.loc 1 79 0
  52 000c D77C     		ldrb	r7, [r2, #19]	@ zero_extendqisi2
  53              		.loc 1 73 0
  54 000e C1F30745 		ubfx	r5, r1, #16, #8
  55              	.LVL3:
  56              		.loc 1 81 0
  57 0012 9D74     		strb	r5, [r3, #18]
ARM GAS  /tmp/cc9FNeDx.s 			page 2


  58              	.LVL4:
  59              		.loc 1 83 0
  60 0014 0268     		ldr	r2, [r0]
  61              		.loc 1 82 0
  62 0016 9B7C     		ldrb	r3, [r3, #18]	@ zero_extendqisi2
  63              		.loc 1 74 0
  64 0018 C1F30726 		ubfx	r6, r1, #8, #8
  65              	.LVL5:
  66              		.loc 1 84 0
  67 001c 5674     		strb	r6, [r2, #17]
  68              		.loc 1 86 0
  69 001e 0068     		ldr	r0, [r0]
  70              	.LVL6:
  71              		.loc 1 85 0
  72 0020 527C     		ldrb	r2, [r2, #17]	@ zero_extendqisi2
  73              		.loc 1 75 0
  74 0022 C9B2     		uxtb	r1, r1
  75              	.LVL7:
  76              		.loc 1 87 0
  77 0024 0174     		strb	r1, [r0, #16]
  78              		.loc 1 88 0
  79 0026 007C     		ldrb	r0, [r0, #16]	@ zero_extendqisi2
  80              		.loc 1 91 0
  81 0028 BC42     		cmp	r4, r7
  82              		.loc 1 82 0
  83 002a DBB2     		uxtb	r3, r3
  84              	.LVL8:
  85              		.loc 1 85 0
  86 002c D2B2     		uxtb	r2, r2
  87              	.LVL9:
  88              		.loc 1 88 0
  89 002e C0B2     		uxtb	r0, r0
  90              	.LVL10:
  91              		.loc 1 91 0
  92 0030 03D0     		beq	.L9
  93              	.L5:
  94              		.loc 1 93 0
  95 0032 4FF48070 		mov	r0, #256
  96              	.LVL11:
  97              	.L2:
  98              		.loc 1 105 0
  99 0036 F0BC     		pop	{r4, r5, r6, r7}
 100              		.cfi_remember_state
 101              		.cfi_restore 7
 102              		.cfi_restore 6
 103              		.cfi_restore 5
 104              		.cfi_restore 4
 105              		.cfi_def_cfa_offset 0
 106              	.LVL12:
 107 0038 7047     		bx	lr
 108              	.LVL13:
 109              	.L9:
 110              		.cfi_restore_state
 111              		.loc 1 91 0 discriminator 1
 112 003a 9D42     		cmp	r5, r3
 113 003c F9D1     		bne	.L5
 114              		.loc 1 91 0 is_stmt 0 discriminator 2
ARM GAS  /tmp/cc9FNeDx.s 			page 3


 115 003e 9642     		cmp	r6, r2
 116 0040 F7D1     		bne	.L5
 117              		.loc 1 67 0 is_stmt 1 discriminator 3
 118 0042 8142     		cmp	r1, r0
 119 0044 14BF     		ite	ne
 120 0046 4FF48070 		movne	r0, #256
 121 004a 0020     		moveq	r0, #0
 122              	.LVL14:
 123 004c F3E7     		b	.L2
 124              		.cfi_endproc
 125              	.LFE10:
 126              		.size	PFlashSetProtection, .-PFlashSetProtection
 127              		.text
 128              	.Letext0:
 129              		.file 2 "/usr/include/stdint.h"
 130              		.file 3 "../ext/C90TFS/include/SSD_Types.h"
 861              		.section	.note.GNU-stack,"",%progbits
ARM GAS  /tmp/cc9FNeDx.s 			page 19

