ARM GAS  /tmp/ccU45F9E.s 			page 1


   1              		.syntax unified
   2              		.cpu cortex-m4
   3              		.fpu softvfp
   4              		.eabi_attribute 20, 1
   5              		.eabi_attribute 21, 1
   6              		.eabi_attribute 23, 3
   7              		.eabi_attribute 24, 1
   8              		.eabi_attribute 25, 1
   9              		.eabi_attribute 26, 2
  10              		.eabi_attribute 30, 2
  11              		.eabi_attribute 34, 1
  12              		.eabi_attribute 18, 4
  13              		.thumb
  14              		.file	"read_uid.c"
  15              		.text
  16              	.Ltext0:
  17              		.cfi_sections	.debug_frame
  18              		.section	.text.read_unique_id,"ax",%progbits
  19              		.align	2
  20              		.p2align 4,,15
  21              		.global	read_unique_id
  22              		.thumb
  23              		.thumb_func
  24              		.type	read_unique_id, %function
  25              	read_unique_id:
  26              	.LFB123:
  27              		.file 1 "../netvcr/opensda/bootloader/hal/TARGET_Freescale/TARGET_MK20DX/read_uid.c"
  28              		.loc 1 20 0
  29              		.cfi_startproc
  30              		@ args = 0, pretend = 0, frame = 0
  31              		@ frame_needed = 0, uses_anonymous_args = 0
  32              		@ link register save eliminated.
  33              	.LVL0:
  34              		.loc 1 21 0
  35 0000 0A4B     		ldr	r3, .L3
  36              		.loc 1 20 0
  37 0002 30B4     		push	{r4, r5}
  38              		.cfi_def_cfa_offset 8
  39              		.cfi_offset 4, -8
  40              		.cfi_offset 5, -4
  41              		.loc 1 21 0
  42 0004 03F58352 		add	r2, r3, #4192
  43 0008 41F25C04 		movw	r4, #4188
  44 000c 41F25801 		movw	r1, #4184
  45 0010 1268     		ldr	r2, [r2]
  46 0012 1C59     		ldr	r4, [r3, r4]
  47 0014 5958     		ldr	r1, [r3, r1]
  48 0016 41F25405 		movw	r5, #4180
  49 001a 5440     		eors	r4, r4, r2
  50 001c 5A59     		ldr	r2, [r3, r5]
  51 001e 84EA0103 		eor	r3, r4, r1
  52 0022 5340     		eors	r3, r3, r2
  53 0024 0360     		str	r3, [r0]
  54              		.loc 1 22 0
  55 0026 30BC     		pop	{r4, r5}
  56              		.cfi_restore 5
  57              		.cfi_restore 4
ARM GAS  /tmp/ccU45F9E.s 			page 2


  58              		.cfi_def_cfa_offset 0
  59 0028 7047     		bx	lr
  60              	.L4:
  61 002a 00BF     		.align	2
  62              	.L3:
  63 002c 00700440 		.word	1074032640
  64              		.cfi_endproc
  65              	.LFE123:
  66              		.size	read_unique_id, .-read_unique_id
  67              		.text
  68              	.Letext0:
  69              		.file 2 "/usr/include/stdint.h"
  70              		.file 3 "../netvcr/opensda/shared/cmsis/TARGET_Freescale/TARGET_MK20DX/MK20D5.h"
  71              		.file 4 "../os/ext/CMSIS/include/core_cm4.h"
 681              		.section	.note.GNU-stack,"",%progbits
ARM GAS  /tmp/ccU45F9E.s 			page 15

