ARM GAS  /tmp/ccBURVhG.s 			page 1


   1              		.syntax unified
   2              		.cpu cortex-m4
   3              		.fpu softvfp
   4              		.eabi_attribute 20, 1
   5              		.eabi_attribute 21, 1
   6              		.eabi_attribute 23, 3
   7              		.eabi_attribute 24, 1
   8              		.eabi_attribute 25, 1
   9              		.eabi_attribute 26, 2
  10              		.eabi_attribute 30, 2
  11              		.eabi_attribute 34, 1
  12              		.eabi_attribute 18, 4
  13              		.thumb
  14              		.file	"serial_lld.c"
  15              		.text
  16              	.Ltext0:
  17              		.cfi_sections	.debug_frame
  18              		.section	.text.notify1,"ax",%progbits
  19              		.align	2
  20              		.p2align 4,,15
  21              		.thumb
  22              		.thumb_func
  23              		.type	notify1, %function
  24              	notify1:
  25              	.LFB269:
  26              		.file 1 "../os/hal/ports/KINETIS/K20x/serial_lld.c"
  27              		.loc 1 132 0
  28              		.cfi_startproc
  29              		@ args = 0, pretend = 0, frame = 0
  30              		@ frame_needed = 0, uses_anonymous_args = 0
  31              	.LVL0:
  32 0000 38B5     		push	{r3, r4, r5, lr}
  33              		.cfi_def_cfa_offset 16
  34              		.cfi_offset 3, -16
  35              		.cfi_offset 4, -12
  36              		.cfi_offset 5, -8
  37              		.cfi_offset 14, -4
  38              	.LBB143:
  39              	.LBB144:
  40              		.loc 1 114 0
  41 0002 0C4D     		ldr	r5, .L8
  42 0004 6C6F     		ldr	r4, [r5, #116]
  43              	.LVL1:
  44              		.loc 1 116 0
  45 0006 2379     		ldrb	r3, [r4, #4]	@ zero_extendqisi2
  46 0008 1B06     		lsls	r3, r3, #24
  47 000a 00D4     		bmi	.L6
  48 000c 38BD     		pop	{r3, r4, r5, pc}
  49              	.LVL2:
  50              	.L6:
  51              	.LBB145:
  52              		.loc 1 117 0
  53 000e 05F13000 		add	r0, r5, #48
  54              	.LVL3:
  55 0012 FFF7FEFF 		bl	chOQGetI
  56              	.LVL4:
  57              		.loc 1 118 0
ARM GAS  /tmp/ccBURVhG.s 			page 2


  58 0016 0028     		cmp	r0, #0
  59 0018 06DB     		blt	.L7
  60              		.loc 1 122 0
  61 001a C0B2     		uxtb	r0, r0
  62              	.LVL5:
  63 001c E071     		strb	r0, [r4, #7]
  64              		.loc 1 123 0
  65 001e E378     		ldrb	r3, [r4, #3]	@ zero_extendqisi2
  66 0020 43F08003 		orr	r3, r3, #128
  67 0024 E370     		strb	r3, [r4, #3]
  68 0026 38BD     		pop	{r3, r4, r5, pc}
  69              	.LVL6:
  70              	.L7:
  71              	.LBB146:
  72              	.LBB147:
  73              		.file 2 "../os/hal/osal/rt/osal.h"
  74              		.loc 2 844 0
  75 0028 281D     		adds	r0, r5, #4
  76              	.LVL7:
  77 002a 0821     		movs	r1, #8
  78              	.LBE147:
  79              	.LBE146:
  80              	.LBE145:
  81              	.LBE144:
  82              	.LBE143:
  83              		.loc 1 135 0
  84 002c BDE83840 		pop	{r3, r4, r5, lr}
  85              		.cfi_restore 14
  86              		.cfi_restore 5
  87              		.cfi_restore 4
  88              		.cfi_restore 3
  89              		.cfi_def_cfa_offset 0
  90              	.LVL8:
  91              	.LBB152:
  92              	.LBB151:
  93              	.LBB150:
  94              	.LBB149:
  95              	.LBB148:
  96              		.loc 2 844 0
  97 0030 FFF7FEBF 		b	chEvtBroadcastFlagsI
  98              	.LVL9:
  99              	.L9:
 100              		.align	2
 101              	.L8:
 102 0034 00000000 		.word	.LANCHOR0
 103              	.LBE148:
 104              	.LBE149:
 105              	.LBE150:
 106              	.LBE151:
 107              	.LBE152:
 108              		.cfi_endproc
 109              	.LFE269:
 110              		.size	notify1, .-notify1
 111 0038 AFF30080 		.section	.text.Vector80,"ax",%progbits
 111      AFF30080 
 112              		.align	2
 113              		.p2align 4,,15
ARM GAS  /tmp/ccBURVhG.s 			page 3


 114              		.global	Vector80
 115              		.thumb
 116              		.thumb_func
 117              		.type	Vector80, %function
 118              	Vector80:
 119              	.LFB271:
 120              		.loc 1 185 0
 121              		.cfi_startproc
 122              		@ args = 0, pretend = 0, frame = 0
 123              		@ frame_needed = 0, uses_anonymous_args = 0
 124              	.LVL10:
 125 0000 70B5     		push	{r4, r5, r6, lr}
 126              		.cfi_def_cfa_offset 16
 127              		.cfi_offset 4, -16
 128              		.cfi_offset 5, -12
 129              		.cfi_offset 6, -8
 130              		.cfi_offset 14, -4
 131              	.LBB200:
 132              	.LBB201:
 133              		.loc 1 80 0
 134 0002 2348     		ldr	r0, .L24
 135 0004 456F     		ldr	r5, [r0, #116]
 136              	.LVL11:
 137              		.loc 1 81 0
 138 0006 2C79     		ldrb	r4, [r5, #4]	@ zero_extendqisi2
 139 0008 E4B2     		uxtb	r4, r4
 140              	.LVL12:
 141              		.loc 1 83 0
 142 000a A206     		lsls	r2, r4, #26
 143 000c 0DD5     		bpl	.L11
 144              	.LVL13:
 145              	.LBB202:
 146              	.LBB203:
 147              	.LBB204:
 148              	.LBB205:
 149              	.LBB206:
 150              	.LBB207:
 151              		.file 3 "../os/ext/CMSIS/include/core_cmFunc.h"
 152              		.loc 3 548 0
 153 000e 2023     		movs	r3, #32
 154              	#APP
 155              	@ 548 "../os/ext/CMSIS/include/core_cmFunc.h" 1
 156 0010 83F31188 		MSR basepri, r3
 157              	@ 0 "" 2
 158              	.LVL14:
 159              		.thumb
 160              	.LBE207:
 161              	.LBE206:
 162              	.LBE205:
 163              	.LBE204:
 164              	.LBE203:
 165              	.LBE202:
 166              	.LBB208:
 167              	.LBB209:
 168              		.file 4 "../os/rt/include/chqueues.h"
 169              		.loc 4 307 0
 170 0014 4369     		ldr	r3, [r0, #20]
ARM GAS  /tmp/ccBURVhG.s 			page 4


 171              	.LBE209:
 172              	.LBE208:
 173              		.loc 1 85 0
 174 0016 73B1     		cbz	r3, .L20
 175              		.loc 1 87 0
 176 0018 E979     		ldrb	r1, [r5, #7]	@ zero_extendqisi2
 177 001a 1E48     		ldr	r0, .L24+4
 178 001c FFF7FEFF 		bl	chIQPutI
 179              	.LVL15:
 180 0020 0028     		cmp	r0, #0
 181 0022 12DB     		blt	.L21
 182              	.L13:
 183              	.LVL16:
 184              	.LBB210:
 185              	.LBB211:
 186              	.LBB212:
 187              	.LBB213:
 188              	.LBB214:
 189              	.LBB215:
 190              		.loc 3 548 0
 191 0024 0023     		movs	r3, #0
 192              	#APP
 193              	@ 548 "../os/ext/CMSIS/include/core_cmFunc.h" 1
 194 0026 83F31188 		MSR basepri, r3
 195              	@ 0 "" 2
 196              	.LVL17:
 197              		.thumb
 198              	.L11:
 199              	.LBE215:
 200              	.LBE214:
 201              	.LBE213:
 202              	.LBE212:
 203              	.LBE211:
 204              	.LBE210:
 205              		.loc 1 92 0
 206 002a 2306     		lsls	r3, r4, #24
 207 002c 12D4     		bmi	.L22
 208              	.LVL18:
 209              	.L14:
 210              	.LBE201:
 211              	.LBE200:
 212              		.loc 1 190 0
 213 002e BDE87040 		pop	{r4, r5, r6, lr}
 214              		.cfi_remember_state
 215              		.cfi_restore 14
 216              		.cfi_restore 6
 217              		.cfi_restore 5
 218              		.cfi_restore 4
 219              		.cfi_def_cfa_offset 0
 220              	.LVL19:
 221              		.loc 1 189 0
 222 0032 FFF7FEBF 		b	_port_irq_epilogue
 223              	.LVL20:
 224              	.L20:
 225              		.cfi_restore_state
 226              	.LBB250:
 227              	.LBB248:
ARM GAS  /tmp/ccBURVhG.s 			page 5


 228              	.LBB216:
 229              	.LBB217:
 230              		.loc 2 844 0
 231 0036 0430     		adds	r0, r0, #4
 232 0038 0421     		movs	r1, #4
 233 003a FFF7FEFF 		bl	chEvtBroadcastFlagsI
 234              	.LVL21:
 235              	.LBE217:
 236              	.LBE216:
 237              		.loc 1 87 0
 238 003e E979     		ldrb	r1, [r5, #7]	@ zero_extendqisi2
 239 0040 1448     		ldr	r0, .L24+4
 240 0042 FFF7FEFF 		bl	chIQPutI
 241              	.LVL22:
 242 0046 0028     		cmp	r0, #0
 243 0048 ECDA     		bge	.L13
 244              	.LVL23:
 245              	.L21:
 246              	.LBB218:
 247              	.LBB219:
 248              		.loc 2 844 0
 249 004a 1348     		ldr	r0, .L24+8
 250 004c 8021     		movs	r1, #128
 251 004e FFF7FEFF 		bl	chEvtBroadcastFlagsI
 252              	.LVL24:
 253 0052 E7E7     		b	.L13
 254              	.LVL25:
 255              	.L22:
 256              	.LBE219:
 257              	.LBE218:
 258              	.LBB220:
 259              	.LBB221:
 260              	.LBB222:
 261              	.LBB223:
 262              	.LBB224:
 263              	.LBB225:
 264              	.LBB226:
 265              		.loc 3 548 0
 266 0054 2026     		movs	r6, #32
 267              	#APP
 268              	@ 548 "../os/ext/CMSIS/include/core_cmFunc.h" 1
 269 0056 86F31188 		MSR basepri, r6
 270              	@ 0 "" 2
 271              		.thumb
 272              	.LBE226:
 273              	.LBE225:
 274              	.LBE224:
 275              	.LBE223:
 276              	.LBE222:
 277              	.LBE221:
 278              		.loc 1 96 0
 279 005a 1048     		ldr	r0, .L24+12
 280 005c FFF7FEFF 		bl	chOQGetI
 281              	.LVL26:
 282              	.LBB227:
 283              	.LBB228:
 284              	.LBB229:
ARM GAS  /tmp/ccBURVhG.s 			page 6


 285              	.LBB230:
 286              	.LBB231:
 287              	.LBB232:
 288              		.loc 3 548 0
 289 0060 0024     		movs	r4, #0
 290              	.LVL27:
 291              	#APP
 292              	@ 548 "../os/ext/CMSIS/include/core_cmFunc.h" 1
 293 0062 84F31188 		MSR basepri, r4
 294              	@ 0 "" 2
 295              		.thumb
 296              	.LBE232:
 297              	.LBE231:
 298              	.LBE230:
 299              	.LBE229:
 300              	.LBE228:
 301              	.LBE227:
 302              		.loc 1 99 0
 303 0066 A042     		cmp	r0, r4
 304 0068 05DB     		blt	.L23
 305              		.loc 1 105 0
 306 006a C0B2     		uxtb	r0, r0
 307              	.LVL28:
 308 006c E871     		strb	r0, [r5, #7]
 309              	.LBE220:
 310              	.LBE248:
 311              	.LBE250:
 312              		.loc 1 190 0
 313 006e BDE87040 		pop	{r4, r5, r6, lr}
 314              		.cfi_remember_state
 315              		.cfi_restore 4
 316              		.cfi_restore 5
 317              		.cfi_restore 6
 318              		.cfi_restore 14
 319              		.cfi_def_cfa_offset 0
 320              	.LVL29:
 321              		.loc 1 189 0
 322 0072 FFF7FEBF 		b	_port_irq_epilogue
 323              	.LVL30:
 324              	.L23:
 325              		.cfi_restore_state
 326              	.LBB251:
 327              	.LBB249:
 328              	.LBB247:
 329              	.LBB233:
 330              	.LBB234:
 331              	.LBB235:
 332              	.LBB236:
 333              	.LBB237:
 334              	.LBB238:
 335              		.loc 3 548 0
 336              	#APP
 337              	@ 548 "../os/ext/CMSIS/include/core_cmFunc.h" 1
 338 0076 86F31188 		MSR basepri, r6
 339              	@ 0 "" 2
 340              	.LVL31:
 341              		.thumb
ARM GAS  /tmp/ccBURVhG.s 			page 7


 342              	.LBE238:
 343              	.LBE237:
 344              	.LBE236:
 345              	.LBE235:
 346              	.LBE234:
 347              	.LBE233:
 348              	.LBB239:
 349              	.LBB240:
 350              		.loc 2 844 0
 351 007a 0748     		ldr	r0, .L24+8
 352              	.LVL32:
 353 007c 0821     		movs	r1, #8
 354 007e FFF7FEFF 		bl	chEvtBroadcastFlagsI
 355              	.LVL33:
 356              	.LBE240:
 357              	.LBE239:
 358              	.LBB241:
 359              	.LBB242:
 360              	.LBB243:
 361              	.LBB244:
 362              	.LBB245:
 363              	.LBB246:
 364              		.loc 3 548 0
 365              	#APP
 366              	@ 548 "../os/ext/CMSIS/include/core_cmFunc.h" 1
 367 0082 84F31188 		MSR basepri, r4
 368              	@ 0 "" 2
 369              		.thumb
 370              	.LBE246:
 371              	.LBE245:
 372              	.LBE244:
 373              	.LBE243:
 374              	.LBE242:
 375              	.LBE241:
 376              		.loc 1 103 0
 377 0086 EB78     		ldrb	r3, [r5, #3]	@ zero_extendqisi2
 378 0088 03F07F03 		and	r3, r3, #127
 379 008c EB70     		strb	r3, [r5, #3]
 380 008e CEE7     		b	.L14
 381              	.L25:
 382              		.align	2
 383              	.L24:
 384 0090 00000000 		.word	.LANCHOR0
 385 0094 0C000000 		.word	.LANCHOR0+12
 386 0098 04000000 		.word	.LANCHOR0+4
 387 009c 30000000 		.word	.LANCHOR0+48
 388              	.LBE247:
 389              	.LBE249:
 390              	.LBE251:
 391              		.cfi_endproc
 392              	.LFE271:
 393              		.size	Vector80, .-Vector80
 394              		.section	.text.sd_lld_init,"ax",%progbits
 395              		.align	2
 396              		.p2align 4,,15
 397              		.global	sd_lld_init
 398              		.thumb
ARM GAS  /tmp/ccBURVhG.s 			page 8


 399              		.thumb_func
 400              		.type	sd_lld_init, %function
 401              	sd_lld_init:
 402              	.LFB272:
 403              		.loc 1 220 0
 404              		.cfi_startproc
 405              		@ args = 0, pretend = 0, frame = 0
 406              		@ frame_needed = 0, uses_anonymous_args = 0
 407 0000 10B5     		push	{r4, lr}
 408              		.cfi_def_cfa_offset 8
 409              		.cfi_offset 4, -8
 410              		.cfi_offset 14, -4
 411              		.loc 1 224 0
 412 0002 044C     		ldr	r4, .L28
 413 0004 044A     		ldr	r2, .L28+4
 414 0006 2046     		mov	r0, r4
 415 0008 0021     		movs	r1, #0
 416 000a FFF7FEFF 		bl	sdObjectInit
 417              	.LVL34:
 418              		.loc 1 225 0
 419 000e 034B     		ldr	r3, .L28+8
 420 0010 6367     		str	r3, [r4, #116]
 421 0012 10BD     		pop	{r4, pc}
 422              	.L29:
 423              		.align	2
 424              	.L28:
 425 0014 00000000 		.word	.LANCHOR0
 426 0018 00000000 		.word	notify1
 427 001c 00A00640 		.word	1074176000
 428              		.cfi_endproc
 429              	.LFE272:
 430              		.size	sd_lld_init, .-sd_lld_init
 431              		.section	.text.sd_lld_start,"ax",%progbits
 432              		.align	2
 433              		.p2align 4,,15
 434              		.global	sd_lld_start
 435              		.thumb
 436              		.thumb_func
 437              		.type	sd_lld_start, %function
 438              	sd_lld_start:
 439              	.LFB273:
 440              		.loc 1 251 0
 441              		.cfi_startproc
 442              		@ args = 0, pretend = 0, frame = 0
 443              		@ frame_needed = 0, uses_anonymous_args = 0
 444              		@ link register save eliminated.
 445              	.LVL35:
 446              		.loc 1 254 0
 447 0000 1E4B     		ldr	r3, .L36
 448              		.loc 1 256 0
 449 0002 8268     		ldr	r2, [r0, #8]
 450              		.loc 1 254 0
 451 0004 0029     		cmp	r1, #0
 452 0006 08BF     		it	eq
 453 0008 1946     		moveq	r1, r3
 454              	.LVL36:
 455              		.loc 1 256 0
ARM GAS  /tmp/ccBURVhG.s 			page 9


 456 000a 012A     		cmp	r2, #1
 457 000c 00D0     		beq	.L35
 458              	.L34:
 459 000e 7047     		bx	lr
 460              	.L35:
 461              		.loc 1 260 0
 462 0010 1B4B     		ldr	r3, .L36+4
 463 0012 9842     		cmp	r0, r3
 464 0014 FBD1     		bne	.L34
 465              		.loc 1 251 0
 466 0016 70B4     		push	{r4, r5, r6}
 467              		.cfi_def_cfa_offset 12
 468              		.cfi_offset 4, -12
 469              		.cfi_offset 5, -8
 470              		.cfi_offset 6, -4
 471              		.loc 1 261 0
 472 0018 1A4D     		ldr	r5, .L36+8
 473              		.loc 1 262 0
 474 001a 436F     		ldr	r3, [r0, #116]
 475              	.LVL37:
 476              		.loc 1 261 0
 477 001c 41F23404 		movw	r4, #4148
 478              	.LBB254:
 479              	.LBB255:
 480              		.loc 1 160 0
 481 0020 02F1B762 		add	r2, r2, #95944704
 482              	.LBE255:
 483              	.LBE254:
 484              		.loc 1 261 0
 485 0024 2859     		ldr	r0, [r5, r4]
 486              	.LVL38:
 487 0026 40F48060 		orr	r0, r0, #1024
 488 002a 2851     		str	r0, [r5, r4]
 489              	.LBB257:
 490              	.LBB256:
 491              		.loc 1 163 0
 492 002c D878     		ldrb	r0, [r3, #3]	@ zero_extendqisi2
 493              		.loc 1 160 0
 494 002e 0968     		ldr	r1, [r1]
 495              	.LVL39:
 496              		.loc 1 164 0
 497 0030 0026     		movs	r6, #0
 498              		.loc 1 160 0
 499 0032 02F55842 		add	r2, r2, #55296
 500 0036 B2FBF1F2 		udiv	r2, r2, r1
 501              	.LVL40:
 502              		.loc 1 163 0
 503 003a 00F0F301 		and	r1, r0, #243
 504 003e D970     		strb	r1, [r3, #3]
 505              		.loc 1 164 0
 506 0040 9E70     		strb	r6, [r3, #2]
 507              		.loc 1 166 0
 508 0042 1978     		ldrb	r1, [r3]	@ zero_extendqisi2
 509 0044 C2F34430 		ubfx	r0, r2, #13, #5
 510 0048 01F0E001 		and	r1, r1, #224
 511 004c 0143     		orrs	r1, r1, r0
 512              		.loc 1 167 0
ARM GAS  /tmp/ccBURVhG.s 			page 10


 513 004e C2F34710 		ubfx	r0, r2, #5, #8
 514              		.loc 1 166 0
 515 0052 1970     		strb	r1, [r3]
 516              		.loc 1 167 0
 517 0054 5870     		strb	r0, [r3, #1]
 518              		.loc 1 168 0
 519 0056 997A     		ldrb	r1, [r3, #10]	@ zero_extendqisi2
 520 0058 02F01F02 		and	r2, r2, #31
 521              	.LVL41:
 522 005c 01F0E001 		and	r1, r1, #224
 523 0060 0A43     		orrs	r2, r2, r1
 524 0062 9A72     		strb	r2, [r3, #10]
 525              		.loc 1 170 0
 526 0064 DA78     		ldrb	r2, [r3, #3]	@ zero_extendqisi2
 527              		.loc 1 171 0
 528 0066 0F21     		movs	r1, #15
 529              		.loc 1 170 0
 530 0068 42F02C02 		orr	r2, r2, #44
 531 006c DA70     		strb	r2, [r3, #3]
 532              		.loc 1 171 0
 533 006e 9971     		strb	r1, [r3, #6]
 534              	.LBE256:
 535              	.LBE257:
 536              		.loc 1 263 0
 537 0070 1020     		movs	r0, #16
 538 0072 0C21     		movs	r1, #12
 539              		.loc 1 286 0
 540 0074 70BC     		pop	{r4, r5, r6}
 541              		.cfi_restore 6
 542              		.cfi_restore 5
 543              		.cfi_restore 4
 544              		.cfi_def_cfa_offset 0
 545              		.loc 1 263 0
 546 0076 FFF7FEBF 		b	nvicEnableVector
 547              	.LVL42:
 548              	.L37:
 549 007a 00BF     		.align	2
 550              	.L36:
 551 007c 00000000 		.word	.LANCHOR1
 552 0080 00000000 		.word	.LANCHOR0
 553 0084 00700440 		.word	1074032640
 554              		.cfi_endproc
 555              	.LFE273:
 556              		.size	sd_lld_start, .-sd_lld_start
 557 0088 AFF30080 		.section	.text.sd_lld_stop,"ax",%progbits
 557      AFF30080 
 558              		.align	2
 559              		.p2align 4,,15
 560              		.global	sd_lld_stop
 561              		.thumb
 562              		.thumb_func
 563              		.type	sd_lld_stop, %function
 564              	sd_lld_stop:
 565              	.LFB274:
 566              		.loc 1 297 0
 567              		.cfi_startproc
 568              		@ args = 0, pretend = 0, frame = 0
ARM GAS  /tmp/ccBURVhG.s 			page 11


 569              		@ frame_needed = 0, uses_anonymous_args = 0
 570              	.LVL43:
 571 0000 08B5     		push	{r3, lr}
 572              		.cfi_def_cfa_offset 8
 573              		.cfi_offset 3, -8
 574              		.cfi_offset 14, -4
 575              		.loc 1 299 0
 576 0002 8368     		ldr	r3, [r0, #8]
 577 0004 022B     		cmp	r3, #2
 578 0006 00D0     		beq	.L41
 579              	.LVL44:
 580              	.L38:
 581 0008 08BD     		pop	{r3, pc}
 582              	.LVL45:
 583              	.L41:
 584              		.loc 1 303 0
 585 000a 074B     		ldr	r3, .L42
 586 000c 9842     		cmp	r0, r3
 587 000e FBD1     		bne	.L38
 588              		.loc 1 304 0
 589 0010 1020     		movs	r0, #16
 590              	.LVL46:
 591 0012 FFF7FEFF 		bl	nvicDisableVector
 592              	.LVL47:
 593              		.loc 1 305 0
 594 0016 0549     		ldr	r1, .L42+4
 595 0018 41F23402 		movw	r2, #4148
 596 001c 8B58     		ldr	r3, [r1, r2]
 597 001e 23F48063 		bic	r3, r3, #1024
 598 0022 8B50     		str	r3, [r1, r2]
 599 0024 F0E7     		b	.L38
 600              	.L43:
 601 0026 00BF     		.align	2
 602              	.L42:
 603 0028 00000000 		.word	.LANCHOR0
 604 002c 00700440 		.word	1074032640
 605              		.cfi_endproc
 606              	.LFE274:
 607              		.size	sd_lld_stop, .-sd_lld_stop
 608              		.global	SD1
 609              		.section	.rodata.default_config,"a",%progbits
 610              		.align	2
 611              	.LANCHOR1 = . + 0
 612              		.type	default_config, %object
 613              		.size	default_config, 4
 614              	default_config:
 615 0000 00960000 		.word	38400
 616              		.section	.bss.SD1,"aw",%nobits
 617              		.align	2
 618              	.LANCHOR0 = . + 0
 619              		.type	SD1, %object
 620              		.size	SD1, 120
 621              	SD1:
 622 0000 00000000 		.space	120
 622      00000000 
 622      00000000 
 622      00000000 
ARM GAS  /tmp/ccBURVhG.s 			page 12


 622      00000000 
 623              		.text
 624              	.Letext0:
 625              		.file 5 "/usr/lib/gcc/arm-linux-gnueabihf/4.9/include/stddef.h"
 626              		.file 6 "/usr/include/stdint.h"
 627              		.file 7 "../os/rt/ports/ARMCMx/compilers/GCC/chtypes.h"
 628              		.file 8 "../os/rt/include/chsystypes.h"
 629              		.file 9 "../os/rt/include/chschd.h"
 630              		.file 10 "../os/ext/CMSIS/KINETIS/mk20d5.h"
 631              		.file 11 "../os/rt/ports/ARMCMx/chcore.h"
 632              		.file 12 "../os/rt/ports/ARMCMx/chcore_v7m.h"
 633              		.file 13 "../os/rt/include/chsem.h"
 634              		.file 14 "../os/rt/include/chmtx.h"
 635              		.file 15 "../os/rt/include/chevents.h"
 636              		.file 16 "../os/hal/include/serial.h"
 637              		.file 17 "../os/hal/ports/KINETIS/K20x/serial_lld.h"
 638              		.file 18 "../os/rt/include/chsys.h"
 639              		.file 19 "../os/hal/ports/common/ARMCMx/nvic.h"
 640              		.file 20 "../os/ext/CMSIS/include/core_cm4.h"
 5271              		.section	.note.GNU-stack,"",%progbits
ARM GAS  /tmp/ccBURVhG.s 			page 104


ARM GAS  /tmp/ccBURVhG.s 			page 105

