ARM GAS  /tmp/ccBURVhG.s 			page 1


   1              		.syntax unified
   2              		.cpu cortex-m4
   3              		.fpu softvfp
   4              		.eabi_attribute 20, 1
   5              		.eabi_attribute 21, 1
   6              		.eabi_attribute 23, 3
   7              		.eabi_attribute 24, 1
   8              		.eabi_attribute 25, 1
   9              		.eabi_attribute 26, 2
  10              		.eabi_attribute 30, 2
  11              		.eabi_attribute 34, 1
  12              		.eabi_attribute 18, 4
  13              		.thumb
  14              		.file	"serial_lld.c"
  15              		.text
  16              	.Ltext0:
  17              		.cfi_sections	.debug_frame
  18              		.section	.text.notify1,"ax",%progbits
  19              		.align	2
  20              		.p2align 4,,15
  21              		.thumb
  22              		.thumb_func
  23              		.type	notify1, %function
  24              	notify1:
  25              	.LFB269:
  26              		.file 1 "../os/hal/ports/KINETIS/K20x/serial_lld.c"
  27              		.loc 1 132 0
  28              		.cfi_startproc
  29              		@ args = 0, pretend = 0, frame = 0
  30              		@ frame_needed = 0, uses_anonymous_args = 0
  31              	.LVL0:
  32 0000 38B5     		push	{r3, r4, r5, lr}
  33              		.cfi_def_cfa_offset 16
  34              		.cfi_offset 3, -16
  35              		.cfi_offset 4, -12
  36              		.cfi_offset 5, -8
  37              		.cfi_offset 14, -4
  38              	.LBB143:
  39              	.LBB144:
  40              		.loc 1 114 0
  41 0002 0C4D     		ldr	r5, .L8
  42 0004 6C6F     		ldr	r4, [r5, #116]
  43              	.LVL1:
  44              		.loc 1 116 0
  45 0006 2379     		ldrb	r3, [r4, #4]	@ zero_extendqisi2
  46 0008 1B06     		lsls	r3, r3, #24
  47 000a 00D4     		bmi	.L6
  48 000c 38BD     		pop	{r3, r4, r5, pc}
  49              	.LVL2:
  50              	.L6:
  51              	.LBB145:
  52              		.loc 1 117 0
  53 000e 05F13000 		add	r0, r5, #48
  54              	.LVL3:
  55 0012 FFF7FEFF 		bl	chOQGetI
  56              	.LVL4:
  57              		.loc 1 118 0
ARM GAS  /tmp/ccBURVhG.s 			page 2


  58 0016 0028     		cmp	r0, #0
  59 0018 06DB     		blt	.L7
  60              		.loc 1 122 0
  61 001a C0B2     		uxtb	r0, r0
  62              	.LVL5:
  63 001c E071     		strb	r0, [r4, #7]
  64              		.loc 1 123 0
  65 001e E378     		ldrb	r3, [r4, #3]	@ zero_extendqisi2
  66 0020 43F08003 		orr	r3, r3, #128
  67 0024 E370     		strb	r3, [r4, #3]
  68 0026 38BD     		pop	{r3, r4, r5, pc}
  69              	.LVL6:
  70              	.L7:
  71              	.LBB146:
  72              	.LBB147:
  73              		.file 2 "../os/hal/osal/rt/osal.h"
  74              		.loc 2 844 0
  75 0028 281D     		adds	r0, r5, #4
  76              	.LVL7:
  77 002a 0821     		movs	r1, #8
  78              	.LBE147:
  79              	.LBE146:
  80              	.LBE145:
  81              	.LBE144:
  82              	.LBE143:
  83              		.loc 1 135 0
  84 002c BDE83840 		pop	{r3, r4, r5, lr}
  85              		.cfi_restore 14
  86              		.cfi_restore 5
  87              		.cfi_restore 4
  88              		.cfi_restore 3
  89              		.cfi_def_cfa_offset 0
  90              	.LVL8:
  91              	.LBB152:
  92              	.LBB151:
  93              	.LBB150:
  94              	.LBB149:
  95              	.LBB148:
  96              		.loc 2 844 0
  97 0030 FFF7FEBF 		b	chEvtBroadcastFlagsI
  98              	.LVL9:
  99              	.L9:
 100              		.align	2
 101              	.L8:
 102 0034 00000000 		.word	.LANCHOR0
 103              	.LBE148:
 104              	.LBE149:
 105              	.LBE150:
 106              	.LBE151:
 107              	.LBE152:
 108              		.cfi_endproc
 109              	.LFE269:
 110              		.size	notify1, .-notify1
 111 0038 AFF30080 		.section	.text.Vector80,"ax",%progbits
 111      AFF30080 
 112              		.align	2
 113              		.p2align 4,,15
ARM GAS  /tmp/ccBURVhG.s 			page 3


 114              		.global	Vector80
 115              		.thumb
 116              		.thumb_func
 117              		.type	Vector80, %function
 118              	Vector80:
 119              	.LFB271:
 120              		.loc 1 185 0
 121              		.cfi_startproc
 122              		@ args = 0, pretend = 0, frame = 0
 123              		@ frame_needed = 0, uses_anonymous_args = 0
 124              	.LVL10:
 125 0000 70B5     		push	{r4, r5, r6, lr}
 126              		.cfi_def_cfa_offset 16
 127              		.cfi_offset 4, -16
 128              		.cfi_offset 5, -12
 129              		.cfi_offset 6, -8
 130              		.cfi_offset 14, -4
 131              	.LBB200:
 132              	.LBB201:
 133              		.loc 1 80 0
 134 0002 2348     		ldr	r0, .L24
 135 0004 456F     		ldr	r5, [r0, #116]
 136              	.LVL11:
 137              		.loc 1 81 0
 138 0006 2C79     		ldrb	r4, [r5, #4]	@ zero_extendqisi2
 139 0008 E4B2     		uxtb	r4, r4
 140              	.LVL12:
 141              		.loc 1 83 0
 142 000a A206     		lsls	r2, r4, #26
 143 000c 0DD5     		bpl	.L11
 144              	.LVL13:
 145              	.LBB202:
 146              	.LBB203:
 147              	.LBB204:
 148              	.LBB205:
 149              	.LBB206:
 150              	.LBB207:
 151              		.file 3 "../os/ext/CMSIS/include/core_cmFunc.h"
 152              		.loc 3 548 0
 153 000e 2023     		movs	r3, #32
 154              	#APP
 155              	@ 548 "../os/ext/CMSIS/include/core_cmFunc.h" 1
 156 0010 83F31188 		MSR basepri, r3
 157              	@ 0 "" 2
 158              	.LVL14:
 159              		.thumb
 160              	.LBE207:
 161              	.LBE206:
 162              	.LBE205:
 163              	.LBE204:
 164              	.LBE203:
 165              	.LBE202:
 166              	.LBB208:
 167              	.LBB209:
 168              		.file 4 "../os/rt/include/chqueues.h"
 169              		.loc 4 307 0
 170 0014 4369     		ldr	r3, [r0, #20]
ARM GAS  /tmp/ccBURVhG.s 			page 4


 171              	.LBE209:
 172              	.LBE208:
 173              		.loc 1 85 0
 174 0016 73B1     		cbz	r3, .L20
 175              		.loc 1 87 0
 176 0018 E979     		ldrb	r1, [r5, #7]	@ zero_extendqisi2
 177 001a 1E48     		ldr	r0, .L24+4
 178 001c FFF7FEFF 		bl	chIQPutI
 179              	.LVL15:
 180 0020 0028     		cmp	r0, #0
 181 0022 12DB     		blt	.L21
 182              	.L13:
 183              	.LVL16:
 184              	.LBB210:
 185              	.LBB211:
 186              	.LBB212:
 187              	.LBB213:
 188              	.LBB214:
 189              	.LBB215:
 190              		.loc 3 548 0
 191 0024 0023     		movs	r3, #0
 192              	#APP
 193              	@ 548 "../os/ext/CMSIS/include/core_cmFunc.h" 1
 194 0026 83F31188 		MSR basepri, r3
 195              	@ 0 "" 2
 196              	.LVL17:
 197              		.thumb
 198              	.L11:
 199              	.LBE215:
 200              	.LBE214:
 201              	.LBE213:
 202              	.LBE212:
 203              	.LBE211:
 204              	.LBE210:
 205              		.loc 1 92 0
 206 002a 2306     		lsls	r3, r4, #24
 207 002c 12D4     		bmi	.L22
 208              	.LVL18:
 209              	.L14:
 210              	.LBE201:
 211              	.LBE200:
 212              		.loc 1 190 0
 213 002e BDE87040 		pop	{r4, r5, r6, lr}
 214              		.cfi_remember_state
 215              		.cfi_restore 14
 216              		.cfi_restore 6
 217              		.cfi_restore 5
 218              		.cfi_restore 4
 219              		.cfi_def_cfa_offset 0
 220              	.LVL19:
 221              		.loc 1 189 0
 222 0032 FFF7FEBF 		b	_port_irq_epilogue
 223              	.LVL20:
 224              	.L20:
 225              		.cfi_restore_state
 226              	.LBB250:
 227              	.LBB248:
ARM GAS  /tmp/ccBURVhG.s 			page 5


 228              	.LBB216:
 229              	.LBB217:
 230              		.loc 2 844 0
 231 0036 0430     		adds	r0, r0, #4
 232 0038 0421     		movs	r1, #4
 233 003a FFF7FEFF 		bl	chEvtBroadcastFlagsI
 234              	.LVL21:
 235              	.LBE217:
 236              	.LBE216:
 237              		.loc 1 87 0
 238 003e E979     		ldrb	r1, [r5, #7]	@ zero_extendqisi2
 239 0040 1448     		ldr	r0, .L24+4
 240 0042 FFF7FEFF 		bl	chIQPutI
 241              	.LVL22:
 242 0046 0028     		cmp	r0, #0
 243 0048 ECDA     		bge	.L13
 244              	.LVL23:
 245              	.L21:
 246              	.LBB218:
 247              	.LBB219:
 248              		.loc 2 844 0
 249 004a 1348     		ldr	r0, .L24+8
 250 004c 8021     		movs	r1, #128
 251 004e FFF7FEFF 		bl	chEvtBroadcastFlagsI
 252              	.LVL24:
 253 0052 E7E7     		b	.L13
 254              	.LVL25:
 255              	.L22:
 256              	.LBE219:
 257              	.LBE218:
 258              	.LBB220:
 259              	.LBB221:
 260              	.LBB222:
 261              	.LBB223:
 262              	.LBB224:
 263              	.LBB225:
 264              	.LBB226:
 265              		.loc 3 548 0
 266 0054 2026     		movs	r6, #32
 267              	#APP
 268              	@ 548 "../os/ext/CMSIS/include/core_cmFunc.h" 1
 269 0056 86F31188 		MSR basepri, r6
 270              	@ 0 "" 2
 271              		.thumb
 272              	.LBE226:
 273              	.LBE225:
 274              	.LBE224:
 275              	.LBE223:
 276              	.LBE222:
 277              	.LBE221:
 278              		.loc 1 96 0
 279 005a 1048     		ldr	r0, .L24+12
 280 005c FFF7FEFF 		bl	chOQGetI
 281              	.LVL26:
 282              	.LBB227:
 283              	.LBB228:
 284              	.LBB229:
ARM GAS  /tmp/ccBURVhG.s 			page 6


 285              	.LBB230:
 286              	.LBB231:
 287              	.LBB232:
 288              		.loc 3 548 0
 289 0060 0024     		movs	r4, #0
 290              	.LVL27:
 291              	#APP
 292              	@ 548 "../os/ext/CMSIS/include/core_cmFunc.h" 1
 293 0062 84F31188 		MSR basepri, r4
 294              	@ 0 "" 2
 295              		.thumb
 296              	.LBE232:
 297              	.LBE231:
 298              	.LBE230:
 299              	.LBE229:
 300              	.LBE228:
 301              	.LBE227:
 302              		.loc 1 99 0
 303 0066 A042     		cmp	r0, r4
 304 0068 05DB     		blt	.L23
 305              		.loc 1 105 0
 306 006a C0B2     		uxtb	r0, r0
 307              	.LVL28:
 308 006c E871     		strb	r0, [r5, #7]
 309              	.LBE220:
 310              	.LBE248:
 311              	.LBE250:
 312              		.loc 1 190 0
 313 006e BDE87040 		pop	{r4, r5, r6, lr}
 314              		.cfi_remember_state
 315              		.cfi_restore 4
 316              		.cfi_restore 5
 317              		.cfi_restore 6
 318              		.cfi_restore 14
 319              		.cfi_def_cfa_offset 0
 320              	.LVL29:
 321              		.loc 1 189 0
 322 0072 FFF7FEBF 		b	_port_irq_epilogue
 323              	.LVL30:
 324              	.L23:
 325              		.cfi_restore_state
 326              	.LBB251:
 327              	.LBB249:
 328              	.LBB247:
 329              	.LBB233:
 330              	.LBB234:
 331              	.LBB235:
 332              	.LBB236:
 333              	.LBB237:
 334              	.LBB238:
 335              		.loc 3 548 0
 336              	#APP
 337              	@ 548 "../os/ext/CMSIS/include/core_cmFunc.h" 1
 338 0076 86F31188 		MSR basepri, r6
 339              	@ 0 "" 2
 340              	.LVL31:
 341              		.thumb
ARM GAS  /tmp/ccBURVhG.s 			page 7


 342              	.LBE238:
 343              	.LBE237:
 344              	.LBE236:
 345              	.LBE235:
 346              	.LBE234:
 347              	.LBE233:
 348              	.LBB239:
 349              	.LBB240:
 350              		.loc 2 844 0
 351 007a 0748     		ldr	r0, .L24+8
 352              	.LVL32:
 353 007c 0821     		movs	r1, #8
 354 007e FFF7FEFF 		bl	chEvtBroadcastFlagsI
 355              	.LVL33:
 356              	.LBE240:
 357              	.LBE239:
 358              	.LBB241:
 359              	.LBB242:
 360              	.LBB243:
 361              	.LBB244:
 362              	.LBB245:
 363              	.LBB246:
 364              		.loc 3 548 0
 365              	#APP
 366              	@ 548 "../os/ext/CMSIS/include/core_cmFunc.h" 1
 367 0082 84F31188 		MSR basepri, r4
 368              	@ 0 "" 2
 369              		.thumb
 370              	.LBE246:
 371              	.LBE245:
 372              	.LBE244:
 373              	.LBE243:
 374              	.LBE242:
 375              	.LBE241:
 376              		.loc 1 103 0
 377 0086 EB78     		ldrb	r3, [r5, #3]	@ zero_extendqisi2
 378 0088 03F07F03 		and	r3, r3, #127
 379 008c EB70     		strb	r3, [r5, #3]
 380 008e CEE7     		b	.L14
 381              	.L25:
 382              		.align	2
 383              	.L24:
 384 0090 00000000 		.word	.LANCHOR0
 385 0094 0C000000 		.word	.LANCHOR0+12
 386 0098 04000000 		.word	.LANCHOR0+4
 387 009c 30000000 		.word	.LANCHOR0+48
 388              	.LBE247:
 389              	.LBE249:
 390              	.LBE251:
 391              		.cfi_endproc
 392              	.LFE271:
 393              		.size	Vector80, .-Vector80
 394              		.section	.text.sd_lld_init,"ax",%progbits
 395              		.align	2
 396              		.p2align 4,,15
 397              		.global	sd_lld_init
 398              		.thumb
ARM GAS  /tmp/ccBURVhG.s 			page 8


 399              		.thumb_func
 400              		.type	sd_lld_init, %function
 401              	sd_lld_init:
 402              	.LFB272:
 403              		.loc 1 220 0
 404              		.cfi_startproc
 405              		@ args = 0, pretend = 0, frame = 0
 406              		@ frame_needed = 0, uses_anonymous_args = 0
 407 0000 10B5     		push	{r4, lr}
 408              		.cfi_def_cfa_offset 8
 409              		.cfi_offset 4, -8
 410              		.cfi_offset 14, -4
 411              		.loc 1 224 0
 412 0002 044C     		ldr	r4, .L28
 413 0004 044A     		ldr	r2, .L28+4
 414 0006 2046     		mov	r0, r4
 415 0008 0021     		movs	r1, #0
 416 000a FFF7FEFF 		bl	sdObjectInit
 417              	.LVL34:
 418              		.loc 1 225 0
 419 000e 034B     		ldr	r3, .L28+8
 420 0010 6367     		str	r3, [r4, #116]
 421 0012 10BD     		pop	{r4, pc}
 422              	.L29:
 423              		.align	2
 424              	.L28:
 425 0014 00000000 		.word	.LANCHOR0
 426 0018 00000000 		.word	notify1
 427 001c 00A00640 		.word	1074176000
 428              		.cfi_endproc
 429              	.LFE272:
 430              		.size	sd_lld_init, .-sd_lld_init
 431              		.section	.text.sd_lld_start,"ax",%progbits
 432              		.align	2
 433              		.p2align 4,,15
 434              		.global	sd_lld_start
 435              		.thumb
 436              		.thumb_func
 437              		.type	sd_lld_start, %function
 438              	sd_lld_start:
 439              	.LFB273:
 440              		.loc 1 251 0
 441              		.cfi_startproc
 442              		@ args = 0, pretend = 0, frame = 0
 443              		@ frame_needed = 0, uses_anonymous_args = 0
 444              		@ link register save eliminated.
 445              	.LVL35:
 446              		.loc 1 254 0
 447 0000 1E4B     		ldr	r3, .L36
 448              		.loc 1 256 0
 449 0002 8268     		ldr	r2, [r0, #8]
 450              		.loc 1 254 0
 451 0004 0029     		cmp	r1, #0
 452 0006 08BF     		it	eq
 453 0008 1946     		moveq	r1, r3
 454              	.LVL36:
 455              		.loc 1 256 0
ARM GAS  /tmp/ccBURVhG.s 			page 9


 456 000a 012A     		cmp	r2, #1
 457 000c 00D0     		beq	.L35
 458              	.L34:
 459 000e 7047     		bx	lr
 460              	.L35:
 461              		.loc 1 260 0
 462 0010 1B4B     		ldr	r3, .L36+4
 463 0012 9842     		cmp	r0, r3
 464 0014 FBD1     		bne	.L34
 465              		.loc 1 251 0
 466 0016 70B4     		push	{r4, r5, r6}
 467              		.cfi_def_cfa_offset 12
 468              		.cfi_offset 4, -12
 469              		.cfi_offset 5, -8
 470              		.cfi_offset 6, -4
 471              		.loc 1 261 0
 472 0018 1A4D     		ldr	r5, .L36+8
 473              		.loc 1 262 0
 474 001a 436F     		ldr	r3, [r0, #116]
 475              	.LVL37:
 476              		.loc 1 261 0
 477 001c 41F23404 		movw	r4, #4148
 478              	.LBB254:
 479              	.LBB255:
 480              		.loc 1 160 0
 481 0020 02F1B762 		add	r2, r2, #95944704
 482              	.LBE255:
 483              	.LBE254:
 484              		.loc 1 261 0
 485 0024 2859     		ldr	r0, [r5, r4]
 486              	.LVL38:
 487 0026 40F48060 		orr	r0, r0, #1024
 488 002a 2851     		str	r0, [r5, r4]
 489              	.LBB257:
 490              	.LBB256:
 491              		.loc 1 163 0
 492 002c D878     		ldrb	r0, [r3, #3]	@ zero_extendqisi2
 493              		.loc 1 160 0
 494 002e 0968     		ldr	r1, [r1]
 495              	.LVL39:
 496              		.loc 1 164 0
 497 0030 0026     		movs	r6, #0
 498              		.loc 1 160 0
 499 0032 02F55842 		add	r2, r2, #55296
 500 0036 B2FBF1F2 		udiv	r2, r2, r1
 501              	.LVL40:
 502              		.loc 1 163 0
 503 003a 00F0F301 		and	r1, r0, #243
 504 003e D970     		strb	r1, [r3, #3]
 505              		.loc 1 164 0
 506 0040 9E70     		strb	r6, [r3, #2]
 507              		.loc 1 166 0
 508 0042 1978     		ldrb	r1, [r3]	@ zero_extendqisi2
 509 0044 C2F34430 		ubfx	r0, r2, #13, #5
 510 0048 01F0E001 		and	r1, r1, #224
 511 004c 0143     		orrs	r1, r1, r0
 512              		.loc 1 167 0
ARM GAS  /tmp/ccBURVhG.s 			page 10


 513 004e C2F34710 		ubfx	r0, r2, #5, #8
 514              		.loc 1 166 0
 515 0052 1970     		strb	r1, [r3]
 516              		.loc 1 167 0
 517 0054 5870     		strb	r0, [r3, #1]
 518              		.loc 1 168 0
 519 0056 997A     		ldrb	r1, [r3, #10]	@ zero_extendqisi2
 520 0058 02F01F02 		and	r2, r2, #31
 521              	.LVL41:
 522 005c 01F0E001 		and	r1, r1, #224
 523 0060 0A43     		orrs	r2, r2, r1
 524 0062 9A72     		strb	r2, [r3, #10]
 525              		.loc 1 170 0
 526 0064 DA78     		ldrb	r2, [r3, #3]	@ zero_extendqisi2
 527              		.loc 1 171 0
 528 0066 0F21     		movs	r1, #15
 529              		.loc 1 170 0
 530 0068 42F02C02 		orr	r2, r2, #44
 531 006c DA70     		strb	r2, [r3, #3]
 532              		.loc 1 171 0
 533 006e 9971     		strb	r1, [r3, #6]
 534              	.LBE256:
 535              	.LBE257:
 536              		.loc 1 263 0
 537 0070 1020     		movs	r0, #16
 538 0072 0C21     		movs	r1, #12
 539              		.loc 1 286 0
 540 0074 70BC     		pop	{r4, r5, r6}
 541              		.cfi_restore 6
 542              		.cfi_restore 5
 543              		.cfi_restore 4
 544              		.cfi_def_cfa_offset 0
 545              		.loc 1 263 0
 546 0076 FFF7FEBF 		b	nvicEnableVector
 547              	.LVL42:
 548              	.L37:
 549 007a 00BF     		.align	2
 550              	.L36:
 551 007c 00000000 		.word	.LANCHOR1
 552 0080 00000000 		.word	.LANCHOR0
 553 0084 00700440 		.word	1074032640
 554              		.cfi_endproc
 555              	.LFE273:
 556              		.size	sd_lld_start, .-sd_lld_start
 557 0088 AFF30080 		.section	.text.sd_lld_stop,"ax",%progbits
 557      AFF30080 
 558              		.align	2
 559              		.p2align 4,,15
 560              		.global	sd_lld_stop
 561              		.thumb
 562              		.thumb_func
 563              		.type	sd_lld_stop, %function
 564              	sd_lld_stop:
 565              	.LFB274:
 566              		.loc 1 297 0
 567              		.cfi_startproc
 568              		@ args = 0, pretend = 0, frame = 0
ARM GAS  /tmp/ccBURVhG.s 			page 11


 569              		@ frame_needed = 0, uses_anonymous_args = 0
 570              	.LVL43:
 571 0000 08B5     		push	{r3, lr}
 572              		.cfi_def_cfa_offset 8
 573              		.cfi_offset 3, -8
 574              		.cfi_offset 14, -4
 575              		.loc 1 299 0
 576 0002 8368     		ldr	r3, [r0, #8]
 577 0004 022B     		cmp	r3, #2
 578 0006 00D0     		beq	.L41
 579              	.LVL44:
 580              	.L38:
 581 0008 08BD     		pop	{r3, pc}
 582              	.LVL45:
 583              	.L41:
 584              		.loc 1 303 0
 585 000a 074B     		ldr	r3, .L42
 586 000c 9842     		cmp	r0, r3
 587 000e FBD1     		bne	.L38
 588              		.loc 1 304 0
 589 0010 1020     		movs	r0, #16
 590              	.LVL46:
 591 0012 FFF7FEFF 		bl	nvicDisableVector
 592              	.LVL47:
 593              		.loc 1 305 0
 594 0016 0549     		ldr	r1, .L42+4
 595 0018 41F23402 		movw	r2, #4148
 596 001c 8B58     		ldr	r3, [r1, r2]
 597 001e 23F48063 		bic	r3, r3, #1024
 598 0022 8B50     		str	r3, [r1, r2]
 599 0024 F0E7     		b	.L38
 600              	.L43:
 601 0026 00BF     		.align	2
 602              	.L42:
 603 0028 00000000 		.word	.LANCHOR0
 604 002c 00700440 		.word	1074032640
 605              		.cfi_endproc
 606              	.LFE274:
 607              		.size	sd_lld_stop, .-sd_lld_stop
 608              		.global	SD1
 609              		.section	.rodata.default_config,"a",%progbits
 610              		.align	2
 611              	.LANCHOR1 = . + 0
 612              		.type	default_config, %object
 613              		.size	default_config, 4
 614              	default_config:
 615 0000 00960000 		.word	38400
 616              		.section	.bss.SD1,"aw",%nobits
 617              		.align	2
 618              	.LANCHOR0 = . + 0
 619              		.type	SD1, %object
 620              		.size	SD1, 120
 621              	SD1:
 622 0000 00000000 		.space	120
 622      00000000 
 622      00000000 
 622      00000000 
ARM GAS  /tmp/ccBURVhG.s 			page 12


 622      00000000 
 623              		.text
 624              	.Letext0:
 625              		.file 5 "/usr/lib/gcc/arm-linux-gnueabihf/4.9/include/stddef.h"
 626              		.file 6 "/usr/include/stdint.h"
 627              		.file 7 "../os/rt/ports/ARMCMx/compilers/GCC/chtypes.h"
 628              		.file 8 "../os/rt/include/chsystypes.h"
 629              		.file 9 "../os/rt/include/chschd.h"
 630              		.file 10 "../os/ext/CMSIS/KINETIS/mk20d5.h"
 631              		.file 11 "../os/rt/ports/ARMCMx/chcore.h"
 632              		.file 12 "../os/rt/ports/ARMCMx/chcore_v7m.h"
 633              		.file 13 "../os/rt/include/chsem.h"
 634              		.file 14 "../os/rt/include/chmtx.h"
 635              		.file 15 "../os/rt/include/chevents.h"
 636              		.file 16 "../os/hal/include/serial.h"
 637              		.file 17 "../os/hal/ports/KINETIS/K20x/serial_lld.h"
 638              		.file 18 "../os/rt/include/chsys.h"
 639              		.file 19 "../os/hal/ports/common/ARMCMx/nvic.h"
 640              		.file 20 "../os/ext/CMSIS/include/core_cm4.h"
 641              		.section	.debug_info,"",%progbits
 642              	.Ldebug_info0:
 643 0000 9D160000 		.4byte	0x169d
 644 0004 0400     		.2byte	0x4
 645 0006 00000000 		.4byte	.Ldebug_abbrev0
 646 000a 04       		.byte	0x4
 647 000b 01       		.uleb128 0x1
 648 000c D5030000 		.4byte	.LASF273
 649 0010 01       		.byte	0x1
 650 0011 F0040000 		.4byte	.LASF274
 651 0015 86010000 		.4byte	.LASF275
 652 0019 98000000 		.4byte	.Ldebug_ranges0+0x98
 653 001d 00000000 		.4byte	0
 654 0021 00000000 		.4byte	.Ldebug_line0
 655 0025 02       		.uleb128 0x2
 656 0026 04       		.byte	0x4
 657 0027 05       		.byte	0x5
 658 0028 696E7400 		.ascii	"int\000"
 659 002c 03       		.uleb128 0x3
 660 002d 00000000 		.4byte	.LASF3
 661 0031 05       		.byte	0x5
 662 0032 D4       		.byte	0xd4
 663 0033 37000000 		.4byte	0x37
 664 0037 04       		.uleb128 0x4
 665 0038 04       		.byte	0x4
 666 0039 07       		.byte	0x7
 667 003a C1070000 		.4byte	.LASF0
 668 003e 04       		.uleb128 0x4
 669 003f 01       		.byte	0x1
 670 0040 06       		.byte	0x6
 671 0041 C3020000 		.4byte	.LASF1
 672 0045 04       		.uleb128 0x4
 673 0046 02       		.byte	0x2
 674 0047 05       		.byte	0x5
 675 0048 C60A0000 		.4byte	.LASF2
 676 004c 03       		.uleb128 0x3
 677 004d 4C000000 		.4byte	.LASF4
 678 0051 06       		.byte	0x6
ARM GAS  /tmp/ccBURVhG.s 			page 13


 679 0052 26       		.byte	0x26
 680 0053 25000000 		.4byte	0x25
 681 0057 04       		.uleb128 0x4
 682 0058 08       		.byte	0x8
 683 0059 05       		.byte	0x5
 684 005a BD060000 		.4byte	.LASF5
 685 005e 03       		.uleb128 0x3
 686 005f D9020000 		.4byte	.LASF6
 687 0063 06       		.byte	0x6
 688 0064 30       		.byte	0x30
 689 0065 69000000 		.4byte	0x69
 690 0069 04       		.uleb128 0x4
 691 006a 01       		.byte	0x1
 692 006b 08       		.byte	0x8
 693 006c 22030000 		.4byte	.LASF7
 694 0070 04       		.uleb128 0x4
 695 0071 02       		.byte	0x2
 696 0072 07       		.byte	0x7
 697 0073 FD0B0000 		.4byte	.LASF8
 698 0077 03       		.uleb128 0x3
 699 0078 AB0B0000 		.4byte	.LASF9
 700 007c 06       		.byte	0x6
 701 007d 33       		.byte	0x33
 702 007e 37000000 		.4byte	0x37
 703 0082 03       		.uleb128 0x3
 704 0083 DD0A0000 		.4byte	.LASF10
 705 0087 06       		.byte	0x6
 706 0088 3A       		.byte	0x3a
 707 0089 8D000000 		.4byte	0x8d
 708 008d 04       		.uleb128 0x4
 709 008e 08       		.byte	0x8
 710 008f 07       		.byte	0x7
 711 0090 F3080000 		.4byte	.LASF11
 712 0094 03       		.uleb128 0x3
 713 0095 2F0A0000 		.4byte	.LASF12
 714 0099 07       		.byte	0x7
 715 009a 3C       		.byte	0x3c
 716 009b 5E000000 		.4byte	0x5e
 717 009f 03       		.uleb128 0x3
 718 00a0 4C020000 		.4byte	.LASF13
 719 00a4 07       		.byte	0x7
 720 00a5 3D       		.byte	0x3d
 721 00a6 5E000000 		.4byte	0x5e
 722 00aa 03       		.uleb128 0x3
 723 00ab 5E0B0000 		.4byte	.LASF14
 724 00af 07       		.byte	0x7
 725 00b0 3E       		.byte	0x3e
 726 00b1 5E000000 		.4byte	0x5e
 727 00b5 03       		.uleb128 0x3
 728 00b6 46090000 		.4byte	.LASF15
 729 00ba 07       		.byte	0x7
 730 00bb 3F       		.byte	0x3f
 731 00bc 5E000000 		.4byte	0x5e
 732 00c0 03       		.uleb128 0x3
 733 00c1 27000000 		.4byte	.LASF16
 734 00c5 07       		.byte	0x7
 735 00c6 40       		.byte	0x40
ARM GAS  /tmp/ccBURVhG.s 			page 14


 736 00c7 77000000 		.4byte	0x77
 737 00cb 03       		.uleb128 0x3
 738 00cc 1C090000 		.4byte	.LASF17
 739 00d0 07       		.byte	0x7
 740 00d1 41       		.byte	0x41
 741 00d2 4C000000 		.4byte	0x4c
 742 00d6 03       		.uleb128 0x3
 743 00d7 E1020000 		.4byte	.LASF18
 744 00db 07       		.byte	0x7
 745 00dc 43       		.byte	0x43
 746 00dd 77000000 		.4byte	0x77
 747 00e1 03       		.uleb128 0x3
 748 00e2 33090000 		.4byte	.LASF19
 749 00e6 07       		.byte	0x7
 750 00e7 44       		.byte	0x44
 751 00e8 77000000 		.4byte	0x77
 752 00ec 03       		.uleb128 0x3
 753 00ed 46050000 		.4byte	.LASF20
 754 00f1 07       		.byte	0x7
 755 00f2 45       		.byte	0x45
 756 00f3 4C000000 		.4byte	0x4c
 757 00f7 03       		.uleb128 0x3
 758 00f8 17000000 		.4byte	.LASF21
 759 00fc 08       		.byte	0x8
 760 00fd 33       		.byte	0x33
 761 00fe 77000000 		.4byte	0x77
 762 0102 03       		.uleb128 0x3
 763 0103 85080000 		.4byte	.LASF22
 764 0107 08       		.byte	0x8
 765 0108 3F       		.byte	0x3f
 766 0109 0D010000 		.4byte	0x10d
 767 010d 05       		.uleb128 0x5
 768 010e E5050000 		.4byte	.LASF43
 769 0112 44       		.byte	0x44
 770 0113 09       		.byte	0x9
 771 0114 C2       		.byte	0xc2
 772 0115 06020000 		.4byte	0x206
 773 0119 06       		.uleb128 0x6
 774 011a F7010000 		.4byte	.LASF23
 775 011e 09       		.byte	0x9
 776 011f C3       		.byte	0xc3
 777 0120 11020000 		.4byte	0x211
 778 0124 00       		.byte	0
 779 0125 06       		.uleb128 0x6
 780 0126 12020000 		.4byte	.LASF24
 781 012a 09       		.byte	0x9
 782 012b C5       		.byte	0xc5
 783 012c 11020000 		.4byte	0x211
 784 0130 04       		.byte	0x4
 785 0131 06       		.uleb128 0x6
 786 0132 CE030000 		.4byte	.LASF25
 787 0136 09       		.byte	0x9
 788 0137 C7       		.byte	0xc7
 789 0138 C0000000 		.4byte	0xc0
 790 013c 08       		.byte	0x8
 791 013d 06       		.uleb128 0x6
 792 013e 21000000 		.4byte	.LASF26
ARM GAS  /tmp/ccBURVhG.s 			page 15


 793 0142 09       		.byte	0x9
 794 0143 C8       		.byte	0xc8
 795 0144 020A0000 		.4byte	0xa02
 796 0148 0C       		.byte	0xc
 797 0149 06       		.uleb128 0x6
 798 014a EF010000 		.4byte	.LASF27
 799 014e 09       		.byte	0x9
 800 014f CA       		.byte	0xca
 801 0150 11020000 		.4byte	0x211
 802 0154 10       		.byte	0x10
 803 0155 06       		.uleb128 0x6
 804 0156 0A090000 		.4byte	.LASF28
 805 015a 09       		.byte	0x9
 806 015b CB       		.byte	0xcb
 807 015c 11020000 		.4byte	0x211
 808 0160 14       		.byte	0x14
 809 0161 06       		.uleb128 0x6
 810 0162 8B0C0000 		.4byte	.LASF29
 811 0166 09       		.byte	0x9
 812 0167 D2       		.byte	0xd2
 813 0168 610B0000 		.4byte	0xb61
 814 016c 18       		.byte	0x18
 815 016d 06       		.uleb128 0x6
 816 016e B90C0000 		.4byte	.LASF30
 817 0172 09       		.byte	0x9
 818 0173 DD       		.byte	0xdd
 819 0174 9F000000 		.4byte	0x9f
 820 0178 1C       		.byte	0x1c
 821 0179 06       		.uleb128 0x6
 822 017a 94070000 		.4byte	.LASF31
 823 017e 09       		.byte	0x9
 824 017f E1       		.byte	0xe1
 825 0180 94000000 		.4byte	0x94
 826 0184 1D       		.byte	0x1d
 827 0185 06       		.uleb128 0x6
 828 0186 E0070000 		.4byte	.LASF32
 829 018a 09       		.byte	0x9
 830 018b E6       		.byte	0xe6
 831 018c AA000000 		.4byte	0xaa
 832 0190 1E       		.byte	0x1e
 833 0191 06       		.uleb128 0x6
 834 0192 CF020000 		.4byte	.LASF33
 835 0196 09       		.byte	0x9
 836 0197 EC       		.byte	0xec
 837 0198 B5000000 		.4byte	0xb5
 838 019c 1F       		.byte	0x1f
 839 019d 07       		.uleb128 0x7
 840 019e 705F7500 		.ascii	"p_u\000"
 841 01a2 09       		.byte	0x9
 842 01a3 3101     		.2byte	0x131
 843 01a5 9C0A0000 		.4byte	0xa9c
 844 01a9 20       		.byte	0x20
 845 01aa 08       		.uleb128 0x8
 846 01ab 7E070000 		.4byte	.LASF34
 847 01af 09       		.byte	0x9
 848 01b0 3601     		.2byte	0x136
 849 01b2 17020000 		.4byte	0x217
ARM GAS  /tmp/ccBURVhG.s 			page 16


 850 01b6 24       		.byte	0x24
 851 01b7 08       		.uleb128 0x8
 852 01b8 3B000000 		.4byte	.LASF35
 853 01bc 09       		.byte	0x9
 854 01bd 3C01     		.2byte	0x13c
 855 01bf 3B020000 		.4byte	0x23b
 856 01c3 28       		.byte	0x28
 857 01c4 08       		.uleb128 0x8
 858 01c5 A70C0000 		.4byte	.LASF36
 859 01c9 09       		.byte	0x9
 860 01ca 4001     		.2byte	0x140
 861 01cc CB000000 		.4byte	0xcb
 862 01d0 30       		.byte	0x30
 863 01d1 08       		.uleb128 0x8
 864 01d2 54050000 		.4byte	.LASF37
 865 01d6 09       		.byte	0x9
 866 01d7 4601     		.2byte	0x146
 867 01d9 D6000000 		.4byte	0xd6
 868 01dd 34       		.byte	0x34
 869 01de 08       		.uleb128 0x8
 870 01df 65020000 		.4byte	.LASF38
 871 01e3 09       		.byte	0x9
 872 01e4 4D01     		.2byte	0x14d
 873 01e6 5B0B0000 		.4byte	0xb5b
 874 01ea 38       		.byte	0x38
 875 01eb 08       		.uleb128 0x8
 876 01ec B3080000 		.4byte	.LASF39
 877 01f0 09       		.byte	0x9
 878 01f1 5101     		.2byte	0x151
 879 01f3 C0000000 		.4byte	0xc0
 880 01f7 3C       		.byte	0x3c
 881 01f8 08       		.uleb128 0x8
 882 01f9 D8070000 		.4byte	.LASF40
 883 01fd 09       		.byte	0x9
 884 01fe 5801     		.2byte	0x158
 885 0200 EE020000 		.4byte	0x2ee
 886 0204 40       		.byte	0x40
 887 0205 00       		.byte	0
 888 0206 03       		.uleb128 0x3
 889 0207 A0080000 		.4byte	.LASF41
 890 020b 08       		.byte	0x8
 891 020c 44       		.byte	0x44
 892 020d 11020000 		.4byte	0x211
 893 0211 09       		.uleb128 0x9
 894 0212 04       		.byte	0x4
 895 0213 02010000 		.4byte	0x102
 896 0217 03       		.uleb128 0x3
 897 0218 660B0000 		.4byte	.LASF42
 898 021c 08       		.byte	0x8
 899 021d 49       		.byte	0x49
 900 021e 22020000 		.4byte	0x222
 901 0222 05       		.uleb128 0x5
 902 0223 7D060000 		.4byte	.LASF44
 903 0227 04       		.byte	0x4
 904 0228 09       		.byte	0x9
 905 0229 B0       		.byte	0xb0
 906 022a 3B020000 		.4byte	0x23b
ARM GAS  /tmp/ccBURVhG.s 			page 17


 907 022e 06       		.uleb128 0x6
 908 022f F7010000 		.4byte	.LASF23
 909 0233 09       		.byte	0x9
 910 0234 B1       		.byte	0xb1
 911 0235 11020000 		.4byte	0x211
 912 0239 00       		.byte	0
 913 023a 00       		.byte	0
 914 023b 03       		.uleb128 0x3
 915 023c 55020000 		.4byte	.LASF45
 916 0240 08       		.byte	0x8
 917 0241 50       		.byte	0x50
 918 0242 46020000 		.4byte	0x246
 919 0246 05       		.uleb128 0x5
 920 0247 22090000 		.4byte	.LASF46
 921 024b 08       		.byte	0x8
 922 024c 09       		.byte	0x9
 923 024d B7       		.byte	0xb7
 924 024e 6B020000 		.4byte	0x26b
 925 0252 06       		.uleb128 0x6
 926 0253 F7010000 		.4byte	.LASF23
 927 0257 09       		.byte	0x9
 928 0258 B8       		.byte	0xb8
 929 0259 11020000 		.4byte	0x211
 930 025d 00       		.byte	0
 931 025e 06       		.uleb128 0x6
 932 025f 12020000 		.4byte	.LASF24
 933 0263 09       		.byte	0x9
 934 0264 B9       		.byte	0xb9
 935 0265 11020000 		.4byte	0x211
 936 0269 04       		.byte	0x4
 937 026a 00       		.byte	0
 938 026b 03       		.uleb128 0x3
 939 026c 2B060000 		.4byte	.LASF47
 940 0270 08       		.byte	0x8
 941 0271 57       		.byte	0x57
 942 0272 76020000 		.4byte	0x276
 943 0276 0A       		.uleb128 0xa
 944 0277 66050000 		.4byte	.LASF48
 945 027b 1C       		.byte	0x1c
 946 027c 09       		.byte	0x9
 947 027d 9001     		.2byte	0x190
 948 027f D2020000 		.4byte	0x2d2
 949 0283 08       		.uleb128 0x8
 950 0284 D4090000 		.4byte	.LASF49
 951 0288 09       		.byte	0x9
 952 0289 9101     		.2byte	0x191
 953 028b 3B020000 		.4byte	0x23b
 954 028f 00       		.byte	0
 955 0290 08       		.uleb128 0x8
 956 0291 090B0000 		.4byte	.LASF50
 957 0295 09       		.byte	0x9
 958 0296 9201     		.2byte	0x192
 959 0298 C0000000 		.4byte	0xc0
 960 029c 08       		.byte	0x8
 961 029d 08       		.uleb128 0x8
 962 029e 46000000 		.4byte	.LASF51
 963 02a2 09       		.byte	0x9
ARM GAS  /tmp/ccBURVhG.s 			page 18


 964 02a3 9401     		.2byte	0x194
 965 02a5 020A0000 		.4byte	0xa02
 966 02a9 0C       		.byte	0xc
 967 02aa 08       		.uleb128 0x8
 968 02ab 5D030000 		.4byte	.LASF52
 969 02af 09       		.byte	0x9
 970 02b0 9701     		.2byte	0x197
 971 02b2 11020000 		.4byte	0x211
 972 02b6 10       		.byte	0x10
 973 02b7 08       		.uleb128 0x8
 974 02b8 910A0000 		.4byte	.LASF53
 975 02bc 09       		.byte	0x9
 976 02bd 9801     		.2byte	0x198
 977 02bf 11020000 		.4byte	0x211
 978 02c3 14       		.byte	0x14
 979 02c4 08       		.uleb128 0x8
 980 02c5 50090000 		.4byte	.LASF54
 981 02c9 09       		.byte	0x9
 982 02ca 9B01     		.2byte	0x19b
 983 02cc 11020000 		.4byte	0x211
 984 02d0 18       		.byte	0x18
 985 02d1 00       		.byte	0
 986 02d2 03       		.uleb128 0x3
 987 02d3 68000000 		.4byte	.LASF55
 988 02d7 08       		.byte	0x8
 989 02d8 5C       		.byte	0x5c
 990 02d9 DD020000 		.4byte	0x2dd
 991 02dd 09       		.uleb128 0x9
 992 02de 04       		.byte	0x4
 993 02df E3020000 		.4byte	0x2e3
 994 02e3 0B       		.uleb128 0xb
 995 02e4 EE020000 		.4byte	0x2ee
 996 02e8 0C       		.uleb128 0xc
 997 02e9 EE020000 		.4byte	0x2ee
 998 02ed 00       		.byte	0
 999 02ee 0D       		.uleb128 0xd
 1000 02ef 04       		.byte	0x4
 1001 02f0 03       		.uleb128 0x3
 1002 02f1 1B060000 		.4byte	.LASF56
 1003 02f5 08       		.byte	0x8
 1004 02f6 61       		.byte	0x61
 1005 02f7 FB020000 		.4byte	0x2fb
 1006 02fb 0A       		.uleb128 0xa
 1007 02fc D3080000 		.4byte	.LASF57
 1008 0300 14       		.byte	0x14
 1009 0301 09       		.byte	0x9
 1010 0302 6B01     		.2byte	0x16b
 1011 0304 4A030000 		.4byte	0x34a
 1012 0308 08       		.uleb128 0x8
 1013 0309 E6060000 		.4byte	.LASF58
 1014 030d 09       		.byte	0x9
 1015 030e 6C01     		.2byte	0x16c
 1016 0310 730B0000 		.4byte	0xb73
 1017 0314 00       		.byte	0
 1018 0315 08       		.uleb128 0x8
 1019 0316 F7060000 		.4byte	.LASF59
 1020 031a 09       		.byte	0x9
ARM GAS  /tmp/ccBURVhG.s 			page 19


 1021 031b 6D01     		.2byte	0x16d
 1022 031d 730B0000 		.4byte	0xb73
 1023 0321 04       		.byte	0x4
 1024 0322 08       		.uleb128 0x8
 1025 0323 CA080000 		.4byte	.LASF60
 1026 0327 09       		.byte	0x9
 1027 0328 6E01     		.2byte	0x16e
 1028 032a F7000000 		.4byte	0xf7
 1029 032e 08       		.byte	0x8
 1030 032f 08       		.uleb128 0x8
 1031 0330 4C050000 		.4byte	.LASF61
 1032 0334 09       		.byte	0x9
 1033 0335 6F01     		.2byte	0x16f
 1034 0337 D2020000 		.4byte	0x2d2
 1035 033b 0C       		.byte	0xc
 1036 033c 08       		.uleb128 0x8
 1037 033d 57010000 		.4byte	.LASF62
 1038 0341 09       		.byte	0x9
 1039 0342 7101     		.2byte	0x171
 1040 0344 EE020000 		.4byte	0x2ee
 1041 0348 10       		.byte	0x10
 1042 0349 00       		.byte	0
 1043 034a 03       		.uleb128 0x3
 1044 034b EF050000 		.4byte	.LASF63
 1045 034f 08       		.byte	0x8
 1046 0350 66       		.byte	0x66
 1047 0351 55030000 		.4byte	0x355
 1048 0355 0A       		.uleb128 0xa
 1049 0356 81000000 		.4byte	.LASF64
 1050 035a 10       		.byte	0x10
 1051 035b 09       		.byte	0x9
 1052 035c 7B01     		.2byte	0x17b
 1053 035e 97030000 		.4byte	0x397
 1054 0362 08       		.uleb128 0x8
 1055 0363 E6060000 		.4byte	.LASF58
 1056 0367 09       		.byte	0x9
 1057 0368 7C01     		.2byte	0x17c
 1058 036a 730B0000 		.4byte	0xb73
 1059 036e 00       		.byte	0
 1060 036f 08       		.uleb128 0x8
 1061 0370 F7060000 		.4byte	.LASF59
 1062 0374 09       		.byte	0x9
 1063 0375 7E01     		.2byte	0x17e
 1064 0377 730B0000 		.4byte	0xb73
 1065 037b 04       		.byte	0x4
 1066 037c 08       		.uleb128 0x8
 1067 037d CA080000 		.4byte	.LASF60
 1068 0381 09       		.byte	0x9
 1069 0382 8001     		.2byte	0x180
 1070 0384 F7000000 		.4byte	0xf7
 1071 0388 08       		.byte	0x8
 1072 0389 08       		.uleb128 0x8
 1073 038a 730A0000 		.4byte	.LASF65
 1074 038e 09       		.byte	0x9
 1075 038f 8201     		.2byte	0x182
 1076 0391 790B0000 		.4byte	0xb79
 1077 0395 0C       		.byte	0xc
ARM GAS  /tmp/ccBURVhG.s 			page 20


 1078 0396 00       		.byte	0
 1079 0397 03       		.uleb128 0x3
 1080 0398 75030000 		.4byte	.LASF66
 1081 039c 08       		.byte	0x8
 1082 039d 6B       		.byte	0x6b
 1083 039e A2030000 		.4byte	0x3a2
 1084 03a2 0A       		.uleb128 0xa
 1085 03a3 100B0000 		.4byte	.LASF67
 1086 03a7 04       		.byte	0x4
 1087 03a8 09       		.byte	0x9
 1088 03a9 A201     		.2byte	0x1a2
 1089 03ab BD030000 		.4byte	0x3bd
 1090 03af 08       		.uleb128 0x8
 1091 03b0 4B030000 		.4byte	.LASF68
 1092 03b4 09       		.byte	0x9
 1093 03b5 AA01     		.2byte	0x1aa
 1094 03b7 7E0B0000 		.4byte	0xb7e
 1095 03bb 00       		.byte	0
 1096 03bc 00       		.byte	0
 1097 03bd 03       		.uleb128 0x3
 1098 03be 1C0C0000 		.4byte	.LASF69
 1099 03c2 08       		.byte	0x8
 1100 03c3 70       		.byte	0x70
 1101 03c4 C8030000 		.4byte	0x3c8
 1102 03c8 0E       		.uleb128 0xe
 1103 03c9 860B0000 		.4byte	.LASF70
 1104 03cd 5001     		.2byte	0x150
 1105 03cf 09       		.byte	0x9
 1106 03d0 C201     		.2byte	0x1c2
 1107 03d2 18040000 		.4byte	0x418
 1108 03d6 08       		.uleb128 0x8
 1109 03d7 290A0000 		.4byte	.LASF71
 1110 03db 09       		.byte	0x9
 1111 03dc C601     		.2byte	0x1c6
 1112 03de 6B020000 		.4byte	0x26b
 1113 03e2 00       		.byte	0
 1114 03e3 08       		.uleb128 0x8
 1115 03e4 460B0000 		.4byte	.LASF72
 1116 03e8 09       		.byte	0x9
 1117 03e9 CA01     		.2byte	0x1ca
 1118 03eb 4A030000 		.4byte	0x34a
 1119 03ef 1C       		.byte	0x1c
 1120 03f0 07       		.uleb128 0x7
 1121 03f1 64626700 		.ascii	"dbg\000"
 1122 03f5 09       		.byte	0x9
 1123 03f6 CE01     		.2byte	0x1ce
 1124 03f8 97030000 		.4byte	0x397
 1125 03fc 2C       		.byte	0x2c
 1126 03fd 08       		.uleb128 0x8
 1127 03fe A0090000 		.4byte	.LASF73
 1128 0402 09       		.byte	0x9
 1129 0403 D201     		.2byte	0x1d2
 1130 0405 02010000 		.4byte	0x102
 1131 0409 30       		.byte	0x30
 1132 040a 08       		.uleb128 0x8
 1133 040b A1070000 		.4byte	.LASF74
 1134 040f 09       		.byte	0x9
ARM GAS  /tmp/ccBURVhG.s 			page 21


 1135 0410 E301     		.2byte	0x1e3
 1136 0412 830B0000 		.4byte	0xb83
 1137 0416 78       		.byte	0x78
 1138 0417 00       		.byte	0
 1139 0418 0F       		.uleb128 0xf
 1140 0419 6B080000 		.4byte	.LASF276
 1141 041d 04       		.byte	0x4
 1142 041e 0A       		.byte	0xa
 1143 041f 1F       		.byte	0x1f
 1144 0420 7B050000 		.4byte	0x57b
 1145 0424 10       		.uleb128 0x10
 1146 0425 37050000 		.4byte	.LASF75
 1147 0429 71       		.sleb128 -15
 1148 042a 10       		.uleb128 0x10
 1149 042b 5E010000 		.4byte	.LASF76
 1150 042f 71       		.sleb128 -15
 1151 0430 10       		.uleb128 0x10
 1152 0431 9B050000 		.4byte	.LASF77
 1153 0435 72       		.sleb128 -14
 1154 0436 10       		.uleb128 0x10
 1155 0437 770C0000 		.4byte	.LASF78
 1156 043b 73       		.sleb128 -13
 1157 043c 10       		.uleb128 0x10
 1158 043d B9050000 		.4byte	.LASF79
 1159 0441 74       		.sleb128 -12
 1160 0442 10       		.uleb128 0x10
 1161 0443 92060000 		.4byte	.LASF80
 1162 0447 75       		.sleb128 -11
 1163 0448 10       		.uleb128 0x10
 1164 0449 B9030000 		.4byte	.LASF81
 1165 044d 76       		.sleb128 -10
 1166 044e 10       		.uleb128 0x10
 1167 044f 05070000 		.4byte	.LASF82
 1168 0453 7B       		.sleb128 -5
 1169 0454 10       		.uleb128 0x10
 1170 0455 570A0000 		.4byte	.LASF83
 1171 0459 7C       		.sleb128 -4
 1172 045a 10       		.uleb128 0x10
 1173 045b 280C0000 		.4byte	.LASF84
 1174 045f 7E       		.sleb128 -2
 1175 0460 10       		.uleb128 0x10
 1176 0461 92020000 		.4byte	.LASF85
 1177 0465 7F       		.sleb128 -1
 1178 0466 10       		.uleb128 0x10
 1179 0467 340C0000 		.4byte	.LASF86
 1180 046b 00       		.sleb128 0
 1181 046c 10       		.uleb128 0x10
 1182 046d CE070000 		.4byte	.LASF87
 1183 0471 01       		.sleb128 1
 1184 0472 10       		.uleb128 0x10
 1185 0473 7F020000 		.4byte	.LASF88
 1186 0477 02       		.sleb128 2
 1187 0478 10       		.uleb128 0x10
 1188 0479 40010000 		.4byte	.LASF89
 1189 047d 03       		.sleb128 3
 1190 047e 10       		.uleb128 0x10
 1191 047f 72090000 		.4byte	.LASF90
ARM GAS  /tmp/ccBURVhG.s 			page 22


 1192 0483 04       		.sleb128 4
 1193 0484 10       		.uleb128 0x10
 1194 0485 2B0B0000 		.4byte	.LASF91
 1195 0489 05       		.sleb128 5
 1196 048a 10       		.uleb128 0x10
 1197 048b 370A0000 		.4byte	.LASF92
 1198 048f 06       		.sleb128 6
 1199 0490 10       		.uleb128 0x10
 1200 0491 38060000 		.4byte	.LASF93
 1201 0495 07       		.sleb128 7
 1202 0496 10       		.uleb128 0x10
 1203 0497 FD000000 		.4byte	.LASF94
 1204 049b 08       		.sleb128 8
 1205 049c 10       		.uleb128 0x10
 1206 049d 42020000 		.4byte	.LASF95
 1207 04a1 09       		.sleb128 9
 1208 04a2 10       		.uleb128 0x10
 1209 04a3 74070000 		.4byte	.LASF96
 1210 04a7 0A       		.sleb128 10
 1211 04a8 10       		.uleb128 0x10
 1212 04a9 BC090000 		.4byte	.LASF97
 1213 04ad 0B       		.sleb128 11
 1214 04ae 10       		.uleb128 0x10
 1215 04af 750B0000 		.4byte	.LASF98
 1216 04b3 0C       		.sleb128 12
 1217 04b4 10       		.uleb128 0x10
 1218 04b5 6D010000 		.4byte	.LASF99
 1219 04b9 0D       		.sleb128 13
 1220 04ba 10       		.uleb128 0x10
 1221 04bb 80090000 		.4byte	.LASF100
 1222 04bf 0E       		.sleb128 14
 1223 04c0 10       		.uleb128 0x10
 1224 04c1 0D060000 		.4byte	.LASF101
 1225 04c5 0F       		.sleb128 15
 1226 04c6 10       		.uleb128 0x10
 1227 04c7 0E0A0000 		.4byte	.LASF102
 1228 04cb 10       		.sleb128 16
 1229 04cc 10       		.uleb128 0x10
 1230 04cd BF040000 		.4byte	.LASF103
 1231 04d1 11       		.sleb128 17
 1232 04d2 10       		.uleb128 0x10
 1233 04d3 AC020000 		.4byte	.LASF104
 1234 04d7 12       		.sleb128 18
 1235 04d8 10       		.uleb128 0x10
 1236 04d9 5B080000 		.4byte	.LASF105
 1237 04dd 13       		.sleb128 19
 1238 04de 10       		.uleb128 0x10
 1239 04df DF040000 		.4byte	.LASF106
 1240 04e3 14       		.sleb128 20
 1241 04e4 10       		.uleb128 0x10
 1242 04e5 0E080000 		.4byte	.LASF107
 1243 04e9 15       		.sleb128 21
 1244 04ea 10       		.uleb128 0x10
 1245 04eb 1A050000 		.4byte	.LASF108
 1246 04ef 16       		.sleb128 22
 1247 04f0 10       		.uleb128 0x10
 1248 04f1 870A0000 		.4byte	.LASF109
ARM GAS  /tmp/ccBURVhG.s 			page 23


 1249 04f5 17       		.sleb128 23
 1250 04f6 10       		.uleb128 0x10
 1251 04f7 AF050000 		.4byte	.LASF110
 1252 04fb 18       		.sleb128 24
 1253 04fc 10       		.uleb128 0x10
 1254 04fd FF090000 		.4byte	.LASF111
 1255 0501 19       		.sleb128 25
 1256 0502 10       		.uleb128 0x10
 1257 0503 12090000 		.4byte	.LASF112
 1258 0507 1A       		.sleb128 26
 1259 0508 10       		.uleb128 0x10
 1260 0509 3D0B0000 		.4byte	.LASF113
 1261 050d 1B       		.sleb128 27
 1262 050e 10       		.uleb128 0x10
 1263 050f 50070000 		.4byte	.LASF114
 1264 0513 1C       		.sleb128 28
 1265 0514 10       		.uleb128 0x10
 1266 0515 71000000 		.4byte	.LASF115
 1267 0519 1D       		.sleb128 29
 1268 051a 10       		.uleb128 0x10
 1269 051b F6070000 		.4byte	.LASF116
 1270 051f 1E       		.sleb128 30
 1271 0520 10       		.uleb128 0x10
 1272 0521 23070000 		.4byte	.LASF117
 1273 0525 1F       		.sleb128 31
 1274 0526 10       		.uleb128 0x10
 1275 0527 C8010000 		.4byte	.LASF118
 1276 052b 20       		.sleb128 32
 1277 052c 10       		.uleb128 0x10
 1278 052d DC090000 		.4byte	.LASF119
 1279 0531 21       		.sleb128 33
 1280 0532 10       		.uleb128 0x10
 1281 0533 9E0C0000 		.4byte	.LASF120
 1282 0537 22       		.sleb128 34
 1283 0538 10       		.uleb128 0x10
 1284 0539 9F020000 		.4byte	.LASF121
 1285 053d 23       		.sleb128 35
 1286 053e 10       		.uleb128 0x10
 1287 053f 8A090000 		.4byte	.LASF122
 1288 0543 24       		.sleb128 36
 1289 0544 10       		.uleb128 0x10
 1290 0545 4D0B0000 		.4byte	.LASF123
 1291 0549 25       		.sleb128 37
 1292 054a 10       		.uleb128 0x10
 1293 054b CF050000 		.4byte	.LASF124
 1294 054f 26       		.sleb128 38
 1295 0550 10       		.uleb128 0x10
 1296 0551 B30A0000 		.4byte	.LASF125
 1297 0555 27       		.sleb128 39
 1298 0556 10       		.uleb128 0x10
 1299 0557 690A0000 		.4byte	.LASF126
 1300 055b 28       		.sleb128 40
 1301 055c 10       		.uleb128 0x10
 1302 055d 68090000 		.4byte	.LASF127
 1303 0561 29       		.sleb128 41
 1304 0562 10       		.uleb128 0x10
 1305 0563 2D050000 		.4byte	.LASF128
ARM GAS  /tmp/ccBURVhG.s 			page 24


 1306 0567 2A       		.sleb128 42
 1307 0568 10       		.uleb128 0x10
 1308 0569 650C0000 		.4byte	.LASF129
 1309 056d 2B       		.sleb128 43
 1310 056e 10       		.uleb128 0x10
 1311 056f 900B0000 		.4byte	.LASF130
 1312 0573 2C       		.sleb128 44
 1313 0574 10       		.uleb128 0x10
 1314 0575 B0070000 		.4byte	.LASF131
 1315 0579 2D       		.sleb128 45
 1316 057a 00       		.byte	0
 1317 057b 04       		.uleb128 0x4
 1318 057c 04       		.byte	0x4
 1319 057d 07       		.byte	0x7
 1320 057e 07000000 		.4byte	.LASF132
 1321 0582 11       		.uleb128 0x11
 1322 0583 77000000 		.4byte	0x77
 1323 0587 12       		.uleb128 0x12
 1324 0588 82050000 		.4byte	0x582
 1325 058c 13       		.uleb128 0x13
 1326 058d 77000000 		.4byte	0x77
 1327 0591 9C050000 		.4byte	0x59c
 1328 0595 14       		.uleb128 0x14
 1329 0596 7B050000 		.4byte	0x57b
 1330 059a 01       		.byte	0x1
 1331 059b 00       		.byte	0
 1332 059c 13       		.uleb128 0x13
 1333 059d 77000000 		.4byte	0x77
 1334 05a1 AC050000 		.4byte	0x5ac
 1335 05a5 14       		.uleb128 0x14
 1336 05a6 7B050000 		.4byte	0x57b
 1337 05aa 00       		.byte	0
 1338 05ab 00       		.byte	0
 1339 05ac 11       		.uleb128 0x11
 1340 05ad 5E000000 		.4byte	0x5e
 1341 05b1 15       		.uleb128 0x15
 1342 05b2 6410     		.2byte	0x1064
 1343 05b4 0A       		.byte	0xa
 1344 05b5 70       		.byte	0x70
 1345 05b6 F0060000 		.4byte	0x6f0
 1346 05ba 06       		.uleb128 0x6
 1347 05bb FF060000 		.4byte	.LASF133
 1348 05bf 0A       		.byte	0xa
 1349 05c0 72       		.byte	0x72
 1350 05c1 82050000 		.4byte	0x582
 1351 05c5 00       		.byte	0
 1352 05c6 06       		.uleb128 0x6
 1353 05c7 340B0000 		.4byte	.LASF134
 1354 05cb 0A       		.byte	0xa
 1355 05cc 73       		.byte	0x73
 1356 05cd 82050000 		.4byte	0x582
 1357 05d1 04       		.byte	0x4
 1358 05d2 06       		.uleb128 0x6
 1359 05d3 0E030000 		.4byte	.LASF135
 1360 05d7 0A       		.byte	0xa
 1361 05d8 74       		.byte	0x74
 1362 05d9 F0060000 		.4byte	0x6f0
ARM GAS  /tmp/ccBURVhG.s 			page 25


 1363 05dd 08       		.byte	0x8
 1364 05de 16       		.uleb128 0x16
 1365 05df E7000000 		.4byte	.LASF136
 1366 05e3 0A       		.byte	0xa
 1367 05e4 75       		.byte	0x75
 1368 05e5 82050000 		.4byte	0x582
 1369 05e9 0410     		.2byte	0x1004
 1370 05eb 16       		.uleb128 0x16
 1371 05ec 18030000 		.4byte	.LASF137
 1372 05f0 0A       		.byte	0xa
 1373 05f1 76       		.byte	0x76
 1374 05f2 9C050000 		.4byte	0x59c
 1375 05f6 0810     		.2byte	0x1008
 1376 05f8 16       		.uleb128 0x16
 1377 05f9 11070000 		.4byte	.LASF138
 1378 05fd 0A       		.byte	0xa
 1379 05fe 77       		.byte	0x77
 1380 05ff 82050000 		.4byte	0x582
 1381 0603 0C10     		.2byte	0x100c
 1382 0605 16       		.uleb128 0x16
 1383 0606 17070000 		.4byte	.LASF139
 1384 060a 0A       		.byte	0xa
 1385 060b 78       		.byte	0x78
 1386 060c 82050000 		.4byte	0x582
 1387 0610 1010     		.2byte	0x1010
 1388 0612 16       		.uleb128 0x16
 1389 0613 A9030000 		.4byte	.LASF140
 1390 0617 0A       		.byte	0xa
 1391 0618 79       		.byte	0x79
 1392 0619 9C050000 		.4byte	0x59c
 1393 061d 1410     		.2byte	0x1014
 1394 061f 16       		.uleb128 0x16
 1395 0620 1D070000 		.4byte	.LASF141
 1396 0624 0A       		.byte	0xa
 1397 0625 7A       		.byte	0x7a
 1398 0626 82050000 		.4byte	0x582
 1399 062a 1810     		.2byte	0x1018
 1400 062c 16       		.uleb128 0x16
 1401 062d 30030000 		.4byte	.LASF142
 1402 0631 0A       		.byte	0xa
 1403 0632 7B       		.byte	0x7b
 1404 0633 8C050000 		.4byte	0x58c
 1405 0637 1C10     		.2byte	0x101c
 1406 0639 16       		.uleb128 0x16
 1407 063a 4A010000 		.4byte	.LASF143
 1408 063e 0A       		.byte	0xa
 1409 063f 7C       		.byte	0x7c
 1410 0640 87050000 		.4byte	0x587
 1411 0644 2410     		.2byte	0x1024
 1412 0646 16       		.uleb128 0x16
 1413 0647 3A030000 		.4byte	.LASF144
 1414 064b 0A       		.byte	0xa
 1415 064c 7D       		.byte	0x7d
 1416 064d 01070000 		.4byte	0x701
 1417 0651 2810     		.2byte	0x1028
 1418 0653 16       		.uleb128 0x16
 1419 0654 CF000000 		.4byte	.LASF145
ARM GAS  /tmp/ccBURVhG.s 			page 26


 1420 0658 0A       		.byte	0xa
 1421 0659 7E       		.byte	0x7e
 1422 065a 82050000 		.4byte	0x582
 1423 065e 3410     		.2byte	0x1034
 1424 0660 16       		.uleb128 0x16
 1425 0661 D5000000 		.4byte	.LASF146
 1426 0665 0A       		.byte	0xa
 1427 0666 7F       		.byte	0x7f
 1428 0667 82050000 		.4byte	0x582
 1429 066b 3810     		.2byte	0x1038
 1430 066d 16       		.uleb128 0x16
 1431 066e DB000000 		.4byte	.LASF147
 1432 0672 0A       		.byte	0xa
 1433 0673 80       		.byte	0x80
 1434 0674 82050000 		.4byte	0x582
 1435 0678 3C10     		.2byte	0x103c
 1436 067a 16       		.uleb128 0x16
 1437 067b E1000000 		.4byte	.LASF148
 1438 067f 0A       		.byte	0xa
 1439 0680 81       		.byte	0x81
 1440 0681 82050000 		.4byte	0x582
 1441 0685 4010     		.2byte	0x1040
 1442 0687 16       		.uleb128 0x16
 1443 0688 65030000 		.4byte	.LASF149
 1444 068c 0A       		.byte	0xa
 1445 068d 82       		.byte	0x82
 1446 068e 82050000 		.4byte	0x582
 1447 0692 4410     		.2byte	0x1044
 1448 0694 16       		.uleb128 0x16
 1449 0695 6D030000 		.4byte	.LASF150
 1450 0699 0A       		.byte	0xa
 1451 069a 83       		.byte	0x83
 1452 069b 82050000 		.4byte	0x582
 1453 069f 4810     		.2byte	0x1048
 1454 06a1 16       		.uleb128 0x16
 1455 06a2 2F000000 		.4byte	.LASF151
 1456 06a6 0A       		.byte	0xa
 1457 06a7 84       		.byte	0x84
 1458 06a8 87050000 		.4byte	0x587
 1459 06ac 4C10     		.2byte	0x104c
 1460 06ae 16       		.uleb128 0x16
 1461 06af 35000000 		.4byte	.LASF152
 1462 06b3 0A       		.byte	0xa
 1463 06b4 85       		.byte	0x85
 1464 06b5 87050000 		.4byte	0x587
 1465 06b9 5010     		.2byte	0x1050
 1466 06bb 16       		.uleb128 0x16
 1467 06bc 860C0000 		.4byte	.LASF153
 1468 06c0 0A       		.byte	0xa
 1469 06c1 86       		.byte	0x86
 1470 06c2 87050000 		.4byte	0x587
 1471 06c6 5410     		.2byte	0x1054
 1472 06c8 16       		.uleb128 0x16
 1473 06c9 5E070000 		.4byte	.LASF154
 1474 06cd 0A       		.byte	0xa
 1475 06ce 87       		.byte	0x87
 1476 06cf 87050000 		.4byte	0x587
ARM GAS  /tmp/ccBURVhG.s 			page 27


 1477 06d3 5810     		.2byte	0x1058
 1478 06d5 16       		.uleb128 0x16
 1479 06d6 64070000 		.4byte	.LASF155
 1480 06da 0A       		.byte	0xa
 1481 06db 88       		.byte	0x88
 1482 06dc 87050000 		.4byte	0x587
 1483 06e0 5C10     		.2byte	0x105c
 1484 06e2 16       		.uleb128 0x16
 1485 06e3 920C0000 		.4byte	.LASF156
 1486 06e7 0A       		.byte	0xa
 1487 06e8 89       		.byte	0x89
 1488 06e9 87050000 		.4byte	0x587
 1489 06ed 6010     		.2byte	0x1060
 1490 06ef 00       		.byte	0
 1491 06f0 13       		.uleb128 0x13
 1492 06f1 77000000 		.4byte	0x77
 1493 06f5 01070000 		.4byte	0x701
 1494 06f9 17       		.uleb128 0x17
 1495 06fa 7B050000 		.4byte	0x57b
 1496 06fe FE03     		.2byte	0x3fe
 1497 0700 00       		.byte	0
 1498 0701 13       		.uleb128 0x13
 1499 0702 77000000 		.4byte	0x77
 1500 0706 11070000 		.4byte	0x711
 1501 070a 14       		.uleb128 0x14
 1502 070b 7B050000 		.4byte	0x57b
 1503 070f 02       		.byte	0x2
 1504 0710 00       		.byte	0
 1505 0711 03       		.uleb128 0x3
 1506 0712 DB0B0000 		.4byte	.LASF157
 1507 0716 0A       		.byte	0xa
 1508 0717 8A       		.byte	0x8a
 1509 0718 B1050000 		.4byte	0x5b1
 1510 071c 12       		.uleb128 0x12
 1511 071d AC050000 		.4byte	0x5ac
 1512 0721 13       		.uleb128 0x13
 1513 0722 5E000000 		.4byte	0x5e
 1514 0726 31070000 		.4byte	0x731
 1515 072a 14       		.uleb128 0x14
 1516 072b 7B050000 		.4byte	0x57b
 1517 072f 00       		.byte	0
 1518 0730 00       		.byte	0
 1519 0731 18       		.uleb128 0x18
 1520 0732 01       		.byte	0x1
 1521 0733 0A       		.byte	0xa
 1522 0734 9D01     		.2byte	0x19d
 1523 0736 53070000 		.4byte	0x753
 1524 073a 19       		.uleb128 0x19
 1525 073b 5C0C0000 		.4byte	.LASF158
 1526 073f 0A       		.byte	0xa
 1527 0740 9E01     		.2byte	0x19e
 1528 0742 AC050000 		.4byte	0x5ac
 1529 0746 19       		.uleb128 0x19
 1530 0747 19020000 		.4byte	.LASF159
 1531 074b 0A       		.byte	0xa
 1532 074c 9F01     		.2byte	0x19f
 1533 074e AC050000 		.4byte	0x5ac
ARM GAS  /tmp/ccBURVhG.s 			page 28


 1534 0752 00       		.byte	0
 1535 0753 1A       		.uleb128 0x1a
 1536 0754 33       		.byte	0x33
 1537 0755 0A       		.byte	0xa
 1538 0756 8001     		.2byte	0x180
 1539 0758 D0090000 		.4byte	0x9d0
 1540 075c 07       		.uleb128 0x7
 1541 075d 42444800 		.ascii	"BDH\000"
 1542 0761 0A       		.byte	0xa
 1543 0762 8201     		.2byte	0x182
 1544 0764 AC050000 		.4byte	0x5ac
 1545 0768 00       		.byte	0
 1546 0769 07       		.uleb128 0x7
 1547 076a 42444C00 		.ascii	"BDL\000"
 1548 076e 0A       		.byte	0xa
 1549 076f 8301     		.2byte	0x183
 1550 0771 AC050000 		.4byte	0x5ac
 1551 0775 01       		.byte	0x1
 1552 0776 07       		.uleb128 0x7
 1553 0777 433100   		.ascii	"C1\000"
 1554 077a 0A       		.byte	0xa
 1555 077b 8401     		.2byte	0x184
 1556 077d AC050000 		.4byte	0x5ac
 1557 0781 02       		.byte	0x2
 1558 0782 07       		.uleb128 0x7
 1559 0783 433200   		.ascii	"C2\000"
 1560 0786 0A       		.byte	0xa
 1561 0787 8501     		.2byte	0x185
 1562 0789 AC050000 		.4byte	0x5ac
 1563 078d 03       		.byte	0x3
 1564 078e 07       		.uleb128 0x7
 1565 078f 533100   		.ascii	"S1\000"
 1566 0792 0A       		.byte	0xa
 1567 0793 8601     		.2byte	0x186
 1568 0795 1C070000 		.4byte	0x71c
 1569 0799 04       		.byte	0x4
 1570 079a 07       		.uleb128 0x7
 1571 079b 533200   		.ascii	"S2\000"
 1572 079e 0A       		.byte	0xa
 1573 079f 8701     		.2byte	0x187
 1574 07a1 AC050000 		.4byte	0x5ac
 1575 07a5 05       		.byte	0x5
 1576 07a6 07       		.uleb128 0x7
 1577 07a7 433300   		.ascii	"C3\000"
 1578 07aa 0A       		.byte	0xa
 1579 07ab 8801     		.2byte	0x188
 1580 07ad AC050000 		.4byte	0x5ac
 1581 07b1 06       		.byte	0x6
 1582 07b2 07       		.uleb128 0x7
 1583 07b3 4400     		.ascii	"D\000"
 1584 07b5 0A       		.byte	0xa
 1585 07b6 8901     		.2byte	0x189
 1586 07b8 AC050000 		.4byte	0x5ac
 1587 07bc 07       		.byte	0x7
 1588 07bd 07       		.uleb128 0x7
 1589 07be 4D413100 		.ascii	"MA1\000"
 1590 07c2 0A       		.byte	0xa
ARM GAS  /tmp/ccBURVhG.s 			page 29


 1591 07c3 8A01     		.2byte	0x18a
 1592 07c5 AC050000 		.4byte	0x5ac
 1593 07c9 08       		.byte	0x8
 1594 07ca 07       		.uleb128 0x7
 1595 07cb 4D413200 		.ascii	"MA2\000"
 1596 07cf 0A       		.byte	0xa
 1597 07d0 8B01     		.2byte	0x18b
 1598 07d2 AC050000 		.4byte	0x5ac
 1599 07d6 09       		.byte	0x9
 1600 07d7 07       		.uleb128 0x7
 1601 07d8 433400   		.ascii	"C4\000"
 1602 07db 0A       		.byte	0xa
 1603 07dc 8C01     		.2byte	0x18c
 1604 07de AC050000 		.4byte	0x5ac
 1605 07e2 0A       		.byte	0xa
 1606 07e3 07       		.uleb128 0x7
 1607 07e4 433500   		.ascii	"C5\000"
 1608 07e7 0A       		.byte	0xa
 1609 07e8 8D01     		.2byte	0x18d
 1610 07ea AC050000 		.4byte	0x5ac
 1611 07ee 0B       		.byte	0xb
 1612 07ef 07       		.uleb128 0x7
 1613 07f0 454400   		.ascii	"ED\000"
 1614 07f3 0A       		.byte	0xa
 1615 07f4 8E01     		.2byte	0x18e
 1616 07f6 1C070000 		.4byte	0x71c
 1617 07fa 0C       		.byte	0xc
 1618 07fb 08       		.uleb128 0x8
 1619 07fc 8E070000 		.4byte	.LASF160
 1620 0800 0A       		.byte	0xa
 1621 0801 8F01     		.2byte	0x18f
 1622 0803 AC050000 		.4byte	0x5ac
 1623 0807 0D       		.byte	0xd
 1624 0808 07       		.uleb128 0x7
 1625 0809 495200   		.ascii	"IR\000"
 1626 080c 0A       		.byte	0xa
 1627 080d 9001     		.2byte	0x190
 1628 080f AC050000 		.4byte	0x5ac
 1629 0813 0E       		.byte	0xe
 1630 0814 08       		.uleb128 0x8
 1631 0815 0E030000 		.4byte	.LASF135
 1632 0819 0A       		.byte	0xa
 1633 081a 9101     		.2byte	0x191
 1634 081c 21070000 		.4byte	0x721
 1635 0820 0F       		.byte	0xf
 1636 0821 08       		.uleb128 0x8
 1637 0822 E7070000 		.4byte	.LASF161
 1638 0826 0A       		.byte	0xa
 1639 0827 9201     		.2byte	0x192
 1640 0829 AC050000 		.4byte	0x5ac
 1641 082d 10       		.byte	0x10
 1642 082e 08       		.uleb128 0x8
 1643 082f 38080000 		.4byte	.LASF162
 1644 0833 0A       		.byte	0xa
 1645 0834 9301     		.2byte	0x193
 1646 0836 AC050000 		.4byte	0x5ac
 1647 083a 11       		.byte	0x11
ARM GAS  /tmp/ccBURVhG.s 			page 30


 1648 083b 08       		.uleb128 0x8
 1649 083c 3A010000 		.4byte	.LASF163
 1650 0840 0A       		.byte	0xa
 1651 0841 9401     		.2byte	0x194
 1652 0843 AC050000 		.4byte	0x5ac
 1653 0847 12       		.byte	0x12
 1654 0848 08       		.uleb128 0x8
 1655 0849 61090000 		.4byte	.LASF164
 1656 084d 0A       		.byte	0xa
 1657 084e 9501     		.2byte	0x195
 1658 0850 AC050000 		.4byte	0x5ac
 1659 0854 13       		.byte	0x13
 1660 0855 08       		.uleb128 0x8
 1661 0856 ED0A0000 		.4byte	.LASF165
 1662 085a 0A       		.byte	0xa
 1663 085b 9601     		.2byte	0x196
 1664 085d 1C070000 		.4byte	0x71c
 1665 0861 14       		.byte	0x14
 1666 0862 08       		.uleb128 0x8
 1667 0863 B6060000 		.4byte	.LASF166
 1668 0867 0A       		.byte	0xa
 1669 0868 9701     		.2byte	0x197
 1670 086a AC050000 		.4byte	0x5ac
 1671 086e 15       		.byte	0x15
 1672 086f 08       		.uleb128 0x8
 1673 0870 28080000 		.4byte	.LASF167
 1674 0874 0A       		.byte	0xa
 1675 0875 9801     		.2byte	0x198
 1676 0877 1C070000 		.4byte	0x71c
 1677 087b 16       		.byte	0x16
 1678 087c 08       		.uleb128 0x8
 1679 087d 18030000 		.4byte	.LASF137
 1680 0881 0A       		.byte	0xa
 1681 0882 9901     		.2byte	0x199
 1682 0884 21070000 		.4byte	0x721
 1683 0888 17       		.byte	0x17
 1684 0889 08       		.uleb128 0x8
 1685 088a BD020000 		.4byte	.LASF168
 1686 088e 0A       		.byte	0xa
 1687 088f 9A01     		.2byte	0x19a
 1688 0891 AC050000 		.4byte	0x5ac
 1689 0895 18       		.byte	0x18
 1690 0896 08       		.uleb128 0x8
 1691 0897 AD000000 		.4byte	.LASF169
 1692 089b 0A       		.byte	0xa
 1693 089c 9B01     		.2byte	0x19b
 1694 089e AC050000 		.4byte	0x5ac
 1695 08a2 19       		.byte	0x19
 1696 08a3 08       		.uleb128 0x8
 1697 08a4 7F0B0000 		.4byte	.LASF170
 1698 08a8 0A       		.byte	0xa
 1699 08a9 9C01     		.2byte	0x19c
 1700 08ab AC050000 		.4byte	0x5ac
 1701 08af 1A       		.byte	0x1a
 1702 08b0 1B       		.uleb128 0x1b
 1703 08b1 31070000 		.4byte	0x731
 1704 08b5 1B       		.byte	0x1b
ARM GAS  /tmp/ccBURVhG.s 			page 31


 1705 08b6 08       		.uleb128 0x8
 1706 08b7 07080000 		.4byte	.LASF171
 1707 08bb 0A       		.byte	0xa
 1708 08bc A101     		.2byte	0x1a1
 1709 08be AC050000 		.4byte	0x5ac
 1710 08c2 1C       		.byte	0x1c
 1711 08c3 08       		.uleb128 0x8
 1712 08c4 E60A0000 		.4byte	.LASF172
 1713 08c8 0A       		.byte	0xa
 1714 08c9 A201     		.2byte	0x1a2
 1715 08cb AC050000 		.4byte	0x5ac
 1716 08cf 1D       		.byte	0x1d
 1717 08d0 08       		.uleb128 0x8
 1718 08d1 4D0C0000 		.4byte	.LASF173
 1719 08d5 0A       		.byte	0xa
 1720 08d6 A301     		.2byte	0x1a3
 1721 08d8 AC050000 		.4byte	0x5ac
 1722 08dc 1E       		.byte	0x1e
 1723 08dd 08       		.uleb128 0x8
 1724 08de 5A090000 		.4byte	.LASF174
 1725 08e2 0A       		.byte	0xa
 1726 08e3 A401     		.2byte	0x1a4
 1727 08e5 AC050000 		.4byte	0x5ac
 1728 08e9 1F       		.byte	0x1f
 1729 08ea 08       		.uleb128 0x8
 1730 08eb A9030000 		.4byte	.LASF140
 1731 08ef 0A       		.byte	0xa
 1732 08f0 A501     		.2byte	0x1a5
 1733 08f2 D0090000 		.4byte	0x9d0
 1734 08f6 20       		.byte	0x20
 1735 08f7 07       		.uleb128 0x7
 1736 08f8 433600   		.ascii	"C6\000"
 1737 08fb 0A       		.byte	0xa
 1738 08fc A601     		.2byte	0x1a6
 1739 08fe AC050000 		.4byte	0x5ac
 1740 0902 22       		.byte	0x22
 1741 0903 08       		.uleb128 0x8
 1742 0904 FA090000 		.4byte	.LASF175
 1743 0908 0A       		.byte	0xa
 1744 0909 A701     		.2byte	0x1a7
 1745 090b AC050000 		.4byte	0x5ac
 1746 090f 23       		.byte	0x23
 1747 0910 08       		.uleb128 0x8
 1748 0911 090A0000 		.4byte	.LASF176
 1749 0915 0A       		.byte	0xa
 1750 0916 A801     		.2byte	0x1a8
 1751 0918 AC050000 		.4byte	0x5ac
 1752 091c 24       		.byte	0x24
 1753 091d 07       		.uleb128 0x7
 1754 091e 42315400 		.ascii	"B1T\000"
 1755 0922 0A       		.byte	0xa
 1756 0923 A901     		.2byte	0x1a9
 1757 0925 AC050000 		.4byte	0x5ac
 1758 0929 25       		.byte	0x25
 1759 092a 08       		.uleb128 0x8
 1760 092b AC060000 		.4byte	.LASF177
 1761 092f 0A       		.byte	0xa
ARM GAS  /tmp/ccBURVhG.s 			page 32


 1762 0930 AA01     		.2byte	0x1aa
 1763 0932 AC050000 		.4byte	0x5ac
 1764 0936 26       		.byte	0x26
 1765 0937 08       		.uleb128 0x8
 1766 0938 B1060000 		.4byte	.LASF178
 1767 093c 0A       		.byte	0xa
 1768 093d AB01     		.2byte	0x1ab
 1769 093f AC050000 		.4byte	0x5ac
 1770 0943 27       		.byte	0x27
 1771 0944 07       		.uleb128 0x7
 1772 0945 50524500 		.ascii	"PRE\000"
 1773 0949 0A       		.byte	0xa
 1774 094a AC01     		.2byte	0x1ac
 1775 094c AC050000 		.4byte	0x5ac
 1776 0950 28       		.byte	0x28
 1777 0951 07       		.uleb128 0x7
 1778 0952 54504C00 		.ascii	"TPL\000"
 1779 0956 0A       		.byte	0xa
 1780 0957 AD01     		.2byte	0x1ad
 1781 0959 AC050000 		.4byte	0x5ac
 1782 095d 29       		.byte	0x29
 1783 095e 07       		.uleb128 0x7
 1784 095f 494500   		.ascii	"IE\000"
 1785 0962 0A       		.byte	0xa
 1786 0963 AE01     		.2byte	0x1ae
 1787 0965 AC050000 		.4byte	0x5ac
 1788 0969 2A       		.byte	0x2a
 1789 096a 07       		.uleb128 0x7
 1790 096b 574200   		.ascii	"WB\000"
 1791 096e 0A       		.byte	0xa
 1792 096f AF01     		.2byte	0x1af
 1793 0971 AC050000 		.4byte	0x5ac
 1794 0975 2B       		.byte	0x2b
 1795 0976 07       		.uleb128 0x7
 1796 0977 533300   		.ascii	"S3\000"
 1797 097a 0A       		.byte	0xa
 1798 097b B001     		.2byte	0x1b0
 1799 097d AC050000 		.4byte	0x5ac
 1800 0981 2C       		.byte	0x2c
 1801 0982 07       		.uleb128 0x7
 1802 0983 533400   		.ascii	"S4\000"
 1803 0986 0A       		.byte	0xa
 1804 0987 B101     		.2byte	0x1b1
 1805 0989 AC050000 		.4byte	0x5ac
 1806 098d 2D       		.byte	0x2d
 1807 098e 07       		.uleb128 0x7
 1808 098f 52504C00 		.ascii	"RPL\000"
 1809 0993 0A       		.byte	0xa
 1810 0994 B201     		.2byte	0x1b2
 1811 0996 1C070000 		.4byte	0x71c
 1812 099a 2E       		.byte	0x2e
 1813 099b 08       		.uleb128 0x8
 1814 099c 14010000 		.4byte	.LASF179
 1815 09a0 0A       		.byte	0xa
 1816 09a1 B301     		.2byte	0x1b3
 1817 09a3 1C070000 		.4byte	0x71c
 1818 09a7 2F       		.byte	0x2f
ARM GAS  /tmp/ccBURVhG.s 			page 33


 1819 09a8 07       		.uleb128 0x7
 1820 09a9 43505700 		.ascii	"CPW\000"
 1821 09ad 0A       		.byte	0xa
 1822 09ae B401     		.2byte	0x1b4
 1823 09b0 AC050000 		.4byte	0x5ac
 1824 09b4 30       		.byte	0x30
 1825 09b5 08       		.uleb128 0x8
 1826 09b6 78060000 		.4byte	.LASF180
 1827 09ba 0A       		.byte	0xa
 1828 09bb B501     		.2byte	0x1b5
 1829 09bd AC050000 		.4byte	0x5ac
 1830 09c1 31       		.byte	0x31
 1831 09c2 08       		.uleb128 0x8
 1832 09c3 8D060000 		.4byte	.LASF181
 1833 09c7 0A       		.byte	0xa
 1834 09c8 B601     		.2byte	0x1b6
 1835 09ca AC050000 		.4byte	0x5ac
 1836 09ce 32       		.byte	0x32
 1837 09cf 00       		.byte	0
 1838 09d0 13       		.uleb128 0x13
 1839 09d1 5E000000 		.4byte	0x5e
 1840 09d5 E0090000 		.4byte	0x9e0
 1841 09d9 14       		.uleb128 0x14
 1842 09da 7B050000 		.4byte	0x57b
 1843 09de 01       		.byte	0x1
 1844 09df 00       		.byte	0
 1845 09e0 1C       		.uleb128 0x1c
 1846 09e1 2D010000 		.4byte	.LASF182
 1847 09e5 0A       		.byte	0xa
 1848 09e6 B701     		.2byte	0x1b7
 1849 09e8 53070000 		.4byte	0x753
 1850 09ec 03       		.uleb128 0x3
 1851 09ed 76020000 		.4byte	.LASF183
 1852 09f1 0B       		.byte	0xb
 1853 09f2 65       		.byte	0x65
 1854 09f3 EE020000 		.4byte	0x2ee
 1855 09f7 03       		.uleb128 0x3
 1856 09f8 D4040000 		.4byte	.LASF184
 1857 09fc 0B       		.byte	0xb
 1858 09fd 6D       		.byte	0x6d
 1859 09fe 82000000 		.4byte	0x82
 1860 0a02 05       		.uleb128 0x5
 1861 0a03 ED020000 		.4byte	.LASF185
 1862 0a07 04       		.byte	0x4
 1863 0a08 0B       		.byte	0xb
 1864 0a09 89       		.byte	0x89
 1865 0a0a 1B0A0000 		.4byte	0xa1b
 1866 0a0e 1D       		.uleb128 0x1d
 1867 0a0f 72313300 		.ascii	"r13\000"
 1868 0a13 0B       		.byte	0xb
 1869 0a14 8A       		.byte	0x8a
 1870 0a15 960A0000 		.4byte	0xa96
 1871 0a19 00       		.byte	0
 1872 0a1a 00       		.byte	0
 1873 0a1b 05       		.uleb128 0x5
 1874 0a1c BE080000 		.4byte	.LASF186
 1875 0a20 24       		.byte	0x24
ARM GAS  /tmp/ccBURVhG.s 			page 34


 1876 0a21 0C       		.byte	0xc
 1877 0a22 FD       		.byte	0xfd
 1878 0a23 960A0000 		.4byte	0xa96
 1879 0a27 07       		.uleb128 0x7
 1880 0a28 723400   		.ascii	"r4\000"
 1881 0a2b 0C       		.byte	0xc
 1882 0a2c 1001     		.2byte	0x110
 1883 0a2e EC090000 		.4byte	0x9ec
 1884 0a32 00       		.byte	0
 1885 0a33 07       		.uleb128 0x7
 1886 0a34 723500   		.ascii	"r5\000"
 1887 0a37 0C       		.byte	0xc
 1888 0a38 1101     		.2byte	0x111
 1889 0a3a EC090000 		.4byte	0x9ec
 1890 0a3e 04       		.byte	0x4
 1891 0a3f 07       		.uleb128 0x7
 1892 0a40 723600   		.ascii	"r6\000"
 1893 0a43 0C       		.byte	0xc
 1894 0a44 1201     		.2byte	0x112
 1895 0a46 EC090000 		.4byte	0x9ec
 1896 0a4a 08       		.byte	0x8
 1897 0a4b 07       		.uleb128 0x7
 1898 0a4c 723700   		.ascii	"r7\000"
 1899 0a4f 0C       		.byte	0xc
 1900 0a50 1301     		.2byte	0x113
 1901 0a52 EC090000 		.4byte	0x9ec
 1902 0a56 0C       		.byte	0xc
 1903 0a57 07       		.uleb128 0x7
 1904 0a58 723800   		.ascii	"r8\000"
 1905 0a5b 0C       		.byte	0xc
 1906 0a5c 1401     		.2byte	0x114
 1907 0a5e EC090000 		.4byte	0x9ec
 1908 0a62 10       		.byte	0x10
 1909 0a63 07       		.uleb128 0x7
 1910 0a64 723900   		.ascii	"r9\000"
 1911 0a67 0C       		.byte	0xc
 1912 0a68 1501     		.2byte	0x115
 1913 0a6a EC090000 		.4byte	0x9ec
 1914 0a6e 14       		.byte	0x14
 1915 0a6f 07       		.uleb128 0x7
 1916 0a70 72313000 		.ascii	"r10\000"
 1917 0a74 0C       		.byte	0xc
 1918 0a75 1601     		.2byte	0x116
 1919 0a77 EC090000 		.4byte	0x9ec
 1920 0a7b 18       		.byte	0x18
 1921 0a7c 07       		.uleb128 0x7
 1922 0a7d 72313100 		.ascii	"r11\000"
 1923 0a81 0C       		.byte	0xc
 1924 0a82 1701     		.2byte	0x117
 1925 0a84 EC090000 		.4byte	0x9ec
 1926 0a88 1C       		.byte	0x1c
 1927 0a89 07       		.uleb128 0x7
 1928 0a8a 6C7200   		.ascii	"lr\000"
 1929 0a8d 0C       		.byte	0xc
 1930 0a8e 1801     		.2byte	0x118
 1931 0a90 EC090000 		.4byte	0x9ec
 1932 0a94 20       		.byte	0x20
ARM GAS  /tmp/ccBURVhG.s 			page 35


 1933 0a95 00       		.byte	0
 1934 0a96 09       		.uleb128 0x9
 1935 0a97 04       		.byte	0x4
 1936 0a98 1B0A0000 		.4byte	0xa1b
 1937 0a9c 1E       		.uleb128 0x1e
 1938 0a9d 04       		.byte	0x4
 1939 0a9e 09       		.byte	0x9
 1940 0a9f FA       		.byte	0xfa
 1941 0aa0 F90A0000 		.4byte	0xaf9
 1942 0aa4 19       		.uleb128 0x19
 1943 0aa5 F60B0000 		.4byte	.LASF187
 1944 0aa9 09       		.byte	0x9
 1945 0aaa 0101     		.2byte	0x101
 1946 0aac CB000000 		.4byte	0xcb
 1947 0ab0 19       		.uleb128 0x19
 1948 0ab1 77010000 		.4byte	.LASF188
 1949 0ab5 09       		.byte	0x9
 1950 0ab6 0801     		.2byte	0x108
 1951 0ab8 CB000000 		.4byte	0xcb
 1952 0abc 19       		.uleb128 0x19
 1953 0abd B8040000 		.4byte	.LASF189
 1954 0ac1 09       		.byte	0x9
 1955 0ac2 0F01     		.2byte	0x10f
 1956 0ac4 EE020000 		.4byte	0x2ee
 1957 0ac8 19       		.uleb128 0x19
 1958 0ac9 F5020000 		.4byte	.LASF190
 1959 0acd 09       		.byte	0x9
 1960 0ace 1601     		.2byte	0x116
 1961 0ad0 F90A0000 		.4byte	0xaf9
 1962 0ad4 19       		.uleb128 0x19
 1963 0ad5 10000000 		.4byte	.LASF191
 1964 0ad9 09       		.byte	0x9
 1965 0ada 1E01     		.2byte	0x11e
 1966 0adc 240B0000 		.4byte	0xb24
 1967 0ae0 19       		.uleb128 0x19
 1968 0ae1 5F050000 		.4byte	.LASF192
 1969 0ae5 09       		.byte	0x9
 1970 0ae6 2701     		.2byte	0x127
 1971 0ae8 5B0B0000 		.4byte	0xb5b
 1972 0aec 19       		.uleb128 0x19
 1973 0aed AE010000 		.4byte	.LASF193
 1974 0af1 09       		.byte	0x9
 1975 0af2 2F01     		.2byte	0x12f
 1976 0af4 D6000000 		.4byte	0xd6
 1977 0af8 00       		.byte	0
 1978 0af9 09       		.uleb128 0x9
 1979 0afa 04       		.byte	0x4
 1980 0afb 06020000 		.4byte	0x206
 1981 0aff 05       		.uleb128 0x5
 1982 0b00 D8050000 		.4byte	.LASF194
 1983 0b04 0C       		.byte	0xc
 1984 0b05 0D       		.byte	0xd
 1985 0b06 34       		.byte	0x34
 1986 0b07 240B0000 		.4byte	0xb24
 1987 0b0b 06       		.uleb128 0x6
 1988 0b0c A30A0000 		.4byte	.LASF195
 1989 0b10 0D       		.byte	0xd
ARM GAS  /tmp/ccBURVhG.s 			page 36


 1990 0b11 35       		.byte	0x35
 1991 0b12 3B020000 		.4byte	0x23b
 1992 0b16 00       		.byte	0
 1993 0b17 06       		.uleb128 0x6
 1994 0b18 E4080000 		.4byte	.LASF196
 1995 0b1c 0D       		.byte	0xd
 1996 0b1d 37       		.byte	0x37
 1997 0b1e EC000000 		.4byte	0xec
 1998 0b22 08       		.byte	0x8
 1999 0b23 00       		.byte	0
 2000 0b24 09       		.uleb128 0x9
 2001 0b25 04       		.byte	0x4
 2002 0b26 FF0A0000 		.4byte	0xaff
 2003 0b2a 05       		.uleb128 0x5
 2004 0b2b F40A0000 		.4byte	.LASF197
 2005 0b2f 10       		.byte	0x10
 2006 0b30 0E       		.byte	0xe
 2007 0b31 39       		.byte	0x39
 2008 0b32 5B0B0000 		.4byte	0xb5b
 2009 0b36 06       		.uleb128 0x6
 2010 0b37 CB060000 		.4byte	.LASF198
 2011 0b3b 0E       		.byte	0xe
 2012 0b3c 3A       		.byte	0x3a
 2013 0b3d 3B020000 		.4byte	0x23b
 2014 0b41 00       		.byte	0
 2015 0b42 06       		.uleb128 0x6
 2016 0b43 4F010000 		.4byte	.LASF199
 2017 0b47 0E       		.byte	0xe
 2018 0b48 3C       		.byte	0x3c
 2019 0b49 11020000 		.4byte	0x211
 2020 0b4d 08       		.byte	0x8
 2021 0b4e 06       		.uleb128 0x6
 2022 0b4f 970C0000 		.4byte	.LASF200
 2023 0b53 0E       		.byte	0xe
 2024 0b54 3E       		.byte	0x3e
 2025 0b55 9E0B0000 		.4byte	0xb9e
 2026 0b59 0C       		.byte	0xc
 2027 0b5a 00       		.byte	0
 2028 0b5b 09       		.uleb128 0x9
 2029 0b5c 04       		.byte	0x4
 2030 0b5d 2A0B0000 		.4byte	0xb2a
 2031 0b61 09       		.uleb128 0x9
 2032 0b62 04       		.byte	0x4
 2033 0b63 670B0000 		.4byte	0xb67
 2034 0b67 12       		.uleb128 0x12
 2035 0b68 6C0B0000 		.4byte	0xb6c
 2036 0b6c 04       		.uleb128 0x4
 2037 0b6d 01       		.byte	0x1
 2038 0b6e 08       		.byte	0x8
 2039 0b6f C9030000 		.4byte	.LASF201
 2040 0b73 09       		.uleb128 0x9
 2041 0b74 04       		.byte	0x4
 2042 0b75 F0020000 		.4byte	0x2f0
 2043 0b79 11       		.uleb128 0x11
 2044 0b7a F7000000 		.4byte	0xf7
 2045 0b7e 11       		.uleb128 0x11
 2046 0b7f 610B0000 		.4byte	0xb61
ARM GAS  /tmp/ccBURVhG.s 			page 37


 2047 0b83 13       		.uleb128 0x13
 2048 0b84 F7090000 		.4byte	0x9f7
 2049 0b88 930B0000 		.4byte	0xb93
 2050 0b8c 14       		.uleb128 0x14
 2051 0b8d 7B050000 		.4byte	0x57b
 2052 0b91 1A       		.byte	0x1a
 2053 0b92 00       		.byte	0
 2054 0b93 03       		.uleb128 0x3
 2055 0b94 560B0000 		.4byte	.LASF202
 2056 0b98 0E       		.byte	0xe
 2057 0b99 34       		.byte	0x34
 2058 0b9a 2A0B0000 		.4byte	0xb2a
 2059 0b9e 09       		.uleb128 0x9
 2060 0b9f 04       		.byte	0x4
 2061 0ba0 930B0000 		.4byte	0xb93
 2062 0ba4 03       		.uleb128 0x3
 2063 0ba5 AB090000 		.4byte	.LASF203
 2064 0ba9 0F       		.byte	0xf
 2065 0baa 34       		.byte	0x34
 2066 0bab AF0B0000 		.4byte	0xbaf
 2067 0baf 05       		.uleb128 0x5
 2068 0bb0 E70B0000 		.4byte	.LASF204
 2069 0bb4 14       		.byte	0x14
 2070 0bb5 0F       		.byte	0xf
 2071 0bb6 39       		.byte	0x39
 2072 0bb7 F80B0000 		.4byte	0xbf8
 2073 0bbb 06       		.uleb128 0x6
 2074 0bbc 05060000 		.4byte	.LASF205
 2075 0bc0 0F       		.byte	0xf
 2076 0bc1 3A       		.byte	0x3a
 2077 0bc2 F80B0000 		.4byte	0xbf8
 2078 0bc6 00       		.byte	0
 2079 0bc7 06       		.uleb128 0x6
 2080 0bc8 AD0C0000 		.4byte	.LASF206
 2081 0bcc 0F       		.byte	0xf
 2082 0bcd 3D       		.byte	0x3d
 2083 0bce 11020000 		.4byte	0x211
 2084 0bd2 04       		.byte	0x4
 2085 0bd3 06       		.uleb128 0x6
 2086 0bd4 3E080000 		.4byte	.LASF207
 2087 0bd8 0F       		.byte	0xf
 2088 0bd9 3F       		.byte	0x3f
 2089 0bda D6000000 		.4byte	0xd6
 2090 0bde 08       		.byte	0x8
 2091 0bdf 06       		.uleb128 0x6
 2092 0be0 B4000000 		.4byte	.LASF208
 2093 0be4 0F       		.byte	0xf
 2094 0be5 41       		.byte	0x41
 2095 0be6 E1000000 		.4byte	0xe1
 2096 0bea 0C       		.byte	0xc
 2097 0beb 06       		.uleb128 0x6
 2098 0bec 1E080000 		.4byte	.LASF209
 2099 0bf0 0F       		.byte	0xf
 2100 0bf1 43       		.byte	0x43
 2101 0bf2 E1000000 		.4byte	0xe1
 2102 0bf6 10       		.byte	0x10
 2103 0bf7 00       		.byte	0
ARM GAS  /tmp/ccBURVhG.s 			page 38


 2104 0bf8 09       		.uleb128 0x9
 2105 0bf9 04       		.byte	0x4
 2106 0bfa A40B0000 		.4byte	0xba4
 2107 0bfe 05       		.uleb128 0x5
 2108 0bff D00A0000 		.4byte	.LASF210
 2109 0c03 04       		.byte	0x4
 2110 0c04 0F       		.byte	0xf
 2111 0c05 4A       		.byte	0x4a
 2112 0c06 170C0000 		.4byte	0xc17
 2113 0c0a 06       		.uleb128 0x6
 2114 0c0b 89050000 		.4byte	.LASF211
 2115 0c0f 0F       		.byte	0xf
 2116 0c10 4B       		.byte	0x4b
 2117 0c11 F80B0000 		.4byte	0xbf8
 2118 0c15 00       		.byte	0
 2119 0c16 00       		.byte	0
 2120 0c17 03       		.uleb128 0x3
 2121 0c18 34070000 		.4byte	.LASF212
 2122 0c1c 0F       		.byte	0xf
 2123 0c1d 4E       		.byte	0x4e
 2124 0c1e FE0B0000 		.4byte	0xbfe
 2125 0c22 03       		.uleb128 0x3
 2126 0c23 200B0000 		.4byte	.LASF213
 2127 0c27 04       		.byte	0x4
 2128 0c28 3F       		.byte	0x3f
 2129 0c29 2D0C0000 		.4byte	0xc2d
 2130 0c2d 05       		.uleb128 0x5
 2131 0c2e 89020000 		.4byte	.LASF214
 2132 0c32 24       		.byte	0x24
 2133 0c33 04       		.byte	0x4
 2134 0c34 4D       		.byte	0x4d
 2135 0c35 9A0C0000 		.4byte	0xc9a
 2136 0c39 06       		.uleb128 0x6
 2137 0c3a 1F0A0000 		.4byte	.LASF215
 2138 0c3e 04       		.byte	0x4
 2139 0c3f 4E       		.byte	0x4e
 2140 0c40 3B020000 		.4byte	0x23b
 2141 0c44 00       		.byte	0
 2142 0c45 06       		.uleb128 0x6
 2143 0c46 91050000 		.4byte	.LASF216
 2144 0c4a 04       		.byte	0x4
 2145 0c4b 4F       		.byte	0x4f
 2146 0c4c BC0C0000 		.4byte	0xcbc
 2147 0c50 08       		.byte	0x8
 2148 0c51 06       		.uleb128 0x6
 2149 0c52 EA080000 		.4byte	.LASF217
 2150 0c56 04       		.byte	0x4
 2151 0c57 50       		.byte	0x50
 2152 0c58 C10C0000 		.4byte	0xcc1
 2153 0c5c 0C       		.byte	0xc
 2154 0c5d 06       		.uleb128 0x6
 2155 0c5e 80010000 		.4byte	.LASF218
 2156 0c62 04       		.byte	0x4
 2157 0c63 51       		.byte	0x51
 2158 0c64 C10C0000 		.4byte	0xcc1
 2159 0c68 10       		.byte	0x10
 2160 0c69 06       		.uleb128 0x6
ARM GAS  /tmp/ccBURVhG.s 			page 39


 2161 0c6a 53060000 		.4byte	.LASF219
 2162 0c6e 04       		.byte	0x4
 2163 0c6f 53       		.byte	0x53
 2164 0c70 C10C0000 		.4byte	0xcc1
 2165 0c74 14       		.byte	0x14
 2166 0c75 06       		.uleb128 0x6
 2167 0c76 0A020000 		.4byte	.LASF220
 2168 0c7a 04       		.byte	0x4
 2169 0c7b 54       		.byte	0x54
 2170 0c7c C10C0000 		.4byte	0xcc1
 2171 0c80 18       		.byte	0x18
 2172 0c81 06       		.uleb128 0x6
 2173 0c82 D9010000 		.4byte	.LASF221
 2174 0c86 04       		.byte	0x4
 2175 0c87 55       		.byte	0x55
 2176 0c88 9A0C0000 		.4byte	0xc9a
 2177 0c8c 1C       		.byte	0x1c
 2178 0c8d 06       		.uleb128 0x6
 2179 0c8e 44030000 		.4byte	.LASF222
 2180 0c92 04       		.byte	0x4
 2181 0c93 56       		.byte	0x56
 2182 0c94 EE020000 		.4byte	0x2ee
 2183 0c98 20       		.byte	0x20
 2184 0c99 00       		.byte	0
 2185 0c9a 03       		.uleb128 0x3
 2186 0c9b 6A070000 		.4byte	.LASF223
 2187 0c9f 04       		.byte	0x4
 2188 0ca0 42       		.byte	0x42
 2189 0ca1 A50C0000 		.4byte	0xca5
 2190 0ca5 09       		.uleb128 0x9
 2191 0ca6 04       		.byte	0x4
 2192 0ca7 AB0C0000 		.4byte	0xcab
 2193 0cab 0B       		.uleb128 0xb
 2194 0cac B60C0000 		.4byte	0xcb6
 2195 0cb0 0C       		.uleb128 0xc
 2196 0cb1 B60C0000 		.4byte	0xcb6
 2197 0cb5 00       		.byte	0
 2198 0cb6 09       		.uleb128 0x9
 2199 0cb7 04       		.byte	0x4
 2200 0cb8 220C0000 		.4byte	0xc22
 2201 0cbc 11       		.uleb128 0x11
 2202 0cbd 2C000000 		.4byte	0x2c
 2203 0cc1 09       		.uleb128 0x9
 2204 0cc2 04       		.byte	0x4
 2205 0cc3 5E000000 		.4byte	0x5e
 2206 0cc7 03       		.uleb128 0x3
 2207 0cc8 B40B0000 		.4byte	.LASF224
 2208 0ccc 04       		.byte	0x4
 2209 0ccd 64       		.byte	0x64
 2210 0cce 220C0000 		.4byte	0xc22
 2211 0cd2 03       		.uleb128 0x3
 2212 0cd3 3E0C0000 		.4byte	.LASF225
 2213 0cd7 04       		.byte	0x4
 2214 0cd8 71       		.byte	0x71
 2215 0cd9 220C0000 		.4byte	0xc22
 2216 0cdd 1F       		.uleb128 0x1f
 2217 0cde 2C000000 		.4byte	0x2c
ARM GAS  /tmp/ccBURVhG.s 			page 40


 2218 0ce2 F60C0000 		.4byte	0xcf6
 2219 0ce6 0C       		.uleb128 0xc
 2220 0ce7 EE020000 		.4byte	0x2ee
 2221 0ceb 0C       		.uleb128 0xc
 2222 0cec F60C0000 		.4byte	0xcf6
 2223 0cf0 0C       		.uleb128 0xc
 2224 0cf1 2C000000 		.4byte	0x2c
 2225 0cf5 00       		.byte	0
 2226 0cf6 09       		.uleb128 0x9
 2227 0cf7 04       		.byte	0x4
 2228 0cf8 FC0C0000 		.4byte	0xcfc
 2229 0cfc 12       		.uleb128 0x12
 2230 0cfd 5E000000 		.4byte	0x5e
 2231 0d01 09       		.uleb128 0x9
 2232 0d02 04       		.byte	0x4
 2233 0d03 DD0C0000 		.4byte	0xcdd
 2234 0d07 1F       		.uleb128 0x1f
 2235 0d08 2C000000 		.4byte	0x2c
 2236 0d0c 200D0000 		.4byte	0xd20
 2237 0d10 0C       		.uleb128 0xc
 2238 0d11 EE020000 		.4byte	0x2ee
 2239 0d15 0C       		.uleb128 0xc
 2240 0d16 C10C0000 		.4byte	0xcc1
 2241 0d1a 0C       		.uleb128 0xc
 2242 0d1b 2C000000 		.4byte	0x2c
 2243 0d1f 00       		.byte	0
 2244 0d20 09       		.uleb128 0x9
 2245 0d21 04       		.byte	0x4
 2246 0d22 070D0000 		.4byte	0xd07
 2247 0d26 1F       		.uleb128 0x1f
 2248 0d27 CB000000 		.4byte	0xcb
 2249 0d2b 3A0D0000 		.4byte	0xd3a
 2250 0d2f 0C       		.uleb128 0xc
 2251 0d30 EE020000 		.4byte	0x2ee
 2252 0d34 0C       		.uleb128 0xc
 2253 0d35 5E000000 		.4byte	0x5e
 2254 0d39 00       		.byte	0
 2255 0d3a 09       		.uleb128 0x9
 2256 0d3b 04       		.byte	0x4
 2257 0d3c 260D0000 		.4byte	0xd26
 2258 0d40 1F       		.uleb128 0x1f
 2259 0d41 CB000000 		.4byte	0xcb
 2260 0d45 4F0D0000 		.4byte	0xd4f
 2261 0d49 0C       		.uleb128 0xc
 2262 0d4a EE020000 		.4byte	0x2ee
 2263 0d4e 00       		.byte	0
 2264 0d4f 09       		.uleb128 0x9
 2265 0d50 04       		.byte	0x4
 2266 0d51 400D0000 		.4byte	0xd40
 2267 0d55 1F       		.uleb128 0x1f
 2268 0d56 CB000000 		.4byte	0xcb
 2269 0d5a 6E0D0000 		.4byte	0xd6e
 2270 0d5e 0C       		.uleb128 0xc
 2271 0d5f EE020000 		.4byte	0x2ee
 2272 0d63 0C       		.uleb128 0xc
 2273 0d64 5E000000 		.4byte	0x5e
 2274 0d68 0C       		.uleb128 0xc
ARM GAS  /tmp/ccBURVhG.s 			page 41


 2275 0d69 F7000000 		.4byte	0xf7
 2276 0d6d 00       		.byte	0
 2277 0d6e 09       		.uleb128 0x9
 2278 0d6f 04       		.byte	0x4
 2279 0d70 550D0000 		.4byte	0xd55
 2280 0d74 1F       		.uleb128 0x1f
 2281 0d75 CB000000 		.4byte	0xcb
 2282 0d79 880D0000 		.4byte	0xd88
 2283 0d7d 0C       		.uleb128 0xc
 2284 0d7e EE020000 		.4byte	0x2ee
 2285 0d82 0C       		.uleb128 0xc
 2286 0d83 F7000000 		.4byte	0xf7
 2287 0d87 00       		.byte	0
 2288 0d88 09       		.uleb128 0x9
 2289 0d89 04       		.byte	0x4
 2290 0d8a 740D0000 		.4byte	0xd74
 2291 0d8e 1F       		.uleb128 0x1f
 2292 0d8f 2C000000 		.4byte	0x2c
 2293 0d93 AC0D0000 		.4byte	0xdac
 2294 0d97 0C       		.uleb128 0xc
 2295 0d98 EE020000 		.4byte	0x2ee
 2296 0d9c 0C       		.uleb128 0xc
 2297 0d9d F60C0000 		.4byte	0xcf6
 2298 0da1 0C       		.uleb128 0xc
 2299 0da2 2C000000 		.4byte	0x2c
 2300 0da6 0C       		.uleb128 0xc
 2301 0da7 F7000000 		.4byte	0xf7
 2302 0dab 00       		.byte	0
 2303 0dac 09       		.uleb128 0x9
 2304 0dad 04       		.byte	0x4
 2305 0dae 8E0D0000 		.4byte	0xd8e
 2306 0db2 1F       		.uleb128 0x1f
 2307 0db3 2C000000 		.4byte	0x2c
 2308 0db7 D00D0000 		.4byte	0xdd0
 2309 0dbb 0C       		.uleb128 0xc
 2310 0dbc EE020000 		.4byte	0x2ee
 2311 0dc0 0C       		.uleb128 0xc
 2312 0dc1 C10C0000 		.4byte	0xcc1
 2313 0dc5 0C       		.uleb128 0xc
 2314 0dc6 2C000000 		.4byte	0x2c
 2315 0dca 0C       		.uleb128 0xc
 2316 0dcb F7000000 		.4byte	0xf7
 2317 0dcf 00       		.byte	0
 2318 0dd0 09       		.uleb128 0x9
 2319 0dd1 04       		.byte	0x4
 2320 0dd2 B20D0000 		.4byte	0xdb2
 2321 0dd6 04       		.uleb128 0x4
 2322 0dd7 01       		.byte	0x1
 2323 0dd8 02       		.byte	0x2
 2324 0dd9 A3030000 		.4byte	.LASF226
 2325 0ddd 20       		.uleb128 0x20
 2326 0dde 04       		.byte	0x4
 2327 0ddf 10       		.byte	0x10
 2328 0de0 55       		.byte	0x55
 2329 0de1 F80D0000 		.4byte	0xdf8
 2330 0de5 10       		.uleb128 0x10
 2331 0de6 99030000 		.4byte	.LASF227
ARM GAS  /tmp/ccBURVhG.s 			page 42


 2332 0dea 00       		.sleb128 0
 2333 0deb 10       		.uleb128 0x10
 2334 0dec 540C0000 		.4byte	.LASF228
 2335 0df0 01       		.sleb128 1
 2336 0df1 10       		.uleb128 0x10
 2337 0df2 7E0A0000 		.4byte	.LASF229
 2338 0df6 02       		.sleb128 2
 2339 0df7 00       		.byte	0
 2340 0df8 03       		.uleb128 0x3
 2341 0df9 4D0A0000 		.4byte	.LASF230
 2342 0dfd 10       		.byte	0x10
 2343 0dfe 59       		.byte	0x59
 2344 0dff DD0D0000 		.4byte	0xddd
 2345 0e03 03       		.uleb128 0x3
 2346 0e04 ED090000 		.4byte	.LASF231
 2347 0e08 10       		.byte	0x10
 2348 0e09 5E       		.byte	0x5e
 2349 0e0a 0E0E0000 		.4byte	0xe0e
 2350 0e0e 05       		.uleb128 0x5
 2351 0e0f ED090000 		.4byte	.LASF231
 2352 0e13 78       		.byte	0x78
 2353 0e14 10       		.byte	0x10
 2354 0e15 78       		.byte	0x78
 2355 0e16 790E0000 		.4byte	0xe79
 2356 0e1a 1D       		.uleb128 0x1d
 2357 0e1b 766D7400 		.ascii	"vmt\000"
 2358 0e1f 10       		.byte	0x10
 2359 0e20 7A       		.byte	0x7a
 2360 0e21 060F0000 		.4byte	0xf06
 2361 0e25 00       		.byte	0
 2362 0e26 06       		.uleb128 0x6
 2363 0e27 88070000 		.4byte	.LASF232
 2364 0e2b 10       		.byte	0x10
 2365 0e2c 7B       		.byte	0x7b
 2366 0e2d 170C0000 		.4byte	0xc17
 2367 0e31 04       		.byte	0x4
 2368 0e32 06       		.uleb128 0x6
 2369 0e33 C4000000 		.4byte	.LASF233
 2370 0e37 10       		.byte	0x10
 2371 0e38 7B       		.byte	0x7b
 2372 0e39 F80D0000 		.4byte	0xdf8
 2373 0e3d 08       		.byte	0x8
 2374 0e3e 06       		.uleb128 0x6
 2375 0e3f 020B0000 		.4byte	.LASF234
 2376 0e43 10       		.byte	0x10
 2377 0e44 7B       		.byte	0x7b
 2378 0e45 C70C0000 		.4byte	0xcc7
 2379 0e49 0C       		.byte	0xc
 2380 0e4a 06       		.uleb128 0x6
 2381 0e4b 6F020000 		.4byte	.LASF235
 2382 0e4f 10       		.byte	0x10
 2383 0e50 7B       		.byte	0x7b
 2384 0e51 D20C0000 		.4byte	0xcd2
 2385 0e55 30       		.byte	0x30
 2386 0e56 1D       		.uleb128 0x1d
 2387 0e57 696200   		.ascii	"ib\000"
 2388 0e5a 10       		.byte	0x10
ARM GAS  /tmp/ccBURVhG.s 			page 43


 2389 0e5b 7B       		.byte	0x7b
 2390 0e5c 110F0000 		.4byte	0xf11
 2391 0e60 54       		.byte	0x54
 2392 0e61 1D       		.uleb128 0x1d
 2393 0e62 6F6200   		.ascii	"ob\000"
 2394 0e65 10       		.byte	0x10
 2395 0e66 7B       		.byte	0x7b
 2396 0e67 110F0000 		.4byte	0xf11
 2397 0e6b 64       		.byte	0x64
 2398 0e6c 06       		.uleb128 0x6
 2399 0e6d FD0A0000 		.4byte	.LASF236
 2400 0e71 10       		.byte	0x10
 2401 0e72 7B       		.byte	0x7b
 2402 0e73 210F0000 		.4byte	0xf21
 2403 0e77 74       		.byte	0x74
 2404 0e78 00       		.byte	0
 2405 0e79 21       		.uleb128 0x21
 2406 0e7a 04       		.byte	0x4
 2407 0e7b 11       		.byte	0x11
 2408 0e7c 66       		.byte	0x66
 2409 0e7d 8E0E0000 		.4byte	0xe8e
 2410 0e81 06       		.uleb128 0x6
 2411 0e82 2F080000 		.4byte	.LASF237
 2412 0e86 11       		.byte	0x11
 2413 0e87 6A       		.byte	0x6a
 2414 0e88 77000000 		.4byte	0x77
 2415 0e8c 00       		.byte	0
 2416 0e8d 00       		.byte	0
 2417 0e8e 03       		.uleb128 0x3
 2418 0e8f 54000000 		.4byte	.LASF238
 2419 0e93 11       		.byte	0x11
 2420 0e94 6C       		.byte	0x6c
 2421 0e95 790E0000 		.4byte	0xe79
 2422 0e99 05       		.uleb128 0x5
 2423 0e9a 68060000 		.4byte	.LASF239
 2424 0e9e 20       		.byte	0x20
 2425 0e9f 10       		.byte	0x10
 2426 0ea0 6D       		.byte	0x6d
 2427 0ea1 060F0000 		.4byte	0xf06
 2428 0ea5 06       		.uleb128 0x6
 2429 0ea6 A7000000 		.4byte	.LASF240
 2430 0eaa 10       		.byte	0x10
 2431 0eab 6E       		.byte	0x6e
 2432 0eac 010D0000 		.4byte	0xd01
 2433 0eb0 00       		.byte	0
 2434 0eb1 06       		.uleb128 0x6
 2435 0eb2 9C070000 		.4byte	.LASF241
 2436 0eb6 10       		.byte	0x10
 2437 0eb7 6E       		.byte	0x6e
 2438 0eb8 200D0000 		.4byte	0xd20
 2439 0ebc 04       		.byte	0x4
 2440 0ebd 1D       		.uleb128 0x1d
 2441 0ebe 70757400 		.ascii	"put\000"
 2442 0ec2 10       		.byte	0x10
 2443 0ec3 6E       		.byte	0x6e
 2444 0ec4 3A0D0000 		.4byte	0xd3a
 2445 0ec8 08       		.byte	0x8
ARM GAS  /tmp/ccBURVhG.s 			page 44


 2446 0ec9 1D       		.uleb128 0x1d
 2447 0eca 67657400 		.ascii	"get\000"
 2448 0ece 10       		.byte	0x10
 2449 0ecf 6E       		.byte	0x6e
 2450 0ed0 4F0D0000 		.4byte	0xd4f
 2451 0ed4 0C       		.byte	0xc
 2452 0ed5 06       		.uleb128 0x6
 2453 0ed6 CA000000 		.4byte	.LASF242
 2454 0eda 10       		.byte	0x10
 2455 0edb 6E       		.byte	0x6e
 2456 0edc 6E0D0000 		.4byte	0xd6e
 2457 0ee0 10       		.byte	0x10
 2458 0ee1 06       		.uleb128 0x6
 2459 0ee2 CF040000 		.4byte	.LASF243
 2460 0ee6 10       		.byte	0x10
 2461 0ee7 6E       		.byte	0x6e
 2462 0ee8 880D0000 		.4byte	0xd88
 2463 0eec 14       		.byte	0x14
 2464 0eed 06       		.uleb128 0x6
 2465 0eee 61000000 		.4byte	.LASF244
 2466 0ef2 10       		.byte	0x10
 2467 0ef3 6E       		.byte	0x6e
 2468 0ef4 AC0D0000 		.4byte	0xdac
 2469 0ef8 18       		.byte	0x18
 2470 0ef9 06       		.uleb128 0x6
 2471 0efa B5010000 		.4byte	.LASF245
 2472 0efe 10       		.byte	0x10
 2473 0eff 6E       		.byte	0x6e
 2474 0f00 D00D0000 		.4byte	0xdd0
 2475 0f04 1C       		.byte	0x1c
 2476 0f05 00       		.byte	0
 2477 0f06 09       		.uleb128 0x9
 2478 0f07 04       		.byte	0x4
 2479 0f08 0C0F0000 		.4byte	0xf0c
 2480 0f0c 12       		.uleb128 0x12
 2481 0f0d 990E0000 		.4byte	0xe99
 2482 0f11 13       		.uleb128 0x13
 2483 0f12 5E000000 		.4byte	0x5e
 2484 0f16 210F0000 		.4byte	0xf21
 2485 0f1a 14       		.uleb128 0x14
 2486 0f1b 7B050000 		.4byte	0x57b
 2487 0f1f 0F       		.byte	0xf
 2488 0f20 00       		.byte	0
 2489 0f21 09       		.uleb128 0x9
 2490 0f22 04       		.byte	0x4
 2491 0f23 E0090000 		.4byte	0x9e0
 2492 0f27 22       		.uleb128 0x22
 2493 0f28 C6090000 		.4byte	.LASF254
 2494 0f2c 03       		.byte	0x3
 2495 0f2d 2202     		.2byte	0x222
 2496 0f2f 03       		.byte	0x3
 2497 0f30 410F0000 		.4byte	0xf41
 2498 0f34 23       		.uleb128 0x23
 2499 0f35 40090000 		.4byte	.LASF253
 2500 0f39 03       		.byte	0x3
 2501 0f3a 2202     		.2byte	0x222
 2502 0f3c 77000000 		.4byte	0x77
ARM GAS  /tmp/ccBURVhG.s 			page 45


 2503 0f40 00       		.byte	0
 2504 0f41 24       		.uleb128 0x24
 2505 0f42 990A0000 		.4byte	.LASF246
 2506 0f46 0C       		.byte	0xc
 2507 0f47 C801     		.2byte	0x1c8
 2508 0f49 03       		.byte	0x3
 2509 0f4a 24       		.uleb128 0x24
 2510 0f4b FE010000 		.4byte	.LASF247
 2511 0f4f 0C       		.byte	0xc
 2512 0f50 E001     		.2byte	0x1e0
 2513 0f52 03       		.byte	0x3
 2514 0f53 24       		.uleb128 0x24
 2515 0f54 D3060000 		.4byte	.LASF248
 2516 0f58 0C       		.byte	0xc
 2517 0f59 EF01     		.2byte	0x1ef
 2518 0f5b 03       		.byte	0x3
 2519 0f5c 24       		.uleb128 0x24
 2520 0f5d 84030000 		.4byte	.LASF249
 2521 0f61 0C       		.byte	0xc
 2522 0f62 FA01     		.2byte	0x1fa
 2523 0f64 03       		.byte	0x3
 2524 0f65 24       		.uleb128 0x24
 2525 0f66 31020000 		.4byte	.LASF250
 2526 0f6a 12       		.byte	0x12
 2527 0f6b 8201     		.2byte	0x182
 2528 0f6d 03       		.byte	0x3
 2529 0f6e 24       		.uleb128 0x24
 2530 0f6f FB020000 		.4byte	.LASF251
 2531 0f73 12       		.byte	0x12
 2532 0f74 9601     		.2byte	0x196
 2533 0f76 03       		.byte	0x3
 2534 0f77 24       		.uleb128 0x24
 2535 0f78 1A010000 		.4byte	.LASF252
 2536 0f7c 02       		.byte	0x2
 2537 0f7d 0102     		.2byte	0x201
 2538 0f7f 03       		.byte	0x3
 2539 0f80 25       		.uleb128 0x25
 2540 0f81 5B060000 		.4byte	.LASF277
 2541 0f85 04       		.byte	0x4
 2542 0f86 2F01     		.2byte	0x12f
 2543 0f88 D60D0000 		.4byte	0xdd6
 2544 0f8c 03       		.byte	0x3
 2545 0f8d 9E0F0000 		.4byte	0xf9e
 2546 0f91 26       		.uleb128 0x26
 2547 0f92 69717000 		.ascii	"iqp\000"
 2548 0f96 04       		.byte	0x4
 2549 0f97 2F01     		.2byte	0x12f
 2550 0f99 9E0F0000 		.4byte	0xf9e
 2551 0f9d 00       		.byte	0
 2552 0f9e 09       		.uleb128 0x9
 2553 0f9f 04       		.byte	0x4
 2554 0fa0 C70C0000 		.4byte	0xcc7
 2555 0fa4 22       		.uleb128 0x22
 2556 0fa5 C20B0000 		.4byte	.LASF255
 2557 0fa9 02       		.byte	0x2
 2558 0faa 4903     		.2byte	0x349
 2559 0fac 03       		.byte	0x3
ARM GAS  /tmp/ccBURVhG.s 			page 46


 2560 0fad CA0F0000 		.4byte	0xfca
 2561 0fb1 26       		.uleb128 0x26
 2562 0fb2 65737000 		.ascii	"esp\000"
 2563 0fb6 02       		.byte	0x2
 2564 0fb7 4903     		.2byte	0x349
 2565 0fb9 CA0F0000 		.4byte	0xfca
 2566 0fbd 23       		.uleb128 0x23
 2567 0fbe B3030000 		.4byte	.LASF256
 2568 0fc2 02       		.byte	0x2
 2569 0fc3 4A03     		.2byte	0x34a
 2570 0fc5 E1000000 		.4byte	0xe1
 2571 0fc9 00       		.byte	0
 2572 0fca 09       		.uleb128 0x9
 2573 0fcb 04       		.byte	0x4
 2574 0fcc 170C0000 		.4byte	0xc17
 2575 0fd0 24       		.uleb128 0x24
 2576 0fd1 74050000 		.4byte	.LASF257
 2577 0fd5 02       		.byte	0x2
 2578 0fd6 0C02     		.2byte	0x20c
 2579 0fd8 03       		.byte	0x3
 2580 0fd9 27       		.uleb128 0x27
 2581 0fda ED000000 		.4byte	.LASF258
 2582 0fde 01       		.byte	0x1
 2583 0fdf 4F       		.byte	0x4f
 2584 0fe0 01       		.byte	0x1
 2585 0fe1 0F100000 		.4byte	0x100f
 2586 0fe5 28       		.uleb128 0x28
 2587 0fe6 73647000 		.ascii	"sdp\000"
 2588 0fea 01       		.byte	0x1
 2589 0feb 4F       		.byte	0x4f
 2590 0fec 0F100000 		.4byte	0x100f
 2591 0ff0 29       		.uleb128 0x29
 2592 0ff1 7500     		.ascii	"u\000"
 2593 0ff3 01       		.byte	0x1
 2594 0ff4 50       		.byte	0x50
 2595 0ff5 210F0000 		.4byte	0xf21
 2596 0ff9 29       		.uleb128 0x29
 2597 0ffa 733100   		.ascii	"s1\000"
 2598 0ffd 01       		.byte	0x1
 2599 0ffe 51       		.byte	0x51
 2600 0fff 5E000000 		.4byte	0x5e
 2601 1003 2A       		.uleb128 0x2a
 2602 1004 29       		.uleb128 0x29
 2603 1005 6200     		.ascii	"b\000"
 2604 1007 01       		.byte	0x1
 2605 1008 5D       		.byte	0x5d
 2606 1009 CB000000 		.4byte	0xcb
 2607 100d 00       		.byte	0
 2608 100e 00       		.byte	0
 2609 100f 09       		.uleb128 0x9
 2610 1010 04       		.byte	0x4
 2611 1011 030E0000 		.4byte	0xe03
 2612 1015 27       		.uleb128 0x27
 2613 1016 6F0C0000 		.4byte	.LASF259
 2614 101a 01       		.byte	0x1
 2615 101b 71       		.byte	0x71
 2616 101c 01       		.byte	0x1
ARM GAS  /tmp/ccBURVhG.s 			page 47


 2617 101d 41100000 		.4byte	0x1041
 2618 1021 28       		.uleb128 0x28
 2619 1022 73647000 		.ascii	"sdp\000"
 2620 1026 01       		.byte	0x1
 2621 1027 71       		.byte	0x71
 2622 1028 0F100000 		.4byte	0x100f
 2623 102c 29       		.uleb128 0x29
 2624 102d 7500     		.ascii	"u\000"
 2625 102f 01       		.byte	0x1
 2626 1030 72       		.byte	0x72
 2627 1031 210F0000 		.4byte	0xf21
 2628 1035 2A       		.uleb128 0x2a
 2629 1036 29       		.uleb128 0x29
 2630 1037 6200     		.ascii	"b\000"
 2631 1039 01       		.byte	0x1
 2632 103a 75       		.byte	0x75
 2633 103b CB000000 		.4byte	0xcb
 2634 103f 00       		.byte	0
 2635 1040 00       		.byte	0
 2636 1041 2B       		.uleb128 0x2b
 2637 1042 AB0A0000 		.4byte	.LASF278
 2638 1046 01       		.byte	0x1
 2639 1047 83       		.byte	0x83
 2640 1048 00000000 		.4byte	.LFB269
 2641 104c 38000000 		.4byte	.LFE269-.LFB269
 2642 1050 01       		.uleb128 0x1
 2643 1051 9C       		.byte	0x9c
 2644 1052 ED100000 		.4byte	0x10ed
 2645 1056 2C       		.uleb128 0x2c
 2646 1057 717000   		.ascii	"qp\000"
 2647 105a 01       		.byte	0x1
 2648 105b 83       		.byte	0x83
 2649 105c B60C0000 		.4byte	0xcb6
 2650 1060 00000000 		.4byte	.LLST0
 2651 1064 2D       		.uleb128 0x2d
 2652 1065 15100000 		.4byte	0x1015
 2653 1069 02000000 		.4byte	.LBB143
 2654 106d 00000000 		.4byte	.Ldebug_ranges0+0
 2655 1071 01       		.byte	0x1
 2656 1072 86       		.byte	0x86
 2657 1073 2E       		.uleb128 0x2e
 2658 1074 21100000 		.4byte	0x1021
 2659 1078 06       		.uleb128 0x6
 2660 1079 03       		.byte	0x3
 2661 107a 00000000 		.4byte	SD1
 2662 107e 9F       		.byte	0x9f
 2663 107f 2F       		.uleb128 0x2f
 2664 1080 00000000 		.4byte	.Ldebug_ranges0+0
 2665 1084 30       		.uleb128 0x30
 2666 1085 2C100000 		.4byte	0x102c
 2667 1089 21000000 		.4byte	.LLST1
 2668 108d 2F       		.uleb128 0x2f
 2669 108e 18000000 		.4byte	.Ldebug_ranges0+0x18
 2670 1092 30       		.uleb128 0x30
 2671 1093 36100000 		.4byte	0x1036
 2672 1097 34000000 		.4byte	.LLST2
 2673 109b 31       		.uleb128 0x31
ARM GAS  /tmp/ccBURVhG.s 			page 48


 2674 109c A40F0000 		.4byte	0xfa4
 2675 10a0 28000000 		.4byte	.LBB146
 2676 10a4 30000000 		.4byte	.Ldebug_ranges0+0x30
 2677 10a8 01       		.byte	0x1
 2678 10a9 77       		.byte	0x77
 2679 10aa D9100000 		.4byte	0x10d9
 2680 10ae 32       		.uleb128 0x32
 2681 10af BD0F0000 		.4byte	0xfbd
 2682 10b3 08       		.byte	0x8
 2683 10b4 2E       		.uleb128 0x2e
 2684 10b5 B10F0000 		.4byte	0xfb1
 2685 10b9 06       		.uleb128 0x6
 2686 10ba 03       		.byte	0x3
 2687 10bb 04000000 		.4byte	SD1+4
 2688 10bf 9F       		.byte	0x9f
 2689 10c0 33       		.uleb128 0x33
 2690 10c1 34000000 		.4byte	.LVL9
 2691 10c5 0E160000 		.4byte	0x160e
 2692 10c9 34       		.uleb128 0x34
 2693 10ca 01       		.uleb128 0x1
 2694 10cb 51       		.byte	0x51
 2695 10cc 01       		.uleb128 0x1
 2696 10cd 38       		.byte	0x38
 2697 10ce 34       		.uleb128 0x34
 2698 10cf 01       		.uleb128 0x1
 2699 10d0 50       		.byte	0x50
 2700 10d1 05       		.uleb128 0x5
 2701 10d2 03       		.byte	0x3
 2702 10d3 04000000 		.4byte	.LANCHOR0+4
 2703 10d7 00       		.byte	0
 2704 10d8 00       		.byte	0
 2705 10d9 35       		.uleb128 0x35
 2706 10da 16000000 		.4byte	.LVL4
 2707 10de 24160000 		.4byte	0x1624
 2708 10e2 34       		.uleb128 0x34
 2709 10e3 01       		.uleb128 0x1
 2710 10e4 50       		.byte	0x50
 2711 10e5 02       		.uleb128 0x2
 2712 10e6 75       		.byte	0x75
 2713 10e7 30       		.sleb128 48
 2714 10e8 00       		.byte	0
 2715 10e9 00       		.byte	0
 2716 10ea 00       		.byte	0
 2717 10eb 00       		.byte	0
 2718 10ec 00       		.byte	0
 2719 10ed 36       		.uleb128 0x36
 2720 10ee EE060000 		.4byte	.LASF260
 2721 10f2 01       		.byte	0x1
 2722 10f3 B9       		.byte	0xb9
 2723 10f4 00000000 		.4byte	.LFB271
 2724 10f8 A0000000 		.4byte	.LFE271-.LFB271
 2725 10fc 01       		.uleb128 0x1
 2726 10fd 9C       		.byte	0x9c
 2727 10fe AF140000 		.4byte	0x14af
 2728 1102 31       		.uleb128 0x31
 2729 1103 D90F0000 		.4byte	0xfd9
 2730 1107 02000000 		.4byte	.LBB200
ARM GAS  /tmp/ccBURVhG.s 			page 49


 2731 110b 48000000 		.4byte	.Ldebug_ranges0+0x48
 2732 110f 01       		.byte	0x1
 2733 1110 BC       		.byte	0xbc
 2734 1111 9C140000 		.4byte	0x149c
 2735 1115 2E       		.uleb128 0x2e
 2736 1116 E50F0000 		.4byte	0xfe5
 2737 111a 06       		.uleb128 0x6
 2738 111b 03       		.byte	0x3
 2739 111c 00000000 		.4byte	SD1
 2740 1120 9F       		.byte	0x9f
 2741 1121 2F       		.uleb128 0x2f
 2742 1122 48000000 		.4byte	.Ldebug_ranges0+0x48
 2743 1126 30       		.uleb128 0x30
 2744 1127 F00F0000 		.4byte	0xff0
 2745 112b 52000000 		.4byte	.LLST3
 2746 112f 30       		.uleb128 0x30
 2747 1130 F90F0000 		.4byte	0xff9
 2748 1134 7B000000 		.4byte	.LLST4
 2749 1138 37       		.uleb128 0x37
 2750 1139 770F0000 		.4byte	0xf77
 2751 113d 0E000000 		.4byte	.LBB202
 2752 1141 06000000 		.4byte	.LBE202-.LBB202
 2753 1145 01       		.byte	0x1
 2754 1146 54       		.byte	0x54
 2755 1147 99110000 		.4byte	0x1199
 2756 114b 38       		.uleb128 0x38
 2757 114c 650F0000 		.4byte	0xf65
 2758 1150 0E000000 		.4byte	.LBB203
 2759 1154 06000000 		.4byte	.LBE203-.LBB203
 2760 1158 02       		.byte	0x2
 2761 1159 0302     		.2byte	0x203
 2762 115b 38       		.uleb128 0x38
 2763 115c 530F0000 		.4byte	0xf53
 2764 1160 0E000000 		.4byte	.LBB204
 2765 1164 06000000 		.4byte	.LBE204-.LBB204
 2766 1168 12       		.byte	0x12
 2767 1169 8401     		.2byte	0x184
 2768 116b 38       		.uleb128 0x38
 2769 116c 410F0000 		.4byte	0xf41
 2770 1170 0E000000 		.4byte	.LBB205
 2771 1174 06000000 		.4byte	.LBE205-.LBB205
 2772 1178 0C       		.byte	0xc
 2773 1179 F101     		.2byte	0x1f1
 2774 117b 38       		.uleb128 0x38
 2775 117c 270F0000 		.4byte	0xf27
 2776 1180 0E000000 		.4byte	.LBB206
 2777 1184 06000000 		.4byte	.LBE206-.LBB206
 2778 1188 0C       		.byte	0xc
 2779 1189 D001     		.2byte	0x1d0
 2780 118b 39       		.uleb128 0x39
 2781 118c 340F0000 		.4byte	0xf34
 2782 1190 99000000 		.4byte	.LLST5
 2783 1194 00       		.byte	0
 2784 1195 00       		.byte	0
 2785 1196 00       		.byte	0
 2786 1197 00       		.byte	0
 2787 1198 00       		.byte	0
ARM GAS  /tmp/ccBURVhG.s 			page 50


 2788 1199 37       		.uleb128 0x37
 2789 119a 800F0000 		.4byte	0xf80
 2790 119e 14000000 		.4byte	.LBB208
 2791 11a2 02000000 		.4byte	.LBE208-.LBB208
 2792 11a6 01       		.byte	0x1
 2793 11a7 55       		.byte	0x55
 2794 11a8 B6110000 		.4byte	0x11b6
 2795 11ac 39       		.uleb128 0x39
 2796 11ad 910F0000 		.4byte	0xf91
 2797 11b1 BB000000 		.4byte	.LLST6
 2798 11b5 00       		.byte	0
 2799 11b6 37       		.uleb128 0x37
 2800 11b7 D00F0000 		.4byte	0xfd0
 2801 11bb 24000000 		.4byte	.LBB210
 2802 11bf 06000000 		.4byte	.LBE210-.LBB210
 2803 11c3 01       		.byte	0x1
 2804 11c4 59       		.byte	0x59
 2805 11c5 17120000 		.4byte	0x1217
 2806 11c9 38       		.uleb128 0x38
 2807 11ca 6E0F0000 		.4byte	0xf6e
 2808 11ce 24000000 		.4byte	.LBB211
 2809 11d2 06000000 		.4byte	.LBE211-.LBB211
 2810 11d6 02       		.byte	0x2
 2811 11d7 0E02     		.2byte	0x20e
 2812 11d9 38       		.uleb128 0x38
 2813 11da 5C0F0000 		.4byte	0xf5c
 2814 11de 24000000 		.4byte	.LBB212
 2815 11e2 06000000 		.4byte	.LBE212-.LBB212
 2816 11e6 12       		.byte	0x12
 2817 11e7 9A01     		.2byte	0x19a
 2818 11e9 38       		.uleb128 0x38
 2819 11ea 4A0F0000 		.4byte	0xf4a
 2820 11ee 24000000 		.4byte	.LBB213
 2821 11f2 06000000 		.4byte	.LBE213-.LBB213
 2822 11f6 0C       		.byte	0xc
 2823 11f7 FC01     		.2byte	0x1fc
 2824 11f9 38       		.uleb128 0x38
 2825 11fa 270F0000 		.4byte	0xf27
 2826 11fe 24000000 		.4byte	.LBB214
 2827 1202 06000000 		.4byte	.LBE214-.LBB214
 2828 1206 0C       		.byte	0xc
 2829 1207 E301     		.2byte	0x1e3
 2830 1209 39       		.uleb128 0x39
 2831 120a 340F0000 		.4byte	0xf34
 2832 120e E3000000 		.4byte	.LLST7
 2833 1212 00       		.byte	0
 2834 1213 00       		.byte	0
 2835 1214 00       		.byte	0
 2836 1215 00       		.byte	0
 2837 1216 00       		.byte	0
 2838 1217 37       		.uleb128 0x37
 2839 1218 A40F0000 		.4byte	0xfa4
 2840 121c 36000000 		.4byte	.LBB216
 2841 1220 08000000 		.4byte	.LBE216-.LBB216
 2842 1224 01       		.byte	0x1
 2843 1225 56       		.byte	0x56
 2844 1226 55120000 		.4byte	0x1255
ARM GAS  /tmp/ccBURVhG.s 			page 51


 2845 122a 39       		.uleb128 0x39
 2846 122b BD0F0000 		.4byte	0xfbd
 2847 122f F7000000 		.4byte	.LLST8
 2848 1233 39       		.uleb128 0x39
 2849 1234 B10F0000 		.4byte	0xfb1
 2850 1238 0B010000 		.4byte	.LLST9
 2851 123c 35       		.uleb128 0x35
 2852 123d 3E000000 		.4byte	.LVL21
 2853 1241 0E160000 		.4byte	0x160e
 2854 1245 34       		.uleb128 0x34
 2855 1246 01       		.uleb128 0x1
 2856 1247 51       		.byte	0x51
 2857 1248 01       		.uleb128 0x1
 2858 1249 34       		.byte	0x34
 2859 124a 34       		.uleb128 0x34
 2860 124b 01       		.uleb128 0x1
 2861 124c 50       		.byte	0x50
 2862 124d 05       		.uleb128 0x5
 2863 124e 03       		.byte	0x3
 2864 124f 04000000 		.4byte	.LANCHOR0+4
 2865 1253 00       		.byte	0
 2866 1254 00       		.byte	0
 2867 1255 37       		.uleb128 0x37
 2868 1256 A40F0000 		.4byte	0xfa4
 2869 125a 4A000000 		.4byte	.LBB218
 2870 125e 0A000000 		.4byte	.LBE218-.LBB218
 2871 1262 01       		.byte	0x1
 2872 1263 58       		.byte	0x58
 2873 1264 94120000 		.4byte	0x1294
 2874 1268 39       		.uleb128 0x39
 2875 1269 BD0F0000 		.4byte	0xfbd
 2876 126d 23010000 		.4byte	.LLST10
 2877 1271 39       		.uleb128 0x39
 2878 1272 B10F0000 		.4byte	0xfb1
 2879 1276 38010000 		.4byte	.LLST11
 2880 127a 35       		.uleb128 0x35
 2881 127b 52000000 		.4byte	.LVL24
 2882 127f 0E160000 		.4byte	0x160e
 2883 1283 34       		.uleb128 0x34
 2884 1284 01       		.uleb128 0x1
 2885 1285 51       		.byte	0x51
 2886 1286 02       		.uleb128 0x2
 2887 1287 08       		.byte	0x8
 2888 1288 80       		.byte	0x80
 2889 1289 34       		.uleb128 0x34
 2890 128a 01       		.uleb128 0x1
 2891 128b 50       		.byte	0x50
 2892 128c 05       		.uleb128 0x5
 2893 128d 03       		.byte	0x3
 2894 128e 04000000 		.4byte	.LANCHOR0+4
 2895 1292 00       		.byte	0
 2896 1293 00       		.byte	0
 2897 1294 3A       		.uleb128 0x3a
 2898 1295 68000000 		.4byte	.Ldebug_ranges0+0x68
 2899 1299 70140000 		.4byte	0x1470
 2900 129d 30       		.uleb128 0x30
 2901 129e 04100000 		.4byte	0x1004
ARM GAS  /tmp/ccBURVhG.s 			page 52


 2902 12a2 50010000 		.4byte	.LLST12
 2903 12a6 37       		.uleb128 0x37
 2904 12a7 770F0000 		.4byte	0xf77
 2905 12ab 54000000 		.4byte	.LBB221
 2906 12af 06000000 		.4byte	.LBE221-.LBB221
 2907 12b3 01       		.byte	0x1
 2908 12b4 5F       		.byte	0x5f
 2909 12b5 04130000 		.4byte	0x1304
 2910 12b9 38       		.uleb128 0x38
 2911 12ba 650F0000 		.4byte	0xf65
 2912 12be 54000000 		.4byte	.LBB222
 2913 12c2 06000000 		.4byte	.LBE222-.LBB222
 2914 12c6 02       		.byte	0x2
 2915 12c7 0302     		.2byte	0x203
 2916 12c9 38       		.uleb128 0x38
 2917 12ca 530F0000 		.4byte	0xf53
 2918 12ce 54000000 		.4byte	.LBB223
 2919 12d2 06000000 		.4byte	.LBE223-.LBB223
 2920 12d6 12       		.byte	0x12
 2921 12d7 8401     		.2byte	0x184
 2922 12d9 38       		.uleb128 0x38
 2923 12da 410F0000 		.4byte	0xf41
 2924 12de 54000000 		.4byte	.LBB224
 2925 12e2 06000000 		.4byte	.LBE224-.LBB224
 2926 12e6 0C       		.byte	0xc
 2927 12e7 F101     		.2byte	0x1f1
 2928 12e9 38       		.uleb128 0x38
 2929 12ea 270F0000 		.4byte	0xf27
 2930 12ee 54000000 		.4byte	.LBB225
 2931 12f2 06000000 		.4byte	.LBE225-.LBB225
 2932 12f6 0C       		.byte	0xc
 2933 12f7 D001     		.2byte	0x1d0
 2934 12f9 32       		.uleb128 0x32
 2935 12fa 340F0000 		.4byte	0xf34
 2936 12fe 20       		.byte	0x20
 2937 12ff 00       		.byte	0
 2938 1300 00       		.byte	0
 2939 1301 00       		.byte	0
 2940 1302 00       		.byte	0
 2941 1303 00       		.byte	0
 2942 1304 37       		.uleb128 0x37
 2943 1305 D00F0000 		.4byte	0xfd0
 2944 1309 60000000 		.4byte	.LBB227
 2945 130d 06000000 		.4byte	.LBE227-.LBB227
 2946 1311 01       		.byte	0x1
 2947 1312 61       		.byte	0x61
 2948 1313 62130000 		.4byte	0x1362
 2949 1317 38       		.uleb128 0x38
 2950 1318 6E0F0000 		.4byte	0xf6e
 2951 131c 60000000 		.4byte	.LBB228
 2952 1320 06000000 		.4byte	.LBE228-.LBB228
 2953 1324 02       		.byte	0x2
 2954 1325 0E02     		.2byte	0x20e
 2955 1327 38       		.uleb128 0x38
 2956 1328 5C0F0000 		.4byte	0xf5c
 2957 132c 60000000 		.4byte	.LBB229
 2958 1330 06000000 		.4byte	.LBE229-.LBB229
ARM GAS  /tmp/ccBURVhG.s 			page 53


 2959 1334 12       		.byte	0x12
 2960 1335 9A01     		.2byte	0x19a
 2961 1337 38       		.uleb128 0x38
 2962 1338 4A0F0000 		.4byte	0xf4a
 2963 133c 60000000 		.4byte	.LBB230
 2964 1340 06000000 		.4byte	.LBE230-.LBB230
 2965 1344 0C       		.byte	0xc
 2966 1345 FC01     		.2byte	0x1fc
 2967 1347 38       		.uleb128 0x38
 2968 1348 270F0000 		.4byte	0xf27
 2969 134c 60000000 		.4byte	.LBB231
 2970 1350 06000000 		.4byte	.LBE231-.LBB231
 2971 1354 0C       		.byte	0xc
 2972 1355 E301     		.2byte	0x1e3
 2973 1357 32       		.uleb128 0x32
 2974 1358 340F0000 		.4byte	0xf34
 2975 135c 00       		.byte	0
 2976 135d 00       		.byte	0
 2977 135e 00       		.byte	0
 2978 135f 00       		.byte	0
 2979 1360 00       		.byte	0
 2980 1361 00       		.byte	0
 2981 1362 37       		.uleb128 0x37
 2982 1363 770F0000 		.4byte	0xf77
 2983 1367 76000000 		.4byte	.LBB233
 2984 136b 04000000 		.4byte	.LBE233-.LBB233
 2985 136f 01       		.byte	0x1
 2986 1370 64       		.byte	0x64
 2987 1371 C0130000 		.4byte	0x13c0
 2988 1375 38       		.uleb128 0x38
 2989 1376 650F0000 		.4byte	0xf65
 2990 137a 76000000 		.4byte	.LBB234
 2991 137e 04000000 		.4byte	.LBE234-.LBB234
 2992 1382 02       		.byte	0x2
 2993 1383 0302     		.2byte	0x203
 2994 1385 38       		.uleb128 0x38
 2995 1386 530F0000 		.4byte	0xf53
 2996 138a 76000000 		.4byte	.LBB235
 2997 138e 04000000 		.4byte	.LBE235-.LBB235
 2998 1392 12       		.byte	0x12
 2999 1393 8401     		.2byte	0x184
 3000 1395 38       		.uleb128 0x38
 3001 1396 410F0000 		.4byte	0xf41
 3002 139a 76000000 		.4byte	.LBB236
 3003 139e 04000000 		.4byte	.LBE236-.LBB236
 3004 13a2 0C       		.byte	0xc
 3005 13a3 F101     		.2byte	0x1f1
 3006 13a5 38       		.uleb128 0x38
 3007 13a6 270F0000 		.4byte	0xf27
 3008 13aa 76000000 		.4byte	.LBB237
 3009 13ae 04000000 		.4byte	.LBE237-.LBB237
 3010 13b2 0C       		.byte	0xc
 3011 13b3 D001     		.2byte	0x1d0
 3012 13b5 32       		.uleb128 0x32
 3013 13b6 340F0000 		.4byte	0xf34
 3014 13ba 20       		.byte	0x20
 3015 13bb 00       		.byte	0
ARM GAS  /tmp/ccBURVhG.s 			page 54


 3016 13bc 00       		.byte	0
 3017 13bd 00       		.byte	0
 3018 13be 00       		.byte	0
 3019 13bf 00       		.byte	0
 3020 13c0 37       		.uleb128 0x37
 3021 13c1 A40F0000 		.4byte	0xfa4
 3022 13c5 7A000000 		.4byte	.LBB239
 3023 13c9 08000000 		.4byte	.LBE239-.LBB239
 3024 13cd 01       		.byte	0x1
 3025 13ce 65       		.byte	0x65
 3026 13cf FE130000 		.4byte	0x13fe
 3027 13d3 32       		.uleb128 0x32
 3028 13d4 BD0F0000 		.4byte	0xfbd
 3029 13d8 08       		.byte	0x8
 3030 13d9 2E       		.uleb128 0x2e
 3031 13da B10F0000 		.4byte	0xfb1
 3032 13de 06       		.uleb128 0x6
 3033 13df 03       		.byte	0x3
 3034 13e0 04000000 		.4byte	SD1+4
 3035 13e4 9F       		.byte	0x9f
 3036 13e5 35       		.uleb128 0x35
 3037 13e6 82000000 		.4byte	.LVL33
 3038 13ea 0E160000 		.4byte	0x160e
 3039 13ee 34       		.uleb128 0x34
 3040 13ef 01       		.uleb128 0x1
 3041 13f0 51       		.byte	0x51
 3042 13f1 01       		.uleb128 0x1
 3043 13f2 38       		.byte	0x38
 3044 13f3 34       		.uleb128 0x34
 3045 13f4 01       		.uleb128 0x1
 3046 13f5 50       		.byte	0x50
 3047 13f6 05       		.uleb128 0x5
 3048 13f7 03       		.byte	0x3
 3049 13f8 04000000 		.4byte	.LANCHOR0+4
 3050 13fc 00       		.byte	0
 3051 13fd 00       		.byte	0
 3052 13fe 37       		.uleb128 0x37
 3053 13ff D00F0000 		.4byte	0xfd0
 3054 1403 82000000 		.4byte	.LBB241
 3055 1407 04000000 		.4byte	.LBE241-.LBB241
 3056 140b 01       		.byte	0x1
 3057 140c 66       		.byte	0x66
 3058 140d 5C140000 		.4byte	0x145c
 3059 1411 38       		.uleb128 0x38
 3060 1412 6E0F0000 		.4byte	0xf6e
 3061 1416 82000000 		.4byte	.LBB242
 3062 141a 04000000 		.4byte	.LBE242-.LBB242
 3063 141e 02       		.byte	0x2
 3064 141f 0E02     		.2byte	0x20e
 3065 1421 38       		.uleb128 0x38
 3066 1422 5C0F0000 		.4byte	0xf5c
 3067 1426 82000000 		.4byte	.LBB243
 3068 142a 04000000 		.4byte	.LBE243-.LBB243
 3069 142e 12       		.byte	0x12
 3070 142f 9A01     		.2byte	0x19a
 3071 1431 38       		.uleb128 0x38
 3072 1432 4A0F0000 		.4byte	0xf4a
ARM GAS  /tmp/ccBURVhG.s 			page 55


 3073 1436 82000000 		.4byte	.LBB244
 3074 143a 04000000 		.4byte	.LBE244-.LBB244
 3075 143e 0C       		.byte	0xc
 3076 143f FC01     		.2byte	0x1fc
 3077 1441 38       		.uleb128 0x38
 3078 1442 270F0000 		.4byte	0xf27
 3079 1446 82000000 		.4byte	.LBB245
 3080 144a 04000000 		.4byte	.LBE245-.LBB245
 3081 144e 0C       		.byte	0xc
 3082 144f E301     		.2byte	0x1e3
 3083 1451 32       		.uleb128 0x32
 3084 1452 340F0000 		.4byte	0xf34
 3085 1456 00       		.byte	0
 3086 1457 00       		.byte	0
 3087 1458 00       		.byte	0
 3088 1459 00       		.byte	0
 3089 145a 00       		.byte	0
 3090 145b 00       		.byte	0
 3091 145c 35       		.uleb128 0x35
 3092 145d 60000000 		.4byte	.LVL26
 3093 1461 24160000 		.4byte	0x1624
 3094 1465 34       		.uleb128 0x34
 3095 1466 01       		.uleb128 0x1
 3096 1467 50       		.byte	0x50
 3097 1468 05       		.uleb128 0x5
 3098 1469 03       		.byte	0x3
 3099 146a 30000000 		.4byte	.LANCHOR0+48
 3100 146e 00       		.byte	0
 3101 146f 00       		.byte	0
 3102 1470 3B       		.uleb128 0x3b
 3103 1471 20000000 		.4byte	.LVL15
 3104 1475 3F160000 		.4byte	0x163f
 3105 1479 87140000 		.4byte	0x1487
 3106 147d 34       		.uleb128 0x34
 3107 147e 01       		.uleb128 0x1
 3108 147f 50       		.byte	0x50
 3109 1480 05       		.uleb128 0x5
 3110 1481 03       		.byte	0x3
 3111 1482 0C000000 		.4byte	.LANCHOR0+12
 3112 1486 00       		.byte	0
 3113 1487 35       		.uleb128 0x35
 3114 1488 46000000 		.4byte	.LVL22
 3115 148c 3F160000 		.4byte	0x163f
 3116 1490 34       		.uleb128 0x34
 3117 1491 01       		.uleb128 0x1
 3118 1492 50       		.byte	0x50
 3119 1493 05       		.uleb128 0x5
 3120 1494 03       		.byte	0x3
 3121 1495 0C000000 		.4byte	.LANCHOR0+12
 3122 1499 00       		.byte	0
 3123 149a 00       		.byte	0
 3124 149b 00       		.byte	0
 3125 149c 3C       		.uleb128 0x3c
 3126 149d 36000000 		.4byte	.LVL20
 3127 14a1 59160000 		.4byte	0x1659
 3128 14a5 3C       		.uleb128 0x3c
 3129 14a6 76000000 		.4byte	.LVL30
ARM GAS  /tmp/ccBURVhG.s 			page 56


 3130 14aa 59160000 		.4byte	0x1659
 3131 14ae 00       		.byte	0
 3132 14af 36       		.uleb128 0x36
 3133 14b0 A0060000 		.4byte	.LASF261
 3134 14b4 01       		.byte	0x1
 3135 14b5 DC       		.byte	0xdc
 3136 14b6 00000000 		.4byte	.LFB272
 3137 14ba 20000000 		.4byte	.LFE272-.LFB272
 3138 14be 01       		.uleb128 0x1
 3139 14bf 9C       		.byte	0x9c
 3140 14c0 E3140000 		.4byte	0x14e3
 3141 14c4 35       		.uleb128 0x35
 3142 14c5 0E000000 		.4byte	.LVL34
 3143 14c9 61160000 		.4byte	0x1661
 3144 14cd 34       		.uleb128 0x34
 3145 14ce 01       		.uleb128 0x1
 3146 14cf 52       		.byte	0x52
 3147 14d0 05       		.uleb128 0x5
 3148 14d1 03       		.byte	0x3
 3149 14d2 00000000 		.4byte	notify1
 3150 14d6 34       		.uleb128 0x34
 3151 14d7 01       		.uleb128 0x1
 3152 14d8 51       		.byte	0x51
 3153 14d9 01       		.uleb128 0x1
 3154 14da 30       		.byte	0x30
 3155 14db 34       		.uleb128 0x34
 3156 14dc 01       		.uleb128 0x1
 3157 14dd 50       		.byte	0x50
 3158 14de 02       		.uleb128 0x2
 3159 14df 74       		.byte	0x74
 3160 14e0 00       		.sleb128 0
 3161 14e1 00       		.byte	0
 3162 14e2 00       		.byte	0
 3163 14e3 27       		.uleb128 0x27
 3164 14e4 98000000 		.4byte	.LASF262
 3165 14e8 01       		.byte	0x1
 3166 14e9 9E       		.byte	0x9e
 3167 14ea 01       		.byte	0x1
 3168 14eb 11150000 		.4byte	0x1511
 3169 14ef 3D       		.uleb128 0x3d
 3170 14f0 FD0A0000 		.4byte	.LASF236
 3171 14f4 01       		.byte	0x1
 3172 14f5 9E       		.byte	0x9e
 3173 14f6 210F0000 		.4byte	0xf21
 3174 14fa 3D       		.uleb128 0x3d
 3175 14fb BD000000 		.4byte	.LASF263
 3176 14ff 01       		.byte	0x1
 3177 1500 9E       		.byte	0x9e
 3178 1501 11150000 		.4byte	0x1511
 3179 1505 3E       		.uleb128 0x3e
 3180 1506 55030000 		.4byte	.LASF264
 3181 150a 01       		.byte	0x1
 3182 150b A0       		.byte	0xa0
 3183 150c 77000000 		.4byte	0x77
 3184 1510 00       		.byte	0
 3185 1511 09       		.uleb128 0x9
 3186 1512 04       		.byte	0x4
ARM GAS  /tmp/ccBURVhG.s 			page 57


 3187 1513 17150000 		.4byte	0x1517
 3188 1517 12       		.uleb128 0x12
 3189 1518 8E0E0000 		.4byte	0xe8e
 3190 151c 36       		.uleb128 0x36
 3191 151d BB010000 		.4byte	.LASF265
 3192 1521 01       		.byte	0x1
 3193 1522 FB       		.byte	0xfb
 3194 1523 00000000 		.4byte	.LFB273
 3195 1527 88000000 		.4byte	.LFE273-.LFB273
 3196 152b 01       		.uleb128 0x1
 3197 152c 9C       		.byte	0x9c
 3198 152d 9A150000 		.4byte	0x159a
 3199 1531 2C       		.uleb128 0x2c
 3200 1532 73647000 		.ascii	"sdp\000"
 3201 1536 01       		.byte	0x1
 3202 1537 FB       		.byte	0xfb
 3203 1538 0F100000 		.4byte	0x100f
 3204 153c 6E010000 		.4byte	.LLST13
 3205 1540 3F       		.uleb128 0x3f
 3206 1541 BD000000 		.4byte	.LASF263
 3207 1545 01       		.byte	0x1
 3208 1546 FB       		.byte	0xfb
 3209 1547 11150000 		.4byte	0x1511
 3210 154b 8F010000 		.4byte	.LLST14
 3211 154f 40       		.uleb128 0x40
 3212 1550 E3140000 		.4byte	0x14e3
 3213 1554 20000000 		.4byte	.LBB254
 3214 1558 80000000 		.4byte	.Ldebug_ranges0+0x80
 3215 155c 01       		.byte	0x1
 3216 155d 0601     		.2byte	0x106
 3217 155f 85150000 		.4byte	0x1585
 3218 1563 39       		.uleb128 0x39
 3219 1564 FA140000 		.4byte	0x14fa
 3220 1568 CA010000 		.4byte	.LLST15
 3221 156c 39       		.uleb128 0x39
 3222 156d EF140000 		.4byte	0x14ef
 3223 1571 FA010000 		.4byte	.LLST16
 3224 1575 2F       		.uleb128 0x2f
 3225 1576 80000000 		.4byte	.Ldebug_ranges0+0x80
 3226 157a 30       		.uleb128 0x30
 3227 157b 05150000 		.4byte	0x1505
 3228 157f 0D020000 		.4byte	.LLST17
 3229 1583 00       		.byte	0
 3230 1584 00       		.byte	0
 3231 1585 33       		.uleb128 0x33
 3232 1586 7A000000 		.4byte	.LVL42
 3233 158a 7D160000 		.4byte	0x167d
 3234 158e 34       		.uleb128 0x34
 3235 158f 01       		.uleb128 0x1
 3236 1590 51       		.byte	0x51
 3237 1591 01       		.uleb128 0x1
 3238 1592 3C       		.byte	0x3c
 3239 1593 34       		.uleb128 0x34
 3240 1594 01       		.uleb128 0x1
 3241 1595 50       		.byte	0x50
 3242 1596 01       		.uleb128 0x1
 3243 1597 40       		.byte	0x40
ARM GAS  /tmp/ccBURVhG.s 			page 58


 3244 1598 00       		.byte	0
 3245 1599 00       		.byte	0
 3246 159a 41       		.uleb128 0x41
 3247 159b 100C0000 		.4byte	.LASF266
 3248 159f 01       		.byte	0x1
 3249 15a0 2901     		.2byte	0x129
 3250 15a2 00000000 		.4byte	.LFB274
 3251 15a6 30000000 		.4byte	.LFE274-.LFB274
 3252 15aa 01       		.uleb128 0x1
 3253 15ab 9C       		.byte	0x9c
 3254 15ac D0150000 		.4byte	0x15d0
 3255 15b0 42       		.uleb128 0x42
 3256 15b1 73647000 		.ascii	"sdp\000"
 3257 15b5 01       		.byte	0x1
 3258 15b6 2901     		.2byte	0x129
 3259 15b8 0F100000 		.4byte	0x100f
 3260 15bc 20020000 		.4byte	.LLST18
 3261 15c0 35       		.uleb128 0x35
 3262 15c1 16000000 		.4byte	.LVL47
 3263 15c5 93160000 		.4byte	0x1693
 3264 15c9 34       		.uleb128 0x34
 3265 15ca 01       		.uleb128 0x1
 3266 15cb 50       		.byte	0x50
 3267 15cc 01       		.uleb128 0x1
 3268 15cd 40       		.byte	0x40
 3269 15ce 00       		.byte	0
 3270 15cf 00       		.byte	0
 3271 15d0 43       		.uleb128 0x43
 3272 15d1 22020000 		.4byte	.LASF279
 3273 15d5 01       		.byte	0x1
 3274 15d6 3E       		.byte	0x3e
 3275 15d7 17150000 		.4byte	0x1517
 3276 15db 05       		.uleb128 0x5
 3277 15dc 03       		.byte	0x3
 3278 15dd 00000000 		.4byte	default_config
 3279 15e1 44       		.uleb128 0x44
 3280 15e2 43070000 		.4byte	.LASF267
 3281 15e6 14       		.byte	0x14
 3282 15e7 FA06     		.2byte	0x6fa
 3283 15e9 ED150000 		.4byte	0x15ed
 3284 15ed 11       		.uleb128 0x11
 3285 15ee 4C000000 		.4byte	0x4c
 3286 15f2 45       		.uleb128 0x45
 3287 15f3 636800   		.ascii	"ch\000"
 3288 15f6 09       		.byte	0x9
 3289 15f7 0902     		.2byte	0x209
 3290 15f9 BD030000 		.4byte	0x3bd
 3291 15fd 46       		.uleb128 0x46
 3292 15fe 53443100 		.ascii	"SD1\000"
 3293 1602 01       		.byte	0x1
 3294 1603 2C       		.byte	0x2c
 3295 1604 030E0000 		.4byte	0xe03
 3296 1608 05       		.uleb128 0x5
 3297 1609 03       		.byte	0x3
 3298 160a 00000000 		.4byte	SD1
 3299 160e 47       		.uleb128 0x47
 3300 160f 70080000 		.4byte	.LASF270
ARM GAS  /tmp/ccBURVhG.s 			page 59


 3301 1613 0F       		.byte	0xf
 3302 1614 87       		.byte	0x87
 3303 1615 24160000 		.4byte	0x1624
 3304 1619 0C       		.uleb128 0xc
 3305 161a CA0F0000 		.4byte	0xfca
 3306 161e 0C       		.uleb128 0xc
 3307 161f E1000000 		.4byte	0xe1
 3308 1623 00       		.byte	0
 3309 1624 48       		.uleb128 0x48
 3310 1625 ED070000 		.4byte	.LASF268
 3311 1629 04       		.byte	0x4
 3312 162a FA       		.byte	0xfa
 3313 162b CB000000 		.4byte	0xcb
 3314 162f 39160000 		.4byte	0x1639
 3315 1633 0C       		.uleb128 0xc
 3316 1634 39160000 		.4byte	0x1639
 3317 1638 00       		.byte	0
 3318 1639 09       		.uleb128 0x9
 3319 163a 04       		.byte	0x4
 3320 163b D20C0000 		.4byte	0xcd2
 3321 163f 48       		.uleb128 0x48
 3322 1640 24050000 		.4byte	.LASF269
 3323 1644 04       		.byte	0x4
 3324 1645 F1       		.byte	0xf1
 3325 1646 CB000000 		.4byte	0xcb
 3326 164a 59160000 		.4byte	0x1659
 3327 164e 0C       		.uleb128 0xc
 3328 164f 9E0F0000 		.4byte	0xf9e
 3329 1653 0C       		.uleb128 0xc
 3330 1654 5E000000 		.4byte	0x5e
 3331 1658 00       		.byte	0
 3332 1659 49       		.uleb128 0x49
 3333 165a 48080000 		.4byte	.LASF280
 3334 165e 0C       		.byte	0xc
 3335 165f 6F01     		.2byte	0x16f
 3336 1661 4A       		.uleb128 0x4a
 3337 1662 E2010000 		.4byte	.LASF271
 3338 1666 10       		.byte	0x10
 3339 1667 0F01     		.2byte	0x10f
 3340 1669 7D160000 		.4byte	0x167d
 3341 166d 0C       		.uleb128 0xc
 3342 166e 0F100000 		.4byte	0x100f
 3343 1672 0C       		.uleb128 0xc
 3344 1673 9A0C0000 		.4byte	0xc9a
 3345 1677 0C       		.uleb128 0xc
 3346 1678 9A0C0000 		.4byte	0xc9a
 3347 167c 00       		.byte	0
 3348 167d 47       		.uleb128 0x47
 3349 167e 9A0B0000 		.4byte	.LASF272
 3350 1682 13       		.byte	0x13
 3351 1683 4E       		.byte	0x4e
 3352 1684 93160000 		.4byte	0x1693
 3353 1688 0C       		.uleb128 0xc
 3354 1689 77000000 		.4byte	0x77
 3355 168d 0C       		.uleb128 0xc
 3356 168e 77000000 		.4byte	0x77
 3357 1692 00       		.byte	0
ARM GAS  /tmp/ccBURVhG.s 			page 60


 3358 1693 4B       		.uleb128 0x4b
 3359 1694 8E080000 		.4byte	.LASF281
 3360 1698 13       		.byte	0x13
 3361 1699 4F       		.byte	0x4f
 3362 169a 0C       		.uleb128 0xc
 3363 169b 77000000 		.4byte	0x77
 3364 169f 00       		.byte	0
 3365 16a0 00       		.byte	0
 3366              		.section	.debug_abbrev,"",%progbits
 3367              	.Ldebug_abbrev0:
 3368 0000 01       		.uleb128 0x1
 3369 0001 11       		.uleb128 0x11
 3370 0002 01       		.byte	0x1
 3371 0003 25       		.uleb128 0x25
 3372 0004 0E       		.uleb128 0xe
 3373 0005 13       		.uleb128 0x13
 3374 0006 0B       		.uleb128 0xb
 3375 0007 03       		.uleb128 0x3
 3376 0008 0E       		.uleb128 0xe
 3377 0009 1B       		.uleb128 0x1b
 3378 000a 0E       		.uleb128 0xe
 3379 000b 55       		.uleb128 0x55
 3380 000c 17       		.uleb128 0x17
 3381 000d 11       		.uleb128 0x11
 3382 000e 01       		.uleb128 0x1
 3383 000f 10       		.uleb128 0x10
 3384 0010 17       		.uleb128 0x17
 3385 0011 00       		.byte	0
 3386 0012 00       		.byte	0
 3387 0013 02       		.uleb128 0x2
 3388 0014 24       		.uleb128 0x24
 3389 0015 00       		.byte	0
 3390 0016 0B       		.uleb128 0xb
 3391 0017 0B       		.uleb128 0xb
 3392 0018 3E       		.uleb128 0x3e
 3393 0019 0B       		.uleb128 0xb
 3394 001a 03       		.uleb128 0x3
 3395 001b 08       		.uleb128 0x8
 3396 001c 00       		.byte	0
 3397 001d 00       		.byte	0
 3398 001e 03       		.uleb128 0x3
 3399 001f 16       		.uleb128 0x16
 3400 0020 00       		.byte	0
 3401 0021 03       		.uleb128 0x3
 3402 0022 0E       		.uleb128 0xe
 3403 0023 3A       		.uleb128 0x3a
 3404 0024 0B       		.uleb128 0xb
 3405 0025 3B       		.uleb128 0x3b
 3406 0026 0B       		.uleb128 0xb
 3407 0027 49       		.uleb128 0x49
 3408 0028 13       		.uleb128 0x13
 3409 0029 00       		.byte	0
 3410 002a 00       		.byte	0
 3411 002b 04       		.uleb128 0x4
 3412 002c 24       		.uleb128 0x24
 3413 002d 00       		.byte	0
 3414 002e 0B       		.uleb128 0xb
ARM GAS  /tmp/ccBURVhG.s 			page 61


 3415 002f 0B       		.uleb128 0xb
 3416 0030 3E       		.uleb128 0x3e
 3417 0031 0B       		.uleb128 0xb
 3418 0032 03       		.uleb128 0x3
 3419 0033 0E       		.uleb128 0xe
 3420 0034 00       		.byte	0
 3421 0035 00       		.byte	0
 3422 0036 05       		.uleb128 0x5
 3423 0037 13       		.uleb128 0x13
 3424 0038 01       		.byte	0x1
 3425 0039 03       		.uleb128 0x3
 3426 003a 0E       		.uleb128 0xe
 3427 003b 0B       		.uleb128 0xb
 3428 003c 0B       		.uleb128 0xb
 3429 003d 3A       		.uleb128 0x3a
 3430 003e 0B       		.uleb128 0xb
 3431 003f 3B       		.uleb128 0x3b
 3432 0040 0B       		.uleb128 0xb
 3433 0041 01       		.uleb128 0x1
 3434 0042 13       		.uleb128 0x13
 3435 0043 00       		.byte	0
 3436 0044 00       		.byte	0
 3437 0045 06       		.uleb128 0x6
 3438 0046 0D       		.uleb128 0xd
 3439 0047 00       		.byte	0
 3440 0048 03       		.uleb128 0x3
 3441 0049 0E       		.uleb128 0xe
 3442 004a 3A       		.uleb128 0x3a
 3443 004b 0B       		.uleb128 0xb
 3444 004c 3B       		.uleb128 0x3b
 3445 004d 0B       		.uleb128 0xb
 3446 004e 49       		.uleb128 0x49
 3447 004f 13       		.uleb128 0x13
 3448 0050 38       		.uleb128 0x38
 3449 0051 0B       		.uleb128 0xb
 3450 0052 00       		.byte	0
 3451 0053 00       		.byte	0
 3452 0054 07       		.uleb128 0x7
 3453 0055 0D       		.uleb128 0xd
 3454 0056 00       		.byte	0
 3455 0057 03       		.uleb128 0x3
 3456 0058 08       		.uleb128 0x8
 3457 0059 3A       		.uleb128 0x3a
 3458 005a 0B       		.uleb128 0xb
 3459 005b 3B       		.uleb128 0x3b
 3460 005c 05       		.uleb128 0x5
 3461 005d 49       		.uleb128 0x49
 3462 005e 13       		.uleb128 0x13
 3463 005f 38       		.uleb128 0x38
 3464 0060 0B       		.uleb128 0xb
 3465 0061 00       		.byte	0
 3466 0062 00       		.byte	0
 3467 0063 08       		.uleb128 0x8
 3468 0064 0D       		.uleb128 0xd
 3469 0065 00       		.byte	0
 3470 0066 03       		.uleb128 0x3
 3471 0067 0E       		.uleb128 0xe
ARM GAS  /tmp/ccBURVhG.s 			page 62


 3472 0068 3A       		.uleb128 0x3a
 3473 0069 0B       		.uleb128 0xb
 3474 006a 3B       		.uleb128 0x3b
 3475 006b 05       		.uleb128 0x5
 3476 006c 49       		.uleb128 0x49
 3477 006d 13       		.uleb128 0x13
 3478 006e 38       		.uleb128 0x38
 3479 006f 0B       		.uleb128 0xb
 3480 0070 00       		.byte	0
 3481 0071 00       		.byte	0
 3482 0072 09       		.uleb128 0x9
 3483 0073 0F       		.uleb128 0xf
 3484 0074 00       		.byte	0
 3485 0075 0B       		.uleb128 0xb
 3486 0076 0B       		.uleb128 0xb
 3487 0077 49       		.uleb128 0x49
 3488 0078 13       		.uleb128 0x13
 3489 0079 00       		.byte	0
 3490 007a 00       		.byte	0
 3491 007b 0A       		.uleb128 0xa
 3492 007c 13       		.uleb128 0x13
 3493 007d 01       		.byte	0x1
 3494 007e 03       		.uleb128 0x3
 3495 007f 0E       		.uleb128 0xe
 3496 0080 0B       		.uleb128 0xb
 3497 0081 0B       		.uleb128 0xb
 3498 0082 3A       		.uleb128 0x3a
 3499 0083 0B       		.uleb128 0xb
 3500 0084 3B       		.uleb128 0x3b
 3501 0085 05       		.uleb128 0x5
 3502 0086 01       		.uleb128 0x1
 3503 0087 13       		.uleb128 0x13
 3504 0088 00       		.byte	0
 3505 0089 00       		.byte	0
 3506 008a 0B       		.uleb128 0xb
 3507 008b 15       		.uleb128 0x15
 3508 008c 01       		.byte	0x1
 3509 008d 27       		.uleb128 0x27
 3510 008e 19       		.uleb128 0x19
 3511 008f 01       		.uleb128 0x1
 3512 0090 13       		.uleb128 0x13
 3513 0091 00       		.byte	0
 3514 0092 00       		.byte	0
 3515 0093 0C       		.uleb128 0xc
 3516 0094 05       		.uleb128 0x5
 3517 0095 00       		.byte	0
 3518 0096 49       		.uleb128 0x49
 3519 0097 13       		.uleb128 0x13
 3520 0098 00       		.byte	0
 3521 0099 00       		.byte	0
 3522 009a 0D       		.uleb128 0xd
 3523 009b 0F       		.uleb128 0xf
 3524 009c 00       		.byte	0
 3525 009d 0B       		.uleb128 0xb
 3526 009e 0B       		.uleb128 0xb
 3527 009f 00       		.byte	0
 3528 00a0 00       		.byte	0
ARM GAS  /tmp/ccBURVhG.s 			page 63


 3529 00a1 0E       		.uleb128 0xe
 3530 00a2 13       		.uleb128 0x13
 3531 00a3 01       		.byte	0x1
 3532 00a4 03       		.uleb128 0x3
 3533 00a5 0E       		.uleb128 0xe
 3534 00a6 0B       		.uleb128 0xb
 3535 00a7 05       		.uleb128 0x5
 3536 00a8 3A       		.uleb128 0x3a
 3537 00a9 0B       		.uleb128 0xb
 3538 00aa 3B       		.uleb128 0x3b
 3539 00ab 05       		.uleb128 0x5
 3540 00ac 01       		.uleb128 0x1
 3541 00ad 13       		.uleb128 0x13
 3542 00ae 00       		.byte	0
 3543 00af 00       		.byte	0
 3544 00b0 0F       		.uleb128 0xf
 3545 00b1 04       		.uleb128 0x4
 3546 00b2 01       		.byte	0x1
 3547 00b3 03       		.uleb128 0x3
 3548 00b4 0E       		.uleb128 0xe
 3549 00b5 0B       		.uleb128 0xb
 3550 00b6 0B       		.uleb128 0xb
 3551 00b7 3A       		.uleb128 0x3a
 3552 00b8 0B       		.uleb128 0xb
 3553 00b9 3B       		.uleb128 0x3b
 3554 00ba 0B       		.uleb128 0xb
 3555 00bb 01       		.uleb128 0x1
 3556 00bc 13       		.uleb128 0x13
 3557 00bd 00       		.byte	0
 3558 00be 00       		.byte	0
 3559 00bf 10       		.uleb128 0x10
 3560 00c0 28       		.uleb128 0x28
 3561 00c1 00       		.byte	0
 3562 00c2 03       		.uleb128 0x3
 3563 00c3 0E       		.uleb128 0xe
 3564 00c4 1C       		.uleb128 0x1c
 3565 00c5 0D       		.uleb128 0xd
 3566 00c6 00       		.byte	0
 3567 00c7 00       		.byte	0
 3568 00c8 11       		.uleb128 0x11
 3569 00c9 35       		.uleb128 0x35
 3570 00ca 00       		.byte	0
 3571 00cb 49       		.uleb128 0x49
 3572 00cc 13       		.uleb128 0x13
 3573 00cd 00       		.byte	0
 3574 00ce 00       		.byte	0
 3575 00cf 12       		.uleb128 0x12
 3576 00d0 26       		.uleb128 0x26
 3577 00d1 00       		.byte	0
 3578 00d2 49       		.uleb128 0x49
 3579 00d3 13       		.uleb128 0x13
 3580 00d4 00       		.byte	0
 3581 00d5 00       		.byte	0
 3582 00d6 13       		.uleb128 0x13
 3583 00d7 01       		.uleb128 0x1
 3584 00d8 01       		.byte	0x1
 3585 00d9 49       		.uleb128 0x49
ARM GAS  /tmp/ccBURVhG.s 			page 64


 3586 00da 13       		.uleb128 0x13
 3587 00db 01       		.uleb128 0x1
 3588 00dc 13       		.uleb128 0x13
 3589 00dd 00       		.byte	0
 3590 00de 00       		.byte	0
 3591 00df 14       		.uleb128 0x14
 3592 00e0 21       		.uleb128 0x21
 3593 00e1 00       		.byte	0
 3594 00e2 49       		.uleb128 0x49
 3595 00e3 13       		.uleb128 0x13
 3596 00e4 2F       		.uleb128 0x2f
 3597 00e5 0B       		.uleb128 0xb
 3598 00e6 00       		.byte	0
 3599 00e7 00       		.byte	0
 3600 00e8 15       		.uleb128 0x15
 3601 00e9 13       		.uleb128 0x13
 3602 00ea 01       		.byte	0x1
 3603 00eb 0B       		.uleb128 0xb
 3604 00ec 05       		.uleb128 0x5
 3605 00ed 3A       		.uleb128 0x3a
 3606 00ee 0B       		.uleb128 0xb
 3607 00ef 3B       		.uleb128 0x3b
 3608 00f0 0B       		.uleb128 0xb
 3609 00f1 01       		.uleb128 0x1
 3610 00f2 13       		.uleb128 0x13
 3611 00f3 00       		.byte	0
 3612 00f4 00       		.byte	0
 3613 00f5 16       		.uleb128 0x16
 3614 00f6 0D       		.uleb128 0xd
 3615 00f7 00       		.byte	0
 3616 00f8 03       		.uleb128 0x3
 3617 00f9 0E       		.uleb128 0xe
 3618 00fa 3A       		.uleb128 0x3a
 3619 00fb 0B       		.uleb128 0xb
 3620 00fc 3B       		.uleb128 0x3b
 3621 00fd 0B       		.uleb128 0xb
 3622 00fe 49       		.uleb128 0x49
 3623 00ff 13       		.uleb128 0x13
 3624 0100 38       		.uleb128 0x38
 3625 0101 05       		.uleb128 0x5
 3626 0102 00       		.byte	0
 3627 0103 00       		.byte	0
 3628 0104 17       		.uleb128 0x17
 3629 0105 21       		.uleb128 0x21
 3630 0106 00       		.byte	0
 3631 0107 49       		.uleb128 0x49
 3632 0108 13       		.uleb128 0x13
 3633 0109 2F       		.uleb128 0x2f
 3634 010a 05       		.uleb128 0x5
 3635 010b 00       		.byte	0
 3636 010c 00       		.byte	0
 3637 010d 18       		.uleb128 0x18
 3638 010e 17       		.uleb128 0x17
 3639 010f 01       		.byte	0x1
 3640 0110 0B       		.uleb128 0xb
 3641 0111 0B       		.uleb128 0xb
 3642 0112 3A       		.uleb128 0x3a
ARM GAS  /tmp/ccBURVhG.s 			page 65


 3643 0113 0B       		.uleb128 0xb
 3644 0114 3B       		.uleb128 0x3b
 3645 0115 05       		.uleb128 0x5
 3646 0116 01       		.uleb128 0x1
 3647 0117 13       		.uleb128 0x13
 3648 0118 00       		.byte	0
 3649 0119 00       		.byte	0
 3650 011a 19       		.uleb128 0x19
 3651 011b 0D       		.uleb128 0xd
 3652 011c 00       		.byte	0
 3653 011d 03       		.uleb128 0x3
 3654 011e 0E       		.uleb128 0xe
 3655 011f 3A       		.uleb128 0x3a
 3656 0120 0B       		.uleb128 0xb
 3657 0121 3B       		.uleb128 0x3b
 3658 0122 05       		.uleb128 0x5
 3659 0123 49       		.uleb128 0x49
 3660 0124 13       		.uleb128 0x13
 3661 0125 00       		.byte	0
 3662 0126 00       		.byte	0
 3663 0127 1A       		.uleb128 0x1a
 3664 0128 13       		.uleb128 0x13
 3665 0129 01       		.byte	0x1
 3666 012a 0B       		.uleb128 0xb
 3667 012b 0B       		.uleb128 0xb
 3668 012c 3A       		.uleb128 0x3a
 3669 012d 0B       		.uleb128 0xb
 3670 012e 3B       		.uleb128 0x3b
 3671 012f 05       		.uleb128 0x5
 3672 0130 01       		.uleb128 0x1
 3673 0131 13       		.uleb128 0x13
 3674 0132 00       		.byte	0
 3675 0133 00       		.byte	0
 3676 0134 1B       		.uleb128 0x1b
 3677 0135 0D       		.uleb128 0xd
 3678 0136 00       		.byte	0
 3679 0137 49       		.uleb128 0x49
 3680 0138 13       		.uleb128 0x13
 3681 0139 38       		.uleb128 0x38
 3682 013a 0B       		.uleb128 0xb
 3683 013b 00       		.byte	0
 3684 013c 00       		.byte	0
 3685 013d 1C       		.uleb128 0x1c
 3686 013e 16       		.uleb128 0x16
 3687 013f 00       		.byte	0
 3688 0140 03       		.uleb128 0x3
 3689 0141 0E       		.uleb128 0xe
 3690 0142 3A       		.uleb128 0x3a
 3691 0143 0B       		.uleb128 0xb
 3692 0144 3B       		.uleb128 0x3b
 3693 0145 05       		.uleb128 0x5
 3694 0146 49       		.uleb128 0x49
 3695 0147 13       		.uleb128 0x13
 3696 0148 00       		.byte	0
 3697 0149 00       		.byte	0
 3698 014a 1D       		.uleb128 0x1d
 3699 014b 0D       		.uleb128 0xd
ARM GAS  /tmp/ccBURVhG.s 			page 66


 3700 014c 00       		.byte	0
 3701 014d 03       		.uleb128 0x3
 3702 014e 08       		.uleb128 0x8
 3703 014f 3A       		.uleb128 0x3a
 3704 0150 0B       		.uleb128 0xb
 3705 0151 3B       		.uleb128 0x3b
 3706 0152 0B       		.uleb128 0xb
 3707 0153 49       		.uleb128 0x49
 3708 0154 13       		.uleb128 0x13
 3709 0155 38       		.uleb128 0x38
 3710 0156 0B       		.uleb128 0xb
 3711 0157 00       		.byte	0
 3712 0158 00       		.byte	0
 3713 0159 1E       		.uleb128 0x1e
 3714 015a 17       		.uleb128 0x17
 3715 015b 01       		.byte	0x1
 3716 015c 0B       		.uleb128 0xb
 3717 015d 0B       		.uleb128 0xb
 3718 015e 3A       		.uleb128 0x3a
 3719 015f 0B       		.uleb128 0xb
 3720 0160 3B       		.uleb128 0x3b
 3721 0161 0B       		.uleb128 0xb
 3722 0162 01       		.uleb128 0x1
 3723 0163 13       		.uleb128 0x13
 3724 0164 00       		.byte	0
 3725 0165 00       		.byte	0
 3726 0166 1F       		.uleb128 0x1f
 3727 0167 15       		.uleb128 0x15
 3728 0168 01       		.byte	0x1
 3729 0169 27       		.uleb128 0x27
 3730 016a 19       		.uleb128 0x19
 3731 016b 49       		.uleb128 0x49
 3732 016c 13       		.uleb128 0x13
 3733 016d 01       		.uleb128 0x1
 3734 016e 13       		.uleb128 0x13
 3735 016f 00       		.byte	0
 3736 0170 00       		.byte	0
 3737 0171 20       		.uleb128 0x20
 3738 0172 04       		.uleb128 0x4
 3739 0173 01       		.byte	0x1
 3740 0174 0B       		.uleb128 0xb
 3741 0175 0B       		.uleb128 0xb
 3742 0176 3A       		.uleb128 0x3a
 3743 0177 0B       		.uleb128 0xb
 3744 0178 3B       		.uleb128 0x3b
 3745 0179 0B       		.uleb128 0xb
 3746 017a 01       		.uleb128 0x1
 3747 017b 13       		.uleb128 0x13
 3748 017c 00       		.byte	0
 3749 017d 00       		.byte	0
 3750 017e 21       		.uleb128 0x21
 3751 017f 13       		.uleb128 0x13
 3752 0180 01       		.byte	0x1
 3753 0181 0B       		.uleb128 0xb
 3754 0182 0B       		.uleb128 0xb
 3755 0183 3A       		.uleb128 0x3a
 3756 0184 0B       		.uleb128 0xb
ARM GAS  /tmp/ccBURVhG.s 			page 67


 3757 0185 3B       		.uleb128 0x3b
 3758 0186 0B       		.uleb128 0xb
 3759 0187 01       		.uleb128 0x1
 3760 0188 13       		.uleb128 0x13
 3761 0189 00       		.byte	0
 3762 018a 00       		.byte	0
 3763 018b 22       		.uleb128 0x22
 3764 018c 2E       		.uleb128 0x2e
 3765 018d 01       		.byte	0x1
 3766 018e 03       		.uleb128 0x3
 3767 018f 0E       		.uleb128 0xe
 3768 0190 3A       		.uleb128 0x3a
 3769 0191 0B       		.uleb128 0xb
 3770 0192 3B       		.uleb128 0x3b
 3771 0193 05       		.uleb128 0x5
 3772 0194 27       		.uleb128 0x27
 3773 0195 19       		.uleb128 0x19
 3774 0196 20       		.uleb128 0x20
 3775 0197 0B       		.uleb128 0xb
 3776 0198 01       		.uleb128 0x1
 3777 0199 13       		.uleb128 0x13
 3778 019a 00       		.byte	0
 3779 019b 00       		.byte	0
 3780 019c 23       		.uleb128 0x23
 3781 019d 05       		.uleb128 0x5
 3782 019e 00       		.byte	0
 3783 019f 03       		.uleb128 0x3
 3784 01a0 0E       		.uleb128 0xe
 3785 01a1 3A       		.uleb128 0x3a
 3786 01a2 0B       		.uleb128 0xb
 3787 01a3 3B       		.uleb128 0x3b
 3788 01a4 05       		.uleb128 0x5
 3789 01a5 49       		.uleb128 0x49
 3790 01a6 13       		.uleb128 0x13
 3791 01a7 00       		.byte	0
 3792 01a8 00       		.byte	0
 3793 01a9 24       		.uleb128 0x24
 3794 01aa 2E       		.uleb128 0x2e
 3795 01ab 00       		.byte	0
 3796 01ac 03       		.uleb128 0x3
 3797 01ad 0E       		.uleb128 0xe
 3798 01ae 3A       		.uleb128 0x3a
 3799 01af 0B       		.uleb128 0xb
 3800 01b0 3B       		.uleb128 0x3b
 3801 01b1 05       		.uleb128 0x5
 3802 01b2 27       		.uleb128 0x27
 3803 01b3 19       		.uleb128 0x19
 3804 01b4 20       		.uleb128 0x20
 3805 01b5 0B       		.uleb128 0xb
 3806 01b6 00       		.byte	0
 3807 01b7 00       		.byte	0
 3808 01b8 25       		.uleb128 0x25
 3809 01b9 2E       		.uleb128 0x2e
 3810 01ba 01       		.byte	0x1
 3811 01bb 03       		.uleb128 0x3
 3812 01bc 0E       		.uleb128 0xe
 3813 01bd 3A       		.uleb128 0x3a
ARM GAS  /tmp/ccBURVhG.s 			page 68


 3814 01be 0B       		.uleb128 0xb
 3815 01bf 3B       		.uleb128 0x3b
 3816 01c0 05       		.uleb128 0x5
 3817 01c1 27       		.uleb128 0x27
 3818 01c2 19       		.uleb128 0x19
 3819 01c3 49       		.uleb128 0x49
 3820 01c4 13       		.uleb128 0x13
 3821 01c5 20       		.uleb128 0x20
 3822 01c6 0B       		.uleb128 0xb
 3823 01c7 01       		.uleb128 0x1
 3824 01c8 13       		.uleb128 0x13
 3825 01c9 00       		.byte	0
 3826 01ca 00       		.byte	0
 3827 01cb 26       		.uleb128 0x26
 3828 01cc 05       		.uleb128 0x5
 3829 01cd 00       		.byte	0
 3830 01ce 03       		.uleb128 0x3
 3831 01cf 08       		.uleb128 0x8
 3832 01d0 3A       		.uleb128 0x3a
 3833 01d1 0B       		.uleb128 0xb
 3834 01d2 3B       		.uleb128 0x3b
 3835 01d3 05       		.uleb128 0x5
 3836 01d4 49       		.uleb128 0x49
 3837 01d5 13       		.uleb128 0x13
 3838 01d6 00       		.byte	0
 3839 01d7 00       		.byte	0
 3840 01d8 27       		.uleb128 0x27
 3841 01d9 2E       		.uleb128 0x2e
 3842 01da 01       		.byte	0x1
 3843 01db 03       		.uleb128 0x3
 3844 01dc 0E       		.uleb128 0xe
 3845 01dd 3A       		.uleb128 0x3a
 3846 01de 0B       		.uleb128 0xb
 3847 01df 3B       		.uleb128 0x3b
 3848 01e0 0B       		.uleb128 0xb
 3849 01e1 27       		.uleb128 0x27
 3850 01e2 19       		.uleb128 0x19
 3851 01e3 20       		.uleb128 0x20
 3852 01e4 0B       		.uleb128 0xb
 3853 01e5 01       		.uleb128 0x1
 3854 01e6 13       		.uleb128 0x13
 3855 01e7 00       		.byte	0
 3856 01e8 00       		.byte	0
 3857 01e9 28       		.uleb128 0x28
 3858 01ea 05       		.uleb128 0x5
 3859 01eb 00       		.byte	0
 3860 01ec 03       		.uleb128 0x3
 3861 01ed 08       		.uleb128 0x8
 3862 01ee 3A       		.uleb128 0x3a
 3863 01ef 0B       		.uleb128 0xb
 3864 01f0 3B       		.uleb128 0x3b
 3865 01f1 0B       		.uleb128 0xb
 3866 01f2 49       		.uleb128 0x49
 3867 01f3 13       		.uleb128 0x13
 3868 01f4 00       		.byte	0
 3869 01f5 00       		.byte	0
 3870 01f6 29       		.uleb128 0x29
ARM GAS  /tmp/ccBURVhG.s 			page 69


 3871 01f7 34       		.uleb128 0x34
 3872 01f8 00       		.byte	0
 3873 01f9 03       		.uleb128 0x3
 3874 01fa 08       		.uleb128 0x8
 3875 01fb 3A       		.uleb128 0x3a
 3876 01fc 0B       		.uleb128 0xb
 3877 01fd 3B       		.uleb128 0x3b
 3878 01fe 0B       		.uleb128 0xb
 3879 01ff 49       		.uleb128 0x49
 3880 0200 13       		.uleb128 0x13
 3881 0201 00       		.byte	0
 3882 0202 00       		.byte	0
 3883 0203 2A       		.uleb128 0x2a
 3884 0204 0B       		.uleb128 0xb
 3885 0205 01       		.byte	0x1
 3886 0206 00       		.byte	0
 3887 0207 00       		.byte	0
 3888 0208 2B       		.uleb128 0x2b
 3889 0209 2E       		.uleb128 0x2e
 3890 020a 01       		.byte	0x1
 3891 020b 03       		.uleb128 0x3
 3892 020c 0E       		.uleb128 0xe
 3893 020d 3A       		.uleb128 0x3a
 3894 020e 0B       		.uleb128 0xb
 3895 020f 3B       		.uleb128 0x3b
 3896 0210 0B       		.uleb128 0xb
 3897 0211 27       		.uleb128 0x27
 3898 0212 19       		.uleb128 0x19
 3899 0213 11       		.uleb128 0x11
 3900 0214 01       		.uleb128 0x1
 3901 0215 12       		.uleb128 0x12
 3902 0216 06       		.uleb128 0x6
 3903 0217 40       		.uleb128 0x40
 3904 0218 18       		.uleb128 0x18
 3905 0219 9742     		.uleb128 0x2117
 3906 021b 19       		.uleb128 0x19
 3907 021c 01       		.uleb128 0x1
 3908 021d 13       		.uleb128 0x13
 3909 021e 00       		.byte	0
 3910 021f 00       		.byte	0
 3911 0220 2C       		.uleb128 0x2c
 3912 0221 05       		.uleb128 0x5
 3913 0222 00       		.byte	0
 3914 0223 03       		.uleb128 0x3
 3915 0224 08       		.uleb128 0x8
 3916 0225 3A       		.uleb128 0x3a
 3917 0226 0B       		.uleb128 0xb
 3918 0227 3B       		.uleb128 0x3b
 3919 0228 0B       		.uleb128 0xb
 3920 0229 49       		.uleb128 0x49
 3921 022a 13       		.uleb128 0x13
 3922 022b 02       		.uleb128 0x2
 3923 022c 17       		.uleb128 0x17
 3924 022d 00       		.byte	0
 3925 022e 00       		.byte	0
 3926 022f 2D       		.uleb128 0x2d
 3927 0230 1D       		.uleb128 0x1d
ARM GAS  /tmp/ccBURVhG.s 			page 70


 3928 0231 01       		.byte	0x1
 3929 0232 31       		.uleb128 0x31
 3930 0233 13       		.uleb128 0x13
 3931 0234 52       		.uleb128 0x52
 3932 0235 01       		.uleb128 0x1
 3933 0236 55       		.uleb128 0x55
 3934 0237 17       		.uleb128 0x17
 3935 0238 58       		.uleb128 0x58
 3936 0239 0B       		.uleb128 0xb
 3937 023a 59       		.uleb128 0x59
 3938 023b 0B       		.uleb128 0xb
 3939 023c 00       		.byte	0
 3940 023d 00       		.byte	0
 3941 023e 2E       		.uleb128 0x2e
 3942 023f 05       		.uleb128 0x5
 3943 0240 00       		.byte	0
 3944 0241 31       		.uleb128 0x31
 3945 0242 13       		.uleb128 0x13
 3946 0243 02       		.uleb128 0x2
 3947 0244 18       		.uleb128 0x18
 3948 0245 00       		.byte	0
 3949 0246 00       		.byte	0
 3950 0247 2F       		.uleb128 0x2f
 3951 0248 0B       		.uleb128 0xb
 3952 0249 01       		.byte	0x1
 3953 024a 55       		.uleb128 0x55
 3954 024b 17       		.uleb128 0x17
 3955 024c 00       		.byte	0
 3956 024d 00       		.byte	0
 3957 024e 30       		.uleb128 0x30
 3958 024f 34       		.uleb128 0x34
 3959 0250 00       		.byte	0
 3960 0251 31       		.uleb128 0x31
 3961 0252 13       		.uleb128 0x13
 3962 0253 02       		.uleb128 0x2
 3963 0254 17       		.uleb128 0x17
 3964 0255 00       		.byte	0
 3965 0256 00       		.byte	0
 3966 0257 31       		.uleb128 0x31
 3967 0258 1D       		.uleb128 0x1d
 3968 0259 01       		.byte	0x1
 3969 025a 31       		.uleb128 0x31
 3970 025b 13       		.uleb128 0x13
 3971 025c 52       		.uleb128 0x52
 3972 025d 01       		.uleb128 0x1
 3973 025e 55       		.uleb128 0x55
 3974 025f 17       		.uleb128 0x17
 3975 0260 58       		.uleb128 0x58
 3976 0261 0B       		.uleb128 0xb
 3977 0262 59       		.uleb128 0x59
 3978 0263 0B       		.uleb128 0xb
 3979 0264 01       		.uleb128 0x1
 3980 0265 13       		.uleb128 0x13
 3981 0266 00       		.byte	0
 3982 0267 00       		.byte	0
 3983 0268 32       		.uleb128 0x32
 3984 0269 05       		.uleb128 0x5
ARM GAS  /tmp/ccBURVhG.s 			page 71


 3985 026a 00       		.byte	0
 3986 026b 31       		.uleb128 0x31
 3987 026c 13       		.uleb128 0x13
 3988 026d 1C       		.uleb128 0x1c
 3989 026e 0B       		.uleb128 0xb
 3990 026f 00       		.byte	0
 3991 0270 00       		.byte	0
 3992 0271 33       		.uleb128 0x33
 3993 0272 898201   		.uleb128 0x4109
 3994 0275 01       		.byte	0x1
 3995 0276 11       		.uleb128 0x11
 3996 0277 01       		.uleb128 0x1
 3997 0278 9542     		.uleb128 0x2115
 3998 027a 19       		.uleb128 0x19
 3999 027b 31       		.uleb128 0x31
 4000 027c 13       		.uleb128 0x13
 4001 027d 00       		.byte	0
 4002 027e 00       		.byte	0
 4003 027f 34       		.uleb128 0x34
 4004 0280 8A8201   		.uleb128 0x410a
 4005 0283 00       		.byte	0
 4006 0284 02       		.uleb128 0x2
 4007 0285 18       		.uleb128 0x18
 4008 0286 9142     		.uleb128 0x2111
 4009 0288 18       		.uleb128 0x18
 4010 0289 00       		.byte	0
 4011 028a 00       		.byte	0
 4012 028b 35       		.uleb128 0x35
 4013 028c 898201   		.uleb128 0x4109
 4014 028f 01       		.byte	0x1
 4015 0290 11       		.uleb128 0x11
 4016 0291 01       		.uleb128 0x1
 4017 0292 31       		.uleb128 0x31
 4018 0293 13       		.uleb128 0x13
 4019 0294 00       		.byte	0
 4020 0295 00       		.byte	0
 4021 0296 36       		.uleb128 0x36
 4022 0297 2E       		.uleb128 0x2e
 4023 0298 01       		.byte	0x1
 4024 0299 3F       		.uleb128 0x3f
 4025 029a 19       		.uleb128 0x19
 4026 029b 03       		.uleb128 0x3
 4027 029c 0E       		.uleb128 0xe
 4028 029d 3A       		.uleb128 0x3a
 4029 029e 0B       		.uleb128 0xb
 4030 029f 3B       		.uleb128 0x3b
 4031 02a0 0B       		.uleb128 0xb
 4032 02a1 27       		.uleb128 0x27
 4033 02a2 19       		.uleb128 0x19
 4034 02a3 11       		.uleb128 0x11
 4035 02a4 01       		.uleb128 0x1
 4036 02a5 12       		.uleb128 0x12
 4037 02a6 06       		.uleb128 0x6
 4038 02a7 40       		.uleb128 0x40
 4039 02a8 18       		.uleb128 0x18
 4040 02a9 9742     		.uleb128 0x2117
 4041 02ab 19       		.uleb128 0x19
ARM GAS  /tmp/ccBURVhG.s 			page 72


 4042 02ac 01       		.uleb128 0x1
 4043 02ad 13       		.uleb128 0x13
 4044 02ae 00       		.byte	0
 4045 02af 00       		.byte	0
 4046 02b0 37       		.uleb128 0x37
 4047 02b1 1D       		.uleb128 0x1d
 4048 02b2 01       		.byte	0x1
 4049 02b3 31       		.uleb128 0x31
 4050 02b4 13       		.uleb128 0x13
 4051 02b5 11       		.uleb128 0x11
 4052 02b6 01       		.uleb128 0x1
 4053 02b7 12       		.uleb128 0x12
 4054 02b8 06       		.uleb128 0x6
 4055 02b9 58       		.uleb128 0x58
 4056 02ba 0B       		.uleb128 0xb
 4057 02bb 59       		.uleb128 0x59
 4058 02bc 0B       		.uleb128 0xb
 4059 02bd 01       		.uleb128 0x1
 4060 02be 13       		.uleb128 0x13
 4061 02bf 00       		.byte	0
 4062 02c0 00       		.byte	0
 4063 02c1 38       		.uleb128 0x38
 4064 02c2 1D       		.uleb128 0x1d
 4065 02c3 01       		.byte	0x1
 4066 02c4 31       		.uleb128 0x31
 4067 02c5 13       		.uleb128 0x13
 4068 02c6 11       		.uleb128 0x11
 4069 02c7 01       		.uleb128 0x1
 4070 02c8 12       		.uleb128 0x12
 4071 02c9 06       		.uleb128 0x6
 4072 02ca 58       		.uleb128 0x58
 4073 02cb 0B       		.uleb128 0xb
 4074 02cc 59       		.uleb128 0x59
 4075 02cd 05       		.uleb128 0x5
 4076 02ce 00       		.byte	0
 4077 02cf 00       		.byte	0
 4078 02d0 39       		.uleb128 0x39
 4079 02d1 05       		.uleb128 0x5
 4080 02d2 00       		.byte	0
 4081 02d3 31       		.uleb128 0x31
 4082 02d4 13       		.uleb128 0x13
 4083 02d5 02       		.uleb128 0x2
 4084 02d6 17       		.uleb128 0x17
 4085 02d7 00       		.byte	0
 4086 02d8 00       		.byte	0
 4087 02d9 3A       		.uleb128 0x3a
 4088 02da 0B       		.uleb128 0xb
 4089 02db 01       		.byte	0x1
 4090 02dc 55       		.uleb128 0x55
 4091 02dd 17       		.uleb128 0x17
 4092 02de 01       		.uleb128 0x1
 4093 02df 13       		.uleb128 0x13
 4094 02e0 00       		.byte	0
 4095 02e1 00       		.byte	0
 4096 02e2 3B       		.uleb128 0x3b
 4097 02e3 898201   		.uleb128 0x4109
 4098 02e6 01       		.byte	0x1
ARM GAS  /tmp/ccBURVhG.s 			page 73


 4099 02e7 11       		.uleb128 0x11
 4100 02e8 01       		.uleb128 0x1
 4101 02e9 31       		.uleb128 0x31
 4102 02ea 13       		.uleb128 0x13
 4103 02eb 01       		.uleb128 0x1
 4104 02ec 13       		.uleb128 0x13
 4105 02ed 00       		.byte	0
 4106 02ee 00       		.byte	0
 4107 02ef 3C       		.uleb128 0x3c
 4108 02f0 898201   		.uleb128 0x4109
 4109 02f3 00       		.byte	0
 4110 02f4 11       		.uleb128 0x11
 4111 02f5 01       		.uleb128 0x1
 4112 02f6 9542     		.uleb128 0x2115
 4113 02f8 19       		.uleb128 0x19
 4114 02f9 31       		.uleb128 0x31
 4115 02fa 13       		.uleb128 0x13
 4116 02fb 00       		.byte	0
 4117 02fc 00       		.byte	0
 4118 02fd 3D       		.uleb128 0x3d
 4119 02fe 05       		.uleb128 0x5
 4120 02ff 00       		.byte	0
 4121 0300 03       		.uleb128 0x3
 4122 0301 0E       		.uleb128 0xe
 4123 0302 3A       		.uleb128 0x3a
 4124 0303 0B       		.uleb128 0xb
 4125 0304 3B       		.uleb128 0x3b
 4126 0305 0B       		.uleb128 0xb
 4127 0306 49       		.uleb128 0x49
 4128 0307 13       		.uleb128 0x13
 4129 0308 00       		.byte	0
 4130 0309 00       		.byte	0
 4131 030a 3E       		.uleb128 0x3e
 4132 030b 34       		.uleb128 0x34
 4133 030c 00       		.byte	0
 4134 030d 03       		.uleb128 0x3
 4135 030e 0E       		.uleb128 0xe
 4136 030f 3A       		.uleb128 0x3a
 4137 0310 0B       		.uleb128 0xb
 4138 0311 3B       		.uleb128 0x3b
 4139 0312 0B       		.uleb128 0xb
 4140 0313 49       		.uleb128 0x49
 4141 0314 13       		.uleb128 0x13
 4142 0315 00       		.byte	0
 4143 0316 00       		.byte	0
 4144 0317 3F       		.uleb128 0x3f
 4145 0318 05       		.uleb128 0x5
 4146 0319 00       		.byte	0
 4147 031a 03       		.uleb128 0x3
 4148 031b 0E       		.uleb128 0xe
 4149 031c 3A       		.uleb128 0x3a
 4150 031d 0B       		.uleb128 0xb
 4151 031e 3B       		.uleb128 0x3b
 4152 031f 0B       		.uleb128 0xb
 4153 0320 49       		.uleb128 0x49
 4154 0321 13       		.uleb128 0x13
 4155 0322 02       		.uleb128 0x2
ARM GAS  /tmp/ccBURVhG.s 			page 74


 4156 0323 17       		.uleb128 0x17
 4157 0324 00       		.byte	0
 4158 0325 00       		.byte	0
 4159 0326 40       		.uleb128 0x40
 4160 0327 1D       		.uleb128 0x1d
 4161 0328 01       		.byte	0x1
 4162 0329 31       		.uleb128 0x31
 4163 032a 13       		.uleb128 0x13
 4164 032b 52       		.uleb128 0x52
 4165 032c 01       		.uleb128 0x1
 4166 032d 55       		.uleb128 0x55
 4167 032e 17       		.uleb128 0x17
 4168 032f 58       		.uleb128 0x58
 4169 0330 0B       		.uleb128 0xb
 4170 0331 59       		.uleb128 0x59
 4171 0332 05       		.uleb128 0x5
 4172 0333 01       		.uleb128 0x1
 4173 0334 13       		.uleb128 0x13
 4174 0335 00       		.byte	0
 4175 0336 00       		.byte	0
 4176 0337 41       		.uleb128 0x41
 4177 0338 2E       		.uleb128 0x2e
 4178 0339 01       		.byte	0x1
 4179 033a 3F       		.uleb128 0x3f
 4180 033b 19       		.uleb128 0x19
 4181 033c 03       		.uleb128 0x3
 4182 033d 0E       		.uleb128 0xe
 4183 033e 3A       		.uleb128 0x3a
 4184 033f 0B       		.uleb128 0xb
 4185 0340 3B       		.uleb128 0x3b
 4186 0341 05       		.uleb128 0x5
 4187 0342 27       		.uleb128 0x27
 4188 0343 19       		.uleb128 0x19
 4189 0344 11       		.uleb128 0x11
 4190 0345 01       		.uleb128 0x1
 4191 0346 12       		.uleb128 0x12
 4192 0347 06       		.uleb128 0x6
 4193 0348 40       		.uleb128 0x40
 4194 0349 18       		.uleb128 0x18
 4195 034a 9742     		.uleb128 0x2117
 4196 034c 19       		.uleb128 0x19
 4197 034d 01       		.uleb128 0x1
 4198 034e 13       		.uleb128 0x13
 4199 034f 00       		.byte	0
 4200 0350 00       		.byte	0
 4201 0351 42       		.uleb128 0x42
 4202 0352 05       		.uleb128 0x5
 4203 0353 00       		.byte	0
 4204 0354 03       		.uleb128 0x3
 4205 0355 08       		.uleb128 0x8
 4206 0356 3A       		.uleb128 0x3a
 4207 0357 0B       		.uleb128 0xb
 4208 0358 3B       		.uleb128 0x3b
 4209 0359 05       		.uleb128 0x5
 4210 035a 49       		.uleb128 0x49
 4211 035b 13       		.uleb128 0x13
 4212 035c 02       		.uleb128 0x2
ARM GAS  /tmp/ccBURVhG.s 			page 75


 4213 035d 17       		.uleb128 0x17
 4214 035e 00       		.byte	0
 4215 035f 00       		.byte	0
 4216 0360 43       		.uleb128 0x43
 4217 0361 34       		.uleb128 0x34
 4218 0362 00       		.byte	0
 4219 0363 03       		.uleb128 0x3
 4220 0364 0E       		.uleb128 0xe
 4221 0365 3A       		.uleb128 0x3a
 4222 0366 0B       		.uleb128 0xb
 4223 0367 3B       		.uleb128 0x3b
 4224 0368 0B       		.uleb128 0xb
 4225 0369 49       		.uleb128 0x49
 4226 036a 13       		.uleb128 0x13
 4227 036b 02       		.uleb128 0x2
 4228 036c 18       		.uleb128 0x18
 4229 036d 00       		.byte	0
 4230 036e 00       		.byte	0
 4231 036f 44       		.uleb128 0x44
 4232 0370 34       		.uleb128 0x34
 4233 0371 00       		.byte	0
 4234 0372 03       		.uleb128 0x3
 4235 0373 0E       		.uleb128 0xe
 4236 0374 3A       		.uleb128 0x3a
 4237 0375 0B       		.uleb128 0xb
 4238 0376 3B       		.uleb128 0x3b
 4239 0377 05       		.uleb128 0x5
 4240 0378 49       		.uleb128 0x49
 4241 0379 13       		.uleb128 0x13
 4242 037a 3F       		.uleb128 0x3f
 4243 037b 19       		.uleb128 0x19
 4244 037c 3C       		.uleb128 0x3c
 4245 037d 19       		.uleb128 0x19
 4246 037e 00       		.byte	0
 4247 037f 00       		.byte	0
 4248 0380 45       		.uleb128 0x45
 4249 0381 34       		.uleb128 0x34
 4250 0382 00       		.byte	0
 4251 0383 03       		.uleb128 0x3
 4252 0384 08       		.uleb128 0x8
 4253 0385 3A       		.uleb128 0x3a
 4254 0386 0B       		.uleb128 0xb
 4255 0387 3B       		.uleb128 0x3b
 4256 0388 05       		.uleb128 0x5
 4257 0389 49       		.uleb128 0x49
 4258 038a 13       		.uleb128 0x13
 4259 038b 3F       		.uleb128 0x3f
 4260 038c 19       		.uleb128 0x19
 4261 038d 3C       		.uleb128 0x3c
 4262 038e 19       		.uleb128 0x19
 4263 038f 00       		.byte	0
 4264 0390 00       		.byte	0
 4265 0391 46       		.uleb128 0x46
 4266 0392 34       		.uleb128 0x34
 4267 0393 00       		.byte	0
 4268 0394 03       		.uleb128 0x3
 4269 0395 08       		.uleb128 0x8
ARM GAS  /tmp/ccBURVhG.s 			page 76


 4270 0396 3A       		.uleb128 0x3a
 4271 0397 0B       		.uleb128 0xb
 4272 0398 3B       		.uleb128 0x3b
 4273 0399 0B       		.uleb128 0xb
 4274 039a 49       		.uleb128 0x49
 4275 039b 13       		.uleb128 0x13
 4276 039c 3F       		.uleb128 0x3f
 4277 039d 19       		.uleb128 0x19
 4278 039e 02       		.uleb128 0x2
 4279 039f 18       		.uleb128 0x18
 4280 03a0 00       		.byte	0
 4281 03a1 00       		.byte	0
 4282 03a2 47       		.uleb128 0x47
 4283 03a3 2E       		.uleb128 0x2e
 4284 03a4 01       		.byte	0x1
 4285 03a5 3F       		.uleb128 0x3f
 4286 03a6 19       		.uleb128 0x19
 4287 03a7 03       		.uleb128 0x3
 4288 03a8 0E       		.uleb128 0xe
 4289 03a9 3A       		.uleb128 0x3a
 4290 03aa 0B       		.uleb128 0xb
 4291 03ab 3B       		.uleb128 0x3b
 4292 03ac 0B       		.uleb128 0xb
 4293 03ad 27       		.uleb128 0x27
 4294 03ae 19       		.uleb128 0x19
 4295 03af 3C       		.uleb128 0x3c
 4296 03b0 19       		.uleb128 0x19
 4297 03b1 01       		.uleb128 0x1
 4298 03b2 13       		.uleb128 0x13
 4299 03b3 00       		.byte	0
 4300 03b4 00       		.byte	0
 4301 03b5 48       		.uleb128 0x48
 4302 03b6 2E       		.uleb128 0x2e
 4303 03b7 01       		.byte	0x1
 4304 03b8 3F       		.uleb128 0x3f
 4305 03b9 19       		.uleb128 0x19
 4306 03ba 03       		.uleb128 0x3
 4307 03bb 0E       		.uleb128 0xe
 4308 03bc 3A       		.uleb128 0x3a
 4309 03bd 0B       		.uleb128 0xb
 4310 03be 3B       		.uleb128 0x3b
 4311 03bf 0B       		.uleb128 0xb
 4312 03c0 27       		.uleb128 0x27
 4313 03c1 19       		.uleb128 0x19
 4314 03c2 49       		.uleb128 0x49
 4315 03c3 13       		.uleb128 0x13
 4316 03c4 3C       		.uleb128 0x3c
 4317 03c5 19       		.uleb128 0x19
 4318 03c6 01       		.uleb128 0x1
 4319 03c7 13       		.uleb128 0x13
 4320 03c8 00       		.byte	0
 4321 03c9 00       		.byte	0
 4322 03ca 49       		.uleb128 0x49
 4323 03cb 2E       		.uleb128 0x2e
 4324 03cc 00       		.byte	0
 4325 03cd 3F       		.uleb128 0x3f
 4326 03ce 19       		.uleb128 0x19
ARM GAS  /tmp/ccBURVhG.s 			page 77


 4327 03cf 03       		.uleb128 0x3
 4328 03d0 0E       		.uleb128 0xe
 4329 03d1 3A       		.uleb128 0x3a
 4330 03d2 0B       		.uleb128 0xb
 4331 03d3 3B       		.uleb128 0x3b
 4332 03d4 05       		.uleb128 0x5
 4333 03d5 27       		.uleb128 0x27
 4334 03d6 19       		.uleb128 0x19
 4335 03d7 3C       		.uleb128 0x3c
 4336 03d8 19       		.uleb128 0x19
 4337 03d9 00       		.byte	0
 4338 03da 00       		.byte	0
 4339 03db 4A       		.uleb128 0x4a
 4340 03dc 2E       		.uleb128 0x2e
 4341 03dd 01       		.byte	0x1
 4342 03de 3F       		.uleb128 0x3f
 4343 03df 19       		.uleb128 0x19
 4344 03e0 03       		.uleb128 0x3
 4345 03e1 0E       		.uleb128 0xe
 4346 03e2 3A       		.uleb128 0x3a
 4347 03e3 0B       		.uleb128 0xb
 4348 03e4 3B       		.uleb128 0x3b
 4349 03e5 05       		.uleb128 0x5
 4350 03e6 27       		.uleb128 0x27
 4351 03e7 19       		.uleb128 0x19
 4352 03e8 3C       		.uleb128 0x3c
 4353 03e9 19       		.uleb128 0x19
 4354 03ea 01       		.uleb128 0x1
 4355 03eb 13       		.uleb128 0x13
 4356 03ec 00       		.byte	0
 4357 03ed 00       		.byte	0
 4358 03ee 4B       		.uleb128 0x4b
 4359 03ef 2E       		.uleb128 0x2e
 4360 03f0 01       		.byte	0x1
 4361 03f1 3F       		.uleb128 0x3f
 4362 03f2 19       		.uleb128 0x19
 4363 03f3 03       		.uleb128 0x3
 4364 03f4 0E       		.uleb128 0xe
 4365 03f5 3A       		.uleb128 0x3a
 4366 03f6 0B       		.uleb128 0xb
 4367 03f7 3B       		.uleb128 0x3b
 4368 03f8 0B       		.uleb128 0xb
 4369 03f9 27       		.uleb128 0x27
 4370 03fa 19       		.uleb128 0x19
 4371 03fb 3C       		.uleb128 0x3c
 4372 03fc 19       		.uleb128 0x19
 4373 03fd 00       		.byte	0
 4374 03fe 00       		.byte	0
 4375 03ff 00       		.byte	0
 4376              		.section	.debug_loc,"",%progbits
 4377              	.Ldebug_loc0:
 4378              	.LLST0:
 4379 0000 00000000 		.4byte	.LVL0
 4380 0004 12000000 		.4byte	.LVL3
 4381 0008 0100     		.2byte	0x1
 4382 000a 50       		.byte	0x50
 4383 000b 12000000 		.4byte	.LVL3
ARM GAS  /tmp/ccBURVhG.s 			page 78


 4384 000f 38000000 		.4byte	.LFE269
 4385 0013 0400     		.2byte	0x4
 4386 0015 F3       		.byte	0xf3
 4387 0016 01       		.uleb128 0x1
 4388 0017 50       		.byte	0x50
 4389 0018 9F       		.byte	0x9f
 4390 0019 00000000 		.4byte	0
 4391 001d 00000000 		.4byte	0
 4392              	.LLST1:
 4393 0021 06000000 		.4byte	.LVL1
 4394 0025 30000000 		.4byte	.LVL8
 4395 0029 0100     		.2byte	0x1
 4396 002b 54       		.byte	0x54
 4397 002c 00000000 		.4byte	0
 4398 0030 00000000 		.4byte	0
 4399              	.LLST2:
 4400 0034 16000000 		.4byte	.LVL4
 4401 0038 1C000000 		.4byte	.LVL5
 4402 003c 0100     		.2byte	0x1
 4403 003e 50       		.byte	0x50
 4404 003f 28000000 		.4byte	.LVL6
 4405 0043 2A000000 		.4byte	.LVL7
 4406 0047 0100     		.2byte	0x1
 4407 0049 50       		.byte	0x50
 4408 004a 00000000 		.4byte	0
 4409 004e 00000000 		.4byte	0
 4410              	.LLST3:
 4411 0052 06000000 		.4byte	.LVL11
 4412 0056 32000000 		.4byte	.LVL19
 4413 005a 0100     		.2byte	0x1
 4414 005c 55       		.byte	0x55
 4415 005d 36000000 		.4byte	.LVL20
 4416 0061 72000000 		.4byte	.LVL29
 4417 0065 0100     		.2byte	0x1
 4418 0067 55       		.byte	0x55
 4419 0068 76000000 		.4byte	.LVL30
 4420 006c A0000000 		.4byte	.LFE271
 4421 0070 0100     		.2byte	0x1
 4422 0072 55       		.byte	0x55
 4423 0073 00000000 		.4byte	0
 4424 0077 00000000 		.4byte	0
 4425              	.LLST4:
 4426 007b 0A000000 		.4byte	.LVL12
 4427 007f 2E000000 		.4byte	.LVL18
 4428 0083 0100     		.2byte	0x1
 4429 0085 54       		.byte	0x54
 4430 0086 36000000 		.4byte	.LVL20
 4431 008a 62000000 		.4byte	.LVL27
 4432 008e 0100     		.2byte	0x1
 4433 0090 54       		.byte	0x54
 4434 0091 00000000 		.4byte	0
 4435 0095 00000000 		.4byte	0
 4436              	.LLST5:
 4437 0099 0E000000 		.4byte	.LVL13
 4438 009d 2A000000 		.4byte	.LVL17
 4439 00a1 0300     		.2byte	0x3
 4440 00a3 08       		.byte	0x8
ARM GAS  /tmp/ccBURVhG.s 			page 79


 4441 00a4 20       		.byte	0x20
 4442 00a5 9F       		.byte	0x9f
 4443 00a6 36000000 		.4byte	.LVL20
 4444 00aa 54000000 		.4byte	.LVL25
 4445 00ae 0300     		.2byte	0x3
 4446 00b0 08       		.byte	0x8
 4447 00b1 20       		.byte	0x20
 4448 00b2 9F       		.byte	0x9f
 4449 00b3 00000000 		.4byte	0
 4450 00b7 00000000 		.4byte	0
 4451              	.LLST6:
 4452 00bb 14000000 		.4byte	.LVL14
 4453 00bf 2A000000 		.4byte	.LVL17
 4454 00c3 0600     		.2byte	0x6
 4455 00c5 03       		.byte	0x3
 4456 00c6 0C000000 		.4byte	SD1+12
 4457 00ca 9F       		.byte	0x9f
 4458 00cb 36000000 		.4byte	.LVL20
 4459 00cf 54000000 		.4byte	.LVL25
 4460 00d3 0600     		.2byte	0x6
 4461 00d5 03       		.byte	0x3
 4462 00d6 0C000000 		.4byte	SD1+12
 4463 00da 9F       		.byte	0x9f
 4464 00db 00000000 		.4byte	0
 4465 00df 00000000 		.4byte	0
 4466              	.LLST7:
 4467 00e3 24000000 		.4byte	.LVL16
 4468 00e7 2A000000 		.4byte	.LVL17
 4469 00eb 0200     		.2byte	0x2
 4470 00ed 30       		.byte	0x30
 4471 00ee 9F       		.byte	0x9f
 4472 00ef 00000000 		.4byte	0
 4473 00f3 00000000 		.4byte	0
 4474              	.LLST8:
 4475 00f7 36000000 		.4byte	.LVL20
 4476 00fb 4A000000 		.4byte	.LVL23
 4477 00ff 0200     		.2byte	0x2
 4478 0101 34       		.byte	0x34
 4479 0102 9F       		.byte	0x9f
 4480 0103 00000000 		.4byte	0
 4481 0107 00000000 		.4byte	0
 4482              	.LLST9:
 4483 010b 36000000 		.4byte	.LVL20
 4484 010f 4A000000 		.4byte	.LVL23
 4485 0113 0600     		.2byte	0x6
 4486 0115 03       		.byte	0x3
 4487 0116 04000000 		.4byte	SD1+4
 4488 011a 9F       		.byte	0x9f
 4489 011b 00000000 		.4byte	0
 4490 011f 00000000 		.4byte	0
 4491              	.LLST10:
 4492 0123 4A000000 		.4byte	.LVL23
 4493 0127 54000000 		.4byte	.LVL25
 4494 012b 0300     		.2byte	0x3
 4495 012d 08       		.byte	0x8
 4496 012e 80       		.byte	0x80
 4497 012f 9F       		.byte	0x9f
ARM GAS  /tmp/ccBURVhG.s 			page 80


 4498 0130 00000000 		.4byte	0
 4499 0134 00000000 		.4byte	0
 4500              	.LLST11:
 4501 0138 4A000000 		.4byte	.LVL23
 4502 013c 54000000 		.4byte	.LVL25
 4503 0140 0600     		.2byte	0x6
 4504 0142 03       		.byte	0x3
 4505 0143 04000000 		.4byte	SD1+4
 4506 0147 9F       		.byte	0x9f
 4507 0148 00000000 		.4byte	0
 4508 014c 00000000 		.4byte	0
 4509              	.LLST12:
 4510 0150 60000000 		.4byte	.LVL26
 4511 0154 6C000000 		.4byte	.LVL28
 4512 0158 0100     		.2byte	0x1
 4513 015a 50       		.byte	0x50
 4514 015b 76000000 		.4byte	.LVL30
 4515 015f 7C000000 		.4byte	.LVL32
 4516 0163 0100     		.2byte	0x1
 4517 0165 50       		.byte	0x50
 4518 0166 00000000 		.4byte	0
 4519 016a 00000000 		.4byte	0
 4520              	.LLST13:
 4521 016e 00000000 		.4byte	.LVL35
 4522 0172 26000000 		.4byte	.LVL38
 4523 0176 0100     		.2byte	0x1
 4524 0178 50       		.byte	0x50
 4525 0179 26000000 		.4byte	.LVL38
 4526 017d 88000000 		.4byte	.LFE273
 4527 0181 0400     		.2byte	0x4
 4528 0183 F3       		.byte	0xf3
 4529 0184 01       		.uleb128 0x1
 4530 0185 50       		.byte	0x50
 4531 0186 9F       		.byte	0x9f
 4532 0187 00000000 		.4byte	0
 4533 018b 00000000 		.4byte	0
 4534              	.LLST14:
 4535 018f 00000000 		.4byte	.LVL35
 4536 0193 0A000000 		.4byte	.LVL36
 4537 0197 0100     		.2byte	0x1
 4538 0199 51       		.byte	0x51
 4539 019a 0A000000 		.4byte	.LVL36
 4540 019e 30000000 		.4byte	.LVL39
 4541 01a2 0100     		.2byte	0x1
 4542 01a4 51       		.byte	0x51
 4543 01a5 30000000 		.4byte	.LVL39
 4544 01a9 88000000 		.4byte	.LFE273
 4545 01ad 1300     		.2byte	0x13
 4546 01af F3       		.byte	0xf3
 4547 01b0 01       		.uleb128 0x1
 4548 01b1 51       		.byte	0x51
 4549 01b2 03       		.byte	0x3
 4550 01b3 00000000 		.4byte	.LANCHOR1
 4551 01b7 F3       		.byte	0xf3
 4552 01b8 01       		.uleb128 0x1
 4553 01b9 51       		.byte	0x51
 4554 01ba 30       		.byte	0x30
ARM GAS  /tmp/ccBURVhG.s 			page 81


 4555 01bb 2E       		.byte	0x2e
 4556 01bc 28       		.byte	0x28
 4557 01bd 0100     		.2byte	0x1
 4558 01bf 16       		.byte	0x16
 4559 01c0 13       		.byte	0x13
 4560 01c1 9F       		.byte	0x9f
 4561 01c2 00000000 		.4byte	0
 4562 01c6 00000000 		.4byte	0
 4563              	.LLST15:
 4564 01ca 1C000000 		.4byte	.LVL37
 4565 01ce 30000000 		.4byte	.LVL39
 4566 01d2 0100     		.2byte	0x1
 4567 01d4 51       		.byte	0x51
 4568 01d5 30000000 		.4byte	.LVL39
 4569 01d9 88000000 		.4byte	.LFE273
 4570 01dd 1300     		.2byte	0x13
 4571 01df F3       		.byte	0xf3
 4572 01e0 01       		.uleb128 0x1
 4573 01e1 51       		.byte	0x51
 4574 01e2 03       		.byte	0x3
 4575 01e3 00000000 		.4byte	.LANCHOR1
 4576 01e7 F3       		.byte	0xf3
 4577 01e8 01       		.uleb128 0x1
 4578 01e9 51       		.byte	0x51
 4579 01ea 30       		.byte	0x30
 4580 01eb 2E       		.byte	0x2e
 4581 01ec 28       		.byte	0x28
 4582 01ed 0100     		.2byte	0x1
 4583 01ef 16       		.byte	0x16
 4584 01f0 13       		.byte	0x13
 4585 01f1 9F       		.byte	0x9f
 4586 01f2 00000000 		.4byte	0
 4587 01f6 00000000 		.4byte	0
 4588              	.LLST16:
 4589 01fa 1C000000 		.4byte	.LVL37
 4590 01fe 79000000 		.4byte	.LVL42-1
 4591 0202 0100     		.2byte	0x1
 4592 0204 53       		.byte	0x53
 4593 0205 00000000 		.4byte	0
 4594 0209 00000000 		.4byte	0
 4595              	.LLST17:
 4596 020d 3A000000 		.4byte	.LVL40
 4597 0211 5C000000 		.4byte	.LVL41
 4598 0215 0100     		.2byte	0x1
 4599 0217 52       		.byte	0x52
 4600 0218 00000000 		.4byte	0
 4601 021c 00000000 		.4byte	0
 4602              	.LLST18:
 4603 0220 00000000 		.4byte	.LVL43
 4604 0224 08000000 		.4byte	.LVL44
 4605 0228 0100     		.2byte	0x1
 4606 022a 50       		.byte	0x50
 4607 022b 08000000 		.4byte	.LVL44
 4608 022f 0A000000 		.4byte	.LVL45
 4609 0233 0400     		.2byte	0x4
 4610 0235 F3       		.byte	0xf3
 4611 0236 01       		.uleb128 0x1
ARM GAS  /tmp/ccBURVhG.s 			page 82


 4612 0237 50       		.byte	0x50
 4613 0238 9F       		.byte	0x9f
 4614 0239 0A000000 		.4byte	.LVL45
 4615 023d 12000000 		.4byte	.LVL46
 4616 0241 0100     		.2byte	0x1
 4617 0243 50       		.byte	0x50
 4618 0244 12000000 		.4byte	.LVL46
 4619 0248 30000000 		.4byte	.LFE274
 4620 024c 0400     		.2byte	0x4
 4621 024e F3       		.byte	0xf3
 4622 024f 01       		.uleb128 0x1
 4623 0250 50       		.byte	0x50
 4624 0251 9F       		.byte	0x9f
 4625 0252 00000000 		.4byte	0
 4626 0256 00000000 		.4byte	0
 4627              		.section	.debug_aranges,"",%progbits
 4628 0000 3C000000 		.4byte	0x3c
 4629 0004 0200     		.2byte	0x2
 4630 0006 00000000 		.4byte	.Ldebug_info0
 4631 000a 04       		.byte	0x4
 4632 000b 00       		.byte	0
 4633 000c 0000     		.2byte	0
 4634 000e 0000     		.2byte	0
 4635 0010 00000000 		.4byte	.LFB269
 4636 0014 38000000 		.4byte	.LFE269-.LFB269
 4637 0018 00000000 		.4byte	.LFB271
 4638 001c A0000000 		.4byte	.LFE271-.LFB271
 4639 0020 00000000 		.4byte	.LFB272
 4640 0024 20000000 		.4byte	.LFE272-.LFB272
 4641 0028 00000000 		.4byte	.LFB273
 4642 002c 88000000 		.4byte	.LFE273-.LFB273
 4643 0030 00000000 		.4byte	.LFB274
 4644 0034 30000000 		.4byte	.LFE274-.LFB274
 4645 0038 00000000 		.4byte	0
 4646 003c 00000000 		.4byte	0
 4647              		.section	.debug_ranges,"",%progbits
 4648              	.Ldebug_ranges0:
 4649 0000 02000000 		.4byte	.LBB143
 4650 0004 2C000000 		.4byte	.LBE143
 4651 0008 30000000 		.4byte	.LBB152
 4652 000c 38000000 		.4byte	.LBE152
 4653 0010 00000000 		.4byte	0
 4654 0014 00000000 		.4byte	0
 4655 0018 0E000000 		.4byte	.LBB145
 4656 001c 2C000000 		.4byte	.LBE145
 4657 0020 30000000 		.4byte	.LBB150
 4658 0024 38000000 		.4byte	.LBE150
 4659 0028 00000000 		.4byte	0
 4660 002c 00000000 		.4byte	0
 4661 0030 28000000 		.4byte	.LBB146
 4662 0034 2C000000 		.4byte	.LBE146
 4663 0038 30000000 		.4byte	.LBB149
 4664 003c 38000000 		.4byte	.LBE149
 4665 0040 00000000 		.4byte	0
 4666 0044 00000000 		.4byte	0
 4667 0048 02000000 		.4byte	.LBB200
 4668 004c 2E000000 		.4byte	.LBE200
ARM GAS  /tmp/ccBURVhG.s 			page 83


 4669 0050 36000000 		.4byte	.LBB250
 4670 0054 6E000000 		.4byte	.LBE250
 4671 0058 76000000 		.4byte	.LBB251
 4672 005c A0000000 		.4byte	.LBE251
 4673 0060 00000000 		.4byte	0
 4674 0064 00000000 		.4byte	0
 4675 0068 54000000 		.4byte	.LBB220
 4676 006c 6E000000 		.4byte	.LBE220
 4677 0070 76000000 		.4byte	.LBB247
 4678 0074 A0000000 		.4byte	.LBE247
 4679 0078 00000000 		.4byte	0
 4680 007c 00000000 		.4byte	0
 4681 0080 20000000 		.4byte	.LBB254
 4682 0084 24000000 		.4byte	.LBE254
 4683 0088 2C000000 		.4byte	.LBB257
 4684 008c 70000000 		.4byte	.LBE257
 4685 0090 00000000 		.4byte	0
 4686 0094 00000000 		.4byte	0
 4687 0098 00000000 		.4byte	.LFB269
 4688 009c 38000000 		.4byte	.LFE269
 4689 00a0 00000000 		.4byte	.LFB271
 4690 00a4 A0000000 		.4byte	.LFE271
 4691 00a8 00000000 		.4byte	.LFB272
 4692 00ac 20000000 		.4byte	.LFE272
 4693 00b0 00000000 		.4byte	.LFB273
 4694 00b4 88000000 		.4byte	.LFE273
 4695 00b8 00000000 		.4byte	.LFB274
 4696 00bc 30000000 		.4byte	.LFE274
 4697 00c0 00000000 		.4byte	0
 4698 00c4 00000000 		.4byte	0
 4699              		.section	.debug_line,"",%progbits
 4700              	.Ldebug_line0:
 4701 0000 45030000 		.section	.debug_str,"MS",%progbits,1
 4701      02002C02 
 4701      00000201 
 4701      FB0E0D00 
 4701      01010101 
 4702              	.LASF3:
 4703 0000 73697A65 		.ascii	"size_t\000"
 4703      5F7400
 4704              	.LASF132:
 4705 0007 73697A65 		.ascii	"sizetype\000"
 4705      74797065 
 4705      00
 4706              	.LASF191:
 4707 0010 77747365 		.ascii	"wtsemp\000"
 4707      6D7000
 4708              	.LASF21:
 4709 0017 73797374 		.ascii	"systime_t\000"
 4709      696D655F 
 4709      7400
 4710              	.LASF26:
 4711 0021 705F6374 		.ascii	"p_ctx\000"
 4711      7800
 4712              	.LASF16:
 4713 0027 74707269 		.ascii	"tprio_t\000"
 4713      6F5F7400 
ARM GAS  /tmp/ccBURVhG.s 			page 84


 4714              	.LASF151:
 4715 002f 46434647 		.ascii	"FCFG1\000"
 4715      3100
 4716              	.LASF152:
 4717 0035 46434647 		.ascii	"FCFG2\000"
 4717      3200
 4718              	.LASF35:
 4719 003b 705F6D73 		.ascii	"p_msgqueue\000"
 4719      67717565 
 4719      756500
 4720              	.LASF51:
 4721 0046 725F6374 		.ascii	"r_ctx\000"
 4721      7800
 4722              	.LASF4:
 4723 004c 696E7433 		.ascii	"int32_t\000"
 4723      325F7400 
 4724              	.LASF238:
 4725 0054 53657269 		.ascii	"SerialConfig\000"
 4725      616C436F 
 4725      6E666967 
 4725      00
 4726              	.LASF244:
 4727 0061 77726974 		.ascii	"writet\000"
 4727      657400
 4728              	.LASF55:
 4729 0068 76746675 		.ascii	"vtfunc_t\000"
 4729      6E635F74 
 4729      00
 4730              	.LASF115:
 4731 0071 52544353 		.ascii	"RTCSeconds_IRQn\000"
 4731      65636F6E 
 4731      64735F49 
 4731      52516E00 
 4732              	.LASF64:
 4733 0081 63685F76 		.ascii	"ch_virtual_timers_list\000"
 4733      69727475 
 4733      616C5F74 
 4733      696D6572 
 4733      735F6C69 
 4734              	.LASF262:
 4735 0098 636F6E66 		.ascii	"configure_uart\000"
 4735      69677572 
 4735      655F7561 
 4735      727400
 4736              	.LASF240:
 4737 00a7 77726974 		.ascii	"write\000"
 4737      6500
 4738              	.LASF169:
 4739 00ad 49453738 		.ascii	"IE7816\000"
 4739      313600
 4740              	.LASF208:
 4741 00b4 656C5F66 		.ascii	"el_flags\000"
 4741      6C616773 
 4741      00
 4742              	.LASF263:
 4743 00bd 636F6E66 		.ascii	"config\000"
 4743      696700
ARM GAS  /tmp/ccBURVhG.s 			page 85


 4744              	.LASF233:
 4745 00c4 73746174 		.ascii	"state\000"
 4745      6500
 4746              	.LASF242:
 4747 00ca 70757474 		.ascii	"putt\000"
 4747      00
 4748              	.LASF145:
 4749 00cf 53434743 		.ascii	"SCGC4\000"
 4749      3400
 4750              	.LASF146:
 4751 00d5 53434743 		.ascii	"SCGC5\000"
 4751      3500
 4752              	.LASF147:
 4753 00db 53434743 		.ascii	"SCGC6\000"
 4753      3600
 4754              	.LASF148:
 4755 00e1 53434743 		.ascii	"SCGC7\000"
 4755      3700
 4756              	.LASF136:
 4757 00e7 534F5054 		.ascii	"SOPT2\000"
 4757      3200
 4758              	.LASF258:
 4759 00ed 73657276 		.ascii	"serve_interrupt\000"
 4759      655F696E 
 4759      74657272 
 4759      75707400 
 4760              	.LASF94:
 4761 00fd 4C6F7756 		.ascii	"LowVoltageWarning_IRQn\000"
 4761      6F6C7461 
 4761      67655761 
 4761      726E696E 
 4761      675F4952 
 4762              	.LASF179:
 4763 0114 52505245 		.ascii	"RPREL\000"
 4763      4C00
 4764              	.LASF252:
 4765 011a 6F73616C 		.ascii	"osalSysLockFromISR\000"
 4765      5379734C 
 4765      6F636B46 
 4765      726F6D49 
 4765      535200
 4766              	.LASF182:
 4767 012d 55415254 		.ascii	"UART_TypeDef\000"
 4767      5F547970 
 4767      65446566 
 4767      00
 4768              	.LASF163:
 4769 013a 53464946 		.ascii	"SFIFO\000"
 4769      4F00
 4770              	.LASF89:
 4771 0140 444D4133 		.ascii	"DMA3_IRQn\000"
 4771      5F495251 
 4771      6E00
 4772              	.LASF143:
 4773 014a 53444944 		.ascii	"SDID\000"
 4773      00
 4774              	.LASF199:
ARM GAS  /tmp/ccBURVhG.s 			page 86


 4775 014f 6D5F6F77 		.ascii	"m_owner\000"
 4775      6E657200 
 4776              	.LASF62:
 4777 0157 76745F70 		.ascii	"vt_par\000"
 4777      617200
 4778              	.LASF76:
 4779 015e 496E6974 		.ascii	"InitialPC_IRQn\000"
 4779      69616C50 
 4779      435F4952 
 4779      516E00
 4780              	.LASF99:
 4781 016d 49325330 		.ascii	"I2S0_IRQn\000"
 4781      5F495251 
 4781      6E00
 4782              	.LASF188:
 4783 0177 65786974 		.ascii	"exitcode\000"
 4783      636F6465 
 4783      00
 4784              	.LASF218:
 4785 0180 715F746F 		.ascii	"q_top\000"
 4785      7000
 4786              	.LASF275:
 4787 0186 2F686F6D 		.ascii	"/home/bunnie/code/chibios-netvcr/netvcr\000"
 4787      652F6275 
 4787      6E6E6965 
 4787      2F636F64 
 4787      652F6368 
 4788              	.LASF193:
 4789 01ae 65776D61 		.ascii	"ewmask\000"
 4789      736B00
 4790              	.LASF245:
 4791 01b5 72656164 		.ascii	"readt\000"
 4791      7400
 4792              	.LASF265:
 4793 01bb 73645F6C 		.ascii	"sd_lld_start\000"
 4793      6C645F73 
 4793      74617274 
 4793      00
 4794              	.LASF118:
 4795 01c8 50495443 		.ascii	"PITChannel2_IRQn\000"
 4795      68616E6E 
 4795      656C325F 
 4795      4952516E 
 4795      00
 4796              	.LASF221:
 4797 01d9 715F6E6F 		.ascii	"q_notify\000"
 4797      74696679 
 4797      00
 4798              	.LASF271:
 4799 01e2 73644F62 		.ascii	"sdObjectInit\000"
 4799      6A656374 
 4799      496E6974 
 4799      00
 4800              	.LASF27:
 4801 01ef 705F6E65 		.ascii	"p_newer\000"
 4801      77657200 
 4802              	.LASF23:
ARM GAS  /tmp/ccBURVhG.s 			page 87


 4803 01f7 705F6E65 		.ascii	"p_next\000"
 4803      787400
 4804              	.LASF247:
 4805 01fe 706F7274 		.ascii	"port_unlock\000"
 4805      5F756E6C 
 4805      6F636B00 
 4806              	.LASF220:
 4807 020a 715F7264 		.ascii	"q_rdptr\000"
 4807      70747200 
 4808              	.LASF24:
 4809 0212 705F7072 		.ascii	"p_prev\000"
 4809      657600
 4810              	.LASF159:
 4811 0219 57503738 		.ascii	"WP7816T1\000"
 4811      31365431 
 4811      00
 4812              	.LASF279:
 4813 0222 64656661 		.ascii	"default_config\000"
 4813      756C745F 
 4813      636F6E66 
 4813      696700
 4814              	.LASF250:
 4815 0231 63685379 		.ascii	"chSysLockFromISR\000"
 4815      734C6F63 
 4815      6B46726F 
 4815      6D495352 
 4815      00
 4816              	.LASF95:
 4817 0242 4C4C5755 		.ascii	"LLWU_IRQn\000"
 4817      5F495251 
 4817      6E00
 4818              	.LASF13:
 4819 024c 74737461 		.ascii	"tstate_t\000"
 4819      74655F74 
 4819      00
 4820              	.LASF45:
 4821 0255 74687265 		.ascii	"threads_queue_t\000"
 4821      6164735F 
 4821      71756575 
 4821      655F7400 
 4822              	.LASF38:
 4823 0265 705F6D74 		.ascii	"p_mtxlist\000"
 4823      786C6973 
 4823      7400
 4824              	.LASF235:
 4825 026f 6F717565 		.ascii	"oqueue\000"
 4825      756500
 4826              	.LASF183:
 4827 0276 72656761 		.ascii	"regarm_t\000"
 4827      726D5F74 
 4827      00
 4828              	.LASF88:
 4829 027f 444D4132 		.ascii	"DMA2_IRQn\000"
 4829      5F495251 
 4829      6E00
 4830              	.LASF214:
 4831 0289 696F5F71 		.ascii	"io_queue\000"
ARM GAS  /tmp/ccBURVhG.s 			page 88


 4831      75657565 
 4831      00
 4832              	.LASF85:
 4833 0292 53797354 		.ascii	"SysTick_IRQn\000"
 4833      69636B5F 
 4833      4952516E 
 4833      00
 4834              	.LASF121:
 4835 029f 5553425F 		.ascii	"USB_OTG_IRQn\000"
 4835      4F54475F 
 4835      4952516E 
 4835      00
 4836              	.LASF104:
 4837 02ac 55415254 		.ascii	"UART1Status_IRQn\000"
 4837      31537461 
 4837      7475735F 
 4837      4952516E 
 4837      00
 4838              	.LASF168:
 4839 02bd 43373831 		.ascii	"C7816\000"
 4839      3600
 4840              	.LASF1:
 4841 02c3 7369676E 		.ascii	"signed char\000"
 4841      65642063 
 4841      68617200 
 4842              	.LASF33:
 4843 02cf 705F7072 		.ascii	"p_preempt\000"
 4843      65656D70 
 4843      7400
 4844              	.LASF6:
 4845 02d9 75696E74 		.ascii	"uint8_t\000"
 4845      385F7400 
 4846              	.LASF18:
 4847 02e1 6576656E 		.ascii	"eventmask_t\000"
 4847      746D6173 
 4847      6B5F7400 
 4848              	.LASF185:
 4849 02ed 636F6E74 		.ascii	"context\000"
 4849      65787400 
 4850              	.LASF190:
 4851 02f5 77747472 		.ascii	"wttrp\000"
 4851      7000
 4852              	.LASF251:
 4853 02fb 63685379 		.ascii	"chSysUnlockFromISR\000"
 4853      73556E6C 
 4853      6F636B46 
 4853      726F6D49 
 4853      535200
 4854              	.LASF135:
 4855 030e 52455345 		.ascii	"RESERVED0\000"
 4855      52564544 
 4855      3000
 4856              	.LASF137:
 4857 0318 52455345 		.ascii	"RESERVED1\000"
 4857      52564544 
 4857      3100
 4858              	.LASF7:
ARM GAS  /tmp/ccBURVhG.s 			page 89


 4859 0322 756E7369 		.ascii	"unsigned char\000"
 4859      676E6564 
 4859      20636861 
 4859      7200
 4860              	.LASF142:
 4861 0330 52455345 		.ascii	"RESERVED3\000"
 4861      52564544 
 4861      3300
 4862              	.LASF144:
 4863 033a 52455345 		.ascii	"RESERVED4\000"
 4863      52564544 
 4863      3400
 4864              	.LASF222:
 4865 0344 715F6C69 		.ascii	"q_link\000"
 4865      6E6B00
 4866              	.LASF68:
 4867 034b 70616E69 		.ascii	"panic_msg\000"
 4867      635F6D73 
 4867      6700
 4868              	.LASF264:
 4869 0355 64697669 		.ascii	"divisor\000"
 4869      736F7200 
 4870              	.LASF52:
 4871 035d 725F6E65 		.ascii	"r_newer\000"
 4871      77657200 
 4872              	.LASF149:
 4873 0365 434C4B44 		.ascii	"CLKDIV1\000"
 4873      49563100 
 4874              	.LASF150:
 4875 036d 434C4B44 		.ascii	"CLKDIV2\000"
 4875      49563200 
 4876              	.LASF66:
 4877 0375 73797374 		.ascii	"system_debug_t\000"
 4877      656D5F64 
 4877      65627567 
 4877      5F7400
 4878              	.LASF249:
 4879 0384 706F7274 		.ascii	"port_unlock_from_isr\000"
 4879      5F756E6C 
 4879      6F636B5F 
 4879      66726F6D 
 4879      5F697372 
 4880              	.LASF227:
 4881 0399 53445F55 		.ascii	"SD_UNINIT\000"
 4881      4E494E49 
 4881      5400
 4882              	.LASF226:
 4883 03a3 5F426F6F 		.ascii	"_Bool\000"
 4883      6C00
 4884              	.LASF140:
 4885 03a9 52455345 		.ascii	"RESERVED2\000"
 4885      52564544 
 4885      3200
 4886              	.LASF256:
 4887 03b3 666C6167 		.ascii	"flags\000"
 4887      7300
 4888              	.LASF81:
ARM GAS  /tmp/ccBURVhG.s 			page 90


 4889 03b9 55736167 		.ascii	"UsageFault_IRQn\000"
 4889      65466175 
 4889      6C745F49 
 4889      52516E00 
 4890              	.LASF201:
 4891 03c9 63686172 		.ascii	"char\000"
 4891      00
 4892              	.LASF25:
 4893 03ce 705F7072 		.ascii	"p_prio\000"
 4893      696F00
 4894              	.LASF273:
 4895 03d5 474E5520 		.ascii	"GNU C 4.9.2 -mcpu=cortex-m4 -mfloat-abi=soft -mfp16"
 4895      4320342E 
 4895      392E3220 
 4895      2D6D6370 
 4895      753D636F 
 4896 0408 2D666F72 		.ascii	"-format=none -mno-thumb-interwork -mthumb -mfpu=vfp"
 4896      6D61743D 
 4896      6E6F6E65 
 4896      202D6D6E 
 4896      6F2D7468 
 4897 043b 76332D64 		.ascii	"v3-d16 -mtls-dialect=gnu -ggdb -O2 -fomit-frame-poi"
 4897      3136202D 
 4897      6D746C73 
 4897      2D646961 
 4897      6C656374 
 4898 046e 6E746572 		.ascii	"nter -falign-functions=16 -ffunction-sections -fdat"
 4898      202D6661 
 4898      6C69676E 
 4898      2D66756E 
 4898      6374696F 
 4899 04a1 612D7365 		.ascii	"a-sections -fno-common\000"
 4899      6374696F 
 4899      6E73202D 
 4899      666E6F2D 
 4899      636F6D6D 
 4900              	.LASF189:
 4901 04b8 77746F62 		.ascii	"wtobjp\000"
 4901      6A7000
 4902              	.LASF103:
 4903 04bf 55415254 		.ascii	"UART0Error_IRQn\000"
 4903      30457272 
 4903      6F725F49 
 4903      52516E00 
 4904              	.LASF243:
 4905 04cf 67657474 		.ascii	"gett\000"
 4905      00
 4906              	.LASF184:
 4907 04d4 73746B61 		.ascii	"stkalign_t\000"
 4907      6C69676E 
 4907      5F7400
 4908              	.LASF106:
 4909 04df 55415254 		.ascii	"UART2Status_IRQn\000"
 4909      32537461 
 4909      7475735F 
 4909      4952516E 
 4909      00
ARM GAS  /tmp/ccBURVhG.s 			page 91


 4910              	.LASF274:
 4911 04f0 2E2E2F6F 		.ascii	"../os/hal/ports/KINETIS/K20x/serial_lld.c\000"
 4911      732F6861 
 4911      6C2F706F 
 4911      7274732F 
 4911      4B494E45 
 4912              	.LASF108:
 4913 051a 41444330 		.ascii	"ADC0_IRQn\000"
 4913      5F495251 
 4913      6E00
 4914              	.LASF269:
 4915 0524 63684951 		.ascii	"chIQPutI\000"
 4915      50757449 
 4915      00
 4916              	.LASF128:
 4917 052d 50494E43 		.ascii	"PINC_IRQn\000"
 4917      5F495251 
 4917      6E00
 4918              	.LASF75:
 4919 0537 496E6974 		.ascii	"InitialSP_IRQn\000"
 4919      69616C53 
 4919      505F4952 
 4919      516E00
 4920              	.LASF20:
 4921 0546 636E745F 		.ascii	"cnt_t\000"
 4921      7400
 4922              	.LASF61:
 4923 054c 76745F66 		.ascii	"vt_func\000"
 4923      756E6300 
 4924              	.LASF37:
 4925 0554 705F6570 		.ascii	"p_epending\000"
 4925      656E6469 
 4925      6E6700
 4926              	.LASF192:
 4927 055f 77746D74 		.ascii	"wtmtxp\000"
 4927      787000
 4928              	.LASF48:
 4929 0566 63685F72 		.ascii	"ch_ready_list\000"
 4929      65616479 
 4929      5F6C6973 
 4929      7400
 4930              	.LASF257:
 4931 0574 6F73616C 		.ascii	"osalSysUnlockFromISR\000"
 4931      53797355 
 4931      6E6C6F63 
 4931      6B46726F 
 4931      6D495352 
 4932              	.LASF211:
 4933 0589 65735F6E 		.ascii	"es_next\000"
 4933      65787400 
 4934              	.LASF216:
 4935 0591 715F636F 		.ascii	"q_counter\000"
 4935      756E7465 
 4935      7200
 4936              	.LASF77:
 4937 059b 4E6F6E4D 		.ascii	"NonMaskableInt_IRQn\000"
 4937      61736B61 
ARM GAS  /tmp/ccBURVhG.s 			page 92


 4937      626C6549 
 4937      6E745F49 
 4937      52516E00 
 4938              	.LASF110:
 4939 05af 434D5031 		.ascii	"CMP1_IRQn\000"
 4939      5F495251 
 4939      6E00
 4940              	.LASF79:
 4941 05b9 4D656D6F 		.ascii	"MemoryManagement_IRQn\000"
 4941      72794D61 
 4941      6E616765 
 4941      6D656E74 
 4941      5F495251 
 4942              	.LASF124:
 4943 05cf 4D43475F 		.ascii	"MCG_IRQn\000"
 4943      4952516E 
 4943      00
 4944              	.LASF194:
 4945 05d8 63685F73 		.ascii	"ch_semaphore\000"
 4945      656D6170 
 4945      686F7265 
 4945      00
 4946              	.LASF43:
 4947 05e5 63685F74 		.ascii	"ch_thread\000"
 4947      68726561 
 4947      6400
 4948              	.LASF63:
 4949 05ef 76697274 		.ascii	"virtual_timers_list_t\000"
 4949      75616C5F 
 4949      74696D65 
 4949      72735F6C 
 4949      6973745F 
 4950              	.LASF205:
 4951 0605 656C5F6E 		.ascii	"el_next\000"
 4951      65787400 
 4952              	.LASF101:
 4953 060d 55415254 		.ascii	"UART0LON_IRQn\000"
 4953      304C4F4E 
 4953      5F495251 
 4953      6E00
 4954              	.LASF56:
 4955 061b 76697274 		.ascii	"virtual_timer_t\000"
 4955      75616C5F 
 4955      74696D65 
 4955      725F7400 
 4956              	.LASF47:
 4957 062b 72656164 		.ascii	"ready_list_t\000"
 4957      795F6C69 
 4957      73745F74 
 4957      00
 4958              	.LASF93:
 4959 0638 466C6173 		.ascii	"FlashMemReadCollision_IRQn\000"
 4959      684D656D 
 4959      52656164 
 4959      436F6C6C 
 4959      6973696F 
 4960              	.LASF219:
ARM GAS  /tmp/ccBURVhG.s 			page 93


 4961 0653 715F7772 		.ascii	"q_wrptr\000"
 4961      70747200 
 4962              	.LASF277:
 4963 065b 63684951 		.ascii	"chIQIsEmptyI\000"
 4963      4973456D 
 4963      70747949 
 4963      00
 4964              	.LASF239:
 4965 0668 53657269 		.ascii	"SerialDriverVMT\000"
 4965      616C4472 
 4965      69766572 
 4965      564D5400 
 4966              	.LASF180:
 4967 0678 52494454 		.ascii	"RIDT\000"
 4967      00
 4968              	.LASF44:
 4969 067d 63685F74 		.ascii	"ch_threads_list\000"
 4969      68726561 
 4969      64735F6C 
 4969      69737400 
 4970              	.LASF181:
 4971 068d 54494454 		.ascii	"TIDT\000"
 4971      00
 4972              	.LASF80:
 4973 0692 42757346 		.ascii	"BusFault_IRQn\000"
 4973      61756C74 
 4973      5F495251 
 4973      6E00
 4974              	.LASF261:
 4975 06a0 73645F6C 		.ascii	"sd_lld_init\000"
 4975      6C645F69 
 4975      6E697400 
 4976              	.LASF177:
 4977 06ac 53445448 		.ascii	"SDTH\000"
 4977      00
 4978              	.LASF178:
 4979 06b1 5344544C 		.ascii	"SDTL\000"
 4979      00
 4980              	.LASF166:
 4981 06b6 52574649 		.ascii	"RWFIFO\000"
 4981      464F00
 4982              	.LASF5:
 4983 06bd 6C6F6E67 		.ascii	"long long int\000"
 4983      206C6F6E 
 4983      6720696E 
 4983      7400
 4984              	.LASF198:
 4985 06cb 6D5F7175 		.ascii	"m_queue\000"
 4985      65756500 
 4986              	.LASF248:
 4987 06d3 706F7274 		.ascii	"port_lock_from_isr\000"
 4987      5F6C6F63 
 4987      6B5F6672 
 4987      6F6D5F69 
 4987      737200
 4988              	.LASF58:
 4989 06e6 76745F6E 		.ascii	"vt_next\000"
ARM GAS  /tmp/ccBURVhG.s 			page 94


 4989      65787400 
 4990              	.LASF260:
 4991 06ee 56656374 		.ascii	"Vector80\000"
 4991      6F723830 
 4991      00
 4992              	.LASF59:
 4993 06f7 76745F70 		.ascii	"vt_prev\000"
 4993      72657600 
 4994              	.LASF133:
 4995 06ff 534F5054 		.ascii	"SOPT1\000"
 4995      3100
 4996              	.LASF82:
 4997 0705 53564361 		.ascii	"SVCall_IRQn\000"
 4997      6C6C5F49 
 4997      52516E00 
 4998              	.LASF138:
 4999 0711 534F5054 		.ascii	"SOPT4\000"
 4999      3400
 5000              	.LASF139:
 5001 0717 534F5054 		.ascii	"SOPT5\000"
 5001      3500
 5002              	.LASF141:
 5003 071d 534F5054 		.ascii	"SOPT7\000"
 5003      3700
 5004              	.LASF117:
 5005 0723 50495443 		.ascii	"PITChannel1_IRQn\000"
 5005      68616E6E 
 5005      656C315F 
 5005      4952516E 
 5005      00
 5006              	.LASF212:
 5007 0734 6576656E 		.ascii	"event_source_t\000"
 5007      745F736F 
 5007      75726365 
 5007      5F7400
 5008              	.LASF267:
 5009 0743 49544D5F 		.ascii	"ITM_RxBuffer\000"
 5009      52784275 
 5009      66666572 
 5009      00
 5010              	.LASF114:
 5011 0750 52544341 		.ascii	"RTCAlarm_IRQn\000"
 5011      6C61726D 
 5011      5F495251 
 5011      6E00
 5012              	.LASF154:
 5013 075e 5549444D 		.ascii	"UIDMH\000"
 5013      4800
 5014              	.LASF155:
 5015 0764 5549444D 		.ascii	"UIDML\000"
 5015      4C00
 5016              	.LASF223:
 5017 076a 716E6F74 		.ascii	"qnotify_t\000"
 5017      6966795F 
 5017      7400
 5018              	.LASF96:
 5019 0774 57444F47 		.ascii	"WDOG_IRQn\000"
ARM GAS  /tmp/ccBURVhG.s 			page 95


 5019      5F495251 
 5019      6E00
 5020              	.LASF34:
 5021 077e 705F7761 		.ascii	"p_waiting\000"
 5021      6974696E 
 5021      6700
 5022              	.LASF232:
 5023 0788 6576656E 		.ascii	"event\000"
 5023      7400
 5024              	.LASF160:
 5025 078e 4D4F4445 		.ascii	"MODEM\000"
 5025      4D00
 5026              	.LASF31:
 5027 0794 705F666C 		.ascii	"p_flags\000"
 5027      61677300 
 5028              	.LASF241:
 5029 079c 72656164 		.ascii	"read\000"
 5029      00
 5030              	.LASF74:
 5031 07a1 69646C65 		.ascii	"idle_thread_wa\000"
 5031      5F746872 
 5031      6561645F 
 5031      776100
 5032              	.LASF131:
 5033 07b0 536F6674 		.ascii	"SoftInitInt_IRQn\000"
 5033      496E6974 
 5033      496E745F 
 5033      4952516E 
 5033      00
 5034              	.LASF0:
 5035 07c1 756E7369 		.ascii	"unsigned int\000"
 5035      676E6564 
 5035      20696E74 
 5035      00
 5036              	.LASF87:
 5037 07ce 444D4131 		.ascii	"DMA1_IRQn\000"
 5037      5F495251 
 5037      6E00
 5038              	.LASF40:
 5039 07d8 705F6D70 		.ascii	"p_mpool\000"
 5039      6F6F6C00 
 5040              	.LASF32:
 5041 07e0 705F7265 		.ascii	"p_refs\000"
 5041      667300
 5042              	.LASF161:
 5043 07e7 50464946 		.ascii	"PFIFO\000"
 5043      4F00
 5044              	.LASF268:
 5045 07ed 63684F51 		.ascii	"chOQGetI\000"
 5045      47657449 
 5045      00
 5046              	.LASF116:
 5047 07f6 50495443 		.ascii	"PITChannel0_IRQn\000"
 5047      68616E6E 
 5047      656C305F 
 5047      4952516E 
 5047      00
ARM GAS  /tmp/ccBURVhG.s 			page 96


 5048              	.LASF171:
 5049 0807 574E3738 		.ascii	"WN7816\000"
 5049      313600
 5050              	.LASF107:
 5051 080e 55415254 		.ascii	"UART2Error_IRQn\000"
 5051      32457272 
 5051      6F725F49 
 5051      52516E00 
 5052              	.LASF209:
 5053 081e 656C5F77 		.ascii	"el_wflags\000"
 5053      666C6167 
 5053      7300
 5054              	.LASF167:
 5055 0828 52434649 		.ascii	"RCFIFO\000"
 5055      464F00
 5056              	.LASF237:
 5057 082f 73635F73 		.ascii	"sc_speed\000"
 5057      70656564 
 5057      00
 5058              	.LASF162:
 5059 0838 43464946 		.ascii	"CFIFO\000"
 5059      4F00
 5060              	.LASF207:
 5061 083e 656C5F65 		.ascii	"el_events\000"
 5061      76656E74 
 5061      7300
 5062              	.LASF280:
 5063 0848 5F706F72 		.ascii	"_port_irq_epilogue\000"
 5063      745F6972 
 5063      715F6570 
 5063      696C6F67 
 5063      756500
 5064              	.LASF105:
 5065 085b 55415254 		.ascii	"UART1Error_IRQn\000"
 5065      31457272 
 5065      6F725F49 
 5065      52516E00 
 5066              	.LASF276:
 5067 086b 4952516E 		.ascii	"IRQn\000"
 5067      00
 5068              	.LASF270:
 5069 0870 63684576 		.ascii	"chEvtBroadcastFlagsI\000"
 5069      7442726F 
 5069      61646361 
 5069      7374466C 
 5069      61677349 
 5070              	.LASF22:
 5071 0885 74687265 		.ascii	"thread_t\000"
 5071      61645F74 
 5071      00
 5072              	.LASF281:
 5073 088e 6E766963 		.ascii	"nvicDisableVector\000"
 5073      44697361 
 5073      626C6556 
 5073      6563746F 
 5073      7200
 5074              	.LASF41:
ARM GAS  /tmp/ccBURVhG.s 			page 97


 5075 08a0 74687265 		.ascii	"thread_reference_t\000"
 5075      61645F72 
 5075      65666572 
 5075      656E6365 
 5075      5F7400
 5076              	.LASF39:
 5077 08b3 705F7265 		.ascii	"p_realprio\000"
 5077      616C7072 
 5077      696F00
 5078              	.LASF186:
 5079 08be 706F7274 		.ascii	"port_intctx\000"
 5079      5F696E74 
 5079      63747800 
 5080              	.LASF60:
 5081 08ca 76745F64 		.ascii	"vt_delta\000"
 5081      656C7461 
 5081      00
 5082              	.LASF57:
 5083 08d3 63685F76 		.ascii	"ch_virtual_timer\000"
 5083      69727475 
 5083      616C5F74 
 5083      696D6572 
 5083      00
 5084              	.LASF196:
 5085 08e4 735F636E 		.ascii	"s_cnt\000"
 5085      7400
 5086              	.LASF217:
 5087 08ea 715F6275 		.ascii	"q_buffer\000"
 5087      66666572 
 5087      00
 5088              	.LASF11:
 5089 08f3 6C6F6E67 		.ascii	"long long unsigned int\000"
 5089      206C6F6E 
 5089      6720756E 
 5089      7369676E 
 5089      65642069 
 5090              	.LASF28:
 5091 090a 705F6F6C 		.ascii	"p_older\000"
 5091      64657200 
 5092              	.LASF112:
 5093 0912 46544D31 		.ascii	"FTM1_IRQn\000"
 5093      5F495251 
 5093      6E00
 5094              	.LASF17:
 5095 091c 6D73675F 		.ascii	"msg_t\000"
 5095      7400
 5096              	.LASF46:
 5097 0922 63685F74 		.ascii	"ch_threads_queue\000"
 5097      68726561 
 5097      64735F71 
 5097      75657565 
 5097      00
 5098              	.LASF19:
 5099 0933 6576656E 		.ascii	"eventflags_t\000"
 5099      74666C61 
 5099      67735F74 
 5099      00
ARM GAS  /tmp/ccBURVhG.s 			page 98


 5100              	.LASF253:
 5101 0940 76616C75 		.ascii	"value\000"
 5101      6500
 5102              	.LASF15:
 5103 0946 74736C69 		.ascii	"tslices_t\000"
 5103      6365735F 
 5103      7400
 5104              	.LASF54:
 5105 0950 725F6375 		.ascii	"r_current\000"
 5105      7272656E 
 5105      7400
 5106              	.LASF174:
 5107 095a 544C3738 		.ascii	"TL7816\000"
 5107      313600
 5108              	.LASF164:
 5109 0961 54574649 		.ascii	"TWFIFO\000"
 5109      464F00
 5110              	.LASF127:
 5111 0968 50494E42 		.ascii	"PINB_IRQn\000"
 5111      5F495251 
 5111      6E00
 5112              	.LASF90:
 5113 0972 444D4145 		.ascii	"DMAError_IRQn\000"
 5113      72726F72 
 5113      5F495251 
 5113      6E00
 5114              	.LASF100:
 5115 0980 49325331 		.ascii	"I2S1_IRQn\000"
 5115      5F495251 
 5115      6E00
 5116              	.LASF122:
 5117 098a 55534243 		.ascii	"USBChargerDetect_IRQn\000"
 5117      68617267 
 5117      65724465 
 5117      74656374 
 5117      5F495251 
 5118              	.LASF73:
 5119 09a0 6D61696E 		.ascii	"mainthread\000"
 5119      74687265 
 5119      616400
 5120              	.LASF203:
 5121 09ab 6576656E 		.ascii	"event_listener_t\000"
 5121      745F6C69 
 5121      7374656E 
 5121      65725F74 
 5121      00
 5122              	.LASF97:
 5123 09bc 49324330 		.ascii	"I2C0_IRQn\000"
 5123      5F495251 
 5123      6E00
 5124              	.LASF254:
 5125 09c6 5F5F7365 		.ascii	"__set_BASEPRI\000"
 5125      745F4241 
 5125      53455052 
 5125      4900
 5126              	.LASF49:
 5127 09d4 725F7175 		.ascii	"r_queue\000"
ARM GAS  /tmp/ccBURVhG.s 			page 99


 5127      65756500 
 5128              	.LASF119:
 5129 09dc 50495443 		.ascii	"PITChannel3_IRQn\000"
 5129      68616E6E 
 5129      656C335F 
 5129      4952516E 
 5129      00
 5130              	.LASF231:
 5131 09ed 53657269 		.ascii	"SerialDriver\000"
 5131      616C4472 
 5131      69766572 
 5131      00
 5132              	.LASF175:
 5133 09fa 50435448 		.ascii	"PCTH\000"
 5133      00
 5134              	.LASF111:
 5135 09ff 46544D30 		.ascii	"FTM0_IRQn\000"
 5135      5F495251 
 5135      6E00
 5136              	.LASF176:
 5137 0a09 5043544C 		.ascii	"PCTL\000"
 5137      00
 5138              	.LASF102:
 5139 0a0e 55415254 		.ascii	"UART0Status_IRQn\000"
 5139      30537461 
 5139      7475735F 
 5139      4952516E 
 5139      00
 5140              	.LASF215:
 5141 0a1f 715F7761 		.ascii	"q_waiting\000"
 5141      6974696E 
 5141      6700
 5142              	.LASF71:
 5143 0a29 726C6973 		.ascii	"rlist\000"
 5143      7400
 5144              	.LASF12:
 5145 0a2f 746D6F64 		.ascii	"tmode_t\000"
 5145      655F7400 
 5146              	.LASF92:
 5147 0a37 466C6173 		.ascii	"FlashMemComplete_IRQn\000"
 5147      684D656D 
 5147      436F6D70 
 5147      6C657465 
 5147      5F495251 
 5148              	.LASF230:
 5149 0a4d 73647374 		.ascii	"sdstate_t\000"
 5149      6174655F 
 5149      7400
 5150              	.LASF83:
 5151 0a57 44656275 		.ascii	"DebugMonitor_IRQn\000"
 5151      674D6F6E 
 5151      69746F72 
 5151      5F495251 
 5151      6E00
 5152              	.LASF126:
 5153 0a69 50494E41 		.ascii	"PINA_IRQn\000"
 5153      5F495251 
ARM GAS  /tmp/ccBURVhG.s 			page 100


 5153      6E00
 5154              	.LASF65:
 5155 0a73 76745F73 		.ascii	"vt_systime\000"
 5155      79737469 
 5155      6D6500
 5156              	.LASF229:
 5157 0a7e 53445F52 		.ascii	"SD_READY\000"
 5157      45414459 
 5157      00
 5158              	.LASF109:
 5159 0a87 434D5030 		.ascii	"CMP0_IRQn\000"
 5159      5F495251 
 5159      6E00
 5160              	.LASF53:
 5161 0a91 725F6F6C 		.ascii	"r_older\000"
 5161      64657200 
 5162              	.LASF246:
 5163 0a99 706F7274 		.ascii	"port_lock\000"
 5163      5F6C6F63 
 5163      6B00
 5164              	.LASF195:
 5165 0aa3 735F7175 		.ascii	"s_queue\000"
 5165      65756500 
 5166              	.LASF278:
 5167 0aab 6E6F7469 		.ascii	"notify1\000"
 5167      66793100 
 5168              	.LASF125:
 5169 0ab3 4C6F7750 		.ascii	"LowPowerTimer_IRQn\000"
 5169      6F776572 
 5169      54696D65 
 5169      725F4952 
 5169      516E00
 5170              	.LASF2:
 5171 0ac6 73686F72 		.ascii	"short int\000"
 5171      7420696E 
 5171      7400
 5172              	.LASF210:
 5173 0ad0 6576656E 		.ascii	"event_source\000"
 5173      745F736F 
 5173      75726365 
 5173      00
 5174              	.LASF10:
 5175 0add 75696E74 		.ascii	"uint64_t\000"
 5175      36345F74 
 5175      00
 5176              	.LASF172:
 5177 0ae6 57463738 		.ascii	"WF7816\000"
 5177      313600
 5178              	.LASF165:
 5179 0aed 54434649 		.ascii	"TCFIFO\000"
 5179      464F00
 5180              	.LASF197:
 5181 0af4 63685F6D 		.ascii	"ch_mutex\000"
 5181      75746578 
 5181      00
 5182              	.LASF236:
 5183 0afd 75617274 		.ascii	"uart\000"
ARM GAS  /tmp/ccBURVhG.s 			page 101


 5183      00
 5184              	.LASF234:
 5185 0b02 69717565 		.ascii	"iqueue\000"
 5185      756500
 5186              	.LASF50:
 5187 0b09 725F7072 		.ascii	"r_prio\000"
 5187      696F00
 5188              	.LASF67:
 5189 0b10 63685F73 		.ascii	"ch_system_debug\000"
 5189      79737465 
 5189      6D5F6465 
 5189      62756700 
 5190              	.LASF213:
 5191 0b20 696F5F71 		.ascii	"io_queue_t\000"
 5191      75657565 
 5191      5F7400
 5192              	.LASF91:
 5193 0b2b 444D415F 		.ascii	"DMA_IRQn\000"
 5193      4952516E 
 5193      00
 5194              	.LASF134:
 5195 0b34 534F5054 		.ascii	"SOPT1CFG\000"
 5195      31434647 
 5195      00
 5196              	.LASF113:
 5197 0b3d 434D545F 		.ascii	"CMT_IRQn\000"
 5197      4952516E 
 5197      00
 5198              	.LASF72:
 5199 0b46 76746C69 		.ascii	"vtlist\000"
 5199      737400
 5200              	.LASF123:
 5201 0b4d 5453495F 		.ascii	"TSI_IRQn\000"
 5201      4952516E 
 5201      00
 5202              	.LASF202:
 5203 0b56 6D757465 		.ascii	"mutex_t\000"
 5203      785F7400 
 5204              	.LASF14:
 5205 0b5e 74726566 		.ascii	"trefs_t\000"
 5205      735F7400 
 5206              	.LASF42:
 5207 0b66 74687265 		.ascii	"threads_list_t\000"
 5207      6164735F 
 5207      6C697374 
 5207      5F7400
 5208              	.LASF98:
 5209 0b75 53504930 		.ascii	"SPI0_IRQn\000"
 5209      5F495251 
 5209      6E00
 5210              	.LASF170:
 5211 0b7f 49533738 		.ascii	"IS7816\000"
 5211      313600
 5212              	.LASF70:
 5213 0b86 63685F73 		.ascii	"ch_system\000"
 5213      79737465 
 5213      6D00
ARM GAS  /tmp/ccBURVhG.s 			page 102


 5214              	.LASF130:
 5215 0b90 50494E45 		.ascii	"PINE_IRQn\000"
 5215      5F495251 
 5215      6E00
 5216              	.LASF272:
 5217 0b9a 6E766963 		.ascii	"nvicEnableVector\000"
 5217      456E6162 
 5217      6C655665 
 5217      63746F72 
 5217      00
 5218              	.LASF9:
 5219 0bab 75696E74 		.ascii	"uint32_t\000"
 5219      33325F74 
 5219      00
 5220              	.LASF224:
 5221 0bb4 696E7075 		.ascii	"input_queue_t\000"
 5221      745F7175 
 5221      6575655F 
 5221      7400
 5222              	.LASF255:
 5223 0bc2 6F73616C 		.ascii	"osalEventBroadcastFlagsI\000"
 5223      4576656E 
 5223      7442726F 
 5223      61646361 
 5223      7374466C 
 5224              	.LASF157:
 5225 0bdb 53494D5F 		.ascii	"SIM_TypeDef\000"
 5225      54797065 
 5225      44656600 
 5226              	.LASF204:
 5227 0be7 6576656E 		.ascii	"event_listener\000"
 5227      745F6C69 
 5227      7374656E 
 5227      657200
 5228              	.LASF187:
 5229 0bf6 7264796D 		.ascii	"rdymsg\000"
 5229      736700
 5230              	.LASF8:
 5231 0bfd 73686F72 		.ascii	"short unsigned int\000"
 5231      7420756E 
 5231      7369676E 
 5231      65642069 
 5231      6E7400
 5232              	.LASF266:
 5233 0c10 73645F6C 		.ascii	"sd_lld_stop\000"
 5233      6C645F73 
 5233      746F7000 
 5234              	.LASF69:
 5235 0c1c 63685F73 		.ascii	"ch_system_t\000"
 5235      79737465 
 5235      6D5F7400 
 5236              	.LASF84:
 5237 0c28 50656E64 		.ascii	"PendSV_IRQn\000"
 5237      53565F49 
 5237      52516E00 
 5238              	.LASF86:
 5239 0c34 444D4130 		.ascii	"DMA0_IRQn\000"
ARM GAS  /tmp/ccBURVhG.s 			page 103


 5239      5F495251 
 5239      6E00
 5240              	.LASF225:
 5241 0c3e 6F757470 		.ascii	"output_queue_t\000"
 5241      75745F71 
 5241      75657565 
 5241      5F7400
 5242              	.LASF173:
 5243 0c4d 45543738 		.ascii	"ET7816\000"
 5243      313600
 5244              	.LASF228:
 5245 0c54 53445F53 		.ascii	"SD_STOP\000"
 5245      544F5000 
 5246              	.LASF158:
 5247 0c5c 57503738 		.ascii	"WP7816T0\000"
 5247      31365430 
 5247      00
 5248              	.LASF129:
 5249 0c65 50494E44 		.ascii	"PIND_IRQn\000"
 5249      5F495251 
 5249      6E00
 5250              	.LASF259:
 5251 0c6f 7072656C 		.ascii	"preload\000"
 5251      6F616400 
 5252              	.LASF78:
 5253 0c77 48617264 		.ascii	"HardFault_IRQn\000"
 5253      4661756C 
 5253      745F4952 
 5253      516E00
 5254              	.LASF153:
 5255 0c86 55494448 		.ascii	"UIDH\000"
 5255      00
 5256              	.LASF29:
 5257 0c8b 705F6E61 		.ascii	"p_name\000"
 5257      6D6500
 5258              	.LASF156:
 5259 0c92 5549444C 		.ascii	"UIDL\000"
 5259      00
 5260              	.LASF200:
 5261 0c97 6D5F6E65 		.ascii	"m_next\000"
 5261      787400
 5262              	.LASF120:
 5263 0c9e 5044425F 		.ascii	"PDB_IRQn\000"
 5263      4952516E 
 5263      00
 5264              	.LASF36:
 5265 0ca7 705F6D73 		.ascii	"p_msg\000"
 5265      6700
 5266              	.LASF206:
 5267 0cad 656C5F6C 		.ascii	"el_listener\000"
 5267      69737465 
 5267      6E657200 
 5268              	.LASF30:
 5269 0cb9 705F7374 		.ascii	"p_state\000"
 5269      61746500 
 5270              		.ident	"GCC: (Debian 4.9.2-10) 4.9.2"
 5271              		.section	.note.GNU-stack,"",%progbits
ARM GAS  /tmp/ccBURVhG.s 			page 104


ARM GAS  /tmp/ccBURVhG.s 			page 105


DEFINED SYMBOLS
                            *ABS*:00000000 serial_lld.c
     /tmp/ccBURVhG.s:19     .text.notify1:00000000 $t
     /tmp/ccBURVhG.s:24     .text.notify1:00000000 notify1
     /tmp/ccBURVhG.s:102    .text.notify1:00000034 $d
     /tmp/ccBURVhG.s:112    .text.Vector80:00000000 $t
     /tmp/ccBURVhG.s:118    .text.Vector80:00000000 Vector80
     /tmp/ccBURVhG.s:384    .text.Vector80:00000090 $d
     /tmp/ccBURVhG.s:395    .text.sd_lld_init:00000000 $t
     /tmp/ccBURVhG.s:401    .text.sd_lld_init:00000000 sd_lld_init
     /tmp/ccBURVhG.s:425    .text.sd_lld_init:00000014 $d
     /tmp/ccBURVhG.s:432    .text.sd_lld_start:00000000 $t
     /tmp/ccBURVhG.s:438    .text.sd_lld_start:00000000 sd_lld_start
     /tmp/ccBURVhG.s:551    .text.sd_lld_start:0000007c $d
     /tmp/ccBURVhG.s:558    .text.sd_lld_stop:00000000 $t
     /tmp/ccBURVhG.s:564    .text.sd_lld_stop:00000000 sd_lld_stop
     /tmp/ccBURVhG.s:603    .text.sd_lld_stop:00000028 $d
     /tmp/ccBURVhG.s:621    .bss.SD1:00000000 SD1
     /tmp/ccBURVhG.s:610    .rodata.default_config:00000000 $d
     /tmp/ccBURVhG.s:614    .rodata.default_config:00000000 default_config
     /tmp/ccBURVhG.s:617    .bss.SD1:00000000 $d
                     .debug_frame:00000010 $d
     /tmp/ccBURVhG.s:111    .text.notify1:00000038 $t
     /tmp/ccBURVhG.s:557    .text.sd_lld_start:00000088 $t

UNDEFINED SYMBOLS
chOQGetI
chEvtBroadcastFlagsI
chIQPutI
_port_irq_epilogue
sdObjectInit
nvicEnableVector
nvicDisableVector
