ARM GAS  /tmp/ccIdDZpd.s 			page 1


   1              		.syntax unified
   2              		.cpu cortex-m4
   3              		.fpu softvfp
   4              		.eabi_attribute 20, 1
   5              		.eabi_attribute 21, 1
   6              		.eabi_attribute 23, 3
   7              		.eabi_attribute 24, 1
   8              		.eabi_attribute 25, 1
   9              		.eabi_attribute 26, 2
  10              		.eabi_attribute 30, 2
  11              		.eabi_attribute 34, 1
  12              		.eabi_attribute 18, 4
  13              		.thumb
  14              		.file	"shell.c"
  15              		.text
  16              	.Ltext0:
  17              		.cfi_sections	.debug_frame
  18              		.section	.text.cmd_systime,"ax",%progbits
  19              		.align	2
  20              		.p2align 4,,15
  21              		.thumb
  22              		.thumb_func
  23              		.type	cmd_systime, %function
  24              	cmd_systime:
  25              	.LFB283:
  26              		.file 1 "../os/various/shell.c"
  27              		.loc 1 99 0
  28              		.cfi_startproc
  29              		@ args = 0, pretend = 0, frame = 0
  30              		@ frame_needed = 0, uses_anonymous_args = 0
  31              		@ link register save eliminated.
  32              	.LVL0:
  33              		.loc 1 102 0
  34 0000 0029     		cmp	r1, #0
  35 0002 03DD     		ble	.L2
  36              	.LVL1:
  37              	.LBB104:
  38              	.LBB105:
  39              		.loc 1 56 0
  40 0004 0749     		ldr	r1, .L4
  41              	.LVL2:
  42 0006 084A     		ldr	r2, .L4+4
  43              	.LVL3:
  44 0008 FFF7FEBF 		b	chprintf
  45              	.LVL4:
  46              	.L2:
  47              	.LBE105:
  48              	.LBE104:
  49              	.LBB106:
  50              	.LBB107:
  51              	.LBB108:
  52              	.LBB109:
  53              	.LBB110:
  54              	.LBB111:
  55              	.LBB112:
  56              	.LBB113:
  57              		.file 2 "../os/ext/CMSIS/include/core_cmFunc.h"
ARM GAS  /tmp/ccIdDZpd.s 			page 2


  58              		.loc 2 548 0
  59 000c 2023     		movs	r3, #32
  60              	#APP
  61              	@ 548 "../os/ext/CMSIS/include/core_cmFunc.h" 1
  62 000e 83F31188 		MSR basepri, r3
  63              	@ 0 "" 2
  64              		.thumb
  65              	.LBE113:
  66              	.LBE112:
  67              	.LBE111:
  68              	.LBE110:
  69              	.LBB114:
  70              	.LBB115:
  71              		.file 3 "../os/rt/include/chvt.h"
  72              		.loc 3 231 0
  73 0012 064A     		ldr	r2, .L4+8
  74              	.LVL5:
  75              	.LBE115:
  76              	.LBE114:
  77              	.LBB117:
  78              	.LBB118:
  79              	.LBB119:
  80              	.LBB120:
  81              	.LBB121:
  82              		.loc 2 548 0
  83 0014 0023     		movs	r3, #0
  84              	.LBE121:
  85              	.LBE120:
  86              	.LBE119:
  87              	.LBE118:
  88              	.LBE117:
  89              	.LBB126:
  90              	.LBB116:
  91              		.loc 3 231 0
  92 0016 926A     		ldr	r2, [r2, #40]
  93              	.LVL6:
  94              	.LBE116:
  95              	.LBE126:
  96              	.LBB127:
  97              	.LBB125:
  98              	.LBB124:
  99              	.LBB123:
 100              	.LBB122:
 101              		.loc 2 548 0
 102              	#APP
 103              	@ 548 "../os/ext/CMSIS/include/core_cmFunc.h" 1
 104 0018 83F31188 		MSR basepri, r3
 105              	@ 0 "" 2
 106              		.thumb
 107              	.LBE122:
 108              	.LBE123:
 109              	.LBE124:
 110              	.LBE125:
 111              	.LBE127:
 112              	.LBE109:
 113              	.LBE108:
 114              		.loc 1 106 0
ARM GAS  /tmp/ccIdDZpd.s 			page 3


 115 001c 0449     		ldr	r1, .L4+12
 116              	.LVL7:
 117 001e FFF7FEBF 		b	chprintf
 118              	.LVL8:
 119              	.L5:
 120 0022 00BF     		.align	2
 121              	.L4:
 122 0024 00000000 		.word	.LC0
 123 0028 0C000000 		.word	.LC1
 124 002c 00000000 		.word	ch
 125 0030 14000000 		.word	.LC2
 126              	.LBE107:
 127              	.LBE106:
 128              		.cfi_endproc
 129              	.LFE283:
 130              		.size	cmd_systime, .-cmd_systime
 131 0034 AFF30080 		.section	.text.cmd_info,"ax",%progbits
 131      AFF30080 
 131      AFF30080 
 132              		.align	2
 133              		.p2align 4,,15
 134              		.thumb
 135              		.thumb_func
 136              		.type	cmd_info, %function
 137              	cmd_info:
 138              	.LFB282:
 139              		.loc 1 67 0
 140              		.cfi_startproc
 141              		@ args = 0, pretend = 0, frame = 0
 142              		@ frame_needed = 0, uses_anonymous_args = 0
 143              	.LVL9:
 144              		.loc 1 70 0
 145 0000 0029     		cmp	r1, #0
 146 0002 03DD     		ble	.L7
 147              	.LVL10:
 148              	.LBB134:
 149              	.LBB135:
 150              		.loc 1 56 0
 151 0004 1949     		ldr	r1, .L9
 152              	.LVL11:
 153 0006 1A4A     		ldr	r2, .L9+4
 154              	.LVL12:
 155 0008 FFF7FEBF 		b	chprintf
 156              	.LVL13:
 157              	.L7:
 158              	.LBE135:
 159              	.LBE134:
 160              		.loc 1 67 0
 161 000c 10B5     		push	{r4, lr}
 162              		.cfi_def_cfa_offset 8
 163              		.cfi_offset 4, -8
 164              		.cfi_offset 14, -4
 165              	.LBB136:
 166              	.LBB137:
 167              		.loc 1 75 0
 168 000e 1949     		ldr	r1, .L9+8
 169              	.LVL14:
ARM GAS  /tmp/ccIdDZpd.s 			page 4


 170 0010 194A     		ldr	r2, .L9+12
 171              	.LVL15:
 172              	.LBE137:
 173              	.LBE136:
 174              		.loc 1 67 0
 175 0012 82B0     		sub	sp, sp, #8
 176              		.cfi_def_cfa_offset 16
 177 0014 0446     		mov	r4, r0
 178              	.LVL16:
 179              	.LBB139:
 180              	.LBB138:
 181              		.loc 1 75 0
 182 0016 FFF7FEFF 		bl	chprintf
 183              	.LVL17:
 184              		.loc 1 77 0
 185 001a 2046     		mov	r0, r4
 186 001c 1749     		ldr	r1, .L9+16
 187 001e 184A     		ldr	r2, .L9+20
 188 0020 FFF7FEFF 		bl	chprintf
 189              	.LVL18:
 190              		.loc 1 79 0
 191 0024 2046     		mov	r0, r4
 192 0026 1749     		ldr	r1, .L9+24
 193 0028 174A     		ldr	r2, .L9+28
 194 002a FFF7FEFF 		bl	chprintf
 195              	.LVL19:
 196              		.loc 1 81 0
 197 002e 2046     		mov	r0, r4
 198 0030 1649     		ldr	r1, .L9+32
 199 0032 174A     		ldr	r2, .L9+36
 200 0034 FFF7FEFF 		bl	chprintf
 201              	.LVL20:
 202              		.loc 1 84 0
 203 0038 2046     		mov	r0, r4
 204 003a 1649     		ldr	r1, .L9+40
 205 003c 164A     		ldr	r2, .L9+44
 206 003e FFF7FEFF 		bl	chprintf
 207              	.LVL21:
 208              		.loc 1 87 0
 209 0042 2046     		mov	r0, r4
 210 0044 1549     		ldr	r1, .L9+48
 211 0046 164A     		ldr	r2, .L9+52
 212 0048 FFF7FEFF 		bl	chprintf
 213              	.LVL22:
 214              		.loc 1 90 0
 215 004c 2046     		mov	r0, r4
 216 004e 1549     		ldr	r1, .L9+56
 217 0050 154A     		ldr	r2, .L9+60
 218 0052 FFF7FEFF 		bl	chprintf
 219              	.LVL23:
 220              		.loc 1 94 0
 221 0056 154B     		ldr	r3, .L9+64
 222 0058 0093     		str	r3, [sp]
 223 005a 2046     		mov	r0, r4
 224 005c 1449     		ldr	r1, .L9+68
 225 005e 154A     		ldr	r2, .L9+72
 226 0060 154B     		ldr	r3, .L9+76
ARM GAS  /tmp/ccIdDZpd.s 			page 5


 227 0062 FFF7FEFF 		bl	chprintf
 228              	.LVL24:
 229              	.LBE138:
 230              	.LBE139:
 231              		.loc 1 97 0
 232 0066 02B0     		add	sp, sp, #8
 233              		.cfi_def_cfa_offset 8
 234              		@ sp needed
 235 0068 10BD     		pop	{r4, pc}
 236              	.LVL25:
 237              	.L10:
 238 006a 00BF     		.align	2
 239              	.L9:
 240 006c 00000000 		.word	.LC0
 241 0070 1C000000 		.word	.LC3
 242 0074 24000000 		.word	.LC4
 243 0078 38000000 		.word	.LC5
 244 007c 40000000 		.word	.LC6
 245 0080 54000000 		.word	.LC7
 246 0084 60000000 		.word	.LC8
 247 0088 74000000 		.word	.LC9
 248 008c 80000000 		.word	.LC10
 249 0090 94000000 		.word	.LC11
 250 0094 A0000000 		.word	.LC12
 251 0098 B4000000 		.word	.LC13
 252 009c CC000000 		.word	.LC14
 253 00a0 E0000000 		.word	.LC15
 254 00a4 E8000000 		.word	.LC16
 255 00a8 FC000000 		.word	.LC17
 256 00ac 40010000 		.word	.LC21
 257 00b0 18010000 		.word	.LC18
 258 00b4 30010000 		.word	.LC19
 259 00b8 3C010000 		.word	.LC20
 260              		.cfi_endproc
 261              	.LFE282:
 262              		.size	cmd_info, .-cmd_info
 263 00bc AFF30080 		.section	.text._strtok.constprop.2,"ax",%progbits
 264              		.align	2
 265              		.p2align 4,,15
 266              		.thumb
 267              		.thumb_func
 268              		.type	_strtok.constprop.2, %function
 269              	_strtok.constprop.2:
 270              	.LFB293:
 271              		.loc 1 37 0
 272              		.cfi_startproc
 273              		@ args = 0, pretend = 0, frame = 0
 274              		@ frame_needed = 0, uses_anonymous_args = 0
 275              	.LVL26:
 276 0000 38B5     		push	{r3, r4, r5, lr}
 277              		.cfi_def_cfa_offset 16
 278              		.cfi_offset 3, -16
 279              		.cfi_offset 4, -12
 280              		.cfi_offset 5, -8
 281              		.cfi_offset 14, -4
 282              		.loc 1 37 0
 283 0002 0D46     		mov	r5, r1
ARM GAS  /tmp/ccIdDZpd.s 			page 6


 284              		.loc 1 39 0
 285 0004 0446     		mov	r4, r0
 286 0006 90B1     		cbz	r0, .L12
 287              		.loc 1 40 0
 288 0008 2860     		str	r0, [r5]
 289              	.LVL27:
 290              	.L13:
 291              	.LBB140:
 292              		.loc 1 46 0
 293 000a 2046     		mov	r0, r4
 294              	.LVL28:
 295 000c 0B49     		ldr	r1, .L23
 296              	.LVL29:
 297 000e FFF7FEFF 		bl	strspn
 298              	.LVL30:
 299              	.LBE140:
 300 0012 0444     		add	r4, r4, r0
 301              	.LVL31:
 302              	.LBB141:
 303              		.loc 1 47 0
 304 0014 2046     		mov	r0, r4
 305 0016 0949     		ldr	r1, .L23
 306 0018 FFF7FEFF 		bl	strpbrk
 307              	.LVL32:
 308              	.LBE141:
 309              		.loc 1 48 0
 310 001c 60B1     		cbz	r0, .L22
 311              		.loc 1 49 0
 312 001e 421C     		adds	r2, r0, #1
 313 0020 0023     		movs	r3, #0
 314 0022 2A60     		str	r2, [r5]
 315 0024 0370     		strb	r3, [r0]
 316              	.L16:
 317              		.loc 1 51 0
 318 0026 2378     		ldrb	r3, [r4]	@ zero_extendqisi2
 319 0028 23B1     		cbz	r3, .L17
 320 002a 2046     		mov	r0, r4
 321              		.loc 1 52 0
 322 002c 38BD     		pop	{r3, r4, r5, pc}
 323              	.LVL33:
 324              	.L12:
 325              		.loc 1 41 0
 326 002e 0C68     		ldr	r4, [r1]
 327              	.LVL34:
 328              		.loc 1 43 0
 329 0030 002C     		cmp	r4, #0
 330 0032 EAD1     		bne	.L13
 331              	.LVL35:
 332              	.L17:
 333              		.loc 1 44 0
 334 0034 0020     		movs	r0, #0
 335 0036 38BD     		pop	{r3, r4, r5, pc}
 336              	.LVL36:
 337              	.L22:
 338              		.loc 1 47 0
 339 0038 2860     		str	r0, [r5]
 340 003a F4E7     		b	.L16
ARM GAS  /tmp/ccIdDZpd.s 			page 7


 341              	.L24:
 342              		.align	2
 343              	.L23:
 344 003c 4C010000 		.word	.LC22
 345              		.cfi_endproc
 346              	.LFE293:
 347              		.size	_strtok.constprop.2, .-_strtok.constprop.2
 348              		.section	.text.shellInit,"ax",%progbits
 349              		.align	2
 350              		.p2align 4,,15
 351              		.global	shellInit
 352              		.thumb
 353              		.thumb_func
 354              		.type	shellInit, %function
 355              	shellInit:
 356              	.LFB286:
 357              		.loc 1 197 0
 358              		.cfi_startproc
 359              		@ args = 0, pretend = 0, frame = 0
 360              		@ frame_needed = 0, uses_anonymous_args = 0
 361              		@ link register save eliminated.
 362              	.LVL37:
 363              	.LBB142:
 364              	.LBB143:
 365              		.file 4 "../os/rt/include/chevents.h"
 366              		.loc 4 172 0
 367 0000 014B     		ldr	r3, .L26
 368 0002 1B60     		str	r3, [r3]
 369 0004 7047     		bx	lr
 370              	.L27:
 371 0006 00BF     		.align	2
 372              	.L26:
 373 0008 00000000 		.word	.LANCHOR0
 374              	.LBE143:
 375              	.LBE142:
 376              		.cfi_endproc
 377              	.LFE286:
 378              		.size	shellInit, .-shellInit
 379 000c AFF30080 		.section	.text.shellExit,"ax",%progbits
 380              		.align	2
 381              		.p2align 4,,15
 382              		.global	shellExit
 383              		.thumb
 384              		.thumb_func
 385              		.type	shellExit, %function
 386              	shellExit:
 387              	.LFB287:
 388              		.loc 1 211 0
 389              		.cfi_startproc
 390              		@ args = 0, pretend = 0, frame = 0
 391              		@ frame_needed = 0, uses_anonymous_args = 0
 392              	.LVL38:
 393 0000 10B5     		push	{r4, lr}
 394              		.cfi_def_cfa_offset 8
 395              		.cfi_offset 4, -8
 396              		.cfi_offset 14, -4
 397              	.LBB144:
ARM GAS  /tmp/ccIdDZpd.s 			page 8


 398              	.LBB145:
 399              	.LBB146:
 400              	.LBB147:
 401              		.loc 2 548 0
 402 0002 2023     		movs	r3, #32
 403              	.LBE147:
 404              	.LBE146:
 405              	.LBE145:
 406              	.LBE144:
 407              		.loc 1 211 0
 408 0004 0446     		mov	r4, r0
 409              	.LBB151:
 410              	.LBB150:
 411              	.LBB149:
 412              	.LBB148:
 413              		.loc 2 548 0
 414              	#APP
 415              	@ 548 "../os/ext/CMSIS/include/core_cmFunc.h" 1
 416 0006 83F31188 		MSR basepri, r3
 417              	@ 0 "" 2
 418              	.LVL39:
 419              		.thumb
 420              	.LBE148:
 421              	.LBE149:
 422              	.LBE150:
 423              	.LBE151:
 424              	.LBB152:
 425              	.LBB153:
 426              		.loc 4 256 0
 427 000a 0448     		ldr	r0, .L30
 428              	.LVL40:
 429 000c 0021     		movs	r1, #0
 430 000e FFF7FEFF 		bl	chEvtBroadcastFlagsI
 431              	.LVL41:
 432              	.LBE153:
 433              	.LBE152:
 434              		.loc 1 217 0
 435 0012 2046     		mov	r0, r4
 436              		.loc 1 218 0
 437 0014 BDE81040 		pop	{r4, lr}
 438              		.cfi_restore 14
 439              		.cfi_restore 4
 440              		.cfi_def_cfa_offset 0
 441              	.LVL42:
 442              		.loc 1 217 0
 443 0018 FFF7FEBF 		b	chThdExitS
 444              	.LVL43:
 445              	.L31:
 446              		.align	2
 447              	.L30:
 448 001c 00000000 		.word	.LANCHOR0
 449              		.cfi_endproc
 450              	.LFE287:
 451              		.size	shellExit, .-shellExit
 452              		.section	.text.shellCreate,"ax",%progbits
 453              		.align	2
 454              		.p2align 4,,15
ARM GAS  /tmp/ccIdDZpd.s 			page 9


 455              		.global	shellCreate
 456              		.thumb
 457              		.thumb_func
 458              		.type	shellCreate, %function
 459              	shellCreate:
 460              	.LFB288:
 461              		.loc 1 233 0
 462              		.cfi_startproc
 463              		@ args = 0, pretend = 0, frame = 0
 464              		@ frame_needed = 0, uses_anonymous_args = 0
 465              	.LVL44:
 466 0000 00B5     		push	{lr}
 467              		.cfi_def_cfa_offset 4
 468              		.cfi_offset 14, -4
 469 0002 83B0     		sub	sp, sp, #12
 470              		.cfi_def_cfa_offset 16
 471              		.loc 1 235 0
 472 0004 034B     		ldr	r3, .L34
 473 0006 0090     		str	r0, [sp]
 474 0008 0020     		movs	r0, #0
 475              	.LVL45:
 476 000a FFF7FEFF 		bl	chThdCreateFromHeap
 477              	.LVL46:
 478              		.loc 1 236 0
 479 000e 03B0     		add	sp, sp, #12
 480              		.cfi_def_cfa_offset 4
 481              		@ sp needed
 482 0010 5DF804FB 		ldr	pc, [sp], #4
 483              	.L35:
 484              		.align	2
 485              	.L34:
 486 0014 00000000 		.word	shell_thread
 487              		.cfi_endproc
 488              	.LFE288:
 489              		.size	shellCreate, .-shellCreate
 490 0018 AFF30080 		.section	.text.shellCreateStatic,"ax",%progbits
 490      AFF30080 
 491              		.align	2
 492              		.p2align 4,,15
 493              		.global	shellCreateStatic
 494              		.thumb
 495              		.thumb_func
 496              		.type	shellCreateStatic, %function
 497              	shellCreateStatic:
 498              	.LFB289:
 499              		.loc 1 251 0
 500              		.cfi_startproc
 501              		@ args = 0, pretend = 0, frame = 0
 502              		@ frame_needed = 0, uses_anonymous_args = 0
 503              	.LVL47:
 504 0000 00B5     		push	{lr}
 505              		.cfi_def_cfa_offset 4
 506              		.cfi_offset 14, -4
 507 0002 83B0     		sub	sp, sp, #12
 508              		.cfi_def_cfa_offset 16
 509              		.loc 1 253 0
 510 0004 0090     		str	r0, [sp]
ARM GAS  /tmp/ccIdDZpd.s 			page 10


 511 0006 0846     		mov	r0, r1
 512              	.LVL48:
 513 0008 1146     		mov	r1, r2
 514              	.LVL49:
 515 000a 1A46     		mov	r2, r3
 516              	.LVL50:
 517 000c 024B     		ldr	r3, .L38
 518              	.LVL51:
 519 000e FFF7FEFF 		bl	chThdCreateStatic
 520              	.LVL52:
 521              		.loc 1 254 0
 522 0012 03B0     		add	sp, sp, #12
 523              		.cfi_def_cfa_offset 4
 524              		@ sp needed
 525 0014 5DF804FB 		ldr	pc, [sp], #4
 526              	.L39:
 527              		.align	2
 528              	.L38:
 529 0018 00000000 		.word	shell_thread
 530              		.cfi_endproc
 531              	.LFE289:
 532              		.size	shellCreateStatic, .-shellCreateStatic
 533 001c AFF30080 		.section	.text.shellGetLine,"ax",%progbits
 534              		.align	2
 535              		.p2align 4,,15
 536              		.global	shellGetLine
 537              		.thumb
 538              		.thumb_func
 539              		.type	shellGetLine, %function
 540              	shellGetLine:
 541              	.LFB290:
 542              		.loc 1 268 0
 543              		.cfi_startproc
 544              		@ args = 0, pretend = 0, frame = 8
 545              		@ frame_needed = 0, uses_anonymous_args = 0
 546              	.LVL53:
 547 0000 F0B5     		push	{r4, r5, r6, r7, lr}
 548              		.cfi_def_cfa_offset 20
 549              		.cfi_offset 4, -20
 550              		.cfi_offset 5, -16
 551              		.cfi_offset 6, -12
 552              		.cfi_offset 7, -8
 553              		.cfi_offset 14, -4
 554              	.LBB154:
 555              		.loc 1 296 0
 556 0002 013A     		subs	r2, r2, #1
 557              	.LVL54:
 558              	.LBE154:
 559              		.loc 1 268 0
 560 0004 83B0     		sub	sp, sp, #12
 561              		.cfi_def_cfa_offset 32
 562              		.loc 1 268 0
 563 0006 0E46     		mov	r6, r1
 564              	.LVL55:
 565              	.LBB155:
 566              		.loc 1 296 0
 567 0008 8F18     		adds	r7, r1, r2
ARM GAS  /tmp/ccIdDZpd.s 			page 11


 568              	.LBE155:
 569              		.loc 1 268 0
 570 000a 0446     		mov	r4, r0
 571 000c 0D46     		mov	r5, r1
 572              	.LVL56:
 573              	.L41:
 574              	.LBB156:
 575              		.loc 1 274 0
 576 000e 2368     		ldr	r3, [r4]
 577 0010 2046     		mov	r0, r4
 578 0012 5B68     		ldr	r3, [r3, #4]
 579 0014 0DF10701 		add	r1, sp, #7
 580 0018 0122     		movs	r2, #1
 581 001a 9847     		blx	r3
 582              	.LVL57:
 583 001c 48B3     		cbz	r0, .L50
 584              		.loc 1 276 0
 585 001e 9DF80710 		ldrb	r1, [sp, #7]	@ zero_extendqisi2
 586 0022 0429     		cmp	r1, #4
 587 0024 28D0     		beq	.L57
 588              		.loc 1 280 0
 589 0026 0829     		cmp	r1, #8
 590 0028 10D0     		beq	.L44
 591              		.loc 1 280 0 is_stmt 0 discriminator 1
 592 002a 7F29     		cmp	r1, #127
 593 002c 0ED0     		beq	.L44
 594              		.loc 1 289 0 is_stmt 1
 595 002e 0D29     		cmp	r1, #13
 596 0030 29D0     		beq	.L58
 597              		.loc 1 294 0
 598 0032 1F29     		cmp	r1, #31
 599 0034 EBD9     		bls	.L41
 600              		.loc 1 296 0
 601 0036 BD42     		cmp	r5, r7
 602 0038 E9D2     		bcs	.L41
 603              		.loc 1 297 0
 604 003a 2368     		ldr	r3, [r4]
 605 003c 2046     		mov	r0, r4
 606 003e 9B68     		ldr	r3, [r3, #8]
 607 0040 9847     		blx	r3
 608              	.LVL58:
 609              		.loc 1 298 0
 610 0042 9DF80730 		ldrb	r3, [sp, #7]	@ zero_extendqisi2
 611 0046 2B70     		strb	r3, [r5]
 612 0048 0135     		adds	r5, r5, #1
 613              	.LVL59:
 614 004a E0E7     		b	.L41
 615              	.L44:
 616              		.loc 1 281 0
 617 004c B542     		cmp	r5, r6
 618              		.loc 1 282 0
 619 004e 2046     		mov	r0, r4
 620              		.loc 1 281 0
 621 0050 DDD0     		beq	.L41
 622              	.LVL60:
 623              		.loc 1 282 0
 624 0052 2368     		ldr	r3, [r4]
ARM GAS  /tmp/ccIdDZpd.s 			page 12


 625 0054 9B68     		ldr	r3, [r3, #8]
 626 0056 9847     		blx	r3
 627              	.LVL61:
 628              		.loc 1 283 0
 629 0058 2368     		ldr	r3, [r4]
 630 005a 2046     		mov	r0, r4
 631 005c 9B68     		ldr	r3, [r3, #8]
 632 005e 2021     		movs	r1, #32
 633 0060 9847     		blx	r3
 634              	.LVL62:
 635              		.loc 1 284 0
 636 0062 2368     		ldr	r3, [r4]
 637 0064 9DF80710 		ldrb	r1, [sp, #7]	@ zero_extendqisi2
 638 0068 9B68     		ldr	r3, [r3, #8]
 639 006a 2046     		mov	r0, r4
 640              		.loc 1 285 0
 641 006c 013D     		subs	r5, r5, #1
 642              	.LVL63:
 643              		.loc 1 284 0
 644 006e 9847     		blx	r3
 645              	.LVL64:
 646 0070 CDE7     		b	.L41
 647              	.L50:
 648              		.loc 1 275 0
 649 0072 0120     		movs	r0, #1
 650              	.LBE156:
 651              		.loc 1 301 0
 652 0074 03B0     		add	sp, sp, #12
 653              		.cfi_remember_state
 654              		.cfi_def_cfa_offset 20
 655              		@ sp needed
 656 0076 F0BD     		pop	{r4, r5, r6, r7, pc}
 657              	.LVL65:
 658              	.L57:
 659              		.cfi_restore_state
 660              	.LBB157:
 661              		.loc 1 277 0
 662 0078 2046     		mov	r0, r4
 663 007a 0749     		ldr	r1, .L59
 664 007c FFF7FEFF 		bl	chprintf
 665              	.LVL66:
 666              		.loc 1 278 0
 667 0080 0120     		movs	r0, #1
 668              	.LBE157:
 669              		.loc 1 301 0
 670 0082 03B0     		add	sp, sp, #12
 671              		.cfi_remember_state
 672              		.cfi_def_cfa_offset 20
 673              		@ sp needed
 674 0084 F0BD     		pop	{r4, r5, r6, r7, pc}
 675              	.LVL67:
 676              	.L58:
 677              		.cfi_restore_state
 678              	.LBB158:
 679              		.loc 1 290 0
 680 0086 2046     		mov	r0, r4
 681 0088 0449     		ldr	r1, .L59+4
ARM GAS  /tmp/ccIdDZpd.s 			page 13


 682 008a FFF7FEFF 		bl	chprintf
 683              	.LVL68:
 684              		.loc 1 291 0
 685 008e 0020     		movs	r0, #0
 686 0090 2870     		strb	r0, [r5]
 687              	.LBE158:
 688              		.loc 1 301 0
 689 0092 03B0     		add	sp, sp, #12
 690              		.cfi_def_cfa_offset 20
 691              		@ sp needed
 692 0094 F0BD     		pop	{r4, r5, r6, r7, pc}
 693              	.LVL69:
 694              	.L60:
 695 0096 00BF     		.align	2
 696              	.L59:
 697 0098 50010000 		.word	.LC23
 698 009c 54010000 		.word	.LC24
 699              		.cfi_endproc
 700              	.LFE290:
 701              		.size	shellGetLine, .-shellGetLine
 702              		.section	.text.shell_thread,"ax",%progbits
 703              		.align	2
 704              		.p2align 4,,15
 705              		.thumb
 706              		.thumb_func
 707              		.type	shell_thread, %function
 708              	shell_thread:
 709              	.LFB285:
 710              		.loc 1 136 0
 711              		.cfi_startproc
 712              		@ args = 0, pretend = 0, frame = 88
 713              		@ frame_needed = 0, uses_anonymous_args = 0
 714              	.LVL70:
 715 0000 2DE9F041 		push	{r4, r5, r6, r7, r8, lr}
 716              		.cfi_def_cfa_offset 24
 717              		.cfi_offset 4, -24
 718              		.cfi_offset 5, -20
 719              		.cfi_offset 6, -16
 720              		.cfi_offset 7, -12
 721              		.cfi_offset 8, -8
 722              		.cfi_offset 14, -4
 723              	.LBB178:
 724              	.LBB179:
 725              		.file 5 "../os/rt/include/chregistry.h"
 726              		.loc 5 135 0
 727 0004 564B     		ldr	r3, .L114
 728              	.LBE179:
 729              	.LBE178:
 730              		.loc 1 138 0
 731 0006 0668     		ldr	r6, [r0]
 732              	.LVL71:
 733              	.LBB182:
 734              	.LBB180:
 735              		.loc 5 135 0
 736 0008 9B69     		ldr	r3, [r3, #24]
 737 000a 564A     		ldr	r2, .L114+4
 738              	.LBE180:
ARM GAS  /tmp/ccIdDZpd.s 			page 14


 739              	.LBE182:
 740              		.loc 1 139 0
 741 000c D0F80480 		ldr	r8, [r0, #4]
 742              	.LVL72:
 743              		.loc 1 144 0
 744 0010 5549     		ldr	r1, .L114+8
 745              	.LBB183:
 746              	.LBB181:
 747              		.loc 5 135 0
 748 0012 9A61     		str	r2, [r3, #24]
 749              	.LBE181:
 750              	.LBE183:
 751              		.loc 1 136 0
 752 0014 96B0     		sub	sp, sp, #88
 753              		.cfi_def_cfa_offset 112
 754              		.loc 1 144 0
 755 0016 3046     		mov	r0, r6
 756              	.LVL73:
 757 0018 FFF7FEFF 		bl	chprintf
 758              	.LVL74:
 759              	.L63:
 760              		.loc 1 146 0
 761 001c 5349     		ldr	r1, .L114+12
 762 001e 3046     		mov	r0, r6
 763 0020 FFF7FEFF 		bl	chprintf
 764              	.LVL75:
 765              		.loc 1 147 0
 766 0024 3046     		mov	r0, r6
 767 0026 06A9     		add	r1, sp, #24
 768 0028 4022     		movs	r2, #64
 769 002a FFF7FEFF 		bl	shellGetLine
 770              	.LVL76:
 771 002e 0446     		mov	r4, r0
 772 0030 78BB     		cbnz	r0, .L109
 773              		.loc 1 151 0
 774 0032 6946     		mov	r1, sp
 775 0034 06A8     		add	r0, sp, #24
 776 0036 FFF7FEFF 		bl	_strtok.constprop.2
 777              	.LVL77:
 778              		.loc 1 154 0
 779 003a 6946     		mov	r1, sp
 780              		.loc 1 151 0
 781 003c 0746     		mov	r7, r0
 782              	.LVL78:
 783              		.loc 1 154 0
 784 003e 0020     		movs	r0, #0
 785              	.LVL79:
 786 0040 01AD     		add	r5, sp, #4
 787 0042 FFF7FEFF 		bl	_strtok.constprop.2
 788              	.LVL80:
 789 0046 50B1     		cbz	r0, .L110
 790              	.L69:
 791              		.loc 1 155 0
 792 0048 042C     		cmp	r4, #4
 793 004a 1BD0     		beq	.L111
 794              		.loc 1 160 0
 795 004c 45F8040B 		str	r0, [r5], #4
ARM GAS  /tmp/ccIdDZpd.s 			page 15


 796              		.loc 1 154 0
 797 0050 6946     		mov	r1, sp
 798 0052 0020     		movs	r0, #0
 799              	.LVL81:
 800              		.loc 1 160 0
 801 0054 0134     		adds	r4, r4, #1
 802              	.LVL82:
 803              		.loc 1 154 0
 804 0056 FFF7FEFF 		bl	_strtok.constprop.2
 805              	.LVL83:
 806 005a 0028     		cmp	r0, #0
 807 005c F4D1     		bne	.L69
 808              	.L110:
 809              		.loc 1 162 0
 810 005e 16AB     		add	r3, sp, #88
 811 0060 03EB8403 		add	r3, r3, r4, lsl #2
 812 0064 43F8540C 		str	r0, [r3, #-84]
 813              		.loc 1 163 0
 814 0068 002F     		cmp	r7, #0
 815 006a D7D0     		beq	.L63
 816              	.LVL84:
 817              	.LBB184:
 818              		.loc 1 164 0
 819 006c 3846     		mov	r0, r7
 820              	.LVL85:
 821 006e 4049     		ldr	r1, .L114+16
 822 0070 FFF7FEFF 		bl	strcmp
 823              	.LVL86:
 824              	.LBE184:
 825 0074 B8B9     		cbnz	r0, .L70
 826              		.loc 1 165 0
 827 0076 84B1     		cbz	r4, .L65
 828              	.LVL87:
 829              	.LBB185:
 830              	.LBB186:
 831              		.loc 1 56 0
 832 0078 3046     		mov	r0, r6
 833 007a 3E49     		ldr	r1, .L114+20
 834 007c 3C4A     		ldr	r2, .L114+16
 835 007e FFF7FEFF 		bl	chprintf
 836              	.LVL88:
 837              	.LBE186:
 838              	.LBE185:
 839              		.loc 1 167 0
 840 0082 CBE7     		b	.L63
 841              	.LVL89:
 842              	.L111:
 843              		.loc 1 156 0
 844 0084 3046     		mov	r0, r6
 845              	.LVL90:
 846 0086 3C49     		ldr	r1, .L114+24
 847 0088 FFF7FEFF 		bl	chprintf
 848              	.LVL91:
 849              		.loc 1 162 0
 850 008c 0023     		movs	r3, #0
 851 008e 0593     		str	r3, [sp, #20]
 852 0090 C4E7     		b	.L63
ARM GAS  /tmp/ccIdDZpd.s 			page 16


 853              	.LVL92:
 854              	.L109:
 855              		.loc 1 148 0
 856 0092 3046     		mov	r0, r6
 857 0094 3949     		ldr	r1, .L114+28
 858 0096 FFF7FEFF 		bl	chprintf
 859              	.LVL93:
 860              	.L65:
 861              		.loc 1 189 0
 862 009a 0020     		movs	r0, #0
 863 009c FFF7FEFF 		bl	shellExit
 864              	.LVL94:
 865              		.loc 1 190 0
 866 00a0 16B0     		add	sp, sp, #88
 867              		.cfi_remember_state
 868              		.cfi_def_cfa_offset 24
 869              		@ sp needed
 870 00a2 BDE8F081 		pop	{r4, r5, r6, r7, r8, pc}
 871              	.LVL95:
 872              	.L70:
 873              		.cfi_restore_state
 874              	.LBB187:
 875              		.loc 1 171 0
 876 00a6 3846     		mov	r0, r7
 877 00a8 3549     		ldr	r1, .L114+32
 878 00aa FFF7FEFF 		bl	strcmp
 879              	.LVL96:
 880              	.LBE187:
 881 00ae 30B9     		cbnz	r0, .L112
 882              	.LBB188:
 883              	.LBB189:
 884              		.loc 1 56 0
 885 00b0 3046     		mov	r0, r6
 886              	.LBE189:
 887              	.LBE188:
 888              		.loc 1 172 0
 889 00b2 B4B1     		cbz	r4, .L75
 890              	.LVL97:
 891              	.LBB191:
 892              	.LBB190:
 893              		.loc 1 56 0
 894 00b4 2F49     		ldr	r1, .L114+20
 895 00b6 324A     		ldr	r2, .L114+32
 896 00b8 FFF7FEFF 		bl	chprintf
 897              	.LVL98:
 898              	.LBE190:
 899              	.LBE191:
 900              		.loc 1 174 0
 901 00bc AEE7     		b	.L63
 902              	.LVL99:
 903              	.L112:
 904              	.LBB192:
 905              	.LBB193:
 906              		.loc 1 121 0
 907 00be 314D     		ldr	r5, .L114+36
 908 00c0 2868     		ldr	r0, [r5]
 909 00c2 18B9     		cbnz	r0, .L83
ARM GAS  /tmp/ccIdDZpd.s 			page 17


 910 00c4 30E0     		b	.L74
 911              	.LVL100:
 912              	.L113:
 913 00c6 55F8080F 		ldr	r0, [r5, #8]!
 914              	.LVL101:
 915 00ca 68B3     		cbz	r0, .L74
 916              	.LVL102:
 917              	.L83:
 918              	.LBB194:
 919              		.loc 1 122 0
 920 00cc 3946     		mov	r1, r7
 921 00ce FFF7FEFF 		bl	strcmp
 922              	.LVL103:
 923              	.LBE194:
 924 00d2 0028     		cmp	r0, #0
 925 00d4 F7D1     		bne	.L113
 926              	.LVL104:
 927              	.L108:
 928              	.LBE193:
 929              	.LBE192:
 930              	.LBB195:
 931              	.LBB196:
 932              		.loc 1 123 0
 933 00d6 6B68     		ldr	r3, [r5, #4]
 934 00d8 2146     		mov	r1, r4
 935 00da 3046     		mov	r0, r6
 936 00dc 01AA     		add	r2, sp, #4
 937 00de 9847     		blx	r3
 938              	.LVL105:
 939 00e0 9CE7     		b	.L63
 940              	.LVL106:
 941              	.L75:
 942              	.LBE196:
 943              	.LBE195:
 944              	.LBB199:
 945              	.LBB200:
 946              		.loc 1 61 0
 947 00e2 284D     		ldr	r5, .L114+36
 948              	.LBE200:
 949              	.LBE199:
 950              		.loc 1 176 0
 951 00e4 2849     		ldr	r1, .L114+40
 952 00e6 FFF7FEFF 		bl	chprintf
 953              	.LVL107:
 954              	.LBB202:
 955              	.LBB201:
 956              		.loc 1 61 0
 957 00ea 2A68     		ldr	r2, [r5]
 958 00ec 2C46     		mov	r4, r5
 959              	.LVL108:
 960 00ee 3AB1     		cbz	r2, .L80
 961              	.LVL109:
 962              	.L79:
 963              		.loc 1 62 0
 964 00f0 3046     		mov	r0, r6
 965 00f2 2649     		ldr	r1, .L114+44
 966 00f4 FFF7FEFF 		bl	chprintf
ARM GAS  /tmp/ccIdDZpd.s 			page 18


 967              	.LVL110:
 968              		.loc 1 61 0
 969 00f8 54F8082F 		ldr	r2, [r4, #8]!
 970              	.LVL111:
 971 00fc 002A     		cmp	r2, #0
 972 00fe F7D1     		bne	.L79
 973              	.LVL112:
 974              	.L80:
 975              	.LBE201:
 976              	.LBE202:
 977              		.loc 1 178 0
 978 0100 B8F1000F 		cmp	r8, #0
 979 0104 0BD0     		beq	.L78
 980              	.LVL113:
 981              	.LBB203:
 982              	.LBB204:
 983              		.loc 1 61 0
 984 0106 D8F80020 		ldr	r2, [r8]
 985 010a 42B1     		cbz	r2, .L78
 986 010c 4446     		mov	r4, r8
 987              	.LVL114:
 988              	.L81:
 989              		.loc 1 62 0
 990 010e 3046     		mov	r0, r6
 991 0110 1E49     		ldr	r1, .L114+44
 992 0112 FFF7FEFF 		bl	chprintf
 993              	.LVL115:
 994              		.loc 1 61 0
 995 0116 54F8082F 		ldr	r2, [r4, #8]!
 996              	.LVL116:
 997 011a 002A     		cmp	r2, #0
 998 011c F7D1     		bne	.L81
 999              	.LVL117:
 1000              	.L78:
 1001              	.LBE204:
 1002              	.LBE203:
 1003              		.loc 1 180 0
 1004 011e 3046     		mov	r0, r6
 1005 0120 1B49     		ldr	r1, .L114+48
 1006 0122 FFF7FEFF 		bl	chprintf
 1007              	.LVL118:
 1008 0126 79E7     		b	.L63
 1009              	.LVL119:
 1010              	.L74:
 1011              		.loc 1 182 0
 1012 0128 B8F1000F 		cmp	r8, #0
 1013 012c 0DD0     		beq	.L86
 1014              	.LVL120:
 1015              	.LBB205:
 1016              	.LBB198:
 1017              		.loc 1 121 0
 1018 012e D8F80000 		ldr	r0, [r8]
 1019 0132 50B1     		cbz	r0, .L86
 1020 0134 4546     		mov	r5, r8
 1021 0136 02E0     		b	.L85
 1022              	.LVL121:
 1023              	.L84:
ARM GAS  /tmp/ccIdDZpd.s 			page 19


 1024 0138 55F8080F 		ldr	r0, [r5, #8]!
 1025              	.LVL122:
 1026 013c 28B1     		cbz	r0, .L86
 1027              	.LVL123:
 1028              	.L85:
 1029              	.LBB197:
 1030              		.loc 1 122 0
 1031 013e 3946     		mov	r1, r7
 1032 0140 FFF7FEFF 		bl	strcmp
 1033              	.LVL124:
 1034              	.LBE197:
 1035 0144 0028     		cmp	r0, #0
 1036 0146 F7D1     		bne	.L84
 1037 0148 C5E7     		b	.L108
 1038              	.LVL125:
 1039              	.L86:
 1040              	.LBE198:
 1041              	.LBE205:
 1042              		.loc 1 184 0
 1043 014a 3A46     		mov	r2, r7
 1044 014c 3046     		mov	r0, r6
 1045 014e 1149     		ldr	r1, .L114+52
 1046 0150 FFF7FEFF 		bl	chprintf
 1047              	.LVL126:
 1048              		.loc 1 185 0
 1049 0154 3046     		mov	r0, r6
 1050 0156 1049     		ldr	r1, .L114+56
 1051 0158 FFF7FEFF 		bl	chprintf
 1052              	.LVL127:
 1053 015c 5EE7     		b	.L63
 1054              	.L115:
 1055 015e 00BF     		.align	2
 1056              	.L114:
 1057 0160 00000000 		.word	ch
 1058 0164 58010000 		.word	.LC25
 1059 0168 60010000 		.word	.LC26
 1060 016c 78010000 		.word	.LC27
 1061 0170 A4010000 		.word	.LC30
 1062 0174 00000000 		.word	.LC0
 1063 0178 8C010000 		.word	.LC29
 1064 017c 80010000 		.word	.LC28
 1065 0180 AC010000 		.word	.LC31
 1066 0184 00000000 		.word	.LANCHOR1
 1067 0188 B4010000 		.word	.LC32
 1068 018c CC010000 		.word	.LC33
 1069 0190 54010000 		.word	.LC24
 1070 0194 D0010000 		.word	.LC34
 1071 0198 D4010000 		.word	.LC35
 1072              		.cfi_endproc
 1073              	.LFE285:
 1074              		.size	shell_thread, .-shell_thread
 1075              		.global	shell_terminated
 1076 019c AFF30080 		.section	.data.local_commands,"aw",%progbits
 1077              		.align	2
 1078              	.LANCHOR1 = . + 0
 1079              		.type	local_commands, %object
 1080              		.size	local_commands, 24
ARM GAS  /tmp/ccIdDZpd.s 			page 20


 1081              	local_commands:
 1082 0000 1C000000 		.word	.LC3
 1083 0004 00000000 		.word	cmd_info
 1084 0008 0C000000 		.word	.LC1
 1085 000c 00000000 		.word	cmd_systime
 1086 0010 00000000 		.word	0
 1087 0014 00000000 		.word	0
 1088              		.section	.rodata.str1.4,"aMS",%progbits,1
 1089              		.align	2
 1090              	.LC0:
 1091 0000 55736167 		.ascii	"Usage: %s\015\012\000"
 1091      653A2025 
 1091      730D0A00 
 1092              	.LC1:
 1093 000c 73797374 		.ascii	"systime\000"
 1093      696D6500 
 1094              	.LC2:
 1095 0014 256C750D 		.ascii	"%lu\015\012\000"
 1095      0A00
 1096 001a 0000     		.space	2
 1097              	.LC3:
 1098 001c 696E666F 		.ascii	"info\000"
 1098      00
 1099 0021 000000   		.space	3
 1100              	.LC4:
 1101 0024 4B65726E 		.ascii	"Kernel:       %s\015\012\000"
 1101      656C3A20 
 1101      20202020 
 1101      20202573 
 1101      0D0A00
 1102 0037 00       		.space	1
 1103              	.LC5:
 1104 0038 332E312E 		.ascii	"3.1.3\000"
 1104      3300
 1105 003e 0000     		.space	2
 1106              	.LC6:
 1107 0040 436F6D70 		.ascii	"Compiler:     %s\015\012\000"
 1107      696C6572 
 1107      3A202020 
 1107      20202573 
 1107      0D0A00
 1108 0053 00       		.space	1
 1109              	.LC7:
 1110 0054 47434320 		.ascii	"GCC 4.9.2\000"
 1110      342E392E 
 1110      3200
 1111 005e 0000     		.space	2
 1112              	.LC8:
 1113 0060 41726368 		.ascii	"Architecture: %s\015\012\000"
 1113      69746563 
 1113      74757265 
 1113      3A202573 
 1113      0D0A00
 1114 0073 00       		.space	1
 1115              	.LC9:
 1116 0074 41524D76 		.ascii	"ARMv7E-M\000"
 1116      37452D4D 
ARM GAS  /tmp/ccIdDZpd.s 			page 21


 1116      00
 1117 007d 000000   		.space	3
 1118              	.LC10:
 1119 0080 436F7265 		.ascii	"Core Variant: %s\015\012\000"
 1119      20566172 
 1119      69616E74 
 1119      3A202573 
 1119      0D0A00
 1120 0093 00       		.space	1
 1121              	.LC11:
 1122 0094 436F7274 		.ascii	"Cortex-M4\000"
 1122      65782D4D 
 1122      3400
 1123 009e 0000     		.space	2
 1124              	.LC12:
 1125 00a0 506F7274 		.ascii	"Port Info:    %s\015\012\000"
 1125      20496E66 
 1125      6F3A2020 
 1125      20202573 
 1125      0D0A00
 1126 00b3 00       		.space	1
 1127              	.LC13:
 1128 00b4 41647661 		.ascii	"Advanced kernel mode\000"
 1128      6E636564 
 1128      206B6572 
 1128      6E656C20 
 1128      6D6F6465 
 1129 00c9 000000   		.space	3
 1130              	.LC14:
 1131 00cc 506C6174 		.ascii	"Platform:     %s\015\012\000"
 1131      666F726D 
 1131      3A202020 
 1131      20202573 
 1131      0D0A00
 1132 00df 00       		.space	1
 1133              	.LC15:
 1134 00e0 4B696E65 		.ascii	"Kinetis\000"
 1134      74697300 
 1135              	.LC16:
 1136 00e8 426F6172 		.ascii	"Board:        %s\015\012\000"
 1136      643A2020 
 1136      20202020 
 1136      20202573 
 1136      0D0A00
 1137 00fb 00       		.space	1
 1138              	.LC17:
 1139 00fc 46726565 		.ascii	"Freescale Freedom K20D50M\000"
 1139      7363616C 
 1139      65204672 
 1139      6565646F 
 1139      6D204B32 
 1140 0116 0000     		.space	2
 1141              	.LC18:
 1142 0118 4275696C 		.ascii	"Build time:   %s%s%s\015\012\000"
 1142      64207469 
 1142      6D653A20 
 1142      20202573 
ARM GAS  /tmp/ccIdDZpd.s 			page 22


 1142      25732573 
 1143 012f 00       		.space	1
 1144              	.LC19:
 1145 0130 4D617920 		.ascii	"May 12 2016\000"
 1145      31322032 
 1145      30313600 
 1146              	.LC20:
 1147 013c 202D2000 		.ascii	" - \000"
 1148              	.LC21:
 1149 0140 31363A31 		.ascii	"16:12:23\000"
 1149      323A3233 
 1149      00
 1150 0149 000000   		.space	3
 1151              	.LC22:
 1152 014c 200900   		.ascii	" \011\000"
 1153 014f 00       		.space	1
 1154              	.LC23:
 1155 0150 5E4400   		.ascii	"^D\000"
 1156 0153 00       		.space	1
 1157              	.LC24:
 1158 0154 0D0A00   		.ascii	"\015\012\000"
 1159 0157 00       		.space	1
 1160              	.LC25:
 1161 0158 7368656C 		.ascii	"shell\000"
 1161      6C00
 1162 015e 0000     		.space	2
 1163              	.LC26:
 1164 0160 0D0A4368 		.ascii	"\015\012ChibiOS/RT Shell\015\012\000"
 1164      6962694F 
 1164      532F5254 
 1164      20536865 
 1164      6C6C0D0A 
 1165 0175 000000   		.space	3
 1166              	.LC27:
 1167 0178 63683E20 		.ascii	"ch> \000"
 1167      00
 1168 017d 000000   		.space	3
 1169              	.LC28:
 1170 0180 0D0A6C6F 		.ascii	"\015\012logout\000"
 1170      676F7574 
 1170      00
 1171 0189 000000   		.space	3
 1172              	.LC29:
 1173 018c 746F6F20 		.ascii	"too many arguments\015\012\000"
 1173      6D616E79 
 1173      20617267 
 1173      756D656E 
 1173      74730D0A 
 1174 01a1 000000   		.space	3
 1175              	.LC30:
 1176 01a4 65786974 		.ascii	"exit\000"
 1176      00
 1177 01a9 000000   		.space	3
 1178              	.LC31:
 1179 01ac 68656C70 		.ascii	"help\000"
 1179      00
 1180 01b1 000000   		.space	3
ARM GAS  /tmp/ccIdDZpd.s 			page 23


 1181              	.LC32:
 1182 01b4 436F6D6D 		.ascii	"Commands: help exit \000"
 1182      616E6473 
 1182      3A206865 
 1182      6C702065 
 1182      78697420 
 1183 01c9 000000   		.space	3
 1184              	.LC33:
 1185 01cc 25732000 		.ascii	"%s \000"
 1186              	.LC34:
 1187 01d0 257300   		.ascii	"%s\000"
 1188 01d3 00       		.space	1
 1189              	.LC35:
 1190 01d4 203F0D0A 		.ascii	" ?\015\012\000"
 1190      00
 1191 01d9 000000   		.section	.bss.shell_terminated,"aw",%nobits
 1192              		.align	2
 1193              	.LANCHOR0 = . + 0
 1194              		.type	shell_terminated, %object
 1195              		.size	shell_terminated, 4
 1196              	shell_terminated:
 1197 0000 00000000 		.space	4
 1198              		.text
 1199              	.Letext0:
 1200              		.file 6 "/usr/lib/gcc/arm-linux-gnueabihf/4.9/include/stddef.h"
 1201              		.file 7 "/usr/include/stdint.h"
 1202              		.file 8 "../os/rt/ports/ARMCMx/compilers/GCC/chtypes.h"
 1203              		.file 9 "../os/rt/include/chsystypes.h"
 1204              		.file 10 "../os/rt/include/chschd.h"
 1205              		.file 11 "../os/rt/ports/ARMCMx/chcore.h"
 1206              		.file 12 "../os/rt/ports/ARMCMx/chcore_v7m.h"
 1207              		.file 13 "../os/rt/include/chsem.h"
 1208              		.file 14 "../os/rt/include/chmtx.h"
 1209              		.file 15 "../os/rt/include/chthreads.h"
 1210              		.file 16 "../os/rt/include/chmemcore.h"
 1211              		.file 17 "../os/rt/include/chheap.h"
 1212              		.file 18 "../os/rt/include/chstreams.h"
 1213              		.file 19 "../os/various/shell.h"
 1214              		.file 20 "../os/rt/include/chsys.h"
 1215              		.file 21 "../os/ext/CMSIS/include/core_cm4.h"
 1216              		.file 22 "<built-in>"
 1217              		.file 23 "../os/hal/lib/streams/chprintf.h"
 1218              		.file 24 "../os/rt/include/chdynamic.h"
 6612              		.section	.note.GNU-stack,"",%progbits
ARM GAS  /tmp/ccIdDZpd.s 			page 126

