ARM GAS  /tmp/ccj5sBFS.s 			page 1


   1              		.syntax unified
   2              		.cpu cortex-m4
   3              		.fpu softvfp
   4              		.eabi_attribute 20, 1
   5              		.eabi_attribute 21, 1
   6              		.eabi_attribute 23, 3
   7              		.eabi_attribute 24, 1
   8              		.eabi_attribute 25, 1
   9              		.eabi_attribute 26, 2
  10              		.eabi_attribute 30, 2
  11              		.eabi_attribute 34, 1
  12              		.eabi_attribute 18, 4
  13              		.thumb
  14              		.file	"testbmk.c"
  15              		.text
  16              	.Ltext0:
  17              		.cfi_sections	.debug_frame
  18              		.section	.text.tmo,"ax",%progbits
  19              		.align	2
  20              		.p2align 4,,15
  21              		.thumb
  22              		.thumb_func
  23              		.type	tmo, %function
  24              	tmo:
  25              	.LFB246:
  26              		.file 1 "../test/rt/testbmk.c"
  27              		.loc 1 505 0
  28              		.cfi_startproc
  29              		@ args = 0, pretend = 0, frame = 0
  30              		@ frame_needed = 0, uses_anonymous_args = 0
  31              		@ link register save eliminated.
  32              	.LVL0:
  33 0000 7047     		bx	lr
  34              		.cfi_endproc
  35              	.LFE246:
  36              		.size	tmo, .-tmo
  37 0002 00BFAFF3 		.section	.text.bmk13_execute,"ax",%progbits
  37      0080AFF3 
  37      0080AFF3 
  37      0080
  38              		.align	2
  39              		.p2align 4,,15
  40              		.thumb
  41              		.thumb_func
  42              		.type	bmk13_execute, %function
  43              	bmk13_execute:
  44              	.LFB252:
  45              		.loc 1 640 0
  46              		.cfi_startproc
  47              		@ args = 0, pretend = 0, frame = 0
  48              		@ frame_needed = 0, uses_anonymous_args = 0
  49              		.loc 1 640 0
  50 0000 10B5     		push	{r4, lr}
  51              		.cfi_def_cfa_offset 8
  52              		.cfi_offset 4, -8
  53              		.cfi_offset 14, -4
  54              		.loc 1 642 0
ARM GAS  /tmp/ccj5sBFS.s 			page 2


  55 0002 2F48     		ldr	r0, .L4
  56              		.loc 1 644 0
  57 0004 2F4C     		ldr	r4, .L4+4
  58              		.loc 1 642 0
  59 0006 FFF7FEFF 		bl	test_print
  60              	.LVL1:
  61              		.loc 1 643 0
  62 000a 4FF4A870 		mov	r0, #336
  63 000e FFF7FEFF 		bl	test_printn
  64              	.LVL2:
  65              		.loc 1 644 0
  66 0012 2046     		mov	r0, r4
  67 0014 FFF7FEFF 		bl	test_println
  68              	.LVL3:
  69              		.loc 1 645 0
  70 0018 2B48     		ldr	r0, .L4+8
  71 001a FFF7FEFF 		bl	test_print
  72              	.LVL4:
  73              		.loc 1 646 0
  74 001e 4420     		movs	r0, #68
  75 0020 FFF7FEFF 		bl	test_printn
  76              	.LVL5:
  77              		.loc 1 647 0
  78 0024 2046     		mov	r0, r4
  79 0026 FFF7FEFF 		bl	test_println
  80              	.LVL6:
  81              		.loc 1 648 0
  82 002a 2848     		ldr	r0, .L4+12
  83 002c FFF7FEFF 		bl	test_print
  84              	.LVL7:
  85              		.loc 1 649 0
  86 0030 1420     		movs	r0, #20
  87 0032 FFF7FEFF 		bl	test_printn
  88              	.LVL8:
  89              		.loc 1 650 0
  90 0036 2046     		mov	r0, r4
  91 0038 FFF7FEFF 		bl	test_println
  92              	.LVL9:
  93              		.loc 1 652 0
  94 003c 2448     		ldr	r0, .L4+16
  95 003e FFF7FEFF 		bl	test_print
  96              	.LVL10:
  97              		.loc 1 653 0
  98 0042 0C20     		movs	r0, #12
  99 0044 FFF7FEFF 		bl	test_printn
 100              	.LVL11:
 101              		.loc 1 654 0
 102 0048 2046     		mov	r0, r4
 103 004a FFF7FEFF 		bl	test_println
 104              	.LVL12:
 105              		.loc 1 657 0
 106 004e 2148     		ldr	r0, .L4+20
 107 0050 FFF7FEFF 		bl	test_print
 108              	.LVL13:
 109              		.loc 1 658 0
 110 0054 0420     		movs	r0, #4
 111 0056 FFF7FEFF 		bl	test_printn
ARM GAS  /tmp/ccj5sBFS.s 			page 3


 112              	.LVL14:
 113              		.loc 1 659 0
 114 005a 2046     		mov	r0, r4
 115 005c FFF7FEFF 		bl	test_println
 116              	.LVL15:
 117              		.loc 1 660 0
 118 0060 1D48     		ldr	r0, .L4+24
 119 0062 FFF7FEFF 		bl	test_print
 120              	.LVL16:
 121              		.loc 1 661 0
 122 0066 1420     		movs	r0, #20
 123 0068 FFF7FEFF 		bl	test_printn
 124              	.LVL17:
 125              		.loc 1 662 0
 126 006c 2046     		mov	r0, r4
 127 006e FFF7FEFF 		bl	test_println
 128              	.LVL18:
 129              		.loc 1 665 0
 130 0072 1A48     		ldr	r0, .L4+28
 131 0074 FFF7FEFF 		bl	test_print
 132              	.LVL19:
 133              		.loc 1 666 0
 134 0078 1020     		movs	r0, #16
 135 007a FFF7FEFF 		bl	test_printn
 136              	.LVL20:
 137              		.loc 1 667 0
 138 007e 2046     		mov	r0, r4
 139 0080 FFF7FEFF 		bl	test_println
 140              	.LVL21:
 141              		.loc 1 670 0
 142 0084 1648     		ldr	r0, .L4+32
 143 0086 FFF7FEFF 		bl	test_print
 144              	.LVL22:
 145              		.loc 1 671 0
 146 008a 0820     		movs	r0, #8
 147 008c FFF7FEFF 		bl	test_printn
 148              	.LVL23:
 149              		.loc 1 672 0
 150 0090 2046     		mov	r0, r4
 151 0092 FFF7FEFF 		bl	test_println
 152              	.LVL24:
 153              		.loc 1 675 0
 154 0096 1348     		ldr	r0, .L4+36
 155 0098 FFF7FEFF 		bl	test_print
 156              	.LVL25:
 157              		.loc 1 676 0
 158 009c 2420     		movs	r0, #36
 159 009e FFF7FEFF 		bl	test_printn
 160              	.LVL26:
 161              		.loc 1 677 0
 162 00a2 2046     		mov	r0, r4
 163 00a4 FFF7FEFF 		bl	test_println
 164              	.LVL27:
 165              		.loc 1 680 0
 166 00a8 0F48     		ldr	r0, .L4+40
 167 00aa FFF7FEFF 		bl	test_print
 168              	.LVL28:
ARM GAS  /tmp/ccj5sBFS.s 			page 4


 169              		.loc 1 681 0
 170 00ae 2820     		movs	r0, #40
 171 00b0 FFF7FEFF 		bl	test_printn
 172              	.LVL29:
 173              		.loc 1 682 0
 174 00b4 2046     		mov	r0, r4
 175              		.loc 1 684 0
 176 00b6 BDE81040 		pop	{r4, lr}
 177              		.cfi_restore 14
 178              		.cfi_restore 4
 179              		.cfi_def_cfa_offset 0
 180              		.loc 1 682 0
 181 00ba FFF7FEBF 		b	test_println
 182              	.LVL30:
 183              	.L5:
 184 00be 00BF     		.align	2
 185              	.L4:
 186 00c0 00000000 		.word	.LC0
 187 00c4 10000000 		.word	.LC1
 188 00c8 18000000 		.word	.LC2
 189 00cc 28000000 		.word	.LC3
 190 00d0 38000000 		.word	.LC4
 191 00d4 48000000 		.word	.LC5
 192 00d8 58000000 		.word	.LC6
 193 00dc 68000000 		.word	.LC7
 194 00e0 78000000 		.word	.LC8
 195 00e4 88000000 		.word	.LC9
 196 00e8 98000000 		.word	.LC10
 197              		.cfi_endproc
 198              	.LFE252:
 199              		.size	bmk13_execute, .-bmk13_execute
 200 00ec AFF30080 		.section	.text.thread2,"ax",%progbits
 201              		.align	2
 202              		.p2align 4,,15
 203              		.thumb
 204              		.thumb_func
 205              		.type	thread2, %function
 206              	thread2:
 207              	.LFB231:
 208              		.loc 1 72 0
 209              		.cfi_startproc
 210              		@ args = 0, pretend = 0, frame = 0
 211              		@ frame_needed = 0, uses_anonymous_args = 0
 212              	.LVL31:
 213 0000 10B5     		push	{r4, lr}
 214              		.cfi_def_cfa_offset 8
 215              		.cfi_offset 4, -8
 216              		.cfi_offset 14, -4
 217              	.LVL32:
 218              	.L7:
 219              		.loc 1 78 0 discriminator 1
 220 0002 FFF7FEFF 		bl	chMsgWait
 221              	.LVL33:
 222 0006 046B     		ldr	r4, [r0, #48]
 223              	.LVL34:
 224              		.loc 1 80 0 discriminator 1
 225 0008 2146     		mov	r1, r4
ARM GAS  /tmp/ccj5sBFS.s 			page 5


 226 000a FFF7FEFF 		bl	chMsgRelease
 227              	.LVL35:
 228              		.loc 1 81 0 discriminator 1
 229 000e 002C     		cmp	r4, #0
 230 0010 F7D1     		bne	.L7
 231              		.loc 1 82 0
 232 0012 10BD     		pop	{r4, pc}
 233              		.cfi_endproc
 234              	.LFE231:
 235              		.size	thread2, .-thread2
 236 0014 AFF30080 		.section	.text.bmk6_execute,"ax",%progbits
 236      AFF30080 
 236      AFF30080 
 237              		.align	2
 238              		.p2align 4,,15
 239              		.thumb
 240              		.thumb_func
 241              		.type	bmk6_execute, %function
 242              	bmk6_execute:
 243              	.LFB239:
 244              		.loc 1 307 0
 245              		.cfi_startproc
 246              		@ args = 0, pretend = 0, frame = 0
 247              		@ frame_needed = 0, uses_anonymous_args = 0
 248              	.LVL36:
 249 0000 2DE9F041 		push	{r4, r5, r6, r7, r8, lr}
 250              		.cfi_def_cfa_offset 24
 251              		.cfi_offset 4, -24
 252              		.cfi_offset 5, -20
 253              		.cfi_offset 6, -16
 254              		.cfi_offset 7, -12
 255              		.cfi_offset 8, -8
 256              		.cfi_offset 14, -4
 257              	.LBB168:
 258              	.LBB169:
 259              	.LBB170:
 260              	.LBB171:
 261              		.file 2 "../os/rt/include/chthreads.h"
 262              		.loc 2 176 0
 263 0004 144B     		ldr	r3, .L16
 264              	.LBE171:
 265              	.LBE170:
 266              	.LBE169:
 267              	.LBE168:
 268              		.loc 1 310 0
 269 0006 154A     		ldr	r2, .L16+4
 270              	.LBB173:
 271              	.LBB172:
 272              		.loc 2 189 0
 273 0008 9B69     		ldr	r3, [r3, #24]
 274              	.LBE172:
 275              	.LBE173:
 276              		.loc 1 310 0
 277 000a D2F80080 		ldr	r8, [r2]
 278              	.LVL37:
 279              		.loc 1 311 0
 280 000e 9D68     		ldr	r5, [r3, #8]
ARM GAS  /tmp/ccj5sBFS.s 			page 6


 281 0010 134F     		ldr	r7, .L16+8
 282              		.loc 1 307 0
 283 0012 82B0     		sub	sp, sp, #8
 284              		.cfi_def_cfa_offset 32
 285              		.loc 1 312 0
 286 0014 FFF7FEFF 		bl	test_wait_tick
 287              	.LVL38:
 288              		.loc 1 313 0
 289 0018 4FF47A70 		mov	r0, #1000
 290 001c FFF7FEFF 		bl	test_start_timer
 291              	.LVL39:
 292              		.loc 1 309 0
 293 0020 0024     		movs	r4, #0
 294              		.loc 1 311 0
 295 0022 0135     		adds	r5, r5, #1
 296              	.LVL40:
 297              		.loc 1 315 0
 298 0024 2646     		mov	r6, r4
 299              	.LVL41:
 300              	.L12:
 301              		.loc 1 315 0 is_stmt 0 discriminator 1
 302 0026 0F4B     		ldr	r3, .L16+12
 303 0028 0096     		str	r6, [sp]
 304 002a 4046     		mov	r0, r8
 305 002c 4FF4A471 		mov	r1, #328
 306 0030 2A46     		mov	r2, r5
 307 0032 FFF7FEFF 		bl	chThdCreateStatic
 308              	.LVL42:
 309              		.loc 1 320 0 is_stmt 1 discriminator 1
 310 0036 3B78     		ldrb	r3, [r7]	@ zero_extendqisi2
 311              		.loc 1 316 0 discriminator 1
 312 0038 0134     		adds	r4, r4, #1
 313              	.LVL43:
 314              		.loc 1 320 0 discriminator 1
 315 003a 002B     		cmp	r3, #0
 316 003c F3D0     		beq	.L12
 317              		.loc 1 321 0
 318 003e 0A48     		ldr	r0, .L16+16
 319 0040 FFF7FEFF 		bl	test_print
 320              	.LVL44:
 321              		.loc 1 322 0
 322 0044 2046     		mov	r0, r4
 323 0046 FFF7FEFF 		bl	test_printn
 324              	.LVL45:
 325              		.loc 1 323 0
 326 004a 0848     		ldr	r0, .L16+20
 327              		.loc 1 324 0
 328 004c 02B0     		add	sp, sp, #8
 329              		.cfi_def_cfa_offset 24
 330              		@ sp needed
 331 004e BDE8F041 		pop	{r4, r5, r6, r7, r8, lr}
 332              		.cfi_restore 14
 333              		.cfi_restore 8
 334              		.cfi_restore 7
 335              		.cfi_restore 6
 336              		.cfi_restore 5
 337              		.cfi_restore 4
ARM GAS  /tmp/ccj5sBFS.s 			page 7


 338              		.cfi_def_cfa_offset 0
 339              	.LVL46:
 340              		.loc 1 323 0
 341 0052 FFF7FEBF 		b	test_println
 342              	.LVL47:
 343              	.L17:
 344 0056 00BF     		.align	2
 345              	.L16:
 346 0058 00000000 		.word	ch
 347 005c 00000000 		.word	wa
 348 0060 00000000 		.word	test_timer_done
 349 0064 00000000 		.word	thread1
 350 0068 A8000000 		.word	.LC11
 351 006c B8000000 		.word	.LC12
 352              		.cfi_endproc
 353              	.LFE239:
 354              		.size	bmk6_execute, .-bmk6_execute
 355              		.section	.text.msg_loop_test,"ax",%progbits
 356              		.align	2
 357              		.p2align 4,,15
 358              		.thumb
 359              		.thumb_func
 360              		.type	msg_loop_test, %function
 361              	msg_loop_test:
 362              	.LFB232:
 363              		.loc 1 87 0
 364              		.cfi_startproc
 365              		@ args = 0, pretend = 0, frame = 0
 366              		@ frame_needed = 0, uses_anonymous_args = 0
 367              	.LVL48:
 368 0000 70B5     		push	{r4, r5, r6, lr}
 369              		.cfi_def_cfa_offset 16
 370              		.cfi_offset 4, -16
 371              		.cfi_offset 5, -12
 372              		.cfi_offset 6, -8
 373              		.cfi_offset 14, -4
 374              		.loc 1 87 0
 375 0002 0546     		mov	r5, r0
 376              		.loc 1 90 0
 377 0004 FFF7FEFF 		bl	test_wait_tick
 378              	.LVL49:
 379              		.loc 1 91 0
 380 0008 4FF47A70 		mov	r0, #1000
 381 000c FFF7FEFF 		bl	test_start_timer
 382              	.LVL50:
 383 0010 074E     		ldr	r6, .L23
 384              		.loc 1 89 0
 385 0012 0024     		movs	r4, #0
 386              	.LVL51:
 387              	.L19:
 388              		.loc 1 93 0 discriminator 1
 389 0014 2846     		mov	r0, r5
 390 0016 0121     		movs	r1, #1
 391 0018 FFF7FEFF 		bl	chMsgSend
 392              	.LVL52:
 393              		.loc 1 98 0 discriminator 1
 394 001c 3378     		ldrb	r3, [r6]	@ zero_extendqisi2
ARM GAS  /tmp/ccj5sBFS.s 			page 8


 395              		.loc 1 94 0 discriminator 1
 396 001e 0134     		adds	r4, r4, #1
 397              	.LVL53:
 398              		.loc 1 98 0 discriminator 1
 399 0020 002B     		cmp	r3, #0
 400 0022 F7D0     		beq	.L19
 401              		.loc 1 99 0
 402 0024 2846     		mov	r0, r5
 403 0026 0021     		movs	r1, #0
 404 0028 FFF7FEFF 		bl	chMsgSend
 405              	.LVL54:
 406              		.loc 1 101 0
 407 002c 2046     		mov	r0, r4
 408 002e 70BD     		pop	{r4, r5, r6, pc}
 409              	.LVL55:
 410              	.L24:
 411              		.align	2
 412              	.L23:
 413 0030 00000000 		.word	test_timer_done
 414              		.cfi_endproc
 415              	.LFE232:
 416              		.size	msg_loop_test, .-msg_loop_test
 417 0034 AFF30080 		.section	.text.bmk1_execute,"ax",%progbits
 417      AFF30080 
 417      AFF30080 
 418              		.align	2
 419              		.p2align 4,,15
 420              		.thumb
 421              		.thumb_func
 422              		.type	bmk1_execute, %function
 423              	bmk1_execute:
 424              	.LFB233:
 425              		.loc 1 112 0
 426              		.cfi_startproc
 427              		@ args = 0, pretend = 0, frame = 0
 428              		@ frame_needed = 0, uses_anonymous_args = 0
 429 0000 10B5     		push	{r4, lr}
 430              		.cfi_def_cfa_offset 8
 431              		.cfi_offset 4, -8
 432              		.cfi_offset 14, -4
 433              	.LBB174:
 434              	.LBB175:
 435              	.LBB176:
 436              	.LBB177:
 437              		.loc 2 176 0
 438 0002 134B     		ldr	r3, .L27
 439              	.LBE177:
 440              	.LBE176:
 441              	.LBE175:
 442              	.LBE174:
 443              		.loc 1 115 0
 444 0004 134A     		ldr	r2, .L27+4
 445              	.LBB179:
 446              	.LBB178:
 447              		.loc 2 189 0
 448 0006 9B69     		ldr	r3, [r3, #24]
 449              	.LBE178:
ARM GAS  /tmp/ccj5sBFS.s 			page 9


 450              	.LBE179:
 451              		.loc 1 115 0
 452 0008 1068     		ldr	r0, [r2]
 453 000a 9A68     		ldr	r2, [r3, #8]
 454 000c 124B     		ldr	r3, .L27+8
 455              		.loc 1 112 0
 456 000e 82B0     		sub	sp, sp, #8
 457              		.cfi_def_cfa_offset 16
 458              		.loc 1 115 0
 459 0010 0021     		movs	r1, #0
 460 0012 013A     		subs	r2, r2, #1
 461 0014 0091     		str	r1, [sp]
 462 0016 4FF4A471 		mov	r1, #328
 463 001a FFF7FEFF 		bl	chThdCreateStatic
 464              	.LVL56:
 465 001e 0F4B     		ldr	r3, .L27+12
 466 0020 1860     		str	r0, [r3]
 467              		.loc 1 116 0
 468 0022 FFF7FEFF 		bl	msg_loop_test
 469              	.LVL57:
 470 0026 0446     		mov	r4, r0
 471              	.LVL58:
 472              		.loc 1 117 0
 473 0028 FFF7FEFF 		bl	test_wait_threads
 474              	.LVL59:
 475              		.loc 1 118 0
 476 002c 0C48     		ldr	r0, .L27+16
 477 002e FFF7FEFF 		bl	test_print
 478              	.LVL60:
 479              		.loc 1 119 0
 480 0032 2046     		mov	r0, r4
 481 0034 FFF7FEFF 		bl	test_printn
 482              	.LVL61:
 483              		.loc 1 120 0
 484 0038 0A48     		ldr	r0, .L27+20
 485 003a FFF7FEFF 		bl	test_print
 486              	.LVL62:
 487              		.loc 1 121 0
 488 003e 6000     		lsls	r0, r4, #1
 489 0040 FFF7FEFF 		bl	test_printn
 490              	.LVL63:
 491              		.loc 1 122 0
 492 0044 0848     		ldr	r0, .L27+24
 493              		.loc 1 123 0
 494 0046 02B0     		add	sp, sp, #8
 495              		.cfi_def_cfa_offset 8
 496              		@ sp needed
 497 0048 BDE81040 		pop	{r4, lr}
 498              		.cfi_restore 14
 499              		.cfi_restore 4
 500              		.cfi_def_cfa_offset 0
 501              	.LVL64:
 502              		.loc 1 122 0
 503 004c FFF7FEBF 		b	test_println
 504              	.LVL65:
 505              	.L28:
 506              		.align	2
ARM GAS  /tmp/ccj5sBFS.s 			page 10


 507              	.L27:
 508 0050 00000000 		.word	ch
 509 0054 00000000 		.word	wa
 510 0058 00000000 		.word	thread2
 511 005c 00000000 		.word	threads
 512 0060 A8000000 		.word	.LC11
 513 0064 C4000000 		.word	.LC13
 514 0068 D0000000 		.word	.LC14
 515              		.cfi_endproc
 516              	.LFE233:
 517              		.size	bmk1_execute, .-bmk1_execute
 518 006c AFF30080 		.section	.text.bmk2_execute,"ax",%progbits
 519              		.align	2
 520              		.p2align 4,,15
 521              		.thumb
 522              		.thumb_func
 523              		.type	bmk2_execute, %function
 524              	bmk2_execute:
 525              	.LFB234:
 526              		.loc 1 141 0
 527              		.cfi_startproc
 528              		@ args = 0, pretend = 0, frame = 0
 529              		@ frame_needed = 0, uses_anonymous_args = 0
 530 0000 10B5     		push	{r4, lr}
 531              		.cfi_def_cfa_offset 8
 532              		.cfi_offset 4, -8
 533              		.cfi_offset 14, -4
 534              	.LBB180:
 535              	.LBB181:
 536              	.LBB182:
 537              	.LBB183:
 538              		.loc 2 176 0
 539 0002 134B     		ldr	r3, .L31
 540              	.LBE183:
 541              	.LBE182:
 542              	.LBE181:
 543              	.LBE180:
 544              		.loc 1 144 0
 545 0004 134A     		ldr	r2, .L31+4
 546              	.LBB185:
 547              	.LBB184:
 548              		.loc 2 189 0
 549 0006 9B69     		ldr	r3, [r3, #24]
 550              	.LBE184:
 551              	.LBE185:
 552              		.loc 1 144 0
 553 0008 1068     		ldr	r0, [r2]
 554 000a 9A68     		ldr	r2, [r3, #8]
 555 000c 124B     		ldr	r3, .L31+8
 556              		.loc 1 141 0
 557 000e 82B0     		sub	sp, sp, #8
 558              		.cfi_def_cfa_offset 16
 559              		.loc 1 144 0
 560 0010 0021     		movs	r1, #0
 561 0012 0132     		adds	r2, r2, #1
 562 0014 0091     		str	r1, [sp]
 563 0016 4FF4A471 		mov	r1, #328
ARM GAS  /tmp/ccj5sBFS.s 			page 11


 564 001a FFF7FEFF 		bl	chThdCreateStatic
 565              	.LVL66:
 566 001e 0F4B     		ldr	r3, .L31+12
 567 0020 1860     		str	r0, [r3]
 568              		.loc 1 145 0
 569 0022 FFF7FEFF 		bl	msg_loop_test
 570              	.LVL67:
 571 0026 0446     		mov	r4, r0
 572              	.LVL68:
 573              		.loc 1 146 0
 574 0028 FFF7FEFF 		bl	test_wait_threads
 575              	.LVL69:
 576              		.loc 1 147 0
 577 002c 0C48     		ldr	r0, .L31+16
 578 002e FFF7FEFF 		bl	test_print
 579              	.LVL70:
 580              		.loc 1 148 0
 581 0032 2046     		mov	r0, r4
 582 0034 FFF7FEFF 		bl	test_printn
 583              	.LVL71:
 584              		.loc 1 149 0
 585 0038 0A48     		ldr	r0, .L31+20
 586 003a FFF7FEFF 		bl	test_print
 587              	.LVL72:
 588              		.loc 1 150 0
 589 003e 6000     		lsls	r0, r4, #1
 590 0040 FFF7FEFF 		bl	test_printn
 591              	.LVL73:
 592              		.loc 1 151 0
 593 0044 0848     		ldr	r0, .L31+24
 594              		.loc 1 152 0
 595 0046 02B0     		add	sp, sp, #8
 596              		.cfi_def_cfa_offset 8
 597              		@ sp needed
 598 0048 BDE81040 		pop	{r4, lr}
 599              		.cfi_restore 14
 600              		.cfi_restore 4
 601              		.cfi_def_cfa_offset 0
 602              	.LVL74:
 603              		.loc 1 151 0
 604 004c FFF7FEBF 		b	test_println
 605              	.LVL75:
 606              	.L32:
 607              		.align	2
 608              	.L31:
 609 0050 00000000 		.word	ch
 610 0054 00000000 		.word	wa
 611 0058 00000000 		.word	thread2
 612 005c 00000000 		.word	threads
 613 0060 A8000000 		.word	.LC11
 614 0064 C4000000 		.word	.LC13
 615 0068 D0000000 		.word	.LC14
 616              		.cfi_endproc
 617              	.LFE234:
 618              		.size	bmk2_execute, .-bmk2_execute
 619 006c AFF30080 		.section	.text.bmk3_execute,"ax",%progbits
 620              		.align	2
ARM GAS  /tmp/ccj5sBFS.s 			page 12


 621              		.p2align 4,,15
 622              		.thumb
 623              		.thumb_func
 624              		.type	bmk3_execute, %function
 625              	bmk3_execute:
 626              	.LFB235:
 627              		.loc 1 171 0
 628              		.cfi_startproc
 629              		@ args = 0, pretend = 0, frame = 0
 630              		@ frame_needed = 0, uses_anonymous_args = 0
 631 0000 2DE9F041 		push	{r4, r5, r6, r7, r8, lr}
 632              		.cfi_def_cfa_offset 24
 633              		.cfi_offset 4, -24
 634              		.cfi_offset 5, -20
 635              		.cfi_offset 6, -16
 636              		.cfi_offset 7, -12
 637              		.cfi_offset 8, -8
 638              		.cfi_offset 14, -4
 639              	.LBB186:
 640              	.LBB187:
 641              	.LBB188:
 642              	.LBB189:
 643              		.loc 2 176 0
 644 0004 2C4F     		ldr	r7, .L35
 645              	.LBE189:
 646              	.LBE188:
 647              	.LBE187:
 648              	.LBE186:
 649              		.loc 1 174 0
 650 0006 2D4E     		ldr	r6, .L35+4
 651              	.LBB191:
 652              	.LBB190:
 653              		.loc 2 189 0
 654 0008 BB69     		ldr	r3, [r7, #24]
 655              	.LBE190:
 656              	.LBE191:
 657              		.loc 1 174 0
 658 000a 3068     		ldr	r0, [r6]
 659 000c 9A68     		ldr	r2, [r3, #8]
 660 000e 2C4B     		ldr	r3, .L35+8
 661 0010 2C4C     		ldr	r4, .L35+12
 662              		.loc 1 175 0
 663 0012 DFF8C080 		ldr	r8, .L35+28
 664              		.loc 1 171 0
 665 0016 82B0     		sub	sp, sp, #8
 666              		.cfi_def_cfa_offset 32
 667              		.loc 1 174 0
 668 0018 0025     		movs	r5, #0
 669 001a 0132     		adds	r2, r2, #1
 670 001c 0095     		str	r5, [sp]
 671 001e 4FF4A471 		mov	r1, #328
 672 0022 FFF7FEFF 		bl	chThdCreateStatic
 673              	.LVL76:
 674              	.LBB192:
 675              	.LBB193:
 676              		.loc 2 189 0
 677 0026 BA69     		ldr	r2, [r7, #24]
ARM GAS  /tmp/ccj5sBFS.s 			page 13


 678              	.LBE193:
 679              	.LBE192:
 680              		.loc 1 175 0
 681 0028 7368     		ldr	r3, [r6, #4]
 682 002a 9268     		ldr	r2, [r2, #8]
 683              		.loc 1 174 0
 684 002c 2060     		str	r0, [r4]
 685              		.loc 1 175 0
 686 002e 023A     		subs	r2, r2, #2
 687 0030 0095     		str	r5, [sp]
 688 0032 1846     		mov	r0, r3
 689 0034 4FF4A471 		mov	r1, #328
 690 0038 4346     		mov	r3, r8
 691 003a FFF7FEFF 		bl	chThdCreateStatic
 692              	.LVL77:
 693              	.LBB194:
 694              	.LBB195:
 695              		.loc 2 189 0
 696 003e BA69     		ldr	r2, [r7, #24]
 697              	.LBE195:
 698              	.LBE194:
 699              		.loc 1 176 0
 700 0040 B368     		ldr	r3, [r6, #8]
 701 0042 9268     		ldr	r2, [r2, #8]
 702              		.loc 1 175 0
 703 0044 6060     		str	r0, [r4, #4]
 704              		.loc 1 176 0
 705 0046 033A     		subs	r2, r2, #3
 706 0048 0095     		str	r5, [sp]
 707 004a 1846     		mov	r0, r3
 708 004c 4FF4A471 		mov	r1, #328
 709 0050 4346     		mov	r3, r8
 710 0052 FFF7FEFF 		bl	chThdCreateStatic
 711              	.LVL78:
 712              	.LBB196:
 713              	.LBB197:
 714              		.loc 2 189 0
 715 0056 BA69     		ldr	r2, [r7, #24]
 716              	.LBE197:
 717              	.LBE196:
 718              		.loc 1 177 0
 719 0058 F368     		ldr	r3, [r6, #12]
 720 005a 9268     		ldr	r2, [r2, #8]
 721              		.loc 1 176 0
 722 005c A060     		str	r0, [r4, #8]
 723              		.loc 1 177 0
 724 005e 043A     		subs	r2, r2, #4
 725 0060 0095     		str	r5, [sp]
 726 0062 1846     		mov	r0, r3
 727 0064 4FF4A471 		mov	r1, #328
 728 0068 4346     		mov	r3, r8
 729 006a FFF7FEFF 		bl	chThdCreateStatic
 730              	.LVL79:
 731              	.LBB198:
 732              	.LBB199:
 733              		.loc 2 189 0
 734 006e BA69     		ldr	r2, [r7, #24]
ARM GAS  /tmp/ccj5sBFS.s 			page 14


 735              	.LBE199:
 736              	.LBE198:
 737              		.loc 1 178 0
 738 0070 3369     		ldr	r3, [r6, #16]
 739 0072 9268     		ldr	r2, [r2, #8]
 740              		.loc 1 177 0
 741 0074 E060     		str	r0, [r4, #12]
 742              		.loc 1 178 0
 743 0076 053A     		subs	r2, r2, #5
 744 0078 4FF4A471 		mov	r1, #328
 745 007c 1846     		mov	r0, r3
 746 007e 0095     		str	r5, [sp]
 747 0080 4346     		mov	r3, r8
 748 0082 FFF7FEFF 		bl	chThdCreateStatic
 749              	.LVL80:
 750 0086 2061     		str	r0, [r4, #16]
 751              		.loc 1 179 0
 752 0088 2068     		ldr	r0, [r4]
 753 008a FFF7FEFF 		bl	msg_loop_test
 754              	.LVL81:
 755 008e 0446     		mov	r4, r0
 756              	.LVL82:
 757              		.loc 1 180 0
 758 0090 FFF7FEFF 		bl	test_wait_threads
 759              	.LVL83:
 760              		.loc 1 181 0
 761 0094 0C48     		ldr	r0, .L35+16
 762 0096 FFF7FEFF 		bl	test_print
 763              	.LVL84:
 764              		.loc 1 182 0
 765 009a 2046     		mov	r0, r4
 766 009c FFF7FEFF 		bl	test_printn
 767              	.LVL85:
 768              		.loc 1 183 0
 769 00a0 0A48     		ldr	r0, .L35+20
 770 00a2 FFF7FEFF 		bl	test_print
 771              	.LVL86:
 772              		.loc 1 184 0
 773 00a6 6000     		lsls	r0, r4, #1
 774 00a8 FFF7FEFF 		bl	test_printn
 775              	.LVL87:
 776              		.loc 1 185 0
 777 00ac 0848     		ldr	r0, .L35+24
 778              		.loc 1 186 0
 779 00ae 02B0     		add	sp, sp, #8
 780              		.cfi_def_cfa_offset 24
 781              		@ sp needed
 782 00b0 BDE8F041 		pop	{r4, r5, r6, r7, r8, lr}
 783              		.cfi_restore 14
 784              		.cfi_restore 8
 785              		.cfi_restore 7
 786              		.cfi_restore 6
 787              		.cfi_restore 5
 788              		.cfi_restore 4
 789              		.cfi_def_cfa_offset 0
 790              	.LVL88:
 791              		.loc 1 185 0
ARM GAS  /tmp/ccj5sBFS.s 			page 15


 792 00b4 FFF7FEBF 		b	test_println
 793              	.LVL89:
 794              	.L36:
 795              		.align	2
 796              	.L35:
 797 00b8 00000000 		.word	ch
 798 00bc 00000000 		.word	wa
 799 00c0 00000000 		.word	thread2
 800 00c4 00000000 		.word	threads
 801 00c8 A8000000 		.word	.LC11
 802 00cc C4000000 		.word	.LC13
 803 00d0 D0000000 		.word	.LC14
 804 00d4 00000000 		.word	thread1
 805              		.cfi_endproc
 806              	.LFE235:
 807              		.size	bmk3_execute, .-bmk3_execute
 808 00d8 AFF30080 		.section	.text.thread1,"ax",%progbits
 808      AFF30080 
 809              		.align	2
 810              		.p2align 4,,15
 811              		.thumb
 812              		.thumb_func
 813              		.type	thread1, %function
 814              	thread1:
 815              	.LFB230:
 816              		.loc 1 66 0
 817              		.cfi_startproc
 818              		@ args = 0, pretend = 0, frame = 0
 819              		@ frame_needed = 0, uses_anonymous_args = 0
 820              		@ link register save eliminated.
 821              	.LVL90:
 822              		.loc 1 68 0
 823 0000 FFF7FEBF 		b	chThdExit
 824              	.LVL91:
 825              		.cfi_endproc
 826              	.LFE230:
 827              		.size	thread1, .-thread1
 828 0004 AFF30080 		.section	.text.bmk4_execute,"ax",%progbits
 828      AFF30080 
 828      AFF30080 
 829              		.align	2
 830              		.p2align 4,,15
 831              		.thumb
 832              		.thumb_func
 833              		.type	bmk4_execute, %function
 834              	bmk4_execute:
 835              	.LFB237:
 836              		.loc 1 219 0
 837              		.cfi_startproc
 838              		@ args = 0, pretend = 0, frame = 0
 839              		@ frame_needed = 0, uses_anonymous_args = 0
 840 0000 2DE9F047 		push	{r4, r5, r6, r7, r8, r9, r10, lr}
 841              		.cfi_def_cfa_offset 32
 842              		.cfi_offset 4, -32
 843              		.cfi_offset 5, -28
 844              		.cfi_offset 6, -24
 845              		.cfi_offset 7, -20
ARM GAS  /tmp/ccj5sBFS.s 			page 16


 846              		.cfi_offset 8, -16
 847              		.cfi_offset 9, -12
 848              		.cfi_offset 10, -8
 849              		.cfi_offset 14, -4
 850              	.LBB200:
 851              	.LBB201:
 852              	.LBB202:
 853              	.LBB203:
 854              		.loc 2 176 0
 855 0004 264B     		ldr	r3, .L43
 856              	.LBE203:
 857              	.LBE202:
 858              	.LBE201:
 859              	.LBE200:
 860              		.loc 1 223 0
 861 0006 274A     		ldr	r2, .L43+4
 862              	.LBB205:
 863              	.LBB204:
 864              		.loc 2 189 0
 865 0008 9B69     		ldr	r3, [r3, #24]
 866              	.LBE204:
 867              	.LBE205:
 868              		.loc 1 223 0
 869 000a 1068     		ldr	r0, [r2]
 870 000c 9A68     		ldr	r2, [r3, #8]
 871 000e 264B     		ldr	r3, .L43+8
 872 0010 DFF8A490 		ldr	r9, .L43+24
 873              		.loc 1 219 0
 874 0014 82B0     		sub	sp, sp, #8
 875              		.cfi_def_cfa_offset 40
 876              		.loc 1 223 0
 877 0016 0025     		movs	r5, #0
 878 0018 0132     		adds	r2, r2, #1
 879 001a 4FF4A471 		mov	r1, #328
 880 001e 0095     		str	r5, [sp]
 881 0020 FFF7FEFF 		bl	chThdCreateStatic
 882              	.LVL92:
 883 0024 214B     		ldr	r3, .L43+12
 884 0026 0446     		mov	r4, r0
 885 0028 1860     		str	r0, [r3]
 886              	.LVL93:
 887              		.loc 1 226 0
 888 002a FFF7FEFF 		bl	test_wait_tick
 889              	.LVL94:
 890              		.loc 1 227 0
 891 002e 4FF47A70 		mov	r0, #1000
 892 0032 FFF7FEFF 		bl	test_start_timer
 893              	.LVL95:
 894              		.loc 1 230 0
 895 0036 AA46     		mov	r10, r5
 896              	.LBB206:
 897              	.LBB207:
 898              	.LBB208:
 899              	.LBB209:
 900              		.file 3 "../os/ext/CMSIS/include/core_cmFunc.h"
 901              		.loc 3 548 0
 902 0038 4FF02008 		mov	r8, #32
ARM GAS  /tmp/ccj5sBFS.s 			page 17


 903              	.LVL96:
 904              	.L39:
 905              		.loc 3 548 0 is_stmt 0 discriminator 1
 906 003c 2027     		movs	r7, #32
 907              	#APP
 908              	@ 548 "../os/ext/CMSIS/include/core_cmFunc.h" 1
 909 003e 88F31188 		MSR basepri, r8
 910              	@ 0 "" 2
 911              		.thumb
 912              	.LBE209:
 913              	.LBE208:
 914              	.LBE207:
 915              	.LBE206:
 916              		.loc 1 230 0 is_stmt 1 discriminator 1
 917 0042 0021     		movs	r1, #0
 918 0044 2046     		mov	r0, r4
 919 0046 FFF7FEFF 		bl	chSchWakeupS
 920              	.LVL97:
 921              		.loc 1 231 0 discriminator 1
 922 004a 2046     		mov	r0, r4
 923 004c 0021     		movs	r1, #0
 924 004e FFF7FEFF 		bl	chSchWakeupS
 925              	.LVL98:
 926              		.loc 1 232 0 discriminator 1
 927 0052 2046     		mov	r0, r4
 928 0054 0021     		movs	r1, #0
 929 0056 FFF7FEFF 		bl	chSchWakeupS
 930              	.LVL99:
 931              		.loc 1 233 0 discriminator 1
 932 005a 2046     		mov	r0, r4
 933 005c 0021     		movs	r1, #0
 934 005e FFF7FEFF 		bl	chSchWakeupS
 935              	.LVL100:
 936              	.LBB210:
 937              	.LBB211:
 938              	.LBB212:
 939              	.LBB213:
 940              	.LBB214:
 941              		.loc 3 548 0 discriminator 1
 942 0062 0026     		movs	r6, #0
 943              	#APP
 944              	@ 548 "../os/ext/CMSIS/include/core_cmFunc.h" 1
 945 0064 8AF31188 		MSR basepri, r10
 946              	@ 0 "" 2
 947              		.thumb
 948              	.LBE214:
 949              	.LBE213:
 950              	.LBE212:
 951              	.LBE211:
 952              	.LBE210:
 953              		.loc 1 239 0 discriminator 1
 954 0068 99F80030 		ldrb	r3, [r9]	@ zero_extendqisi2
 955              		.loc 1 235 0 discriminator 1
 956 006c 0435     		adds	r5, r5, #4
 957              	.LVL101:
 958              		.loc 1 239 0 discriminator 1
 959 006e 002B     		cmp	r3, #0
ARM GAS  /tmp/ccj5sBFS.s 			page 18


 960 0070 E4D0     		beq	.L39
 961              	.LVL102:
 962              	.LBB215:
 963              	.LBB216:
 964              	.LBB217:
 965              	.LBB218:
 966              		.loc 3 548 0
 967              	#APP
 968              	@ 548 "../os/ext/CMSIS/include/core_cmFunc.h" 1
 969 0072 87F31188 		MSR basepri, r7
 970              	@ 0 "" 2
 971              		.thumb
 972              	.LBE218:
 973              	.LBE217:
 974              	.LBE216:
 975              	.LBE215:
 976              		.loc 1 241 0
 977 0076 4FF0FF31 		mov	r1, #-1
 978 007a 2046     		mov	r0, r4
 979 007c FFF7FEFF 		bl	chSchWakeupS
 980              	.LVL103:
 981              	.LBB219:
 982              	.LBB220:
 983              	.LBB221:
 984              	.LBB222:
 985              	.LBB223:
 986              		.loc 3 548 0
 987              	#APP
 988              	@ 548 "../os/ext/CMSIS/include/core_cmFunc.h" 1
 989 0080 86F31188 		MSR basepri, r6
 990              	@ 0 "" 2
 991              		.thumb
 992              	.LBE223:
 993              	.LBE222:
 994              	.LBE221:
 995              	.LBE220:
 996              	.LBE219:
 997              		.loc 1 244 0
 998 0084 FFF7FEFF 		bl	test_wait_threads
 999              	.LVL104:
 1000              		.loc 1 245 0
 1001 0088 0948     		ldr	r0, .L43+16
 1002 008a FFF7FEFF 		bl	test_print
 1003              	.LVL105:
 1004              		.loc 1 246 0
 1005 008e 6800     		lsls	r0, r5, #1
 1006 0090 FFF7FEFF 		bl	test_printn
 1007              	.LVL106:
 1008              		.loc 1 247 0
 1009 0094 0748     		ldr	r0, .L43+20
 1010              		.loc 1 248 0
 1011 0096 02B0     		add	sp, sp, #8
 1012              		.cfi_def_cfa_offset 32
 1013              		@ sp needed
 1014 0098 BDE8F047 		pop	{r4, r5, r6, r7, r8, r9, r10, lr}
 1015              		.cfi_restore 14
 1016              		.cfi_restore 10
ARM GAS  /tmp/ccj5sBFS.s 			page 19


 1017              		.cfi_restore 9
 1018              		.cfi_restore 8
 1019              		.cfi_restore 7
 1020              		.cfi_restore 6
 1021              		.cfi_restore 5
 1022              		.cfi_restore 4
 1023              		.cfi_def_cfa_offset 0
 1024              	.LVL107:
 1025              		.loc 1 247 0
 1026 009c FFF7FEBF 		b	test_println
 1027              	.LVL108:
 1028              	.L44:
 1029              		.align	2
 1030              	.L43:
 1031 00a0 00000000 		.word	ch
 1032 00a4 00000000 		.word	wa
 1033 00a8 00000000 		.word	thread4
 1034 00ac 00000000 		.word	threads
 1035 00b0 A8000000 		.word	.LC11
 1036 00b4 D0000000 		.word	.LC14
 1037 00b8 00000000 		.word	test_timer_done
 1038              		.cfi_endproc
 1039              	.LFE237:
 1040              		.size	bmk4_execute, .-bmk4_execute
 1041 00bc AFF30080 		.section	.text.thread4,"ax",%progbits
 1042              		.align	2
 1043              		.p2align 4,,15
 1044              		.thumb
 1045              		.thumb_func
 1046              		.type	thread4, %function
 1047              	thread4:
 1048              	.LFB236:
 1049              		.loc 1 206 0
 1050              		.cfi_startproc
 1051              		@ args = 0, pretend = 0, frame = 0
 1052              		@ frame_needed = 0, uses_anonymous_args = 0
 1053              	.LVL109:
 1054              	.LBB224:
 1055              	.LBB225:
 1056              		.loc 2 176 0
 1057 0000 074A     		ldr	r2, .L50
 1058              	.LBE225:
 1059              	.LBE224:
 1060              		.loc 1 206 0
 1061 0002 10B5     		push	{r4, lr}
 1062              		.cfi_def_cfa_offset 8
 1063              		.cfi_offset 4, -8
 1064              		.cfi_offset 14, -4
 1065              	.LBB227:
 1066              	.LBB228:
 1067              	.LBB229:
 1068              	.LBB230:
 1069              		.loc 3 548 0
 1070 0004 2023     		movs	r3, #32
 1071              	.LBE230:
 1072              	.LBE229:
 1073              	.LBE228:
ARM GAS  /tmp/ccj5sBFS.s 			page 20


 1074              	.LBE227:
 1075              	.LBB234:
 1076              	.LBB226:
 1077              		.loc 2 176 0
 1078 0006 9469     		ldr	r4, [r2, #24]
 1079              	.LVL110:
 1080              	.LBE226:
 1081              	.LBE234:
 1082              	.LBB235:
 1083              	.LBB233:
 1084              	.LBB232:
 1085              	.LBB231:
 1086              		.loc 3 548 0
 1087              	#APP
 1088              	@ 548 "../os/ext/CMSIS/include/core_cmFunc.h" 1
 1089 0008 83F31188 		MSR basepri, r3
 1090              	@ 0 "" 2
 1091              	.LVL111:
 1092              		.thumb
 1093              	.L46:
 1094              	.LBE231:
 1095              	.LBE232:
 1096              	.LBE233:
 1097              	.LBE235:
 1098              		.loc 1 213 0 discriminator 1
 1099 000c 0320     		movs	r0, #3
 1100 000e FFF7FEFF 		bl	chSchGoSleepS
 1101              	.LVL112:
 1102              		.loc 1 215 0 discriminator 1
 1103 0012 236A     		ldr	r3, [r4, #32]
 1104 0014 002B     		cmp	r3, #0
 1105 0016 F9D0     		beq	.L46
 1106              	.LVL113:
 1107              	.LBB236:
 1108              	.LBB237:
 1109              	.LBB238:
 1110              	.LBB239:
 1111              	.LBB240:
 1112              		.loc 3 548 0
 1113 0018 0023     		movs	r3, #0
 1114              	#APP
 1115              	@ 548 "../os/ext/CMSIS/include/core_cmFunc.h" 1
 1116 001a 83F31188 		MSR basepri, r3
 1117              	@ 0 "" 2
 1118              		.thumb
 1119 001e 10BD     		pop	{r4, pc}
 1120              	.LVL114:
 1121              	.L51:
 1122              		.align	2
 1123              	.L50:
 1124 0020 00000000 		.word	ch
 1125              	.LBE240:
 1126              	.LBE239:
 1127              	.LBE238:
 1128              	.LBE237:
 1129              	.LBE236:
 1130              		.cfi_endproc
ARM GAS  /tmp/ccj5sBFS.s 			page 21


 1131              	.LFE236:
 1132              		.size	thread4, .-thread4
 1133 0024 AFF30080 		.section	.text.bmk5_execute,"ax",%progbits
 1133      AFF30080 
 1133      AFF30080 
 1134              		.align	2
 1135              		.p2align 4,,15
 1136              		.thumb
 1137              		.thumb_func
 1138              		.type	bmk5_execute, %function
 1139              	bmk5_execute:
 1140              	.LFB238:
 1141              		.loc 1 268 0
 1142              		.cfi_startproc
 1143              		@ args = 0, pretend = 0, frame = 0
 1144              		@ frame_needed = 0, uses_anonymous_args = 0
 1145              	.LVL115:
 1146 0000 2DE9F041 		push	{r4, r5, r6, r7, r8, lr}
 1147              		.cfi_def_cfa_offset 24
 1148              		.cfi_offset 4, -24
 1149              		.cfi_offset 5, -20
 1150              		.cfi_offset 6, -16
 1151              		.cfi_offset 7, -12
 1152              		.cfi_offset 8, -8
 1153              		.cfi_offset 14, -4
 1154              	.LBB241:
 1155              	.LBB242:
 1156              	.LBB243:
 1157              	.LBB244:
 1158              		.loc 2 176 0
 1159 0004 154B     		ldr	r3, .L57
 1160              	.LBE244:
 1161              	.LBE243:
 1162              	.LBE242:
 1163              	.LBE241:
 1164              		.loc 1 271 0
 1165 0006 164A     		ldr	r2, .L57+4
 1166              	.LBB246:
 1167              	.LBB245:
 1168              		.loc 2 189 0
 1169 0008 9B69     		ldr	r3, [r3, #24]
 1170              	.LBE245:
 1171              	.LBE246:
 1172              		.loc 1 271 0
 1173 000a D2F80080 		ldr	r8, [r2]
 1174              	.LVL116:
 1175              		.loc 1 272 0
 1176 000e 9D68     		ldr	r5, [r3, #8]
 1177 0010 144F     		ldr	r7, .L57+8
 1178              		.loc 1 268 0
 1179 0012 82B0     		sub	sp, sp, #8
 1180              		.cfi_def_cfa_offset 32
 1181              		.loc 1 273 0
 1182 0014 FFF7FEFF 		bl	test_wait_tick
 1183              	.LVL117:
 1184              		.loc 1 274 0
 1185 0018 4FF47A70 		mov	r0, #1000
ARM GAS  /tmp/ccj5sBFS.s 			page 22


 1186 001c FFF7FEFF 		bl	test_start_timer
 1187              	.LVL118:
 1188              		.loc 1 270 0
 1189 0020 0024     		movs	r4, #0
 1190              		.loc 1 272 0
 1191 0022 013D     		subs	r5, r5, #1
 1192              	.LVL119:
 1193              		.loc 1 276 0
 1194 0024 2646     		mov	r6, r4
 1195              	.LVL120:
 1196              	.L53:
 1197              		.loc 1 276 0 is_stmt 0 discriminator 1
 1198 0026 104B     		ldr	r3, .L57+12
 1199 0028 0096     		str	r6, [sp]
 1200 002a 4FF4A471 		mov	r1, #328
 1201 002e 2A46     		mov	r2, r5
 1202 0030 4046     		mov	r0, r8
 1203 0032 FFF7FEFF 		bl	chThdCreateStatic
 1204              	.LVL121:
 1205 0036 FFF7FEFF 		bl	chThdWait
 1206              	.LVL122:
 1207              		.loc 1 281 0 is_stmt 1 discriminator 1
 1208 003a 3B78     		ldrb	r3, [r7]	@ zero_extendqisi2
 1209              		.loc 1 277 0 discriminator 1
 1210 003c 0134     		adds	r4, r4, #1
 1211              	.LVL123:
 1212              		.loc 1 281 0 discriminator 1
 1213 003e 002B     		cmp	r3, #0
 1214 0040 F1D0     		beq	.L53
 1215              		.loc 1 282 0
 1216 0042 0A48     		ldr	r0, .L57+16
 1217 0044 FFF7FEFF 		bl	test_print
 1218              	.LVL124:
 1219              		.loc 1 283 0
 1220 0048 2046     		mov	r0, r4
 1221 004a FFF7FEFF 		bl	test_printn
 1222              	.LVL125:
 1223              		.loc 1 284 0
 1224 004e 0848     		ldr	r0, .L57+20
 1225              		.loc 1 285 0
 1226 0050 02B0     		add	sp, sp, #8
 1227              		.cfi_def_cfa_offset 24
 1228              		@ sp needed
 1229 0052 BDE8F041 		pop	{r4, r5, r6, r7, r8, lr}
 1230              		.cfi_restore 14
 1231              		.cfi_restore 8
 1232              		.cfi_restore 7
 1233              		.cfi_restore 6
 1234              		.cfi_restore 5
 1235              		.cfi_restore 4
 1236              		.cfi_def_cfa_offset 0
 1237              	.LVL126:
 1238              		.loc 1 284 0
 1239 0056 FFF7FEBF 		b	test_println
 1240              	.LVL127:
 1241              	.L58:
 1242 005a 00BF     		.align	2
ARM GAS  /tmp/ccj5sBFS.s 			page 23


 1243              	.L57:
 1244 005c 00000000 		.word	ch
 1245 0060 00000000 		.word	wa
 1246 0064 00000000 		.word	test_timer_done
 1247 0068 00000000 		.word	thread1
 1248 006c A8000000 		.word	.LC11
 1249 0070 B8000000 		.word	.LC12
 1250              		.cfi_endproc
 1251              	.LFE238:
 1252              		.size	bmk5_execute, .-bmk5_execute
 1253 0074 AFF30080 		.section	.text.bmk7_execute,"ax",%progbits
 1253      AFF30080 
 1253      AFF30080 
 1254              		.align	2
 1255              		.p2align 4,,15
 1256              		.thumb
 1257              		.thumb_func
 1258              		.type	bmk7_execute, %function
 1259              	bmk7_execute:
 1260              	.LFB242:
 1261              		.loc 1 357 0
 1262              		.cfi_startproc
 1263              		@ args = 0, pretend = 0, frame = 0
 1264              		@ frame_needed = 0, uses_anonymous_args = 0
 1265 0000 2DE9F041 		push	{r4, r5, r6, r7, r8, lr}
 1266              		.cfi_def_cfa_offset 24
 1267              		.cfi_offset 4, -24
 1268              		.cfi_offset 5, -20
 1269              		.cfi_offset 6, -16
 1270              		.cfi_offset 7, -12
 1271              		.cfi_offset 8, -8
 1272              		.cfi_offset 14, -4
 1273              	.LBB247:
 1274              	.LBB248:
 1275              	.LBB249:
 1276              	.LBB250:
 1277              		.loc 2 176 0
 1278 0004 DFF80081 		ldr	r8, .L64+32
 1279              	.LBE250:
 1280              	.LBE249:
 1281              	.LBE248:
 1282              	.LBE247:
 1283              		.loc 1 360 0
 1284 0008 374F     		ldr	r7, .L64
 1285              	.LBB252:
 1286              	.LBB251:
 1287              		.loc 2 189 0
 1288 000a D8F81830 		ldr	r3, [r8, #24]
 1289              	.LBE251:
 1290              	.LBE252:
 1291              		.loc 1 360 0
 1292 000e 3868     		ldr	r0, [r7]
 1293 0010 9A68     		ldr	r2, [r3, #8]
 1294 0012 364B     		ldr	r3, .L64+4
 1295 0014 364E     		ldr	r6, .L64+8
 1296 0016 374D     		ldr	r5, .L64+12
 1297              		.loc 1 357 0
ARM GAS  /tmp/ccj5sBFS.s 			page 24


 1298 0018 82B0     		sub	sp, sp, #8
 1299              		.cfi_def_cfa_offset 32
 1300              		.loc 1 360 0
 1301 001a 0024     		movs	r4, #0
 1302 001c 0532     		adds	r2, r2, #5
 1303 001e 4FF4A471 		mov	r1, #328
 1304 0022 0094     		str	r4, [sp]
 1305 0024 FFF7FEFF 		bl	chThdCreateStatic
 1306              	.LVL128:
 1307              	.LBB253:
 1308              	.LBB254:
 1309              		.loc 2 189 0
 1310 0028 D8F81820 		ldr	r2, [r8, #24]
 1311              	.LBE254:
 1312              	.LBE253:
 1313              		.loc 1 361 0
 1314 002c 7B68     		ldr	r3, [r7, #4]
 1315 002e 9268     		ldr	r2, [r2, #8]
 1316              		.loc 1 360 0
 1317 0030 3060     		str	r0, [r6]
 1318              		.loc 1 361 0
 1319 0032 0432     		adds	r2, r2, #4
 1320 0034 1846     		mov	r0, r3
 1321 0036 4FF4A471 		mov	r1, #328
 1322 003a 2C4B     		ldr	r3, .L64+4
 1323 003c 0094     		str	r4, [sp]
 1324 003e FFF7FEFF 		bl	chThdCreateStatic
 1325              	.LVL129:
 1326              	.LBB255:
 1327              	.LBB256:
 1328              		.loc 2 189 0
 1329 0042 D8F81820 		ldr	r2, [r8, #24]
 1330              	.LBE256:
 1331              	.LBE255:
 1332              		.loc 1 362 0
 1333 0046 BB68     		ldr	r3, [r7, #8]
 1334 0048 9268     		ldr	r2, [r2, #8]
 1335              		.loc 1 361 0
 1336 004a 7060     		str	r0, [r6, #4]
 1337              		.loc 1 362 0
 1338 004c 0332     		adds	r2, r2, #3
 1339 004e 1846     		mov	r0, r3
 1340 0050 4FF4A471 		mov	r1, #328
 1341 0054 254B     		ldr	r3, .L64+4
 1342 0056 0094     		str	r4, [sp]
 1343 0058 FFF7FEFF 		bl	chThdCreateStatic
 1344              	.LVL130:
 1345              	.LBB257:
 1346              	.LBB258:
 1347              		.loc 2 189 0
 1348 005c D8F81820 		ldr	r2, [r8, #24]
 1349              	.LBE258:
 1350              	.LBE257:
 1351              		.loc 1 363 0
 1352 0060 FB68     		ldr	r3, [r7, #12]
 1353 0062 9268     		ldr	r2, [r2, #8]
 1354              		.loc 1 362 0
ARM GAS  /tmp/ccj5sBFS.s 			page 25


 1355 0064 B060     		str	r0, [r6, #8]
 1356              		.loc 1 363 0
 1357 0066 0232     		adds	r2, r2, #2
 1358 0068 1846     		mov	r0, r3
 1359 006a 4FF4A471 		mov	r1, #328
 1360 006e 1F4B     		ldr	r3, .L64+4
 1361 0070 0094     		str	r4, [sp]
 1362 0072 FFF7FEFF 		bl	chThdCreateStatic
 1363              	.LVL131:
 1364              	.LBB259:
 1365              	.LBB260:
 1366              		.loc 2 189 0
 1367 0076 D8F81820 		ldr	r2, [r8, #24]
 1368              	.LBE260:
 1369              	.LBE259:
 1370              		.loc 1 364 0
 1371 007a 3B69     		ldr	r3, [r7, #16]
 1372 007c 9268     		ldr	r2, [r2, #8]
 1373              		.loc 1 363 0
 1374 007e F060     		str	r0, [r6, #12]
 1375              		.loc 1 364 0
 1376 0080 0132     		adds	r2, r2, #1
 1377 0082 1846     		mov	r0, r3
 1378 0084 4FF4A471 		mov	r1, #328
 1379 0088 184B     		ldr	r3, .L64+4
 1380 008a 0094     		str	r4, [sp]
 1381 008c FFF7FEFF 		bl	chThdCreateStatic
 1382              	.LVL132:
 1383 0090 3061     		str	r0, [r6, #16]
 1384              	.LVL133:
 1385              		.loc 1 367 0
 1386 0092 FFF7FEFF 		bl	test_wait_tick
 1387              	.LVL134:
 1388              		.loc 1 368 0
 1389 0096 4FF47A70 		mov	r0, #1000
 1390 009a FFF7FEFF 		bl	test_start_timer
 1391              	.LVL135:
 1392              	.L60:
 1393              		.loc 1 370 0 discriminator 1
 1394 009e 1648     		ldr	r0, .L64+16
 1395 00a0 0021     		movs	r1, #0
 1396 00a2 FFF7FEFF 		bl	chSemReset
 1397              	.LVL136:
 1398              		.loc 1 375 0 discriminator 1
 1399 00a6 2B78     		ldrb	r3, [r5]	@ zero_extendqisi2
 1400              		.loc 1 371 0 discriminator 1
 1401 00a8 0134     		adds	r4, r4, #1
 1402              	.LVL137:
 1403              		.loc 1 375 0 discriminator 1
 1404 00aa 002B     		cmp	r3, #0
 1405 00ac F7D0     		beq	.L60
 1406              		.loc 1 376 0
 1407 00ae FFF7FEFF 		bl	test_terminate_threads
 1408              	.LVL138:
 1409              		.loc 1 377 0
 1410 00b2 0021     		movs	r1, #0
 1411 00b4 1048     		ldr	r0, .L64+16
ARM GAS  /tmp/ccj5sBFS.s 			page 26


 1412 00b6 FFF7FEFF 		bl	chSemReset
 1413              	.LVL139:
 1414              		.loc 1 378 0
 1415 00ba FFF7FEFF 		bl	test_wait_threads
 1416              	.LVL140:
 1417              		.loc 1 380 0
 1418 00be 0F48     		ldr	r0, .L64+20
 1419 00c0 FFF7FEFF 		bl	test_print
 1420              	.LVL141:
 1421              		.loc 1 381 0
 1422 00c4 2046     		mov	r0, r4
 1423 00c6 FFF7FEFF 		bl	test_printn
 1424              	.LVL142:
 1425              		.loc 1 382 0
 1426 00ca 0D48     		ldr	r0, .L64+24
 1427 00cc FFF7FEFF 		bl	test_print
 1428              	.LVL143:
 1429              		.loc 1 383 0
 1430 00d0 04EB4400 		add	r0, r4, r4, lsl #1
 1431 00d4 4000     		lsls	r0, r0, #1
 1432 00d6 FFF7FEFF 		bl	test_printn
 1433              	.LVL144:
 1434              		.loc 1 384 0
 1435 00da 0A48     		ldr	r0, .L64+28
 1436              		.loc 1 385 0
 1437 00dc 02B0     		add	sp, sp, #8
 1438              		.cfi_def_cfa_offset 24
 1439              		@ sp needed
 1440 00de BDE8F041 		pop	{r4, r5, r6, r7, r8, lr}
 1441              		.cfi_restore 14
 1442              		.cfi_restore 8
 1443              		.cfi_restore 7
 1444              		.cfi_restore 6
 1445              		.cfi_restore 5
 1446              		.cfi_restore 4
 1447              		.cfi_def_cfa_offset 0
 1448              	.LVL145:
 1449              		.loc 1 384 0
 1450 00e2 FFF7FEBF 		b	test_println
 1451              	.LVL146:
 1452              	.L65:
 1453 00e6 00BF     		.align	2
 1454              	.L64:
 1455 00e8 00000000 		.word	wa
 1456 00ec 00000000 		.word	thread3
 1457 00f0 00000000 		.word	threads
 1458 00f4 00000000 		.word	test_timer_done
 1459 00f8 00000000 		.word	.LANCHOR0
 1460 00fc A8000000 		.word	.LC11
 1461 0100 DC000000 		.word	.LC15
 1462 0104 D0000000 		.word	.LC14
 1463 0108 00000000 		.word	ch
 1464              		.cfi_endproc
 1465              	.LFE242:
 1466              		.size	bmk7_execute, .-bmk7_execute
 1467 010c AFF30080 		.section	.text.thread3,"ax",%progbits
 1468              		.align	2
ARM GAS  /tmp/ccj5sBFS.s 			page 27


 1469              		.p2align 4,,15
 1470              		.thumb
 1471              		.thumb_func
 1472              		.type	thread3, %function
 1473              	thread3:
 1474              	.LFB240:
 1475              		.loc 1 345 0
 1476              		.cfi_startproc
 1477              		@ args = 0, pretend = 0, frame = 0
 1478              		@ frame_needed = 0, uses_anonymous_args = 0
 1479              	.LVL147:
 1480 0000 10B5     		push	{r4, lr}
 1481              		.cfi_def_cfa_offset 8
 1482              		.cfi_offset 4, -8
 1483              		.cfi_offset 14, -4
 1484              	.LBB261:
 1485              	.LBB262:
 1486              	.LBB263:
 1487              	.LBB264:
 1488              		.loc 2 176 0
 1489 0002 064C     		ldr	r4, .L73
 1490              	.LBE264:
 1491              	.LBE263:
 1492              		.loc 2 233 0
 1493 0004 A369     		ldr	r3, [r4, #24]
 1494 0006 5B7F     		ldrb	r3, [r3, #29]	@ zero_extendqisi2
 1495              	.LBE262:
 1496              	.LBE261:
 1497              		.loc 1 348 0
 1498 0008 5A07     		lsls	r2, r3, #29
 1499 000a 06D4     		bmi	.L66
 1500              	.LVL148:
 1501              	.L67:
 1502              		.loc 1 349 0
 1503 000c 0448     		ldr	r0, .L73+4
 1504 000e FFF7FEFF 		bl	chSemWait
 1505              	.LVL149:
 1506              	.LBB266:
 1507              	.LBB265:
 1508              		.loc 2 233 0
 1509 0012 A369     		ldr	r3, [r4, #24]
 1510 0014 5B7F     		ldrb	r3, [r3, #29]	@ zero_extendqisi2
 1511              	.LBE265:
 1512              	.LBE266:
 1513              		.loc 1 348 0
 1514 0016 5B07     		lsls	r3, r3, #29
 1515 0018 F8D5     		bpl	.L67
 1516              	.L66:
 1517 001a 10BD     		pop	{r4, pc}
 1518              	.L74:
 1519              		.align	2
 1520              	.L73:
 1521 001c 00000000 		.word	ch
 1522 0020 00000000 		.word	.LANCHOR0
 1523              		.cfi_endproc
 1524              	.LFE240:
 1525              		.size	thread3, .-thread3
ARM GAS  /tmp/ccj5sBFS.s 			page 28


 1526 0024 AFF30080 		.section	.text.bmk7_setup,"ax",%progbits
 1526      AFF30080 
 1526      AFF30080 
 1527              		.align	2
 1528              		.p2align 4,,15
 1529              		.thumb
 1530              		.thumb_func
 1531              		.type	bmk7_setup, %function
 1532              	bmk7_setup:
 1533              	.LFB241:
 1534              		.loc 1 352 0
 1535              		.cfi_startproc
 1536              		@ args = 0, pretend = 0, frame = 0
 1537              		@ frame_needed = 0, uses_anonymous_args = 0
 1538              		@ link register save eliminated.
 1539              		.loc 1 354 0
 1540 0000 0148     		ldr	r0, .L76
 1541 0002 0021     		movs	r1, #0
 1542 0004 FFF7FEBF 		b	chSemObjectInit
 1543              	.LVL150:
 1544              	.L77:
 1545              		.align	2
 1546              	.L76:
 1547 0008 00000000 		.word	.LANCHOR0
 1548              		.cfi_endproc
 1549              	.LFE241:
 1550              		.size	bmk7_setup, .-bmk7_setup
 1551 000c AFF30080 		.section	.text.bmk11_setup,"ax",%progbits
 1552              		.align	2
 1553              		.p2align 4,,15
 1554              		.thumb
 1555              		.thumb_func
 1556              		.type	bmk11_setup, %function
 1557              	bmk11_setup:
 1558              	.LFB248:
 1559              		.loc 1 548 0
 1560              		.cfi_startproc
 1561              		@ args = 0, pretend = 0, frame = 0
 1562              		@ frame_needed = 0, uses_anonymous_args = 0
 1563              		@ link register save eliminated.
 1564              		.loc 1 550 0
 1565 0000 0148     		ldr	r0, .L79
 1566 0002 0121     		movs	r1, #1
 1567 0004 FFF7FEBF 		b	chSemObjectInit
 1568              	.LVL151:
 1569              	.L80:
 1570              		.align	2
 1571              	.L79:
 1572 0008 00000000 		.word	.LANCHOR0
 1573              		.cfi_endproc
 1574              	.LFE248:
 1575              		.size	bmk11_setup, .-bmk11_setup
 1576 000c AFF30080 		.section	.text.bmk8_execute,"ax",%progbits
 1577              		.align	2
 1578              		.p2align 4,,15
 1579              		.thumb
 1580              		.thumb_func
ARM GAS  /tmp/ccj5sBFS.s 			page 29


 1581              		.type	bmk8_execute, %function
 1582              	bmk8_execute:
 1583              	.LFB244:
 1584              		.loc 1 419 0
 1585              		.cfi_startproc
 1586              		@ args = 0, pretend = 0, frame = 8
 1587              		@ frame_needed = 0, uses_anonymous_args = 0
 1588 0000 2DE9F041 		push	{r4, r5, r6, r7, r8, lr}
 1589              		.cfi_def_cfa_offset 24
 1590              		.cfi_offset 4, -24
 1591              		.cfi_offset 5, -20
 1592              		.cfi_offset 6, -16
 1593              		.cfi_offset 7, -12
 1594              		.cfi_offset 8, -8
 1595              		.cfi_offset 14, -4
 1596 0004 84B0     		sub	sp, sp, #16
 1597              		.cfi_def_cfa_offset 40
 1598              		.loc 1 422 0
 1599 0006 04AC     		add	r4, sp, #16
 1600              	.LBB267:
 1601              	.LBB268:
 1602              	.LBB269:
 1603              	.LBB270:
 1604              		.loc 2 176 0
 1605 0008 DFF8CC80 		ldr	r8, .L83+20
 1606              	.LBE270:
 1607              	.LBE269:
 1608              	.LBE268:
 1609              	.LBE267:
 1610              		.loc 1 425 0
 1611 000c 2D4F     		ldr	r7, .L83
 1612 000e 2E4E     		ldr	r6, .L83+4
 1613 0010 2E4D     		ldr	r5, .L83+8
 1614              		.loc 1 422 0
 1615 0012 0023     		movs	r3, #0
 1616 0014 44F8043D 		str	r3, [r4, #-4]!
 1617              		.loc 1 423 0
 1618 0018 FFF7FEFF 		bl	test_wait_tick
 1619              	.LVL152:
 1620              	.LBB272:
 1621              	.LBB271:
 1622              		.loc 2 189 0
 1623 001c D8F81830 		ldr	r3, [r8, #24]
 1624              	.LBE271:
 1625              	.LBE272:
 1626              		.loc 1 425 0
 1627 0020 3868     		ldr	r0, [r7]
 1628 0022 9A68     		ldr	r2, [r3, #8]
 1629 0024 0094     		str	r4, [sp]
 1630 0026 3346     		mov	r3, r6
 1631 0028 013A     		subs	r2, r2, #1
 1632 002a 4FF4A471 		mov	r1, #328
 1633 002e FFF7FEFF 		bl	chThdCreateStatic
 1634              	.LVL153:
 1635              	.LBB273:
 1636              	.LBB274:
 1637              		.loc 2 189 0
ARM GAS  /tmp/ccj5sBFS.s 			page 30


 1638 0032 D8F81820 		ldr	r2, [r8, #24]
 1639              	.LBE274:
 1640              	.LBE273:
 1641              		.loc 1 426 0
 1642 0036 7B68     		ldr	r3, [r7, #4]
 1643 0038 9268     		ldr	r2, [r2, #8]
 1644              		.loc 1 425 0
 1645 003a 2860     		str	r0, [r5]
 1646              		.loc 1 426 0
 1647 003c 013A     		subs	r2, r2, #1
 1648 003e 0094     		str	r4, [sp]
 1649 0040 1846     		mov	r0, r3
 1650 0042 4FF4A471 		mov	r1, #328
 1651 0046 3346     		mov	r3, r6
 1652 0048 FFF7FEFF 		bl	chThdCreateStatic
 1653              	.LVL154:
 1654              	.LBB275:
 1655              	.LBB276:
 1656              		.loc 2 189 0
 1657 004c D8F81820 		ldr	r2, [r8, #24]
 1658              	.LBE276:
 1659              	.LBE275:
 1660              		.loc 1 427 0
 1661 0050 BB68     		ldr	r3, [r7, #8]
 1662 0052 9268     		ldr	r2, [r2, #8]
 1663              		.loc 1 426 0
 1664 0054 6860     		str	r0, [r5, #4]
 1665              		.loc 1 427 0
 1666 0056 013A     		subs	r2, r2, #1
 1667 0058 0094     		str	r4, [sp]
 1668 005a 1846     		mov	r0, r3
 1669 005c 4FF4A471 		mov	r1, #328
 1670 0060 3346     		mov	r3, r6
 1671 0062 FFF7FEFF 		bl	chThdCreateStatic
 1672              	.LVL155:
 1673              	.LBB277:
 1674              	.LBB278:
 1675              		.loc 2 189 0
 1676 0066 D8F81820 		ldr	r2, [r8, #24]
 1677              	.LBE278:
 1678              	.LBE277:
 1679              		.loc 1 428 0
 1680 006a FB68     		ldr	r3, [r7, #12]
 1681 006c 9268     		ldr	r2, [r2, #8]
 1682              		.loc 1 427 0
 1683 006e A860     		str	r0, [r5, #8]
 1684              		.loc 1 428 0
 1685 0070 013A     		subs	r2, r2, #1
 1686 0072 0094     		str	r4, [sp]
 1687 0074 1846     		mov	r0, r3
 1688 0076 4FF4A471 		mov	r1, #328
 1689 007a 3346     		mov	r3, r6
 1690 007c FFF7FEFF 		bl	chThdCreateStatic
 1691              	.LVL156:
 1692              	.LBB279:
 1693              	.LBB280:
 1694              		.loc 2 189 0
ARM GAS  /tmp/ccj5sBFS.s 			page 31


 1695 0080 D8F81820 		ldr	r2, [r8, #24]
 1696              	.LBE280:
 1697              	.LBE279:
 1698              		.loc 1 429 0
 1699 0084 3B69     		ldr	r3, [r7, #16]
 1700 0086 9268     		ldr	r2, [r2, #8]
 1701              		.loc 1 428 0
 1702 0088 E860     		str	r0, [r5, #12]
 1703              		.loc 1 429 0
 1704 008a 013A     		subs	r2, r2, #1
 1705 008c 4FF4A471 		mov	r1, #328
 1706 0090 0094     		str	r4, [sp]
 1707 0092 1846     		mov	r0, r3
 1708 0094 3346     		mov	r3, r6
 1709 0096 FFF7FEFF 		bl	chThdCreateStatic
 1710              	.LVL157:
 1711 009a 2861     		str	r0, [r5, #16]
 1712              		.loc 1 431 0
 1713 009c 4FF47A70 		mov	r0, #1000
 1714 00a0 FFF7FEFF 		bl	chThdSleep
 1715              	.LVL158:
 1716              		.loc 1 432 0
 1717 00a4 FFF7FEFF 		bl	test_terminate_threads
 1718              	.LVL159:
 1719              		.loc 1 433 0
 1720 00a8 FFF7FEFF 		bl	test_wait_threads
 1721              	.LVL160:
 1722              		.loc 1 435 0
 1723 00ac 0848     		ldr	r0, .L83+12
 1724 00ae FFF7FEFF 		bl	test_print
 1725              	.LVL161:
 1726              		.loc 1 436 0
 1727 00b2 0398     		ldr	r0, [sp, #12]
 1728 00b4 FFF7FEFF 		bl	test_printn
 1729              	.LVL162:
 1730              		.loc 1 437 0
 1731 00b8 0648     		ldr	r0, .L83+16
 1732 00ba FFF7FEFF 		bl	test_println
 1733              	.LVL163:
 1734              		.loc 1 438 0
 1735 00be 04B0     		add	sp, sp, #16
 1736              		.cfi_def_cfa_offset 24
 1737              		@ sp needed
 1738 00c0 BDE8F081 		pop	{r4, r5, r6, r7, r8, pc}
 1739              	.L84:
 1740              		.align	2
 1741              	.L83:
 1742 00c4 00000000 		.word	wa
 1743 00c8 00000000 		.word	thread8
 1744 00cc 00000000 		.word	threads
 1745 00d0 A8000000 		.word	.LC11
 1746 00d4 D0000000 		.word	.LC14
 1747 00d8 00000000 		.word	ch
 1748              		.cfi_endproc
 1749              	.LFE244:
 1750              		.size	bmk8_execute, .-bmk8_execute
 1751 00dc AFF30080 		.section	.text.thread8,"ax",%progbits
ARM GAS  /tmp/ccj5sBFS.s 			page 32


 1752              		.align	2
 1753              		.p2align 4,,15
 1754              		.thumb
 1755              		.thumb_func
 1756              		.type	thread8, %function
 1757              	thread8:
 1758              	.LFB243:
 1759              		.loc 1 405 0
 1760              		.cfi_startproc
 1761              		@ args = 0, pretend = 0, frame = 0
 1762              		@ frame_needed = 0, uses_anonymous_args = 0
 1763              	.LVL164:
 1764 0000 38B5     		push	{r3, r4, r5, lr}
 1765              		.cfi_def_cfa_offset 16
 1766              		.cfi_offset 3, -16
 1767              		.cfi_offset 4, -12
 1768              		.cfi_offset 5, -8
 1769              		.cfi_offset 14, -4
 1770 0002 094D     		ldr	r5, .L90
 1771              		.loc 1 405 0
 1772 0004 0446     		mov	r4, r0
 1773              	.LVL165:
 1774              	.L86:
 1775              		.loc 1 408 0 discriminator 1
 1776 0006 FFF7FEFF 		bl	chThdYield
 1777              	.LVL166:
 1778              		.loc 1 409 0 discriminator 1
 1779 000a FFF7FEFF 		bl	chThdYield
 1780              	.LVL167:
 1781              		.loc 1 410 0 discriminator 1
 1782 000e FFF7FEFF 		bl	chThdYield
 1783              	.LVL168:
 1784              		.loc 1 411 0 discriminator 1
 1785 0012 FFF7FEFF 		bl	chThdYield
 1786              	.LVL169:
 1787              		.loc 1 412 0 discriminator 1
 1788 0016 2368     		ldr	r3, [r4]
 1789              	.LBB281:
 1790              	.LBB282:
 1791              		.loc 2 233 0 discriminator 1
 1792 0018 AA69     		ldr	r2, [r5, #24]
 1793              	.LBE282:
 1794              	.LBE281:
 1795              		.loc 1 412 0 discriminator 1
 1796 001a 0433     		adds	r3, r3, #4
 1797 001c 2360     		str	r3, [r4]
 1798              	.LBB284:
 1799              	.LBB283:
 1800              		.loc 2 233 0 discriminator 1
 1801 001e 537F     		ldrb	r3, [r2, #29]	@ zero_extendqisi2
 1802              	.LBE283:
 1803              	.LBE284:
 1804              		.loc 1 416 0 discriminator 1
 1805 0020 5B07     		lsls	r3, r3, #29
 1806 0022 F0D5     		bpl	.L86
 1807              		.loc 1 417 0
 1808 0024 38BD     		pop	{r3, r4, r5, pc}
ARM GAS  /tmp/ccj5sBFS.s 			page 33


 1809              	.LVL170:
 1810              	.L91:
 1811 0026 00BF     		.align	2
 1812              	.L90:
 1813 0028 00000000 		.word	ch
 1814              		.cfi_endproc
 1815              	.LFE243:
 1816              		.size	thread8, .-thread8
 1817 002c AFF30080 		.section	.text.bmk9_execute,"ax",%progbits
 1818              		.align	2
 1819              		.p2align 4,,15
 1820              		.thumb
 1821              		.thumb_func
 1822              		.type	bmk9_execute, %function
 1823              	bmk9_execute:
 1824              	.LFB245:
 1825              		.loc 1 458 0
 1826              		.cfi_startproc
 1827              		@ args = 0, pretend = 0, frame = 0
 1828              		@ frame_needed = 0, uses_anonymous_args = 0
 1829 0000 F0B5     		push	{r4, r5, r6, r7, lr}
 1830              		.cfi_def_cfa_offset 20
 1831              		.cfi_offset 4, -20
 1832              		.cfi_offset 5, -16
 1833              		.cfi_offset 6, -12
 1834              		.cfi_offset 7, -8
 1835              		.cfi_offset 14, -4
 1836 0002 83B0     		sub	sp, sp, #12
 1837              		.cfi_def_cfa_offset 32
 1838              		.loc 1 463 0
 1839 0004 0024     		movs	r4, #0
 1840 0006 2346     		mov	r3, r4
 1841 0008 2349     		ldr	r1, .L97
 1842 000a 2448     		ldr	r0, .L97+4
 1843 000c 0094     		str	r4, [sp]
 1844 000e 1022     		movs	r2, #16
 1845 0010 FFF7FEFF 		bl	chIQObjectInit
 1846              	.LVL171:
 1847              		.loc 1 465 0
 1848 0014 FFF7FEFF 		bl	test_wait_tick
 1849              	.LVL172:
 1850              		.loc 1 466 0
 1851 0018 4FF47A70 		mov	r0, #1000
 1852 001c FFF7FEFF 		bl	test_start_timer
 1853              	.LVL173:
 1854 0020 1F4F     		ldr	r7, .L97+8
 1855              		.loc 1 469 0
 1856 0022 2646     		mov	r6, r4
 1857              	.LBB285:
 1858              	.LBB286:
 1859              	.LBB287:
 1860              	.LBB288:
 1861              		.loc 3 548 0
 1862 0024 2025     		movs	r5, #32
 1863              	.LVL174:
 1864              	.L93:
 1865              		.loc 3 548 0 is_stmt 0 discriminator 1
ARM GAS  /tmp/ccj5sBFS.s 			page 34


 1866              	#APP
 1867              	@ 548 "../os/ext/CMSIS/include/core_cmFunc.h" 1
 1868 0026 85F31188 		MSR basepri, r5
 1869              	@ 0 "" 2
 1870              		.thumb
 1871              	.LBE288:
 1872              	.LBE287:
 1873              	.LBE286:
 1874              	.LBE285:
 1875              		.loc 1 469 0 is_stmt 1 discriminator 1
 1876 002a 0021     		movs	r1, #0
 1877 002c 1B48     		ldr	r0, .L97+4
 1878 002e FFF7FEFF 		bl	chIQPutI
 1879              	.LVL175:
 1880              		.loc 1 470 0 discriminator 1
 1881 0032 0121     		movs	r1, #1
 1882 0034 1948     		ldr	r0, .L97+4
 1883 0036 FFF7FEFF 		bl	chIQPutI
 1884              	.LVL176:
 1885              		.loc 1 471 0 discriminator 1
 1886 003a 0221     		movs	r1, #2
 1887 003c 1748     		ldr	r0, .L97+4
 1888 003e FFF7FEFF 		bl	chIQPutI
 1889              	.LVL177:
 1890              		.loc 1 472 0 discriminator 1
 1891 0042 0321     		movs	r1, #3
 1892 0044 1548     		ldr	r0, .L97+4
 1893 0046 FFF7FEFF 		bl	chIQPutI
 1894              	.LVL178:
 1895              	.LBB289:
 1896              	.LBB290:
 1897              	.LBB291:
 1898              	.LBB292:
 1899              	.LBB293:
 1900              		.loc 3 548 0 discriminator 1
 1901              	#APP
 1902              	@ 548 "../os/ext/CMSIS/include/core_cmFunc.h" 1
 1903 004a 86F31188 		MSR basepri, r6
 1904              	@ 0 "" 2
 1905              	.LVL179:
 1906              		.thumb
 1907              	.LBE293:
 1908              	.LBE292:
 1909              	.LBE291:
 1910              	.LBE290:
 1911              	.LBE289:
 1912              	.LBB294:
 1913              	.LBB295:
 1914              		.file 4 "../os/rt/include/chqueues.h"
 1915              		.loc 4 343 0 discriminator 1
 1916 004e 4FF0FF31 		mov	r1, #-1
 1917 0052 1248     		ldr	r0, .L97+4
 1918 0054 FFF7FEFF 		bl	chIQGetTimeout
 1919              	.LVL180:
 1920              	.LBE295:
 1921              	.LBE294:
 1922              	.LBB296:
ARM GAS  /tmp/ccj5sBFS.s 			page 35


 1923              	.LBB297:
 1924 0058 4FF0FF31 		mov	r1, #-1
 1925 005c 0F48     		ldr	r0, .L97+4
 1926 005e FFF7FEFF 		bl	chIQGetTimeout
 1927              	.LVL181:
 1928              	.LBE297:
 1929              	.LBE296:
 1930              	.LBB298:
 1931              	.LBB299:
 1932 0062 4FF0FF31 		mov	r1, #-1
 1933 0066 0D48     		ldr	r0, .L97+4
 1934 0068 FFF7FEFF 		bl	chIQGetTimeout
 1935              	.LVL182:
 1936              	.LBE299:
 1937              	.LBE298:
 1938              	.LBB300:
 1939              	.LBB301:
 1940 006c 0B48     		ldr	r0, .L97+4
 1941 006e 4FF0FF31 		mov	r1, #-1
 1942 0072 FFF7FEFF 		bl	chIQGetTimeout
 1943              	.LVL183:
 1944              	.LBE301:
 1945              	.LBE300:
 1946              		.loc 1 482 0 discriminator 1
 1947 0076 3B78     		ldrb	r3, [r7]	@ zero_extendqisi2
 1948              		.loc 1 478 0 discriminator 1
 1949 0078 0134     		adds	r4, r4, #1
 1950              	.LVL184:
 1951              		.loc 1 482 0 discriminator 1
 1952 007a 002B     		cmp	r3, #0
 1953 007c D3D0     		beq	.L93
 1954              		.loc 1 483 0
 1955 007e 0948     		ldr	r0, .L97+12
 1956 0080 FFF7FEFF 		bl	test_print
 1957              	.LVL185:
 1958              		.loc 1 484 0
 1959 0084 A000     		lsls	r0, r4, #2
 1960 0086 FFF7FEFF 		bl	test_printn
 1961              	.LVL186:
 1962              		.loc 1 485 0
 1963 008a 0748     		ldr	r0, .L97+16
 1964              		.loc 1 486 0
 1965 008c 03B0     		add	sp, sp, #12
 1966              		.cfi_def_cfa_offset 20
 1967              		@ sp needed
 1968 008e BDE8F040 		pop	{r4, r5, r6, r7, lr}
 1969              		.cfi_restore 14
 1970              		.cfi_restore 7
 1971              		.cfi_restore 6
 1972              		.cfi_restore 5
 1973              		.cfi_restore 4
 1974              		.cfi_def_cfa_offset 0
 1975              	.LVL187:
 1976              		.loc 1 485 0
 1977 0092 FFF7FEBF 		b	test_println
 1978              	.LVL188:
 1979              	.L98:
ARM GAS  /tmp/ccj5sBFS.s 			page 36


 1980 0096 00BF     		.align	2
 1981              	.L97:
 1982 0098 00000000 		.word	.LANCHOR2
 1983 009c 00000000 		.word	.LANCHOR1
 1984 00a0 00000000 		.word	test_timer_done
 1985 00a4 A8000000 		.word	.LC11
 1986 00a8 F0000000 		.word	.LC16
 1987              		.cfi_endproc
 1988              	.LFE245:
 1989              		.size	bmk9_execute, .-bmk9_execute
 1990 00ac AFF30080 		.section	.text.bmk10_execute,"ax",%progbits
 1991              		.align	2
 1992              		.p2align 4,,15
 1993              		.thumb
 1994              		.thumb_func
 1995              		.type	bmk10_execute, %function
 1996              	bmk10_execute:
 1997              	.LFB247:
 1998              		.loc 1 507 0
 1999              		.cfi_startproc
 2000              		@ args = 0, pretend = 0, frame = 0
 2001              		@ frame_needed = 0, uses_anonymous_args = 0
 2002              	.LVL189:
 2003 0000 38B5     		push	{r3, r4, r5, lr}
 2004              		.cfi_def_cfa_offset 16
 2005              		.cfi_offset 3, -16
 2006              		.cfi_offset 4, -12
 2007              		.cfi_offset 5, -8
 2008              		.cfi_offset 14, -4
 2009              		.loc 1 511 0
 2010 0002 FFF7FEFF 		bl	test_wait_tick
 2011              	.LVL190:
 2012              		.loc 1 512 0
 2013 0006 4FF47A70 		mov	r0, #1000
 2014 000a FFF7FEFF 		bl	test_start_timer
 2015              	.LVL191:
 2016 000e 154D     		ldr	r5, .L104
 2017              		.loc 1 509 0
 2018 0010 0024     		movs	r4, #0
 2019              	.LVL192:
 2020              	.L100:
 2021              	.LBB302:
 2022              	.LBB303:
 2023              	.LBB304:
 2024              	.LBB305:
 2025              		.loc 3 548 0 discriminator 1
 2026 0012 2023     		movs	r3, #32
 2027              	#APP
 2028              	@ 548 "../os/ext/CMSIS/include/core_cmFunc.h" 1
 2029 0014 83F31188 		MSR basepri, r3
 2030              	@ 0 "" 2
 2031              		.thumb
 2032              	.LBE305:
 2033              	.LBE304:
 2034              	.LBE303:
 2035              	.LBE302:
 2036              		.loc 1 515 0 discriminator 1
ARM GAS  /tmp/ccj5sBFS.s 			page 37


 2037 0018 1348     		ldr	r0, .L104+4
 2038 001a 144A     		ldr	r2, .L104+8
 2039 001c 0121     		movs	r1, #1
 2040 001e 0023     		movs	r3, #0
 2041 0020 FFF7FEFF 		bl	chVTDoSetI
 2042              	.LVL193:
 2043              		.loc 1 516 0 discriminator 1
 2044 0024 114A     		ldr	r2, .L104+8
 2045 0026 1248     		ldr	r0, .L104+12
 2046 0028 42F21071 		movw	r1, #10000
 2047 002c 0023     		movs	r3, #0
 2048 002e FFF7FEFF 		bl	chVTDoSetI
 2049              	.LVL194:
 2050              		.loc 1 517 0 discriminator 1
 2051 0032 0D48     		ldr	r0, .L104+4
 2052 0034 FFF7FEFF 		bl	chVTDoResetI
 2053              	.LVL195:
 2054              		.loc 1 518 0 discriminator 1
 2055 0038 0D48     		ldr	r0, .L104+12
 2056 003a FFF7FEFF 		bl	chVTDoResetI
 2057              	.LVL196:
 2058              	.LBB306:
 2059              	.LBB307:
 2060              	.LBB308:
 2061              	.LBB309:
 2062              	.LBB310:
 2063              		.loc 3 548 0 discriminator 1
 2064 003e 0023     		movs	r3, #0
 2065              	#APP
 2066              	@ 548 "../os/ext/CMSIS/include/core_cmFunc.h" 1
 2067 0040 83F31188 		MSR basepri, r3
 2068              	@ 0 "" 2
 2069              		.thumb
 2070              	.LBE310:
 2071              	.LBE309:
 2072              	.LBE308:
 2073              	.LBE307:
 2074              	.LBE306:
 2075              		.loc 1 524 0 discriminator 1
 2076 0044 2B78     		ldrb	r3, [r5]	@ zero_extendqisi2
 2077              		.loc 1 520 0 discriminator 1
 2078 0046 0134     		adds	r4, r4, #1
 2079              	.LVL197:
 2080              		.loc 1 524 0 discriminator 1
 2081 0048 002B     		cmp	r3, #0
 2082 004a E2D0     		beq	.L100
 2083              		.loc 1 525 0
 2084 004c 0948     		ldr	r0, .L104+16
 2085 004e FFF7FEFF 		bl	test_print
 2086              	.LVL198:
 2087              		.loc 1 526 0
 2088 0052 6000     		lsls	r0, r4, #1
 2089 0054 FFF7FEFF 		bl	test_printn
 2090              	.LVL199:
 2091              		.loc 1 527 0
 2092 0058 0748     		ldr	r0, .L104+20
 2093              		.loc 1 528 0
ARM GAS  /tmp/ccj5sBFS.s 			page 38


 2094 005a BDE83840 		pop	{r3, r4, r5, lr}
 2095              		.cfi_restore 14
 2096              		.cfi_restore 5
 2097              		.cfi_restore 4
 2098              		.cfi_restore 3
 2099              		.cfi_def_cfa_offset 0
 2100              	.LVL200:
 2101              		.loc 1 527 0
 2102 005e FFF7FEBF 		b	test_println
 2103              	.LVL201:
 2104              	.L105:
 2105 0062 00BF     		.align	2
 2106              	.L104:
 2107 0064 00000000 		.word	test_timer_done
 2108 0068 00000000 		.word	.LANCHOR3
 2109 006c 00000000 		.word	tmo
 2110 0070 00000000 		.word	.LANCHOR4
 2111 0074 A8000000 		.word	.LC11
 2112 0078 FC000000 		.word	.LC17
 2113              		.cfi_endproc
 2114              	.LFE247:
 2115              		.size	bmk10_execute, .-bmk10_execute
 2116 007c AFF30080 		.section	.text.bmk11_execute,"ax",%progbits
 2117              		.align	2
 2118              		.p2align 4,,15
 2119              		.thumb
 2120              		.thumb_func
 2121              		.type	bmk11_execute, %function
 2122              	bmk11_execute:
 2123              	.LFB249:
 2124              		.loc 1 553 0
 2125              		.cfi_startproc
 2126              		@ args = 0, pretend = 0, frame = 0
 2127              		@ frame_needed = 0, uses_anonymous_args = 0
 2128              	.LVL202:
 2129 0000 38B5     		push	{r3, r4, r5, lr}
 2130              		.cfi_def_cfa_offset 16
 2131              		.cfi_offset 3, -16
 2132              		.cfi_offset 4, -12
 2133              		.cfi_offset 5, -8
 2134              		.cfi_offset 14, -4
 2135              		.loc 1 556 0
 2136 0002 FFF7FEFF 		bl	test_wait_tick
 2137              	.LVL203:
 2138              		.loc 1 557 0
 2139 0006 4FF47A70 		mov	r0, #1000
 2140 000a FFF7FEFF 		bl	test_start_timer
 2141              	.LVL204:
 2142 000e 144D     		ldr	r5, .L111
 2143              		.loc 1 554 0
 2144 0010 0024     		movs	r4, #0
 2145              	.LVL205:
 2146              	.L107:
 2147              		.loc 1 559 0 discriminator 1
 2148 0012 1448     		ldr	r0, .L111+4
 2149 0014 FFF7FEFF 		bl	chSemWait
 2150              	.LVL206:
ARM GAS  /tmp/ccj5sBFS.s 			page 39


 2151              		.loc 1 560 0 discriminator 1
 2152 0018 1248     		ldr	r0, .L111+4
 2153 001a FFF7FEFF 		bl	chSemSignal
 2154              	.LVL207:
 2155              		.loc 1 561 0 discriminator 1
 2156 001e 1148     		ldr	r0, .L111+4
 2157 0020 FFF7FEFF 		bl	chSemWait
 2158              	.LVL208:
 2159              		.loc 1 562 0 discriminator 1
 2160 0024 0F48     		ldr	r0, .L111+4
 2161 0026 FFF7FEFF 		bl	chSemSignal
 2162              	.LVL209:
 2163              		.loc 1 563 0 discriminator 1
 2164 002a 0E48     		ldr	r0, .L111+4
 2165 002c FFF7FEFF 		bl	chSemWait
 2166              	.LVL210:
 2167              		.loc 1 564 0 discriminator 1
 2168 0030 0C48     		ldr	r0, .L111+4
 2169 0032 FFF7FEFF 		bl	chSemSignal
 2170              	.LVL211:
 2171              		.loc 1 565 0 discriminator 1
 2172 0036 0B48     		ldr	r0, .L111+4
 2173 0038 FFF7FEFF 		bl	chSemWait
 2174              	.LVL212:
 2175              		.loc 1 566 0 discriminator 1
 2176 003c 0948     		ldr	r0, .L111+4
 2177 003e FFF7FEFF 		bl	chSemSignal
 2178              	.LVL213:
 2179              		.loc 1 571 0 discriminator 1
 2180 0042 2B78     		ldrb	r3, [r5]	@ zero_extendqisi2
 2181              		.loc 1 567 0 discriminator 1
 2182 0044 0134     		adds	r4, r4, #1
 2183              	.LVL214:
 2184              		.loc 1 571 0 discriminator 1
 2185 0046 002B     		cmp	r3, #0
 2186 0048 E3D0     		beq	.L107
 2187              		.loc 1 572 0
 2188 004a 0748     		ldr	r0, .L111+8
 2189 004c FFF7FEFF 		bl	test_print
 2190              	.LVL215:
 2191              		.loc 1 573 0
 2192 0050 A000     		lsls	r0, r4, #2
 2193 0052 FFF7FEFF 		bl	test_printn
 2194              	.LVL216:
 2195              		.loc 1 574 0
 2196 0056 0548     		ldr	r0, .L111+12
 2197              		.loc 1 575 0
 2198 0058 BDE83840 		pop	{r3, r4, r5, lr}
 2199              		.cfi_restore 14
 2200              		.cfi_restore 5
 2201              		.cfi_restore 4
 2202              		.cfi_restore 3
 2203              		.cfi_def_cfa_offset 0
 2204              	.LVL217:
 2205              		.loc 1 574 0
 2206 005c FFF7FEBF 		b	test_println
 2207              	.LVL218:
ARM GAS  /tmp/ccj5sBFS.s 			page 40


 2208              	.L112:
 2209              		.align	2
 2210              	.L111:
 2211 0060 00000000 		.word	test_timer_done
 2212 0064 00000000 		.word	.LANCHOR0
 2213 0068 A8000000 		.word	.LC11
 2214 006c 08010000 		.word	.LC18
 2215              		.cfi_endproc
 2216              	.LFE249:
 2217              		.size	bmk11_execute, .-bmk11_execute
 2218              		.section	.text.bmk12_execute,"ax",%progbits
 2219              		.align	2
 2220              		.p2align 4,,15
 2221              		.thumb
 2222              		.thumb_func
 2223              		.type	bmk12_execute, %function
 2224              	bmk12_execute:
 2225              	.LFB251:
 2226              		.loc 1 601 0
 2227              		.cfi_startproc
 2228              		@ args = 0, pretend = 0, frame = 0
 2229              		@ frame_needed = 0, uses_anonymous_args = 0
 2230              	.LVL219:
 2231 0000 38B5     		push	{r3, r4, r5, lr}
 2232              		.cfi_def_cfa_offset 16
 2233              		.cfi_offset 3, -16
 2234              		.cfi_offset 4, -12
 2235              		.cfi_offset 5, -8
 2236              		.cfi_offset 14, -4
 2237              		.loc 1 604 0
 2238 0002 FFF7FEFF 		bl	test_wait_tick
 2239              	.LVL220:
 2240              		.loc 1 605 0
 2241 0006 4FF47A70 		mov	r0, #1000
 2242 000a FFF7FEFF 		bl	test_start_timer
 2243              	.LVL221:
 2244 000e 144D     		ldr	r5, .L118
 2245              		.loc 1 602 0
 2246 0010 0024     		movs	r4, #0
 2247              	.LVL222:
 2248              	.L114:
 2249              		.loc 1 607 0 discriminator 1
 2250 0012 1448     		ldr	r0, .L118+4
 2251 0014 FFF7FEFF 		bl	chMtxLock
 2252              	.LVL223:
 2253              		.loc 1 608 0 discriminator 1
 2254 0018 1248     		ldr	r0, .L118+4
 2255 001a FFF7FEFF 		bl	chMtxUnlock
 2256              	.LVL224:
 2257              		.loc 1 609 0 discriminator 1
 2258 001e 1148     		ldr	r0, .L118+4
 2259 0020 FFF7FEFF 		bl	chMtxLock
 2260              	.LVL225:
 2261              		.loc 1 610 0 discriminator 1
 2262 0024 0F48     		ldr	r0, .L118+4
 2263 0026 FFF7FEFF 		bl	chMtxUnlock
 2264              	.LVL226:
ARM GAS  /tmp/ccj5sBFS.s 			page 41


 2265              		.loc 1 611 0 discriminator 1
 2266 002a 0E48     		ldr	r0, .L118+4
 2267 002c FFF7FEFF 		bl	chMtxLock
 2268              	.LVL227:
 2269              		.loc 1 612 0 discriminator 1
 2270 0030 0C48     		ldr	r0, .L118+4
 2271 0032 FFF7FEFF 		bl	chMtxUnlock
 2272              	.LVL228:
 2273              		.loc 1 613 0 discriminator 1
 2274 0036 0B48     		ldr	r0, .L118+4
 2275 0038 FFF7FEFF 		bl	chMtxLock
 2276              	.LVL229:
 2277              		.loc 1 614 0 discriminator 1
 2278 003c 0948     		ldr	r0, .L118+4
 2279 003e FFF7FEFF 		bl	chMtxUnlock
 2280              	.LVL230:
 2281              		.loc 1 619 0 discriminator 1
 2282 0042 2B78     		ldrb	r3, [r5]	@ zero_extendqisi2
 2283              		.loc 1 615 0 discriminator 1
 2284 0044 0134     		adds	r4, r4, #1
 2285              	.LVL231:
 2286              		.loc 1 619 0 discriminator 1
 2287 0046 002B     		cmp	r3, #0
 2288 0048 E3D0     		beq	.L114
 2289              		.loc 1 620 0
 2290 004a 0748     		ldr	r0, .L118+8
 2291 004c FFF7FEFF 		bl	test_print
 2292              	.LVL232:
 2293              		.loc 1 621 0
 2294 0050 A000     		lsls	r0, r4, #2
 2295 0052 FFF7FEFF 		bl	test_printn
 2296              	.LVL233:
 2297              		.loc 1 622 0
 2298 0056 0548     		ldr	r0, .L118+12
 2299              		.loc 1 623 0
 2300 0058 BDE83840 		pop	{r3, r4, r5, lr}
 2301              		.cfi_restore 14
 2302              		.cfi_restore 5
 2303              		.cfi_restore 4
 2304              		.cfi_restore 3
 2305              		.cfi_def_cfa_offset 0
 2306              	.LVL234:
 2307              		.loc 1 622 0
 2308 005c FFF7FEBF 		b	test_println
 2309              	.LVL235:
 2310              	.L119:
 2311              		.align	2
 2312              	.L118:
 2313 0060 00000000 		.word	test_timer_done
 2314 0064 00000000 		.word	.LANCHOR5
 2315 0068 A8000000 		.word	.LC11
 2316 006c 18010000 		.word	.LC19
 2317              		.cfi_endproc
 2318              	.LFE251:
 2319              		.size	bmk12_execute, .-bmk12_execute
 2320              		.section	.text.bmk12_setup,"ax",%progbits
 2321              		.align	2
ARM GAS  /tmp/ccj5sBFS.s 			page 42


 2322              		.p2align 4,,15
 2323              		.thumb
 2324              		.thumb_func
 2325              		.type	bmk12_setup, %function
 2326              	bmk12_setup:
 2327              	.LFB250:
 2328              		.loc 1 596 0
 2329              		.cfi_startproc
 2330              		@ args = 0, pretend = 0, frame = 0
 2331              		@ frame_needed = 0, uses_anonymous_args = 0
 2332              		@ link register save eliminated.
 2333              		.loc 1 598 0
 2334 0000 0148     		ldr	r0, .L121
 2335 0002 FFF7FEBF 		b	chMtxObjectInit
 2336              	.LVL236:
 2337              	.L122:
 2338 0006 00BF     		.align	2
 2339              	.L121:
 2340 0008 00000000 		.word	.LANCHOR5
 2341              		.cfi_endproc
 2342              	.LFE250:
 2343              		.size	bmk12_setup, .-bmk12_setup
 2344              		.global	patternbmk
 2345              		.global	testbmk13
 2346              		.global	testbmk12
 2347              		.global	testbmk11
 2348              		.global	testbmk10
 2349              		.global	testbmk9
 2350              		.global	testbmk8
 2351              		.global	testbmk7
 2352              		.global	testbmk6
 2353              		.global	testbmk5
 2354              		.global	testbmk4
 2355              		.global	testbmk3
 2356              		.global	testbmk2
 2357              		.global	testbmk1
 2358 000c AFF30080 		.section	.rodata.testbmk8,"a",%progbits
 2359              		.align	2
 2360              		.type	testbmk8, %object
 2361              		.size	testbmk8, 16
 2362              	testbmk8:
 2363 0000 D0010000 		.word	.LC25
 2364 0004 00000000 		.word	0
 2365 0008 00000000 		.word	0
 2366 000c 00000000 		.word	bmk8_execute
 2367              		.section	.rodata.patternbmk,"a",%progbits
 2368              		.align	2
 2369              		.type	patternbmk, %object
 2370              		.size	patternbmk, 56
 2371              	patternbmk:
 2372 0000 00000000 		.word	testbmk1
 2373 0004 00000000 		.word	testbmk2
 2374 0008 00000000 		.word	testbmk3
 2375 000c 00000000 		.word	testbmk4
 2376 0010 00000000 		.word	testbmk5
 2377 0014 00000000 		.word	testbmk6
 2378 0018 00000000 		.word	testbmk7
ARM GAS  /tmp/ccj5sBFS.s 			page 43


 2379 001c 00000000 		.word	testbmk8
 2380 0020 00000000 		.word	testbmk9
 2381 0024 00000000 		.word	testbmk10
 2382 0028 00000000 		.word	testbmk11
 2383 002c 00000000 		.word	testbmk12
 2384 0030 00000000 		.word	testbmk13
 2385 0034 00000000 		.word	0
 2386              		.section	.bss.vt2.6461,"aw",%nobits
 2387              		.align	2
 2388              	.LANCHOR4 = . + 0
 2389              		.type	vt2.6461, %object
 2390              		.size	vt2.6461, 20
 2391              	vt2.6461:
 2392 0000 00000000 		.space	20
 2392      00000000 
 2392      00000000 
 2392      00000000 
 2392      00000000 
 2393              		.section	.rodata.testbmk10,"a",%progbits
 2394              		.align	2
 2395              		.type	testbmk10, %object
 2396              		.size	testbmk10, 16
 2397              	testbmk10:
 2398 0000 88010000 		.word	.LC23
 2399 0004 00000000 		.word	0
 2400 0008 00000000 		.word	0
 2401 000c 00000000 		.word	bmk10_execute
 2402              		.section	.rodata.testbmk4,"a",%progbits
 2403              		.align	2
 2404              		.type	testbmk4, %object
 2405              		.size	testbmk4, 16
 2406              	testbmk4:
 2407 0000 64020000 		.word	.LC29
 2408 0004 00000000 		.word	0
 2409 0008 00000000 		.word	0
 2410 000c 00000000 		.word	bmk4_execute
 2411              		.section	.bss.ib.6449,"aw",%nobits
 2412              		.align	2
 2413              	.LANCHOR2 = . + 0
 2414              		.type	ib.6449, %object
 2415              		.size	ib.6449, 16
 2416              	ib.6449:
 2417 0000 00000000 		.space	16
 2417      00000000 
 2417      00000000 
 2417      00000000 
 2418              		.section	.bss.mtx1,"aw",%nobits
 2419              		.align	2
 2420              	.LANCHOR5 = . + 0
 2421              		.type	mtx1, %object
 2422              		.size	mtx1, 16
 2423              	mtx1:
 2424 0000 00000000 		.space	16
 2424      00000000 
 2424      00000000 
 2424      00000000 
 2425              		.section	.bss.vt1.6460,"aw",%nobits
ARM GAS  /tmp/ccj5sBFS.s 			page 44


 2426              		.align	2
 2427              	.LANCHOR3 = . + 0
 2428              		.type	vt1.6460, %object
 2429              		.size	vt1.6460, 20
 2430              	vt1.6460:
 2431 0000 00000000 		.space	20
 2431      00000000 
 2431      00000000 
 2431      00000000 
 2431      00000000 
 2432              		.section	.rodata.testbmk2,"a",%progbits
 2433              		.align	2
 2434              		.type	testbmk2, %object
 2435              		.size	testbmk2, 16
 2436              	testbmk2:
 2437 0000 98020000 		.word	.LC31
 2438 0004 00000000 		.word	0
 2439 0008 00000000 		.word	0
 2440 000c 00000000 		.word	bmk2_execute
 2441              		.section	.rodata.str1.4,"aMS",%progbits,1
 2442              		.align	2
 2443              	.LC0:
 2444 0000 2D2D2D20 		.ascii	"--- System: \000"
 2444      53797374 
 2444      656D3A20 
 2444      00
 2445 000d 000000   		.space	3
 2446              	.LC1:
 2447 0010 20627974 		.ascii	" bytes\000"
 2447      657300
 2448 0017 00       		.space	1
 2449              	.LC2:
 2450 0018 2D2D2D20 		.ascii	"--- Thread: \000"
 2450      54687265 
 2450      61643A20 
 2450      00
 2451 0025 000000   		.space	3
 2452              	.LC3:
 2453 0028 2D2D2D20 		.ascii	"--- Timer : \000"
 2453      54696D65 
 2453      72203A20 
 2453      00
 2454 0035 000000   		.space	3
 2455              	.LC4:
 2456 0038 2D2D2D20 		.ascii	"--- Semaph: \000"
 2456      53656D61 
 2456      70683A20 
 2456      00
 2457 0045 000000   		.space	3
 2458              	.LC5:
 2459 0048 2D2D2D20 		.ascii	"--- EventS: \000"
 2459      4576656E 
 2459      74533A20 
 2459      00
 2460 0055 000000   		.space	3
 2461              	.LC6:
 2462 0058 2D2D2D20 		.ascii	"--- EventL: \000"
ARM GAS  /tmp/ccj5sBFS.s 			page 45


 2462      4576656E 
 2462      744C3A20 
 2462      00
 2463 0065 000000   		.space	3
 2464              	.LC7:
 2465 0068 2D2D2D20 		.ascii	"--- Mutex : \000"
 2465      4D757465 
 2465      78203A20 
 2465      00
 2466 0075 000000   		.space	3
 2467              	.LC8:
 2468 0078 2D2D2D20 		.ascii	"--- CondV.: \000"
 2468      436F6E64 
 2468      562E3A20 
 2468      00
 2469 0085 000000   		.space	3
 2470              	.LC9:
 2471 0088 2D2D2D20 		.ascii	"--- Queue : \000"
 2471      51756575 
 2471      65203A20 
 2471      00
 2472 0095 000000   		.space	3
 2473              	.LC10:
 2474 0098 2D2D2D20 		.ascii	"--- MailB.: \000"
 2474      4D61696C 
 2474      422E3A20 
 2474      00
 2475 00a5 000000   		.space	3
 2476              	.LC11:
 2477 00a8 2D2D2D20 		.ascii	"--- Score : \000"
 2477      53636F72 
 2477      65203A20 
 2477      00
 2478 00b5 000000   		.space	3
 2479              	.LC12:
 2480 00b8 20746872 		.ascii	" threads/S\000"
 2480      65616473 
 2480      2F5300
 2481 00c3 00       		.space	1
 2482              	.LC13:
 2483 00c4 206D7367 		.ascii	" msgs/S, \000"
 2483      732F532C 
 2483      2000
 2484 00ce 0000     		.space	2
 2485              	.LC14:
 2486 00d0 20637478 		.ascii	" ctxswc/S\000"
 2486      7377632F 
 2486      5300
 2487 00da 0000     		.space	2
 2488              	.LC15:
 2489 00dc 20726573 		.ascii	" reschedules/S, \000"
 2489      63686564 
 2489      756C6573 
 2489      2F532C20 
 2489      00
 2490 00ed 000000   		.space	3
 2491              	.LC16:
ARM GAS  /tmp/ccj5sBFS.s 			page 46


 2492 00f0 20627974 		.ascii	" bytes/S\000"
 2492      65732F53 
 2492      00
 2493 00f9 000000   		.space	3
 2494              	.LC17:
 2495 00fc 2074696D 		.ascii	" timers/S\000"
 2495      6572732F 
 2495      5300
 2496 0106 0000     		.space	2
 2497              	.LC18:
 2498 0108 20776169 		.ascii	" wait+signal/S\000"
 2498      742B7369 
 2498      676E616C 
 2498      2F5300
 2499 0117 00       		.space	1
 2500              	.LC19:
 2501 0118 206C6F63 		.ascii	" lock+unlock/S\000"
 2501      6B2B756E 
 2501      6C6F636B 
 2501      2F5300
 2502 0127 00       		.space	1
 2503              	.LC20:
 2504 0128 42656E63 		.ascii	"Benchmark, RAM footprint\000"
 2504      686D6172 
 2504      6B2C2052 
 2504      414D2066 
 2504      6F6F7470 
 2505 0141 000000   		.space	3
 2506              	.LC21:
 2507 0144 42656E63 		.ascii	"Benchmark, mutexes lock/unlock\000"
 2507      686D6172 
 2507      6B2C206D 
 2507      75746578 
 2507      6573206C 
 2508 0163 00       		.space	1
 2509              	.LC22:
 2510 0164 42656E63 		.ascii	"Benchmark, semaphores wait/signal\000"
 2510      686D6172 
 2510      6B2C2073 
 2510      656D6170 
 2510      686F7265 
 2511 0186 0000     		.space	2
 2512              	.LC23:
 2513 0188 42656E63 		.ascii	"Benchmark, virtual timers set/reset\000"
 2513      686D6172 
 2513      6B2C2076 
 2513      69727475 
 2513      616C2074 
 2514              	.LC24:
 2515 01ac 42656E63 		.ascii	"Benchmark, I/O Queues throughput\000"
 2515      686D6172 
 2515      6B2C2049 
 2515      2F4F2051 
 2515      75657565 
 2516 01cd 000000   		.space	3
 2517              	.LC25:
 2518 01d0 42656E63 		.ascii	"Benchmark, round robin context switching\000"
ARM GAS  /tmp/ccj5sBFS.s 			page 47


 2518      686D6172 
 2518      6B2C2072 
 2518      6F756E64 
 2518      20726F62 
 2519 01f9 000000   		.space	3
 2520              	.LC26:
 2521 01fc 42656E63 		.ascii	"Benchmark, mass reschedule, 5 threads\000"
 2521      686D6172 
 2521      6B2C206D 
 2521      61737320 
 2521      72657363 
 2522 0222 0000     		.space	2
 2523              	.LC27:
 2524 0224 42656E63 		.ascii	"Benchmark, threads, create only\000"
 2524      686D6172 
 2524      6B2C2074 
 2524      68726561 
 2524      64732C20 
 2525              	.LC28:
 2526 0244 42656E63 		.ascii	"Benchmark, threads, full cycle\000"
 2526      686D6172 
 2526      6B2C2074 
 2526      68726561 
 2526      64732C20 
 2527 0263 00       		.space	1
 2528              	.LC29:
 2529 0264 42656E63 		.ascii	"Benchmark, context switch\000"
 2529      686D6172 
 2529      6B2C2063 
 2529      6F6E7465 
 2529      78742073 
 2530 027e 0000     		.space	2
 2531              	.LC30:
 2532 0280 42656E63 		.ascii	"Benchmark, messages #3\000"
 2532      686D6172 
 2532      6B2C206D 
 2532      65737361 
 2532      67657320 
 2533 0297 00       		.space	1
 2534              	.LC31:
 2535 0298 42656E63 		.ascii	"Benchmark, messages #2\000"
 2535      686D6172 
 2535      6B2C206D 
 2535      65737361 
 2535      67657320 
 2536 02af 00       		.space	1
 2537              	.LC32:
 2538 02b0 42656E63 		.ascii	"Benchmark, messages #1\000"
 2538      686D6172 
 2538      6B2C206D 
 2538      65737361 
 2538      67657320 
 2539 02c7 00       		.section	.rodata.testbmk9,"a",%progbits
 2540              		.align	2
 2541              		.type	testbmk9, %object
 2542              		.size	testbmk9, 16
 2543              	testbmk9:
ARM GAS  /tmp/ccj5sBFS.s 			page 48


 2544 0000 AC010000 		.word	.LC24
 2545 0004 00000000 		.word	0
 2546 0008 00000000 		.word	0
 2547 000c 00000000 		.word	bmk9_execute
 2548              		.section	.bss.iq.6450,"aw",%nobits
 2549              		.align	2
 2550              	.LANCHOR1 = . + 0
 2551              		.type	iq.6450, %object
 2552              		.size	iq.6450, 36
 2553              	iq.6450:
 2554 0000 00000000 		.space	36
 2554      00000000 
 2554      00000000 
 2554      00000000 
 2554      00000000 
 2555              		.section	.bss.sem1,"aw",%nobits
 2556              		.align	2
 2557              	.LANCHOR0 = . + 0
 2558              		.type	sem1, %object
 2559              		.size	sem1, 12
 2560              	sem1:
 2561 0000 00000000 		.space	12
 2561      00000000 
 2561      00000000 
 2562              		.section	.rodata.testbmk3,"a",%progbits
 2563              		.align	2
 2564              		.type	testbmk3, %object
 2565              		.size	testbmk3, 16
 2566              	testbmk3:
 2567 0000 80020000 		.word	.LC30
 2568 0004 00000000 		.word	0
 2569 0008 00000000 		.word	0
 2570 000c 00000000 		.word	bmk3_execute
 2571              		.section	.rodata.testbmk1,"a",%progbits
 2572              		.align	2
 2573              		.type	testbmk1, %object
 2574              		.size	testbmk1, 16
 2575              	testbmk1:
 2576 0000 B0020000 		.word	.LC32
 2577 0004 00000000 		.word	0
 2578 0008 00000000 		.word	0
 2579 000c 00000000 		.word	bmk1_execute
 2580              		.section	.rodata.testbmk11,"a",%progbits
 2581              		.align	2
 2582              		.type	testbmk11, %object
 2583              		.size	testbmk11, 16
 2584              	testbmk11:
 2585 0000 64010000 		.word	.LC22
 2586 0004 00000000 		.word	bmk11_setup
 2587 0008 00000000 		.word	0
 2588 000c 00000000 		.word	bmk11_execute
 2589              		.section	.rodata.testbmk12,"a",%progbits
 2590              		.align	2
 2591              		.type	testbmk12, %object
 2592              		.size	testbmk12, 16
 2593              	testbmk12:
 2594 0000 44010000 		.word	.LC21
ARM GAS  /tmp/ccj5sBFS.s 			page 49


 2595 0004 00000000 		.word	bmk12_setup
 2596 0008 00000000 		.word	0
 2597 000c 00000000 		.word	bmk12_execute
 2598              		.section	.rodata.testbmk13,"a",%progbits
 2599              		.align	2
 2600              		.type	testbmk13, %object
 2601              		.size	testbmk13, 16
 2602              	testbmk13:
 2603 0000 28010000 		.word	.LC20
 2604 0004 00000000 		.word	0
 2605 0008 00000000 		.word	0
 2606 000c 00000000 		.word	bmk13_execute
 2607              		.section	.rodata.testbmk5,"a",%progbits
 2608              		.align	2
 2609              		.type	testbmk5, %object
 2610              		.size	testbmk5, 16
 2611              	testbmk5:
 2612 0000 44020000 		.word	.LC28
 2613 0004 00000000 		.word	0
 2614 0008 00000000 		.word	0
 2615 000c 00000000 		.word	bmk5_execute
 2616              		.section	.rodata.testbmk6,"a",%progbits
 2617              		.align	2
 2618              		.type	testbmk6, %object
 2619              		.size	testbmk6, 16
 2620              	testbmk6:
 2621 0000 24020000 		.word	.LC27
 2622 0004 00000000 		.word	0
 2623 0008 00000000 		.word	0
 2624 000c 00000000 		.word	bmk6_execute
 2625              		.section	.rodata.testbmk7,"a",%progbits
 2626              		.align	2
 2627              		.type	testbmk7, %object
 2628              		.size	testbmk7, 16
 2629              	testbmk7:
 2630 0000 FC010000 		.word	.LC26
 2631 0004 00000000 		.word	bmk7_setup
 2632 0008 00000000 		.word	0
 2633 000c 00000000 		.word	bmk7_execute
 2634              		.text
 2635              	.Letext0:
 2636              		.file 5 "/usr/lib/gcc/arm-linux-gnueabihf/4.9/include/stddef.h"
 2637              		.file 6 "/usr/include/stdint.h"
 2638              		.file 7 "../os/rt/ports/ARMCMx/compilers/GCC/chtypes.h"
 2639              		.file 8 "../os/rt/include/chsystypes.h"
 2640              		.file 9 "../os/rt/include/chschd.h"
 2641              		.file 10 "../os/rt/ports/ARMCMx/chcore.h"
 2642              		.file 11 "../os/rt/ports/ARMCMx/chcore_v7m.h"
 2643              		.file 12 "../os/rt/include/chsem.h"
 2644              		.file 13 "../os/rt/include/chmtx.h"
 2645              		.file 14 "../test/rt/test.h"
 2646              		.file 15 "../os/rt/include/chsys.h"
 2647              		.file 16 "../os/rt/include/chmsg.h"
 2648              		.file 17 "../os/ext/CMSIS/include/core_cm4.h"
 2649              		.file 18 "../os/rt/include/chvt.h"
 9257              		.section	.note.GNU-stack,"",%progbits
ARM GAS  /tmp/ccj5sBFS.s 			page 174

