ARM GAS  /tmp/ccbAOmuy.s 			page 1


   1              		.syntax unified
   2              		.cpu cortex-m4
   3              		.fpu softvfp
   4              		.eabi_attribute 20, 1
   5              		.eabi_attribute 21, 1
   6              		.eabi_attribute 23, 3
   7              		.eabi_attribute 24, 1
   8              		.eabi_attribute 25, 1
   9              		.eabi_attribute 26, 2
  10              		.eabi_attribute 30, 2
  11              		.eabi_attribute 34, 1
  12              		.eabi_attribute 18, 4
  13              		.thumb
  14              		.file	"testmtx.c"
  15              		.text
  16              	.Ltext0:
  17              		.cfi_sections	.debug_frame
  18              		.section	.text.mtx1_execute,"ax",%progbits
  19              		.align	2
  20              		.p2align 4,,15
  21              		.thumb
  22              		.thumb_func
  23              		.type	mtx1_execute, %function
  24              	mtx1_execute:
  25              	.LFB232:
  26              		.file 1 "../test/rt/testmtx.c"
  27              		.loc 1 96 0
  28              		.cfi_startproc
  29              		@ args = 0, pretend = 0, frame = 0
  30              		@ frame_needed = 0, uses_anonymous_args = 0
  31 0000 F0B5     		push	{r4, r5, r6, r7, lr}
  32              		.cfi_def_cfa_offset 20
  33              		.cfi_offset 4, -20
  34              		.cfi_offset 5, -16
  35              		.cfi_offset 6, -12
  36              		.cfi_offset 7, -8
  37              		.cfi_offset 14, -4
  38              	.LBB138:
  39              	.LBB139:
  40              	.LBB140:
  41              	.LBB141:
  42              		.file 2 "../os/rt/include/chthreads.h"
  43              		.loc 2 176 0
  44 0002 2B4F     		ldr	r7, .L6
  45              	.LBE141:
  46              	.LBE140:
  47              	.LBE139:
  48              	.LBE138:
  49              		.loc 1 100 0
  50 0004 2B4E     		ldr	r6, .L6+4
  51              	.LBB144:
  52              	.LBB142:
  53              		.loc 2 189 0
  54 0006 BB69     		ldr	r3, [r7, #24]
  55              	.LBE142:
  56              	.LBE144:
  57              		.loc 1 99 0
ARM GAS  /tmp/ccbAOmuy.s 			page 2


  58 0008 2B48     		ldr	r0, .L6+8
  59              	.LBB145:
  60              	.LBB143:
  61              		.loc 2 189 0
  62 000a 9C68     		ldr	r4, [r3, #8]
  63              	.LBE143:
  64              	.LBE145:
  65              		.loc 1 100 0
  66 000c 2B4D     		ldr	r5, .L6+12
  67              		.loc 1 96 0
  68 000e 83B0     		sub	sp, sp, #12
  69              		.cfi_def_cfa_offset 32
  70              		.loc 1 99 0
  71 0010 FFF7FEFF 		bl	chMtxLock
  72              	.LVL0:
  73              		.loc 1 100 0
  74 0014 2A4B     		ldr	r3, .L6+16
  75 0016 0093     		str	r3, [sp]
  76 0018 621C     		adds	r2, r4, #1
  77 001a 4FF4A471 		mov	r1, #328
  78 001e 294B     		ldr	r3, .L6+20
  79 0020 3068     		ldr	r0, [r6]
  80 0022 FFF7FEFF 		bl	chThdCreateStatic
  81              	.LVL1:
  82              		.loc 1 101 0
  83 0026 7168     		ldr	r1, [r6, #4]
  84 0028 274B     		ldr	r3, .L6+24
  85              		.loc 1 100 0
  86 002a 2860     		str	r0, [r5]
  87              		.loc 1 101 0
  88 002c A21C     		adds	r2, r4, #2
  89 002e 0846     		mov	r0, r1
  90 0030 0093     		str	r3, [sp]
  91 0032 4FF4A471 		mov	r1, #328
  92 0036 234B     		ldr	r3, .L6+20
  93 0038 FFF7FEFF 		bl	chThdCreateStatic
  94              	.LVL2:
  95              		.loc 1 102 0
  96 003c B168     		ldr	r1, [r6, #8]
  97 003e 234B     		ldr	r3, .L6+28
  98              		.loc 1 101 0
  99 0040 6860     		str	r0, [r5, #4]
 100              		.loc 1 102 0
 101 0042 E21C     		adds	r2, r4, #3
 102 0044 0846     		mov	r0, r1
 103 0046 0093     		str	r3, [sp]
 104 0048 4FF4A471 		mov	r1, #328
 105 004c 1D4B     		ldr	r3, .L6+20
 106 004e FFF7FEFF 		bl	chThdCreateStatic
 107              	.LVL3:
 108              		.loc 1 103 0
 109 0052 F168     		ldr	r1, [r6, #12]
 110 0054 1E4B     		ldr	r3, .L6+32
 111              		.loc 1 102 0
 112 0056 A860     		str	r0, [r5, #8]
 113              		.loc 1 103 0
 114 0058 221D     		adds	r2, r4, #4
ARM GAS  /tmp/ccbAOmuy.s 			page 3


 115 005a 0846     		mov	r0, r1
 116 005c 0093     		str	r3, [sp]
 117 005e 4FF4A471 		mov	r1, #328
 118 0062 184B     		ldr	r3, .L6+20
 119 0064 FFF7FEFF 		bl	chThdCreateStatic
 120              	.LVL4:
 121              		.loc 1 104 0
 122 0068 3169     		ldr	r1, [r6, #16]
 123 006a 1A4B     		ldr	r3, .L6+36
 124              		.loc 1 103 0
 125 006c E860     		str	r0, [r5, #12]
 126              		.loc 1 104 0
 127 006e 621D     		adds	r2, r4, #5
 128 0070 0846     		mov	r0, r1
 129 0072 0093     		str	r3, [sp]
 130 0074 4FF4A471 		mov	r1, #328
 131 0078 124B     		ldr	r3, .L6+20
 132 007a FFF7FEFF 		bl	chThdCreateStatic
 133              	.LVL5:
 134 007e 2861     		str	r0, [r5, #16]
 135              		.loc 1 105 0
 136 0080 0D48     		ldr	r0, .L6+8
 137 0082 FFF7FEFF 		bl	chMtxUnlock
 138              	.LVL6:
 139              		.loc 1 106 0
 140 0086 FFF7FEFF 		bl	test_wait_threads
 141              	.LVL7:
 142              	.LBB146:
 143              	.LBB147:
 144              		.loc 2 189 0
 145 008a BB69     		ldr	r3, [r7, #24]
 146              	.LBE147:
 147              	.LBE146:
 148              		.loc 1 107 0
 149 008c 9968     		ldr	r1, [r3, #8]
 150 008e 0120     		movs	r0, #1
 151 0090 611A     		subs	r1, r4, r1
 152 0092 B1FA81F1 		clz	r1, r1
 153 0096 4909     		lsrs	r1, r1, #5
 154 0098 FFF7FEFF 		bl	_test_assert
 155              	.LVL8:
 156 009c 08B1     		cbz	r0, .L5
 157              		.loc 1 109 0
 158 009e 03B0     		add	sp, sp, #12
 159              		.cfi_remember_state
 160              		.cfi_def_cfa_offset 20
 161              		@ sp needed
 162 00a0 F0BD     		pop	{r4, r5, r6, r7, pc}
 163              	.L5:
 164              		.cfi_restore_state
 165              		.loc 1 108 0
 166 00a2 0D49     		ldr	r1, .L6+40
 167 00a4 0220     		movs	r0, #2
 168              		.loc 1 109 0
 169 00a6 03B0     		add	sp, sp, #12
 170              		.cfi_def_cfa_offset 20
 171              		@ sp needed
ARM GAS  /tmp/ccbAOmuy.s 			page 4


 172 00a8 BDE8F040 		pop	{r4, r5, r6, r7, lr}
 173              		.cfi_restore 14
 174              		.cfi_restore 7
 175              		.cfi_restore 6
 176              		.cfi_restore 5
 177              		.cfi_restore 4
 178              		.cfi_def_cfa_offset 0
 179              		.loc 1 108 0
 180 00ac FFF7FEBF 		b	_test_assert_sequence
 181              	.LVL9:
 182              	.L7:
 183              		.align	2
 184              	.L6:
 185 00b0 00000000 		.word	ch
 186 00b4 00000000 		.word	wa
 187 00b8 00000000 		.word	.LANCHOR0
 188 00bc 00000000 		.word	threads
 189 00c0 00000000 		.word	.LC0
 190 00c4 00000000 		.word	thread1
 191 00c8 04000000 		.word	.LC1
 192 00cc 08000000 		.word	.LC2
 193 00d0 0C000000 		.word	.LC3
 194 00d4 10000000 		.word	.LC4
 195 00d8 14000000 		.word	.LC5
 196              		.cfi_endproc
 197              	.LFE232:
 198              		.size	mtx1_execute, .-mtx1_execute
 199 00dc AFF30080 		.section	.text.thread1,"ax",%progbits
 200              		.align	2
 201              		.p2align 4,,15
 202              		.thumb
 203              		.thumb_func
 204              		.type	thread1, %function
 205              	thread1:
 206              	.LFB231:
 207              		.loc 1 89 0
 208              		.cfi_startproc
 209              		@ args = 0, pretend = 0, frame = 0
 210              		@ frame_needed = 0, uses_anonymous_args = 0
 211              	.LVL10:
 212 0000 38B5     		push	{r3, r4, r5, lr}
 213              		.cfi_def_cfa_offset 16
 214              		.cfi_offset 3, -16
 215              		.cfi_offset 4, -12
 216              		.cfi_offset 5, -8
 217              		.cfi_offset 14, -4
 218              		.loc 1 91 0
 219 0002 064C     		ldr	r4, .L10
 220              		.loc 1 89 0
 221 0004 0546     		mov	r5, r0
 222              		.loc 1 91 0
 223 0006 2046     		mov	r0, r4
 224              	.LVL11:
 225 0008 FFF7FEFF 		bl	chMtxLock
 226              	.LVL12:
 227              		.loc 1 92 0
 228 000c 2878     		ldrb	r0, [r5]	@ zero_extendqisi2
ARM GAS  /tmp/ccbAOmuy.s 			page 5


 229 000e FFF7FEFF 		bl	test_emit_token
 230              	.LVL13:
 231              		.loc 1 93 0
 232 0012 2046     		mov	r0, r4
 233              		.loc 1 94 0
 234 0014 BDE83840 		pop	{r3, r4, r5, lr}
 235              		.cfi_restore 14
 236              		.cfi_restore 5
 237              		.cfi_restore 4
 238              		.cfi_restore 3
 239              		.cfi_def_cfa_offset 0
 240              	.LVL14:
 241              		.loc 1 93 0
 242 0018 FFF7FEBF 		b	chMtxUnlock
 243              	.LVL15:
 244              	.L11:
 245              		.align	2
 246              	.L10:
 247 001c 00000000 		.word	.LANCHOR0
 248              		.cfi_endproc
 249              	.LFE231:
 250              		.size	thread1, .-thread1
 251              		.section	.text.thread12,"ax",%progbits
 252              		.align	2
 253              		.p2align 4,,15
 254              		.thumb
 255              		.thumb_func
 256              		.type	thread12, %function
 257              	thread12:
 258              	.LFB246:
 259              		.loc 1 576 0
 260              		.cfi_startproc
 261              		@ args = 0, pretend = 0, frame = 0
 262              		@ frame_needed = 0, uses_anonymous_args = 0
 263              	.LVL16:
 264 0000 38B5     		push	{r3, r4, r5, lr}
 265              		.cfi_def_cfa_offset 16
 266              		.cfi_offset 3, -16
 267              		.cfi_offset 4, -12
 268              		.cfi_offset 5, -8
 269              		.cfi_offset 14, -4
 270              		.loc 1 578 0
 271 0002 064C     		ldr	r4, .L14
 272              		.loc 1 576 0
 273 0004 0546     		mov	r5, r0
 274              		.loc 1 578 0
 275 0006 2046     		mov	r0, r4
 276              	.LVL17:
 277 0008 FFF7FEFF 		bl	chMtxLock
 278              	.LVL18:
 279              		.loc 1 579 0
 280 000c 2878     		ldrb	r0, [r5]	@ zero_extendqisi2
 281 000e FFF7FEFF 		bl	test_emit_token
 282              	.LVL19:
 283              		.loc 1 580 0
 284 0012 2046     		mov	r0, r4
 285              		.loc 1 581 0
ARM GAS  /tmp/ccbAOmuy.s 			page 6


 286 0014 BDE83840 		pop	{r3, r4, r5, lr}
 287              		.cfi_restore 14
 288              		.cfi_restore 5
 289              		.cfi_restore 4
 290              		.cfi_restore 3
 291              		.cfi_def_cfa_offset 0
 292              	.LVL20:
 293              		.loc 1 580 0
 294 0018 FFF7FEBF 		b	chMtxUnlock
 295              	.LVL21:
 296              	.L15:
 297              		.align	2
 298              	.L14:
 299 001c 00000000 		.word	.LANCHOR1
 300              		.cfi_endproc
 301              	.LFE246:
 302              		.size	thread12, .-thread12
 303              		.section	.text.mtx1_setup,"ax",%progbits
 304              		.align	2
 305              		.p2align 4,,15
 306              		.thumb
 307              		.thumb_func
 308              		.type	mtx1_setup, %function
 309              	mtx1_setup:
 310              	.LFB230:
 311              		.loc 1 84 0
 312              		.cfi_startproc
 313              		@ args = 0, pretend = 0, frame = 0
 314              		@ frame_needed = 0, uses_anonymous_args = 0
 315              		@ link register save eliminated.
 316              		.loc 1 86 0
 317 0000 0148     		ldr	r0, .L17
 318 0002 FFF7FEBF 		b	chMtxObjectInit
 319              	.LVL22:
 320              	.L18:
 321 0006 00BF     		.align	2
 322              	.L17:
 323 0008 00000000 		.word	.LANCHOR0
 324              		.cfi_endproc
 325              	.LFE230:
 326              		.size	mtx1_setup, .-mtx1_setup
 327 000c AFF30080 		.section	.text.mtx4_setup,"ax",%progbits
 328              		.align	2
 329              		.p2align 4,,15
 330              		.thumb
 331              		.thumb_func
 332              		.type	mtx4_setup, %function
 333              	mtx4_setup:
 334              	.LFB233:
 335              		.loc 1 332 0
 336              		.cfi_startproc
 337              		@ args = 0, pretend = 0, frame = 0
 338              		@ frame_needed = 0, uses_anonymous_args = 0
 339 0000 08B5     		push	{r3, lr}
 340              		.cfi_def_cfa_offset 8
 341              		.cfi_offset 3, -8
 342              		.cfi_offset 14, -4
ARM GAS  /tmp/ccbAOmuy.s 			page 7


 343              		.loc 1 334 0
 344 0002 0448     		ldr	r0, .L21
 345 0004 FFF7FEFF 		bl	chMtxObjectInit
 346              	.LVL23:
 347              		.loc 1 335 0
 348 0008 0348     		ldr	r0, .L21+4
 349              		.loc 1 336 0
 350 000a BDE80840 		pop	{r3, lr}
 351              		.cfi_restore 14
 352              		.cfi_restore 3
 353              		.cfi_def_cfa_offset 0
 354              		.loc 1 335 0
 355 000e FFF7FEBF 		b	chMtxObjectInit
 356              	.LVL24:
 357              	.L22:
 358 0012 00BF     		.align	2
 359              	.L21:
 360 0014 00000000 		.word	.LANCHOR0
 361 0018 00000000 		.word	.LANCHOR1
 362              		.cfi_endproc
 363              	.LFE233:
 364              		.size	mtx4_setup, .-mtx4_setup
 365 001c AFF30080 		.section	.text.mtx5_setup,"ax",%progbits
 366              		.align	2
 367              		.p2align 4,,15
 368              		.thumb
 369              		.thumb_func
 370              		.type	mtx5_setup, %function
 371              	mtx5_setup:
 372              	.LFB237:
 373              		.loc 1 418 0
 374              		.cfi_startproc
 375              		@ args = 0, pretend = 0, frame = 0
 376              		@ frame_needed = 0, uses_anonymous_args = 0
 377              		@ link register save eliminated.
 378              		.loc 1 420 0
 379 0000 0148     		ldr	r0, .L24
 380 0002 FFF7FEBF 		b	chMtxObjectInit
 381              	.LVL25:
 382              	.L25:
 383 0006 00BF     		.align	2
 384              	.L24:
 385 0008 00000000 		.word	.LANCHOR0
 386              		.cfi_endproc
 387              	.LFE237:
 388              		.size	mtx5_setup, .-mtx5_setup
 389 000c AFF30080 		.section	.text.thread4b,"ax",%progbits
 390              		.align	2
 391              		.p2align 4,,15
 392              		.thumb
 393              		.thumb_func
 394              		.type	thread4b, %function
 395              	thread4b:
 396              	.LFB235:
 397              		.loc 1 346 0
 398              		.cfi_startproc
 399              		@ args = 0, pretend = 0, frame = 0
ARM GAS  /tmp/ccbAOmuy.s 			page 8


 400              		@ frame_needed = 0, uses_anonymous_args = 0
 401              	.LVL26:
 402 0000 10B5     		push	{r4, lr}
 403              		.cfi_def_cfa_offset 8
 404              		.cfi_offset 4, -8
 405              		.cfi_offset 14, -4
 406              		.loc 1 350 0
 407 0002 064C     		ldr	r4, .L28
 408              		.loc 1 349 0
 409 0004 9620     		movs	r0, #150
 410              	.LVL27:
 411 0006 FFF7FEFF 		bl	chThdSleep
 412              	.LVL28:
 413              		.loc 1 350 0
 414 000a 2046     		mov	r0, r4
 415 000c FFF7FEFF 		bl	chMtxLock
 416              	.LVL29:
 417              		.loc 1 351 0
 418 0010 2046     		mov	r0, r4
 419              		.loc 1 352 0
 420 0012 BDE81040 		pop	{r4, lr}
 421              		.cfi_restore 14
 422              		.cfi_restore 4
 423              		.cfi_def_cfa_offset 0
 424              		.loc 1 351 0
 425 0016 FFF7FEBF 		b	chMtxUnlock
 426              	.LVL30:
 427              	.L29:
 428 001a 00BF     		.align	2
 429              	.L28:
 430 001c 00000000 		.word	.LANCHOR0
 431              		.cfi_endproc
 432              	.LFE235:
 433              		.size	thread4b, .-thread4b
 434              		.section	.text.thread4a,"ax",%progbits
 435              		.align	2
 436              		.p2align 4,,15
 437              		.thumb
 438              		.thumb_func
 439              		.type	thread4a, %function
 440              	thread4a:
 441              	.LFB234:
 442              		.loc 1 338 0
 443              		.cfi_startproc
 444              		@ args = 0, pretend = 0, frame = 0
 445              		@ frame_needed = 0, uses_anonymous_args = 0
 446              	.LVL31:
 447 0000 10B5     		push	{r4, lr}
 448              		.cfi_def_cfa_offset 8
 449              		.cfi_offset 4, -8
 450              		.cfi_offset 14, -4
 451              		.loc 1 342 0
 452 0002 064C     		ldr	r4, .L32
 453              		.loc 1 341 0
 454 0004 3220     		movs	r0, #50
 455              	.LVL32:
 456 0006 FFF7FEFF 		bl	chThdSleep
ARM GAS  /tmp/ccbAOmuy.s 			page 9


 457              	.LVL33:
 458              		.loc 1 342 0
 459 000a 2046     		mov	r0, r4
 460 000c FFF7FEFF 		bl	chMtxLock
 461              	.LVL34:
 462              		.loc 1 343 0
 463 0010 2046     		mov	r0, r4
 464              		.loc 1 344 0
 465 0012 BDE81040 		pop	{r4, lr}
 466              		.cfi_restore 14
 467              		.cfi_restore 4
 468              		.cfi_def_cfa_offset 0
 469              		.loc 1 343 0
 470 0016 FFF7FEBF 		b	chMtxUnlock
 471              	.LVL35:
 472              	.L33:
 473 001a 00BF     		.align	2
 474              	.L32:
 475 001c 00000000 		.word	.LANCHOR1
 476              		.cfi_endproc
 477              	.LFE234:
 478              		.size	thread4a, .-thread4a
 479              		.section	.text.mtx4_execute,"ax",%progbits
 480              		.align	2
 481              		.p2align 4,,15
 482              		.thumb
 483              		.thumb_func
 484              		.type	mtx4_execute, %function
 485              	mtx4_execute:
 486              	.LFB236:
 487              		.loc 1 354 0
 488              		.cfi_startproc
 489              		@ args = 0, pretend = 0, frame = 8
 490              		@ frame_needed = 0, uses_anonymous_args = 0
 491 0000 2DE9F046 		push	{r4, r5, r6, r7, r9, r10, lr}
 492              		.cfi_def_cfa_offset 28
 493              		.cfi_offset 4, -28
 494              		.cfi_offset 5, -24
 495              		.cfi_offset 6, -20
 496              		.cfi_offset 7, -16
 497              		.cfi_offset 9, -12
 498              		.cfi_offset 10, -8
 499              		.cfi_offset 14, -4
 500              	.LBB148:
 501              	.LBB149:
 502              	.LBB150:
 503              	.LBB151:
 504              		.loc 2 176 0
 505 0004 8B4D     		ldr	r5, .L40
 506              	.LBE151:
 507              	.LBE150:
 508              	.LBE149:
 509              	.LBE148:
 510              		.loc 1 360 0
 511 0006 8C4E     		ldr	r6, .L40+4
 512              	.LBB154:
 513              	.LBB152:
ARM GAS  /tmp/ccbAOmuy.s 			page 10


 514              		.loc 2 189 0
 515 0008 AB69     		ldr	r3, [r5, #24]
 516              	.LBE152:
 517              	.LBE154:
 518              		.loc 1 360 0
 519 000a 3268     		ldr	r2, [r6]
 520              	.LBB155:
 521              	.LBB153:
 522              		.loc 2 189 0
 523 000c 9C68     		ldr	r4, [r3, #8]
 524              	.LBE153:
 525              	.LBE155:
 526              		.loc 1 360 0
 527 000e 8B4B     		ldr	r3, .L40+8
 528 0010 8B4F     		ldr	r7, .L40+12
 529              		.loc 1 354 0
 530 0012 85B0     		sub	sp, sp, #20
 531              		.cfi_def_cfa_offset 48
 532              		.loc 1 358 0
 533 0014 04F10109 		add	r9, r4, #1
 534              	.LVL36:
 535              		.loc 1 360 0
 536 0018 1046     		mov	r0, r2
 537 001a 0392     		str	r2, [sp, #12]
 538 001c 0093     		str	r3, [sp]
 539 001e 4A46     		mov	r2, r9
 540 0020 4FF4A471 		mov	r1, #328
 541 0024 874B     		ldr	r3, .L40+16
 542 0026 FFF7FEFF 		bl	chThdCreateStatic
 543              	.LVL37:
 544              		.loc 1 361 0
 545 002a 7668     		ldr	r6, [r6, #4]
 546 002c 864B     		ldr	r3, .L40+20
 547              		.loc 1 360 0
 548 002e 3860     		str	r0, [r7]
 549              		.loc 1 359 0
 550 0030 04F1020A 		add	r10, r4, #2
 551              	.LVL38:
 552              		.loc 1 361 0
 553 0034 4FF4A471 		mov	r1, #328
 554 0038 5246     		mov	r2, r10
 555 003a 0093     		str	r3, [sp]
 556 003c 3046     		mov	r0, r6
 557 003e 834B     		ldr	r3, .L40+24
 558 0040 FFF7FEFF 		bl	chThdCreateStatic
 559              	.LVL39:
 560 0044 7860     		str	r0, [r7, #4]
 561              		.loc 1 362 0
 562 0046 8248     		ldr	r0, .L40+28
 563 0048 FFF7FEFF 		bl	chMtxLock
 564              	.LVL40:
 565              	.LBB156:
 566              	.LBB157:
 567              		.loc 2 189 0
 568 004c AB69     		ldr	r3, [r5, #24]
 569              	.LBE157:
 570              	.LBE156:
ARM GAS  /tmp/ccbAOmuy.s 			page 11


 571              		.loc 1 363 0
 572 004e 9968     		ldr	r1, [r3, #8]
 573 0050 0120     		movs	r0, #1
 574 0052 611A     		subs	r1, r4, r1
 575 0054 B1FA81F1 		clz	r1, r1
 576 0058 4909     		lsrs	r1, r1, #5
 577 005a FFF7FEFF 		bl	_test_assert
 578              	.LVL41:
 579 005e 10B1     		cbz	r0, .L39
 580              	.L34:
 581              		.loc 1 399 0
 582 0060 05B0     		add	sp, sp, #20
 583              		.cfi_remember_state
 584              		.cfi_def_cfa_offset 28
 585              		@ sp needed
 586 0062 BDE8F086 		pop	{r4, r5, r6, r7, r9, r10, pc}
 587              	.LVL42:
 588              	.L39:
 589              		.cfi_restore_state
 590              		.loc 1 364 0
 591 0066 6420     		movs	r0, #100
 592 0068 FFF7FEFF 		bl	chThdSleep
 593              	.LVL43:
 594              	.LBB158:
 595              	.LBB159:
 596              		.loc 2 189 0
 597 006c AB69     		ldr	r3, [r5, #24]
 598              	.LBE159:
 599              	.LBE158:
 600              		.loc 1 365 0
 601 006e 9968     		ldr	r1, [r3, #8]
 602 0070 0220     		movs	r0, #2
 603 0072 C1EB0901 		rsb	r1, r1, r9
 604 0076 B1FA81F1 		clz	r1, r1
 605 007a 4909     		lsrs	r1, r1, #5
 606 007c FFF7FEFF 		bl	_test_assert
 607              	.LVL44:
 608 0080 0028     		cmp	r0, #0
 609 0082 EDD1     		bne	.L34
 610              		.loc 1 366 0
 611 0084 7348     		ldr	r0, .L40+32
 612 0086 FFF7FEFF 		bl	chMtxLock
 613              	.LVL45:
 614              	.LBB160:
 615              	.LBB161:
 616              		.loc 2 189 0
 617 008a AB69     		ldr	r3, [r5, #24]
 618              	.LBE161:
 619              	.LBE160:
 620              		.loc 1 367 0
 621 008c 9968     		ldr	r1, [r3, #8]
 622 008e 0320     		movs	r0, #3
 623 0090 C1EB0901 		rsb	r1, r1, r9
 624 0094 B1FA81F1 		clz	r1, r1
 625 0098 4909     		lsrs	r1, r1, #5
 626 009a FFF7FEFF 		bl	_test_assert
 627              	.LVL46:
ARM GAS  /tmp/ccbAOmuy.s 			page 12


 628 009e 0028     		cmp	r0, #0
 629 00a0 DED1     		bne	.L34
 630              		.loc 1 368 0
 631 00a2 6420     		movs	r0, #100
 632 00a4 FFF7FEFF 		bl	chThdSleep
 633              	.LVL47:
 634              	.LBB162:
 635              	.LBB163:
 636              		.loc 2 189 0
 637 00a8 AB69     		ldr	r3, [r5, #24]
 638              	.LBE163:
 639              	.LBE162:
 640              		.loc 1 369 0
 641 00aa 9968     		ldr	r1, [r3, #8]
 642 00ac 0420     		movs	r0, #4
 643 00ae C1EB0A01 		rsb	r1, r1, r10
 644 00b2 B1FA81F1 		clz	r1, r1
 645 00b6 4909     		lsrs	r1, r1, #5
 646 00b8 FFF7FEFF 		bl	_test_assert
 647              	.LVL48:
 648 00bc 0028     		cmp	r0, #0
 649 00be CFD1     		bne	.L34
 650              		.loc 1 370 0
 651 00c0 6448     		ldr	r0, .L40+32
 652 00c2 FFF7FEFF 		bl	chMtxUnlock
 653              	.LVL49:
 654              	.LBB164:
 655              	.LBB165:
 656              		.loc 2 189 0
 657 00c6 AB69     		ldr	r3, [r5, #24]
 658              	.LBE165:
 659              	.LBE164:
 660              		.loc 1 371 0
 661 00c8 9968     		ldr	r1, [r3, #8]
 662 00ca 0520     		movs	r0, #5
 663 00cc C1EB0901 		rsb	r1, r1, r9
 664 00d0 B1FA81F1 		clz	r1, r1
 665 00d4 4909     		lsrs	r1, r1, #5
 666 00d6 FFF7FEFF 		bl	_test_assert
 667              	.LVL50:
 668 00da 0028     		cmp	r0, #0
 669 00dc C0D1     		bne	.L34
 670              		.loc 1 372 0
 671 00de 6420     		movs	r0, #100
 672 00e0 FFF7FEFF 		bl	chThdSleep
 673              	.LVL51:
 674              	.LBB166:
 675              	.LBB167:
 676              		.loc 2 189 0
 677 00e4 AB69     		ldr	r3, [r5, #24]
 678              	.LBE167:
 679              	.LBE166:
 680              		.loc 1 373 0
 681 00e6 9968     		ldr	r1, [r3, #8]
 682 00e8 0620     		movs	r0, #6
 683 00ea C1EB0901 		rsb	r1, r1, r9
 684 00ee B1FA81F1 		clz	r1, r1
ARM GAS  /tmp/ccbAOmuy.s 			page 13


 685 00f2 4909     		lsrs	r1, r1, #5
 686 00f4 FFF7FEFF 		bl	_test_assert
 687              	.LVL52:
 688 00f8 0028     		cmp	r0, #0
 689 00fa B1D1     		bne	.L34
 690              		.loc 1 374 0
 691 00fc FFF7FEFF 		bl	chMtxUnlockAll
 692              	.LVL53:
 693              	.LBB168:
 694              	.LBB169:
 695              		.loc 2 189 0
 696 0100 AB69     		ldr	r3, [r5, #24]
 697              	.LBE169:
 698              	.LBE168:
 699              		.loc 1 375 0
 700 0102 9968     		ldr	r1, [r3, #8]
 701 0104 0720     		movs	r0, #7
 702 0106 611A     		subs	r1, r4, r1
 703 0108 B1FA81F1 		clz	r1, r1
 704 010c 4909     		lsrs	r1, r1, #5
 705 010e FFF7FEFF 		bl	_test_assert
 706              	.LVL54:
 707 0112 0028     		cmp	r0, #0
 708 0114 A4D1     		bne	.L34
 709              		.loc 1 376 0
 710 0116 FFF7FEFF 		bl	test_wait_threads
 711              	.LVL55:
 712              		.loc 1 379 0
 713 011a 4F4B     		ldr	r3, .L40+36
 714 011c 0093     		str	r3, [sp]
 715 011e 4FF4A471 		mov	r1, #328
 716 0122 4A46     		mov	r2, r9
 717 0124 474B     		ldr	r3, .L40+16
 718 0126 0398     		ldr	r0, [sp, #12]
 719 0128 FFF7FEFF 		bl	chThdCreateStatic
 720              	.LVL56:
 721              		.loc 1 380 0
 722 012c 4B4B     		ldr	r3, .L40+40
 723              		.loc 1 379 0
 724 012e 3860     		str	r0, [r7]
 725              		.loc 1 380 0
 726 0130 4FF4A471 		mov	r1, #328
 727 0134 0093     		str	r3, [sp]
 728 0136 5246     		mov	r2, r10
 729 0138 444B     		ldr	r3, .L40+24
 730 013a 3046     		mov	r0, r6
 731 013c FFF7FEFF 		bl	chThdCreateStatic
 732              	.LVL57:
 733 0140 7860     		str	r0, [r7, #4]
 734              		.loc 1 381 0
 735 0142 4348     		ldr	r0, .L40+28
 736 0144 FFF7FEFF 		bl	chMtxLock
 737              	.LVL58:
 738              	.LBB170:
 739              	.LBB171:
 740              		.loc 2 189 0
 741 0148 AB69     		ldr	r3, [r5, #24]
ARM GAS  /tmp/ccbAOmuy.s 			page 14


 742              	.LBE171:
 743              	.LBE170:
 744              		.loc 1 382 0
 745 014a 9968     		ldr	r1, [r3, #8]
 746 014c 0820     		movs	r0, #8
 747 014e 611A     		subs	r1, r4, r1
 748 0150 B1FA81F1 		clz	r1, r1
 749 0154 4909     		lsrs	r1, r1, #5
 750 0156 FFF7FEFF 		bl	_test_assert
 751              	.LVL59:
 752 015a 0028     		cmp	r0, #0
 753 015c 80D1     		bne	.L34
 754              		.loc 1 383 0
 755 015e 6420     		movs	r0, #100
 756 0160 FFF7FEFF 		bl	chThdSleep
 757              	.LVL60:
 758              	.LBB172:
 759              	.LBB173:
 760              		.loc 2 189 0
 761 0164 AB69     		ldr	r3, [r5, #24]
 762              	.LBE173:
 763              	.LBE172:
 764              		.loc 1 384 0
 765 0166 9968     		ldr	r1, [r3, #8]
 766 0168 C1EB090C 		rsb	ip, r1, r9
 767 016c DCF10001 		rsbs	r1, ip, #0
 768 0170 41EB0C01 		adc	r1, r1, ip
 769 0174 0920     		movs	r0, #9
 770 0176 FFF7FEFF 		bl	_test_assert
 771              	.LVL61:
 772 017a 0028     		cmp	r0, #0
 773 017c 7FF470AF 		bne	.L34
 774              		.loc 1 385 0
 775 0180 3448     		ldr	r0, .L40+32
 776 0182 FFF7FEFF 		bl	chMtxLock
 777              	.LVL62:
 778              	.LBB174:
 779              	.LBB175:
 780              		.loc 2 189 0
 781 0186 AB69     		ldr	r3, [r5, #24]
 782              	.LBE175:
 783              	.LBE174:
 784              		.loc 1 386 0
 785 0188 9968     		ldr	r1, [r3, #8]
 786 018a C1EB090E 		rsb	lr, r1, r9
 787 018e DEF10001 		rsbs	r1, lr, #0
 788 0192 41EB0E01 		adc	r1, r1, lr
 789 0196 0A20     		movs	r0, #10
 790 0198 FFF7FEFF 		bl	_test_assert
 791              	.LVL63:
 792 019c 0028     		cmp	r0, #0
 793 019e 7FF45FAF 		bne	.L34
 794              		.loc 1 387 0
 795 01a2 6420     		movs	r0, #100
 796 01a4 FFF7FEFF 		bl	chThdSleep
 797              	.LVL64:
 798              	.LBB176:
ARM GAS  /tmp/ccbAOmuy.s 			page 15


 799              	.LBB177:
 800              		.loc 2 189 0
 801 01a8 AB69     		ldr	r3, [r5, #24]
 802              	.LBE177:
 803              	.LBE176:
 804              		.loc 1 388 0
 805 01aa 9968     		ldr	r1, [r3, #8]
 806 01ac C1EB0A07 		rsb	r7, r1, r10
 807 01b0 7942     		rsbs	r1, r7, #0
 808 01b2 4FF00B00 		mov	r0, #11
 809 01b6 7941     		adcs	r1, r1, r7
 810 01b8 FFF7FEFF 		bl	_test_assert
 811              	.LVL65:
 812 01bc 0646     		mov	r6, r0
 813 01be 0028     		cmp	r0, #0
 814 01c0 7FF44EAF 		bne	.L34
 815              	.LVL66:
 816              	.LBB178:
 817              	.LBB179:
 818              	.LBB180:
 819              	.LBB181:
 820              		.file 3 "../os/ext/CMSIS/include/core_cmFunc.h"
 821              		.loc 3 548 0
 822 01c4 2023     		movs	r3, #32
 823              	#APP
 824              	@ 548 "../os/ext/CMSIS/include/core_cmFunc.h" 1
 825 01c6 83F31188 		MSR basepri, r3
 826              	@ 0 "" 2
 827              		.thumb
 828              	.LBE181:
 829              	.LBE180:
 830              	.LBE179:
 831              	.LBE178:
 832              		.loc 1 390 0
 833 01ca 2248     		ldr	r0, .L40+32
 834 01cc FFF7FEFF 		bl	chMtxUnlockS
 835              	.LVL67:
 836              		.loc 1 391 0
 837 01d0 FFF7FEFF 		bl	chSchRescheduleS
 838              	.LVL68:
 839              	.LBB182:
 840              	.LBB183:
 841              	.LBB184:
 842              	.LBB185:
 843              	.LBB186:
 844              		.loc 3 548 0
 845              	#APP
 846              	@ 548 "../os/ext/CMSIS/include/core_cmFunc.h" 1
 847 01d4 86F31188 		MSR basepri, r6
 848              	@ 0 "" 2
 849              		.thumb
 850              	.LBE186:
 851              	.LBE185:
 852              	.LBE184:
 853              	.LBE183:
 854              	.LBE182:
 855              	.LBB187:
ARM GAS  /tmp/ccbAOmuy.s 			page 16


 856              	.LBB188:
 857              		.loc 2 189 0
 858 01d8 AB69     		ldr	r3, [r5, #24]
 859              	.LBE188:
 860              	.LBE187:
 861              		.loc 1 393 0
 862 01da 9968     		ldr	r1, [r3, #8]
 863 01dc C1EB0906 		rsb	r6, r1, r9
 864 01e0 7142     		rsbs	r1, r6, #0
 865 01e2 7141     		adcs	r1, r1, r6
 866 01e4 0C20     		movs	r0, #12
 867 01e6 FFF7FEFF 		bl	_test_assert
 868              	.LVL69:
 869 01ea 0028     		cmp	r0, #0
 870 01ec 7FF438AF 		bne	.L34
 871              		.loc 1 394 0
 872 01f0 6420     		movs	r0, #100
 873 01f2 FFF7FEFF 		bl	chThdSleep
 874              	.LVL70:
 875              	.LBB189:
 876              	.LBB190:
 877              		.loc 2 189 0
 878 01f6 AB69     		ldr	r3, [r5, #24]
 879              	.LBE190:
 880              	.LBE189:
 881              		.loc 1 395 0
 882 01f8 9968     		ldr	r1, [r3, #8]
 883 01fa C1EB0902 		rsb	r2, r1, r9
 884 01fe 5142     		rsbs	r1, r2, #0
 885 0200 5141     		adcs	r1, r1, r2
 886 0202 0D20     		movs	r0, #13
 887 0204 FFF7FEFF 		bl	_test_assert
 888              	.LVL71:
 889 0208 0028     		cmp	r0, #0
 890 020a 7FF429AF 		bne	.L34
 891              		.loc 1 396 0
 892 020e FFF7FEFF 		bl	chMtxUnlockAll
 893              	.LVL72:
 894              	.LBB191:
 895              	.LBB192:
 896              		.loc 2 189 0
 897 0212 AB69     		ldr	r3, [r5, #24]
 898              	.LBE192:
 899              	.LBE191:
 900              		.loc 1 397 0
 901 0214 9968     		ldr	r1, [r3, #8]
 902 0216 631A     		subs	r3, r4, r1
 903 0218 5942     		rsbs	r1, r3, #0
 904 021a 5941     		adcs	r1, r1, r3
 905 021c 0E20     		movs	r0, #14
 906 021e FFF7FEFF 		bl	_test_assert
 907              	.LVL73:
 908 0222 0028     		cmp	r0, #0
 909 0224 7FF41CAF 		bne	.L34
 910              		.loc 1 399 0
 911 0228 05B0     		add	sp, sp, #20
 912              		.cfi_def_cfa_offset 28
ARM GAS  /tmp/ccbAOmuy.s 			page 17


 913              		@ sp needed
 914 022a BDE8F046 		pop	{r4, r5, r6, r7, r9, r10, lr}
 915              		.cfi_restore 14
 916              		.cfi_restore 10
 917              		.cfi_restore 9
 918              		.cfi_restore 7
 919              		.cfi_restore 6
 920              		.cfi_restore 5
 921              		.cfi_restore 4
 922              		.cfi_def_cfa_offset 0
 923              	.LVL74:
 924              		.loc 1 398 0
 925 022e FFF7FEBF 		b	test_wait_threads
 926              	.LVL75:
 927              	.L41:
 928 0232 00BF     		.align	2
 929              	.L40:
 930 0234 00000000 		.word	ch
 931 0238 00000000 		.word	wa
 932 023c 0C000000 		.word	.LC3
 933 0240 00000000 		.word	threads
 934 0244 00000000 		.word	thread4a
 935 0248 10000000 		.word	.LC4
 936 024c 00000000 		.word	thread4b
 937 0250 00000000 		.word	.LANCHOR1
 938 0254 00000000 		.word	.LANCHOR0
 939 0258 04000000 		.word	.LC1
 940 025c 08000000 		.word	.LC2
 941              		.cfi_endproc
 942              	.LFE236:
 943              		.size	mtx4_execute, .-mtx4_execute
 944              		.section	.text.mtx5_execute,"ax",%progbits
 945              		.align	2
 946              		.p2align 4,,15
 947              		.thumb
 948              		.thumb_func
 949              		.type	mtx5_execute, %function
 950              	mtx5_execute:
 951              	.LFB238:
 952              		.loc 1 423 0
 953              		.cfi_startproc
 954              		@ args = 0, pretend = 0, frame = 0
 955              		@ frame_needed = 0, uses_anonymous_args = 0
 956 0000 F8B5     		push	{r3, r4, r5, r6, r7, lr}
 957              		.cfi_def_cfa_offset 24
 958              		.cfi_offset 3, -24
 959              		.cfi_offset 4, -20
 960              		.cfi_offset 5, -16
 961              		.cfi_offset 6, -12
 962              		.cfi_offset 7, -8
 963              		.cfi_offset 14, -4
 964              	.LBB193:
 965              	.LBB194:
 966              	.LBB195:
 967              	.LBB196:
 968              		.loc 2 176 0
 969 0002 2B4D     		ldr	r5, .L48
ARM GAS  /tmp/ccbAOmuy.s 			page 18


 970              	.LBE196:
 971              	.LBE195:
 972              	.LBE194:
 973              	.LBE193:
 974              		.loc 1 429 0
 975 0004 2B4C     		ldr	r4, .L48+4
 976              	.LBB199:
 977              	.LBB197:
 978              		.loc 2 189 0
 979 0006 AB69     		ldr	r3, [r5, #24]
 980              	.LBE197:
 981              	.LBE199:
 982              		.loc 1 429 0
 983 0008 2046     		mov	r0, r4
 984              	.LBB200:
 985              	.LBB198:
 986              		.loc 2 189 0
 987 000a 9E68     		ldr	r6, [r3, #8]
 988              	.LBE198:
 989              	.LBE200:
 990              		.loc 1 429 0
 991 000c FFF7FEFF 		bl	chMtxTryLock
 992              	.LVL76:
 993              		.loc 1 430 0
 994 0010 0146     		mov	r1, r0
 995 0012 0120     		movs	r0, #1
 996              	.LVL77:
 997 0014 FFF7FEFF 		bl	_test_assert
 998              	.LVL78:
 999 0018 00B1     		cbz	r0, .L47
 1000              	.L42:
 1001 001a F8BD     		pop	{r3, r4, r5, r6, r7, pc}
 1002              	.L47:
 1003              		.loc 1 432 0
 1004 001c 2046     		mov	r0, r4
 1005 001e FFF7FEFF 		bl	chMtxTryLock
 1006              	.LVL79:
 1007              		.loc 1 433 0
 1008 0022 80F00101 		eor	r1, r0, #1
 1009 0026 C9B2     		uxtb	r1, r1
 1010 0028 0220     		movs	r0, #2
 1011              	.LVL80:
 1012 002a FFF7FEFF 		bl	_test_assert
 1013              	.LVL81:
 1014 002e 0746     		mov	r7, r0
 1015 0030 0028     		cmp	r0, #0
 1016 0032 F2D1     		bne	.L42
 1017              	.LVL82:
 1018              	.LBB201:
 1019              	.LBB202:
 1020              	.LBB203:
 1021              	.LBB204:
 1022              		.loc 3 548 0
 1023 0034 2023     		movs	r3, #32
 1024              	#APP
 1025              	@ 548 "../os/ext/CMSIS/include/core_cmFunc.h" 1
 1026 0036 83F31188 		MSR basepri, r3
ARM GAS  /tmp/ccbAOmuy.s 			page 19


 1027              	@ 0 "" 2
 1028              		.thumb
 1029              	.LBE204:
 1030              	.LBE203:
 1031              	.LBE202:
 1032              	.LBE201:
 1033              		.loc 1 436 0
 1034 003a 2046     		mov	r0, r4
 1035 003c FFF7FEFF 		bl	chMtxUnlockS
 1036              	.LVL83:
 1037              	.LBB205:
 1038              	.LBB206:
 1039              	.LBB207:
 1040              	.LBB208:
 1041              	.LBB209:
 1042              		.loc 3 548 0
 1043              	#APP
 1044              	@ 548 "../os/ext/CMSIS/include/core_cmFunc.h" 1
 1045 0040 87F31188 		MSR basepri, r7
 1046              	@ 0 "" 2
 1047              	.LVL84:
 1048              		.thumb
 1049              	.LBE209:
 1050              	.LBE208:
 1051              	.LBE207:
 1052              	.LBE206:
 1053              	.LBE205:
 1054              	.LBB210:
 1055              	.LBB211:
 1056              		.file 4 "../os/rt/include/chschd.h"
 1057              		.loc 4 618 0
 1058 0044 2168     		ldr	r1, [r4]
 1059              	.LBE211:
 1060              	.LBE210:
 1061              		.loc 1 439 0
 1062 0046 0320     		movs	r0, #3
 1063 0048 091B     		subs	r1, r1, r4
 1064 004a B1FA81F1 		clz	r1, r1
 1065 004e 4909     		lsrs	r1, r1, #5
 1066 0050 FFF7FEFF 		bl	_test_assert
 1067              	.LVL85:
 1068 0054 0028     		cmp	r0, #0
 1069 0056 E0D1     		bne	.L42
 1070              		.loc 1 440 0
 1071 0058 A168     		ldr	r1, [r4, #8]
 1072 005a B1FA81F1 		clz	r1, r1
 1073 005e 0420     		movs	r0, #4
 1074 0060 4909     		lsrs	r1, r1, #5
 1075 0062 FFF7FEFF 		bl	_test_assert
 1076              	.LVL86:
 1077 0066 0028     		cmp	r0, #0
 1078 0068 D7D1     		bne	.L42
 1079              	.LBB212:
 1080              	.LBB213:
 1081              		.loc 2 189 0
 1082 006a AB69     		ldr	r3, [r5, #24]
 1083              	.LBE213:
ARM GAS  /tmp/ccbAOmuy.s 			page 20


 1084              	.LBE212:
 1085              		.loc 1 441 0
 1086 006c 9968     		ldr	r1, [r3, #8]
 1087 006e 0520     		movs	r0, #5
 1088 0070 711A     		subs	r1, r6, r1
 1089 0072 B1FA81F1 		clz	r1, r1
 1090 0076 4909     		lsrs	r1, r1, #5
 1091 0078 FFF7FEFF 		bl	_test_assert
 1092              	.LVL87:
 1093 007c 0028     		cmp	r0, #0
 1094 007e CCD1     		bne	.L42
 1095              		.loc 1 444 0
 1096 0080 2046     		mov	r0, r4
 1097 0082 FFF7FEFF 		bl	chMtxLock
 1098              	.LVL88:
 1099              		.loc 1 445 0
 1100 0086 FFF7FEFF 		bl	chMtxUnlockAll
 1101              	.LVL89:
 1102              	.LBB214:
 1103              	.LBB215:
 1104              		.loc 4 618 0
 1105 008a 2168     		ldr	r1, [r4]
 1106              	.LBE215:
 1107              	.LBE214:
 1108              		.loc 1 446 0
 1109 008c 0620     		movs	r0, #6
 1110 008e 091B     		subs	r1, r1, r4
 1111 0090 B1FA81F1 		clz	r1, r1
 1112 0094 4909     		lsrs	r1, r1, #5
 1113 0096 FFF7FEFF 		bl	_test_assert
 1114              	.LVL90:
 1115 009a 0028     		cmp	r0, #0
 1116 009c BDD1     		bne	.L42
 1117              		.loc 1 447 0
 1118 009e A168     		ldr	r1, [r4, #8]
 1119 00a0 B1FA81F1 		clz	r1, r1
 1120 00a4 0720     		movs	r0, #7
 1121 00a6 4909     		lsrs	r1, r1, #5
 1122              		.loc 1 448 0
 1123 00a8 BDE8F840 		pop	{r3, r4, r5, r6, r7, lr}
 1124              		.cfi_restore 14
 1125              		.cfi_restore 7
 1126              		.cfi_restore 6
 1127              		.cfi_restore 5
 1128              		.cfi_restore 4
 1129              		.cfi_restore 3
 1130              		.cfi_def_cfa_offset 0
 1131              		.loc 1 447 0
 1132 00ac FFF7FEBF 		b	_test_assert
 1133              	.LVL91:
 1134              	.L49:
 1135              		.align	2
 1136              	.L48:
 1137 00b0 00000000 		.word	ch
 1138 00b4 00000000 		.word	.LANCHOR0
 1139              		.cfi_endproc
 1140              	.LFE238:
ARM GAS  /tmp/ccbAOmuy.s 			page 21


 1141              		.size	mtx5_execute, .-mtx5_execute
 1142 00b8 AFF30080 		.section	.text.mtx6_execute,"ax",%progbits
 1142      AFF30080 
 1143              		.align	2
 1144              		.p2align 4,,15
 1145              		.thumb
 1146              		.thumb_func
 1147              		.type	mtx6_execute, %function
 1148              	mtx6_execute:
 1149              	.LFB241:
 1150              		.loc 1 483 0
 1151              		.cfi_startproc
 1152              		@ args = 0, pretend = 0, frame = 0
 1153              		@ frame_needed = 0, uses_anonymous_args = 0
 1154 0000 F0B5     		push	{r4, r5, r6, r7, lr}
 1155              		.cfi_def_cfa_offset 20
 1156              		.cfi_offset 4, -20
 1157              		.cfi_offset 5, -16
 1158              		.cfi_offset 6, -12
 1159              		.cfi_offset 7, -8
 1160              		.cfi_offset 14, -4
 1161              	.LBB216:
 1162              	.LBB217:
 1163              	.LBB218:
 1164              	.LBB219:
 1165              		.loc 2 176 0
 1166 0002 2F4B     		ldr	r3, .L52
 1167              	.LBE219:
 1168              	.LBE218:
 1169              	.LBE217:
 1170              	.LBE216:
 1171              		.loc 1 486 0
 1172 0004 2F4F     		ldr	r7, .L52+4
 1173              	.LBB222:
 1174              	.LBB220:
 1175              		.loc 2 189 0
 1176 0006 9B69     		ldr	r3, [r3, #24]
 1177              	.LBE220:
 1178              	.LBE222:
 1179              		.loc 1 486 0
 1180 0008 2F4D     		ldr	r5, .L52+8
 1181              	.LBB223:
 1182              	.LBB221:
 1183              		.loc 2 189 0
 1184 000a 9E68     		ldr	r6, [r3, #8]
 1185              	.LBE221:
 1186              	.LBE223:
 1187              		.loc 1 486 0
 1188 000c 2F4B     		ldr	r3, .L52+12
 1189 000e 3868     		ldr	r0, [r7]
 1190 0010 2F4C     		ldr	r4, .L52+16
 1191              		.loc 1 483 0
 1192 0012 83B0     		sub	sp, sp, #12
 1193              		.cfi_def_cfa_offset 32
 1194              		.loc 1 486 0
 1195 0014 721C     		adds	r2, r6, #1
 1196 0016 0093     		str	r3, [sp]
ARM GAS  /tmp/ccbAOmuy.s 			page 22


 1197 0018 4FF4A471 		mov	r1, #328
 1198 001c 2B46     		mov	r3, r5
 1199 001e FFF7FEFF 		bl	chThdCreateStatic
 1200              	.LVL92:
 1201              		.loc 1 487 0
 1202 0022 7B68     		ldr	r3, [r7, #4]
 1203 0024 2B49     		ldr	r1, .L52+20
 1204              		.loc 1 486 0
 1205 0026 2060     		str	r0, [r4]
 1206              		.loc 1 487 0
 1207 0028 B21C     		adds	r2, r6, #2
 1208 002a 0091     		str	r1, [sp]
 1209 002c 1846     		mov	r0, r3
 1210 002e 4FF4A471 		mov	r1, #328
 1211 0032 2B46     		mov	r3, r5
 1212 0034 FFF7FEFF 		bl	chThdCreateStatic
 1213              	.LVL93:
 1214              		.loc 1 488 0
 1215 0038 BB68     		ldr	r3, [r7, #8]
 1216 003a 2749     		ldr	r1, .L52+24
 1217              		.loc 1 487 0
 1218 003c 6060     		str	r0, [r4, #4]
 1219              		.loc 1 488 0
 1220 003e F21C     		adds	r2, r6, #3
 1221 0040 0091     		str	r1, [sp]
 1222 0042 1846     		mov	r0, r3
 1223 0044 4FF4A471 		mov	r1, #328
 1224 0048 2B46     		mov	r3, r5
 1225 004a FFF7FEFF 		bl	chThdCreateStatic
 1226              	.LVL94:
 1227              		.loc 1 489 0
 1228 004e FB68     		ldr	r3, [r7, #12]
 1229 0050 2249     		ldr	r1, .L52+28
 1230              		.loc 1 488 0
 1231 0052 A060     		str	r0, [r4, #8]
 1232              		.loc 1 489 0
 1233 0054 321D     		adds	r2, r6, #4
 1234 0056 0091     		str	r1, [sp]
 1235 0058 1846     		mov	r0, r3
 1236 005a 4FF4A471 		mov	r1, #328
 1237 005e 2B46     		mov	r3, r5
 1238 0060 FFF7FEFF 		bl	chThdCreateStatic
 1239              	.LVL95:
 1240              		.loc 1 490 0
 1241 0064 3B69     		ldr	r3, [r7, #16]
 1242 0066 1E49     		ldr	r1, .L52+32
 1243              		.loc 1 489 0
 1244 0068 E060     		str	r0, [r4, #12]
 1245              		.loc 1 490 0
 1246 006a 721D     		adds	r2, r6, #5
 1247 006c 0091     		str	r1, [sp]
 1248 006e 1846     		mov	r0, r3
 1249 0070 4FF4A471 		mov	r1, #328
 1250 0074 2B46     		mov	r3, r5
 1251 0076 FFF7FEFF 		bl	chThdCreateStatic
 1252              	.LVL96:
 1253              	.LBB224:
ARM GAS  /tmp/ccbAOmuy.s 			page 23


 1254              	.LBB225:
 1255              	.LBB226:
 1256              	.LBB227:
 1257              		.loc 3 548 0
 1258 007a 2023     		movs	r3, #32
 1259              	.LBE227:
 1260              	.LBE226:
 1261              	.LBE225:
 1262              	.LBE224:
 1263              		.loc 1 490 0
 1264 007c 2061     		str	r0, [r4, #16]
 1265              	.LVL97:
 1266              	.LBB231:
 1267              	.LBB230:
 1268              	.LBB229:
 1269              	.LBB228:
 1270              		.loc 3 548 0
 1271              	#APP
 1272              	@ 548 "../os/ext/CMSIS/include/core_cmFunc.h" 1
 1273 007e 83F31188 		MSR basepri, r3
 1274              	@ 0 "" 2
 1275              		.thumb
 1276              	.LBE228:
 1277              	.LBE229:
 1278              	.LBE230:
 1279              	.LBE231:
 1280              		.loc 1 492 0
 1281 0082 184C     		ldr	r4, .L52+36
 1282 0084 2046     		mov	r0, r4
 1283 0086 FFF7FEFF 		bl	chCondSignalI
 1284              	.LVL98:
 1285              		.loc 1 493 0
 1286 008a 2046     		mov	r0, r4
 1287 008c FFF7FEFF 		bl	chCondSignalI
 1288              	.LVL99:
 1289              		.loc 1 494 0
 1290 0090 2046     		mov	r0, r4
 1291 0092 FFF7FEFF 		bl	chCondSignalI
 1292              	.LVL100:
 1293              		.loc 1 495 0
 1294 0096 2046     		mov	r0, r4
 1295 0098 FFF7FEFF 		bl	chCondSignalI
 1296              	.LVL101:
 1297              		.loc 1 496 0
 1298 009c 2046     		mov	r0, r4
 1299 009e FFF7FEFF 		bl	chCondSignalI
 1300              	.LVL102:
 1301              		.loc 1 497 0
 1302 00a2 FFF7FEFF 		bl	chSchRescheduleS
 1303              	.LVL103:
 1304              	.LBB232:
 1305              	.LBB233:
 1306              	.LBB234:
 1307              	.LBB235:
 1308              	.LBB236:
 1309              		.loc 3 548 0
 1310 00a6 0023     		movs	r3, #0
ARM GAS  /tmp/ccbAOmuy.s 			page 24


 1311              	#APP
 1312              	@ 548 "../os/ext/CMSIS/include/core_cmFunc.h" 1
 1313 00a8 83F31188 		MSR basepri, r3
 1314              	@ 0 "" 2
 1315              		.thumb
 1316              	.LBE236:
 1317              	.LBE235:
 1318              	.LBE234:
 1319              	.LBE233:
 1320              	.LBE232:
 1321              		.loc 1 499 0
 1322 00ac FFF7FEFF 		bl	test_wait_threads
 1323              	.LVL104:
 1324              		.loc 1 500 0
 1325 00b0 0D49     		ldr	r1, .L52+40
 1326 00b2 0120     		movs	r0, #1
 1327              		.loc 1 501 0
 1328 00b4 03B0     		add	sp, sp, #12
 1329              		.cfi_def_cfa_offset 20
 1330              		@ sp needed
 1331 00b6 BDE8F040 		pop	{r4, r5, r6, r7, lr}
 1332              		.cfi_restore 14
 1333              		.cfi_restore 7
 1334              		.cfi_restore 6
 1335              		.cfi_restore 5
 1336              		.cfi_restore 4
 1337              		.cfi_def_cfa_offset 0
 1338              		.loc 1 500 0
 1339 00ba FFF7FEBF 		b	_test_assert_sequence
 1340              	.LVL105:
 1341              	.L53:
 1342 00be 00BF     		.align	2
 1343              	.L52:
 1344 00c0 00000000 		.word	ch
 1345 00c4 00000000 		.word	wa
 1346 00c8 00000000 		.word	thread10
 1347 00cc 00000000 		.word	.LC0
 1348 00d0 00000000 		.word	threads
 1349 00d4 04000000 		.word	.LC1
 1350 00d8 08000000 		.word	.LC2
 1351 00dc 0C000000 		.word	.LC3
 1352 00e0 10000000 		.word	.LC4
 1353 00e4 00000000 		.word	.LANCHOR2
 1354 00e8 14000000 		.word	.LC5
 1355              		.cfi_endproc
 1356              	.LFE241:
 1357              		.size	mtx6_execute, .-mtx6_execute
 1358 00ec AFF30080 		.section	.text.thread10,"ax",%progbits
 1359              		.align	2
 1360              		.p2align 4,,15
 1361              		.thumb
 1362              		.thumb_func
 1363              		.type	thread10, %function
 1364              	thread10:
 1365              	.LFB240:
 1366              		.loc 1 475 0
 1367              		.cfi_startproc
ARM GAS  /tmp/ccbAOmuy.s 			page 25


 1368              		@ args = 0, pretend = 0, frame = 0
 1369              		@ frame_needed = 0, uses_anonymous_args = 0
 1370              	.LVL106:
 1371 0000 38B5     		push	{r3, r4, r5, lr}
 1372              		.cfi_def_cfa_offset 16
 1373              		.cfi_offset 3, -16
 1374              		.cfi_offset 4, -12
 1375              		.cfi_offset 5, -8
 1376              		.cfi_offset 14, -4
 1377              		.loc 1 477 0
 1378 0002 084C     		ldr	r4, .L56
 1379              		.loc 1 475 0
 1380 0004 0546     		mov	r5, r0
 1381              		.loc 1 477 0
 1382 0006 2046     		mov	r0, r4
 1383              	.LVL107:
 1384 0008 FFF7FEFF 		bl	chMtxLock
 1385              	.LVL108:
 1386              		.loc 1 478 0
 1387 000c 0648     		ldr	r0, .L56+4
 1388 000e FFF7FEFF 		bl	chCondWait
 1389              	.LVL109:
 1390              		.loc 1 479 0
 1391 0012 2878     		ldrb	r0, [r5]	@ zero_extendqisi2
 1392 0014 FFF7FEFF 		bl	test_emit_token
 1393              	.LVL110:
 1394              		.loc 1 480 0
 1395 0018 2046     		mov	r0, r4
 1396              		.loc 1 481 0
 1397 001a BDE83840 		pop	{r3, r4, r5, lr}
 1398              		.cfi_restore 14
 1399              		.cfi_restore 5
 1400              		.cfi_restore 4
 1401              		.cfi_restore 3
 1402              		.cfi_def_cfa_offset 0
 1403              	.LVL111:
 1404              		.loc 1 480 0
 1405 001e FFF7FEBF 		b	chMtxUnlock
 1406              	.LVL112:
 1407              	.L57:
 1408 0022 00BF     		.align	2
 1409              	.L56:
 1410 0024 00000000 		.word	.LANCHOR0
 1411 0028 00000000 		.word	.LANCHOR2
 1412              		.cfi_endproc
 1413              	.LFE240:
 1414              		.size	thread10, .-thread10
 1415 002c AFF30080 		.section	.text.mtx6_setup,"ax",%progbits
 1416              		.align	2
 1417              		.p2align 4,,15
 1418              		.thumb
 1419              		.thumb_func
 1420              		.type	mtx6_setup, %function
 1421              	mtx6_setup:
 1422              	.LFB239:
 1423              		.loc 1 469 0
 1424              		.cfi_startproc
ARM GAS  /tmp/ccbAOmuy.s 			page 26


 1425              		@ args = 0, pretend = 0, frame = 0
 1426              		@ frame_needed = 0, uses_anonymous_args = 0
 1427 0000 08B5     		push	{r3, lr}
 1428              		.cfi_def_cfa_offset 8
 1429              		.cfi_offset 3, -8
 1430              		.cfi_offset 14, -4
 1431              		.loc 1 471 0
 1432 0002 0448     		ldr	r0, .L60
 1433 0004 FFF7FEFF 		bl	chCondObjectInit
 1434              	.LVL113:
 1435              		.loc 1 472 0
 1436 0008 0348     		ldr	r0, .L60+4
 1437              		.loc 1 473 0
 1438 000a BDE80840 		pop	{r3, lr}
 1439              		.cfi_restore 14
 1440              		.cfi_restore 3
 1441              		.cfi_def_cfa_offset 0
 1442              		.loc 1 472 0
 1443 000e FFF7FEBF 		b	chMtxObjectInit
 1444              	.LVL114:
 1445              	.L61:
 1446 0012 00BF     		.align	2
 1447              	.L60:
 1448 0014 00000000 		.word	.LANCHOR2
 1449 0018 00000000 		.word	.LANCHOR0
 1450              		.cfi_endproc
 1451              	.LFE239:
 1452              		.size	mtx6_setup, .-mtx6_setup
 1453 001c AFF30080 		.section	.text.mtx7_setup,"ax",%progbits
 1454              		.align	2
 1455              		.p2align 4,,15
 1456              		.thumb
 1457              		.thumb_func
 1458              		.type	mtx7_setup, %function
 1459              	mtx7_setup:
 1460              	.LFB242:
 1461              		.loc 1 520 0
 1462              		.cfi_startproc
 1463              		@ args = 0, pretend = 0, frame = 0
 1464              		@ frame_needed = 0, uses_anonymous_args = 0
 1465 0000 08B5     		push	{r3, lr}
 1466              		.cfi_def_cfa_offset 8
 1467              		.cfi_offset 3, -8
 1468              		.cfi_offset 14, -4
 1469              		.loc 1 522 0
 1470 0002 0448     		ldr	r0, .L64
 1471 0004 FFF7FEFF 		bl	chCondObjectInit
 1472              	.LVL115:
 1473              		.loc 1 523 0
 1474 0008 0348     		ldr	r0, .L64+4
 1475              		.loc 1 524 0
 1476 000a BDE80840 		pop	{r3, lr}
 1477              		.cfi_restore 14
 1478              		.cfi_restore 3
 1479              		.cfi_def_cfa_offset 0
 1480              		.loc 1 523 0
 1481 000e FFF7FEBF 		b	chMtxObjectInit
ARM GAS  /tmp/ccbAOmuy.s 			page 27


 1482              	.LVL116:
 1483              	.L65:
 1484 0012 00BF     		.align	2
 1485              	.L64:
 1486 0014 00000000 		.word	.LANCHOR2
 1487 0018 00000000 		.word	.LANCHOR0
 1488              		.cfi_endproc
 1489              	.LFE242:
 1490              		.size	mtx7_setup, .-mtx7_setup
 1491 001c AFF30080 		.section	.text.mtx8_setup,"ax",%progbits
 1492              		.align	2
 1493              		.p2align 4,,15
 1494              		.thumb
 1495              		.thumb_func
 1496              		.type	mtx8_setup, %function
 1497              	mtx8_setup:
 1498              	.LFB244:
 1499              		.loc 1 555 0
 1500              		.cfi_startproc
 1501              		@ args = 0, pretend = 0, frame = 0
 1502              		@ frame_needed = 0, uses_anonymous_args = 0
 1503 0000 08B5     		push	{r3, lr}
 1504              		.cfi_def_cfa_offset 8
 1505              		.cfi_offset 3, -8
 1506              		.cfi_offset 14, -4
 1507              		.loc 1 557 0
 1508 0002 0548     		ldr	r0, .L68
 1509 0004 FFF7FEFF 		bl	chCondObjectInit
 1510              	.LVL117:
 1511              		.loc 1 558 0
 1512 0008 0448     		ldr	r0, .L68+4
 1513 000a FFF7FEFF 		bl	chMtxObjectInit
 1514              	.LVL118:
 1515              		.loc 1 559 0
 1516 000e 0448     		ldr	r0, .L68+8
 1517              		.loc 1 560 0
 1518 0010 BDE80840 		pop	{r3, lr}
 1519              		.cfi_restore 14
 1520              		.cfi_restore 3
 1521              		.cfi_def_cfa_offset 0
 1522              		.loc 1 559 0
 1523 0014 FFF7FEBF 		b	chMtxObjectInit
 1524              	.LVL119:
 1525              	.L69:
 1526              		.align	2
 1527              	.L68:
 1528 0018 00000000 		.word	.LANCHOR2
 1529 001c 00000000 		.word	.LANCHOR0
 1530 0020 00000000 		.word	.LANCHOR1
 1531              		.cfi_endproc
 1532              	.LFE244:
 1533              		.size	mtx8_setup, .-mtx8_setup
 1534 0024 AFF30080 		.section	.text.mtx7_execute,"ax",%progbits
 1534      AFF30080 
 1534      AFF30080 
 1535              		.align	2
 1536              		.p2align 4,,15
ARM GAS  /tmp/ccbAOmuy.s 			page 28


 1537              		.thumb
 1538              		.thumb_func
 1539              		.type	mtx7_execute, %function
 1540              	mtx7_execute:
 1541              	.LFB243:
 1542              		.loc 1 526 0
 1543              		.cfi_startproc
 1544              		@ args = 0, pretend = 0, frame = 0
 1545              		@ frame_needed = 0, uses_anonymous_args = 0
 1546 0000 F0B5     		push	{r4, r5, r6, r7, lr}
 1547              		.cfi_def_cfa_offset 20
 1548              		.cfi_offset 4, -20
 1549              		.cfi_offset 5, -16
 1550              		.cfi_offset 6, -12
 1551              		.cfi_offset 7, -8
 1552              		.cfi_offset 14, -4
 1553              	.LBB237:
 1554              	.LBB238:
 1555              	.LBB239:
 1556              	.LBB240:
 1557              		.loc 2 176 0
 1558 0002 244B     		ldr	r3, .L72
 1559              	.LBE240:
 1560              	.LBE239:
 1561              	.LBE238:
 1562              	.LBE237:
 1563              		.loc 1 529 0
 1564 0004 244F     		ldr	r7, .L72+4
 1565              	.LBB243:
 1566              	.LBB241:
 1567              		.loc 2 189 0
 1568 0006 9B69     		ldr	r3, [r3, #24]
 1569              	.LBE241:
 1570              	.LBE243:
 1571              		.loc 1 529 0
 1572 0008 244D     		ldr	r5, .L72+8
 1573              	.LBB244:
 1574              	.LBB242:
 1575              		.loc 2 189 0
 1576 000a 9E68     		ldr	r6, [r3, #8]
 1577              	.LBE242:
 1578              	.LBE244:
 1579              		.loc 1 529 0
 1580 000c 244B     		ldr	r3, .L72+12
 1581 000e 3868     		ldr	r0, [r7]
 1582 0010 244C     		ldr	r4, .L72+16
 1583              		.loc 1 526 0
 1584 0012 83B0     		sub	sp, sp, #12
 1585              		.cfi_def_cfa_offset 32
 1586              		.loc 1 529 0
 1587 0014 721C     		adds	r2, r6, #1
 1588 0016 0093     		str	r3, [sp]
 1589 0018 4FF4A471 		mov	r1, #328
 1590 001c 2B46     		mov	r3, r5
 1591 001e FFF7FEFF 		bl	chThdCreateStatic
 1592              	.LVL120:
 1593              		.loc 1 530 0
ARM GAS  /tmp/ccbAOmuy.s 			page 29


 1594 0022 7B68     		ldr	r3, [r7, #4]
 1595 0024 2049     		ldr	r1, .L72+20
 1596              		.loc 1 529 0
 1597 0026 2060     		str	r0, [r4]
 1598              		.loc 1 530 0
 1599 0028 B21C     		adds	r2, r6, #2
 1600 002a 0091     		str	r1, [sp]
 1601 002c 1846     		mov	r0, r3
 1602 002e 4FF4A471 		mov	r1, #328
 1603 0032 2B46     		mov	r3, r5
 1604 0034 FFF7FEFF 		bl	chThdCreateStatic
 1605              	.LVL121:
 1606              		.loc 1 531 0
 1607 0038 BB68     		ldr	r3, [r7, #8]
 1608 003a 1C49     		ldr	r1, .L72+24
 1609              		.loc 1 530 0
 1610 003c 6060     		str	r0, [r4, #4]
 1611              		.loc 1 531 0
 1612 003e F21C     		adds	r2, r6, #3
 1613 0040 0091     		str	r1, [sp]
 1614 0042 1846     		mov	r0, r3
 1615 0044 4FF4A471 		mov	r1, #328
 1616 0048 2B46     		mov	r3, r5
 1617 004a FFF7FEFF 		bl	chThdCreateStatic
 1618              	.LVL122:
 1619              		.loc 1 532 0
 1620 004e FB68     		ldr	r3, [r7, #12]
 1621 0050 1749     		ldr	r1, .L72+28
 1622              		.loc 1 531 0
 1623 0052 A060     		str	r0, [r4, #8]
 1624              		.loc 1 532 0
 1625 0054 321D     		adds	r2, r6, #4
 1626 0056 0091     		str	r1, [sp]
 1627 0058 1846     		mov	r0, r3
 1628 005a 4FF4A471 		mov	r1, #328
 1629 005e 2B46     		mov	r3, r5
 1630 0060 FFF7FEFF 		bl	chThdCreateStatic
 1631              	.LVL123:
 1632              		.loc 1 533 0
 1633 0064 3B69     		ldr	r3, [r7, #16]
 1634 0066 1349     		ldr	r1, .L72+32
 1635              		.loc 1 532 0
 1636 0068 E060     		str	r0, [r4, #12]
 1637              		.loc 1 533 0
 1638 006a 721D     		adds	r2, r6, #5
 1639 006c 0091     		str	r1, [sp]
 1640 006e 1846     		mov	r0, r3
 1641 0070 4FF4A471 		mov	r1, #328
 1642 0074 2B46     		mov	r3, r5
 1643 0076 FFF7FEFF 		bl	chThdCreateStatic
 1644              	.LVL124:
 1645 007a 2061     		str	r0, [r4, #16]
 1646              		.loc 1 534 0
 1647 007c 0E48     		ldr	r0, .L72+36
 1648 007e FFF7FEFF 		bl	chCondBroadcast
 1649              	.LVL125:
 1650              		.loc 1 535 0
ARM GAS  /tmp/ccbAOmuy.s 			page 30


 1651 0082 FFF7FEFF 		bl	test_wait_threads
 1652              	.LVL126:
 1653              		.loc 1 536 0
 1654 0086 0D49     		ldr	r1, .L72+40
 1655 0088 0120     		movs	r0, #1
 1656              		.loc 1 537 0
 1657 008a 03B0     		add	sp, sp, #12
 1658              		.cfi_def_cfa_offset 20
 1659              		@ sp needed
 1660 008c BDE8F040 		pop	{r4, r5, r6, r7, lr}
 1661              		.cfi_restore 14
 1662              		.cfi_restore 7
 1663              		.cfi_restore 6
 1664              		.cfi_restore 5
 1665              		.cfi_restore 4
 1666              		.cfi_def_cfa_offset 0
 1667              		.loc 1 536 0
 1668 0090 FFF7FEBF 		b	_test_assert_sequence
 1669              	.LVL127:
 1670              	.L73:
 1671              		.align	2
 1672              	.L72:
 1673 0094 00000000 		.word	ch
 1674 0098 00000000 		.word	wa
 1675 009c 00000000 		.word	thread10
 1676 00a0 00000000 		.word	.LC0
 1677 00a4 00000000 		.word	threads
 1678 00a8 04000000 		.word	.LC1
 1679 00ac 08000000 		.word	.LC2
 1680 00b0 0C000000 		.word	.LC3
 1681 00b4 10000000 		.word	.LC4
 1682 00b8 00000000 		.word	.LANCHOR2
 1683 00bc 14000000 		.word	.LC5
 1684              		.cfi_endproc
 1685              	.LFE243:
 1686              		.size	mtx7_execute, .-mtx7_execute
 1687              		.section	.text.mtx8_execute,"ax",%progbits
 1688              		.align	2
 1689              		.p2align 4,,15
 1690              		.thumb
 1691              		.thumb_func
 1692              		.type	mtx8_execute, %function
 1693              	mtx8_execute:
 1694              	.LFB247:
 1695              		.loc 1 583 0
 1696              		.cfi_startproc
 1697              		@ args = 0, pretend = 0, frame = 0
 1698              		@ frame_needed = 0, uses_anonymous_args = 0
 1699 0000 F0B5     		push	{r4, r5, r6, r7, lr}
 1700              		.cfi_def_cfa_offset 20
 1701              		.cfi_offset 4, -20
 1702              		.cfi_offset 5, -16
 1703              		.cfi_offset 6, -12
 1704              		.cfi_offset 7, -8
 1705              		.cfi_offset 14, -4
 1706              	.LBB245:
 1707              	.LBB246:
ARM GAS  /tmp/ccbAOmuy.s 			page 31


 1708              	.LBB247:
 1709              	.LBB248:
 1710              		.loc 2 176 0
 1711 0002 1B4B     		ldr	r3, .L76
 1712              	.LBE248:
 1713              	.LBE247:
 1714              	.LBE246:
 1715              	.LBE245:
 1716              		.loc 1 586 0
 1717 0004 1B4E     		ldr	r6, .L76+4
 1718              	.LBB251:
 1719              	.LBB249:
 1720              		.loc 2 189 0
 1721 0006 9B69     		ldr	r3, [r3, #24]
 1722              	.LBE249:
 1723              	.LBE251:
 1724              		.loc 1 586 0
 1725 0008 3068     		ldr	r0, [r6]
 1726              	.LBB252:
 1727              	.LBB250:
 1728              		.loc 2 189 0
 1729 000a 9D68     		ldr	r5, [r3, #8]
 1730              	.LBE250:
 1731              	.LBE252:
 1732              		.loc 1 586 0
 1733 000c 1A4B     		ldr	r3, .L76+8
 1734 000e 1B4C     		ldr	r4, .L76+12
 1735              		.loc 1 589 0
 1736 0010 1B4F     		ldr	r7, .L76+16
 1737              		.loc 1 583 0
 1738 0012 83B0     		sub	sp, sp, #12
 1739              		.cfi_def_cfa_offset 32
 1740              		.loc 1 586 0
 1741 0014 6A1C     		adds	r2, r5, #1
 1742 0016 0093     		str	r3, [sp]
 1743 0018 4FF4A471 		mov	r1, #328
 1744 001c 194B     		ldr	r3, .L76+20
 1745 001e FFF7FEFF 		bl	chThdCreateStatic
 1746              	.LVL128:
 1747              		.loc 1 587 0
 1748 0022 7168     		ldr	r1, [r6, #4]
 1749 0024 184B     		ldr	r3, .L76+24
 1750              		.loc 1 586 0
 1751 0026 2060     		str	r0, [r4]
 1752              		.loc 1 587 0
 1753 0028 AA1C     		adds	r2, r5, #2
 1754 002a 0093     		str	r3, [sp]
 1755 002c 0846     		mov	r0, r1
 1756 002e 174B     		ldr	r3, .L76+28
 1757 0030 4FF4A471 		mov	r1, #328
 1758 0034 FFF7FEFF 		bl	chThdCreateStatic
 1759              	.LVL129:
 1760              		.loc 1 588 0
 1761 0038 B168     		ldr	r1, [r6, #8]
 1762 003a 154B     		ldr	r3, .L76+32
 1763              		.loc 1 587 0
 1764 003c 6060     		str	r0, [r4, #4]
ARM GAS  /tmp/ccbAOmuy.s 			page 32


 1765              		.loc 1 588 0
 1766 003e EA1C     		adds	r2, r5, #3
 1767 0040 0093     		str	r3, [sp]
 1768 0042 0846     		mov	r0, r1
 1769 0044 134B     		ldr	r3, .L76+36
 1770 0046 4FF4A471 		mov	r1, #328
 1771 004a FFF7FEFF 		bl	chThdCreateStatic
 1772              	.LVL130:
 1773 004e A060     		str	r0, [r4, #8]
 1774              		.loc 1 589 0
 1775 0050 3846     		mov	r0, r7
 1776 0052 FFF7FEFF 		bl	chCondSignal
 1777              	.LVL131:
 1778              		.loc 1 590 0
 1779 0056 3846     		mov	r0, r7
 1780 0058 FFF7FEFF 		bl	chCondSignal
 1781              	.LVL132:
 1782              		.loc 1 591 0
 1783 005c FFF7FEFF 		bl	test_wait_threads
 1784              	.LVL133:
 1785              		.loc 1 592 0
 1786 0060 0D49     		ldr	r1, .L76+40
 1787 0062 0120     		movs	r0, #1
 1788              		.loc 1 593 0
 1789 0064 03B0     		add	sp, sp, #12
 1790              		.cfi_def_cfa_offset 20
 1791              		@ sp needed
 1792 0066 BDE8F040 		pop	{r4, r5, r6, r7, lr}
 1793              		.cfi_restore 14
 1794              		.cfi_restore 7
 1795              		.cfi_restore 6
 1796              		.cfi_restore 5
 1797              		.cfi_restore 4
 1798              		.cfi_def_cfa_offset 0
 1799              		.loc 1 592 0
 1800 006a FFF7FEBF 		b	_test_assert_sequence
 1801              	.LVL134:
 1802              	.L77:
 1803 006e 00BF     		.align	2
 1804              	.L76:
 1805 0070 00000000 		.word	ch
 1806 0074 00000000 		.word	wa
 1807 0078 10000000 		.word	.LC4
 1808 007c 00000000 		.word	threads
 1809 0080 00000000 		.word	.LANCHOR2
 1810 0084 00000000 		.word	thread11
 1811 0088 08000000 		.word	.LC2
 1812 008c 00000000 		.word	thread10
 1813 0090 0C000000 		.word	.LC3
 1814 0094 00000000 		.word	thread12
 1815 0098 1C000000 		.word	.LC6
 1816              		.cfi_endproc
 1817              	.LFE247:
 1818              		.size	mtx8_execute, .-mtx8_execute
 1819 009c AFF30080 		.section	.text.thread11,"ax",%progbits
 1820              		.align	2
 1821              		.p2align 4,,15
ARM GAS  /tmp/ccbAOmuy.s 			page 33


 1822              		.thumb
 1823              		.thumb_func
 1824              		.type	thread11, %function
 1825              	thread11:
 1826              	.LFB245:
 1827              		.loc 1 562 0
 1828              		.cfi_startproc
 1829              		@ args = 0, pretend = 0, frame = 0
 1830              		@ frame_needed = 0, uses_anonymous_args = 0
 1831              	.LVL135:
 1832 0000 70B5     		push	{r4, r5, r6, lr}
 1833              		.cfi_def_cfa_offset 16
 1834              		.cfi_offset 4, -16
 1835              		.cfi_offset 5, -12
 1836              		.cfi_offset 6, -8
 1837              		.cfi_offset 14, -4
 1838              		.loc 1 564 0
 1839 0002 0C4C     		ldr	r4, .L80
 1840              		.loc 1 565 0
 1841 0004 0C4D     		ldr	r5, .L80+4
 1842              		.loc 1 562 0
 1843 0006 0646     		mov	r6, r0
 1844              		.loc 1 564 0
 1845 0008 2046     		mov	r0, r4
 1846              	.LVL136:
 1847 000a FFF7FEFF 		bl	chMtxLock
 1848              	.LVL137:
 1849              		.loc 1 565 0
 1850 000e 2846     		mov	r0, r5
 1851 0010 FFF7FEFF 		bl	chMtxLock
 1852              	.LVL138:
 1853              		.loc 1 567 0
 1854 0014 4FF0FF31 		mov	r1, #-1
 1855 0018 0848     		ldr	r0, .L80+8
 1856 001a FFF7FEFF 		bl	chCondWaitTimeout
 1857              	.LVL139:
 1858              		.loc 1 571 0
 1859 001e 3078     		ldrb	r0, [r6]	@ zero_extendqisi2
 1860 0020 FFF7FEFF 		bl	test_emit_token
 1861              	.LVL140:
 1862              		.loc 1 572 0
 1863 0024 2846     		mov	r0, r5
 1864 0026 FFF7FEFF 		bl	chMtxUnlock
 1865              	.LVL141:
 1866              		.loc 1 573 0
 1867 002a 2046     		mov	r0, r4
 1868              		.loc 1 574 0
 1869 002c BDE87040 		pop	{r4, r5, r6, lr}
 1870              		.cfi_restore 14
 1871              		.cfi_restore 6
 1872              		.cfi_restore 5
 1873              		.cfi_restore 4
 1874              		.cfi_def_cfa_offset 0
 1875              	.LVL142:
 1876              		.loc 1 573 0
 1877 0030 FFF7FEBF 		b	chMtxUnlock
 1878              	.LVL143:
ARM GAS  /tmp/ccbAOmuy.s 			page 34


 1879              	.L81:
 1880              		.align	2
 1881              	.L80:
 1882 0034 00000000 		.word	.LANCHOR1
 1883 0038 00000000 		.word	.LANCHOR0
 1884 003c 00000000 		.word	.LANCHOR2
 1885              		.cfi_endproc
 1886              	.LFE245:
 1887              		.size	thread11, .-thread11
 1888              		.global	patternmtx
 1889              		.global	testmtx8
 1890              		.global	testmtx7
 1891              		.global	testmtx6
 1892              		.global	testmtx5
 1893              		.global	testmtx4
 1894              		.global	testmtx1
 1895              		.section	.rodata.testmtx5,"a",%progbits
 1896              		.align	2
 1897              		.type	testmtx5, %object
 1898              		.size	testmtx5, 16
 1899              	testmtx5:
 1900 0000 64000000 		.word	.LC10
 1901 0004 00000000 		.word	mtx5_setup
 1902 0008 00000000 		.word	0
 1903 000c 00000000 		.word	mtx5_execute
 1904              		.section	.rodata.testmtx6,"a",%progbits
 1905              		.align	2
 1906              		.type	testmtx6, %object
 1907              		.size	testmtx6, 16
 1908              	testmtx6:
 1909 0000 4C000000 		.word	.LC9
 1910 0004 00000000 		.word	mtx6_setup
 1911 0008 00000000 		.word	0
 1912 000c 00000000 		.word	mtx6_execute
 1913              		.section	.rodata.testmtx7,"a",%progbits
 1914              		.align	2
 1915              		.type	testmtx7, %object
 1916              		.size	testmtx7, 16
 1917              	testmtx7:
 1918 0000 34000000 		.word	.LC8
 1919 0004 00000000 		.word	mtx7_setup
 1920 0008 00000000 		.word	0
 1921 000c 00000000 		.word	mtx7_execute
 1922              		.section	.rodata.testmtx8,"a",%progbits
 1923              		.align	2
 1924              		.type	testmtx8, %object
 1925              		.size	testmtx8, 16
 1926              	testmtx8:
 1927 0000 20000000 		.word	.LC7
 1928 0004 00000000 		.word	mtx8_setup
 1929 0008 00000000 		.word	0
 1930 000c 00000000 		.word	mtx8_execute
 1931              		.section	.data.m1,"aw",%progbits
 1932              		.align	2
 1933              	.LANCHOR0 = . + 0
 1934              		.type	m1, %object
 1935              		.size	m1, 16
ARM GAS  /tmp/ccbAOmuy.s 			page 35


 1936              	m1:
 1937 0000 00000000 		.word	m1
 1938 0004 00000000 		.word	m1
 1939 0008 00000000 		.word	0
 1940 000c 00000000 		.word	0
 1941              		.section	.data.m2,"aw",%progbits
 1942              		.align	2
 1943              	.LANCHOR1 = . + 0
 1944              		.type	m2, %object
 1945              		.size	m2, 16
 1946              	m2:
 1947 0000 00000000 		.word	m2
 1948 0004 00000000 		.word	m2
 1949 0008 00000000 		.word	0
 1950 000c 00000000 		.word	0
 1951              		.section	.rodata.str1.4,"aMS",%progbits,1
 1952              		.align	2
 1953              	.LC0:
 1954 0000 4500     		.ascii	"E\000"
 1955 0002 0000     		.space	2
 1956              	.LC1:
 1957 0004 4400     		.ascii	"D\000"
 1958 0006 0000     		.space	2
 1959              	.LC2:
 1960 0008 4300     		.ascii	"C\000"
 1961 000a 0000     		.space	2
 1962              	.LC3:
 1963 000c 4200     		.ascii	"B\000"
 1964 000e 0000     		.space	2
 1965              	.LC4:
 1966 0010 4100     		.ascii	"A\000"
 1967 0012 0000     		.space	2
 1968              	.LC5:
 1969 0014 41424344 		.ascii	"ABCDE\000"
 1969      4500
 1970 001a 0000     		.space	2
 1971              	.LC6:
 1972 001c 41424300 		.ascii	"ABC\000"
 1973              	.LC7:
 1974 0020 436F6E64 		.ascii	"CondVar, boost test\000"
 1974      5661722C 
 1974      20626F6F 
 1974      73742074 
 1974      65737400 
 1975              	.LC8:
 1976 0034 436F6E64 		.ascii	"CondVar, broadcast test\000"
 1976      5661722C 
 1976      2062726F 
 1976      61646361 
 1976      73742074 
 1977              	.LC9:
 1978 004c 436F6E64 		.ascii	"CondVar, signal test\000"
 1978      5661722C 
 1978      20736967 
 1978      6E616C20 
 1978      74657374 
 1979 0061 000000   		.space	3
ARM GAS  /tmp/ccbAOmuy.s 			page 36


 1980              	.LC10:
 1981 0064 4D757465 		.ascii	"Mutexes, status\000"
 1981      7865732C 
 1981      20737461 
 1981      74757300 
 1982              	.LC11:
 1983 0074 4D757465 		.ascii	"Mutexes, priority return\000"
 1983      7865732C 
 1983      20707269 
 1983      6F726974 
 1983      79207265 
 1984 008d 000000   		.space	3
 1985              	.LC12:
 1986 0090 4D757465 		.ascii	"Mutexes, priority enqueuing test\000"
 1986      7865732C 
 1986      20707269 
 1986      6F726974 
 1986      7920656E 
 1987 00b1 000000   		.section	.rodata.patternmtx,"a",%progbits
 1988              		.align	2
 1989              		.type	patternmtx, %object
 1990              		.size	patternmtx, 28
 1991              	patternmtx:
 1992 0000 00000000 		.word	testmtx1
 1993 0004 00000000 		.word	testmtx4
 1994 0008 00000000 		.word	testmtx5
 1995 000c 00000000 		.word	testmtx6
 1996 0010 00000000 		.word	testmtx7
 1997 0014 00000000 		.word	testmtx8
 1998 0018 00000000 		.word	0
 1999              		.section	.data.c1,"aw",%progbits
 2000              		.align	2
 2001              	.LANCHOR2 = . + 0
 2002              		.type	c1, %object
 2003              		.size	c1, 8
 2004              	c1:
 2005 0000 00000000 		.word	c1
 2006 0004 00000000 		.word	c1
 2007              		.section	.rodata.testmtx1,"a",%progbits
 2008              		.align	2
 2009              		.type	testmtx1, %object
 2010              		.size	testmtx1, 16
 2011              	testmtx1:
 2012 0000 90000000 		.word	.LC12
 2013 0004 00000000 		.word	mtx1_setup
 2014 0008 00000000 		.word	0
 2015 000c 00000000 		.word	mtx1_execute
 2016              		.section	.rodata.testmtx4,"a",%progbits
 2017              		.align	2
 2018              		.type	testmtx4, %object
 2019              		.size	testmtx4, 16
 2020              	testmtx4:
 2021 0000 74000000 		.word	.LC11
 2022 0004 00000000 		.word	mtx4_setup
 2023 0008 00000000 		.word	0
 2024 000c 00000000 		.word	mtx4_execute
 2025              		.text
ARM GAS  /tmp/ccbAOmuy.s 			page 37


 2026              	.Letext0:
 2027              		.file 5 "/usr/lib/gcc/arm-linux-gnueabihf/4.9/include/stddef.h"
 2028              		.file 6 "/usr/include/stdint.h"
 2029              		.file 7 "../os/rt/ports/ARMCMx/compilers/GCC/chtypes.h"
 2030              		.file 8 "../os/rt/include/chsystypes.h"
 2031              		.file 9 "../os/rt/ports/ARMCMx/chcore.h"
 2032              		.file 10 "../os/rt/ports/ARMCMx/chcore_v7m.h"
 2033              		.file 11 "../os/rt/include/chsem.h"
 2034              		.file 12 "../os/rt/include/chmtx.h"
 2035              		.file 13 "../os/rt/include/chcond.h"
 2036              		.file 14 "../test/rt/test.h"
 2037              		.file 15 "../os/rt/include/chsys.h"
 2038              		.file 16 "../os/ext/CMSIS/include/core_cm4.h"
 7086              		.section	.note.GNU-stack,"",%progbits
ARM GAS  /tmp/ccbAOmuy.s 			page 133

