ARM GAS  /tmp/ccsXePN7.s 			page 1


   1              		.syntax unified
   2              		.cpu cortex-m4
   3              		.fpu softvfp
   4              		.eabi_attribute 20, 1
   5              		.eabi_attribute 21, 1
   6              		.eabi_attribute 23, 3
   7              		.eabi_attribute 24, 1
   8              		.eabi_attribute 25, 1
   9              		.eabi_attribute 26, 2
  10              		.eabi_attribute 30, 2
  11              		.eabi_attribute 34, 1
  12              		.eabi_attribute 18, 4
  13              		.thumb
  14              		.file	"testsem.c"
  15              		.text
  16              	.Ltext0:
  17              		.cfi_sections	.debug_frame
  18              		.section	.text.sem1_execute,"ax",%progbits
  19              		.align	2
  20              		.p2align 4,,15
  21              		.thumb
  22              		.thumb_func
  23              		.type	sem1_execute, %function
  24              	sem1_execute:
  25              	.LFB232:
  26              		.file 1 "../test/rt/testsem.c"
  27              		.loc 1 83 0
  28              		.cfi_startproc
  29              		@ args = 0, pretend = 0, frame = 0
  30              		@ frame_needed = 0, uses_anonymous_args = 0
  31 0000 2DE9F043 		push	{r4, r5, r6, r7, r8, r9, lr}
  32              		.cfi_def_cfa_offset 28
  33              		.cfi_offset 4, -28
  34              		.cfi_offset 5, -24
  35              		.cfi_offset 6, -20
  36              		.cfi_offset 7, -16
  37              		.cfi_offset 8, -12
  38              		.cfi_offset 9, -8
  39              		.cfi_offset 14, -4
  40              	.LBB275:
  41              	.LBB276:
  42              	.LBB277:
  43              	.LBB278:
  44              		.file 2 "../os/rt/include/chthreads.h"
  45              		.loc 2 176 0
  46 0004 484E     		ldr	r6, .L8
  47              	.LBE278:
  48              	.LBE277:
  49              	.LBE276:
  50              	.LBE275:
  51              		.loc 1 85 0
  52 0006 494F     		ldr	r7, .L8+4
  53              	.LBB280:
  54              	.LBB279:
  55              		.loc 2 189 0
  56 0008 B369     		ldr	r3, [r6, #24]
  57              	.LBE279:
ARM GAS  /tmp/ccsXePN7.s 			page 2


  58              	.LBE280:
  59              		.loc 1 85 0
  60 000a D7F80080 		ldr	r8, [r7]
  61 000e 9A68     		ldr	r2, [r3, #8]
  62 0010 DFF83C91 		ldr	r9, .L8+40
  63 0014 464B     		ldr	r3, .L8+8
  64 0016 474D     		ldr	r5, .L8+12
  65              		.loc 1 90 0
  66 0018 474C     		ldr	r4, .L8+16
  67              		.loc 1 83 0
  68 001a 83B0     		sub	sp, sp, #12
  69              		.cfi_def_cfa_offset 40
  70              		.loc 1 85 0
  71 001c 0532     		adds	r2, r2, #5
  72 001e 4FF4A471 		mov	r1, #328
  73 0022 CDF80090 		str	r9, [sp]
  74 0026 4046     		mov	r0, r8
  75 0028 FFF7FEFF 		bl	chThdCreateStatic
  76              	.LVL0:
  77              	.LBB281:
  78              	.LBB282:
  79              		.loc 2 189 0
  80 002c B369     		ldr	r3, [r6, #24]
  81              	.LBE282:
  82              	.LBE281:
  83              		.loc 1 86 0
  84 002e 7968     		ldr	r1, [r7, #4]
  85 0030 9A68     		ldr	r2, [r3, #8]
  86 0032 424B     		ldr	r3, .L8+20
  87              		.loc 1 85 0
  88 0034 2860     		str	r0, [r5]
  89              		.loc 1 86 0
  90 0036 0132     		adds	r2, r2, #1
  91 0038 0846     		mov	r0, r1
  92 003a 0093     		str	r3, [sp]
  93 003c 4FF4A471 		mov	r1, #328
  94 0040 3B4B     		ldr	r3, .L8+8
  95 0042 FFF7FEFF 		bl	chThdCreateStatic
  96              	.LVL1:
  97              	.LBB283:
  98              	.LBB284:
  99              		.loc 2 189 0
 100 0046 B369     		ldr	r3, [r6, #24]
 101              	.LBE284:
 102              	.LBE283:
 103              		.loc 1 87 0
 104 0048 B968     		ldr	r1, [r7, #8]
 105 004a 9A68     		ldr	r2, [r3, #8]
 106 004c 3C4B     		ldr	r3, .L8+24
 107              		.loc 1 86 0
 108 004e 6860     		str	r0, [r5, #4]
 109              		.loc 1 87 0
 110 0050 0332     		adds	r2, r2, #3
 111 0052 0846     		mov	r0, r1
 112 0054 0093     		str	r3, [sp]
 113 0056 4FF4A471 		mov	r1, #328
 114 005a 354B     		ldr	r3, .L8+8
ARM GAS  /tmp/ccsXePN7.s 			page 3


 115 005c FFF7FEFF 		bl	chThdCreateStatic
 116              	.LVL2:
 117              	.LBB285:
 118              	.LBB286:
 119              		.loc 2 189 0
 120 0060 B369     		ldr	r3, [r6, #24]
 121              	.LBE286:
 122              	.LBE285:
 123              		.loc 1 88 0
 124 0062 F968     		ldr	r1, [r7, #12]
 125 0064 9A68     		ldr	r2, [r3, #8]
 126 0066 374B     		ldr	r3, .L8+28
 127              		.loc 1 87 0
 128 0068 A860     		str	r0, [r5, #8]
 129              		.loc 1 88 0
 130 006a 0432     		adds	r2, r2, #4
 131 006c 0846     		mov	r0, r1
 132 006e 0093     		str	r3, [sp]
 133 0070 4FF4A471 		mov	r1, #328
 134 0074 2E4B     		ldr	r3, .L8+8
 135 0076 FFF7FEFF 		bl	chThdCreateStatic
 136              	.LVL3:
 137              	.LBB287:
 138              	.LBB288:
 139              		.loc 2 189 0
 140 007a B369     		ldr	r3, [r6, #24]
 141              	.LBE288:
 142              	.LBE287:
 143              		.loc 1 89 0
 144 007c 3969     		ldr	r1, [r7, #16]
 145 007e 9A68     		ldr	r2, [r3, #8]
 146 0080 314B     		ldr	r3, .L8+32
 147              		.loc 1 88 0
 148 0082 E860     		str	r0, [r5, #12]
 149              		.loc 1 89 0
 150 0084 0232     		adds	r2, r2, #2
 151 0086 0846     		mov	r0, r1
 152 0088 0093     		str	r3, [sp]
 153 008a 4FF4A471 		mov	r1, #328
 154 008e 284B     		ldr	r3, .L8+8
 155 0090 FFF7FEFF 		bl	chThdCreateStatic
 156              	.LVL4:
 157 0094 2861     		str	r0, [r5, #16]
 158              		.loc 1 90 0
 159 0096 2046     		mov	r0, r4
 160 0098 FFF7FEFF 		bl	chSemSignal
 161              	.LVL5:
 162              		.loc 1 91 0
 163 009c 2046     		mov	r0, r4
 164 009e FFF7FEFF 		bl	chSemSignal
 165              	.LVL6:
 166              		.loc 1 92 0
 167 00a2 2046     		mov	r0, r4
 168 00a4 FFF7FEFF 		bl	chSemSignal
 169              	.LVL7:
 170              		.loc 1 93 0
 171 00a8 2046     		mov	r0, r4
ARM GAS  /tmp/ccsXePN7.s 			page 4


 172 00aa FFF7FEFF 		bl	chSemSignal
 173              	.LVL8:
 174              		.loc 1 94 0
 175 00ae 2046     		mov	r0, r4
 176 00b0 FFF7FEFF 		bl	chSemSignal
 177              	.LVL9:
 178              		.loc 1 95 0
 179 00b4 FFF7FEFF 		bl	test_wait_threads
 180              	.LVL10:
 181              		.loc 1 99 0
 182 00b8 0120     		movs	r0, #1
 183 00ba 2449     		ldr	r1, .L8+36
 184 00bc FFF7FEFF 		bl	_test_assert_sequence
 185              	.LVL11:
 186 00c0 0746     		mov	r7, r0
 187 00c2 10B1     		cbz	r0, .L6
 188              		.loc 1 108 0
 189 00c4 03B0     		add	sp, sp, #12
 190              		.cfi_remember_state
 191              		.cfi_def_cfa_offset 28
 192              		@ sp needed
 193 00c6 BDE8F083 		pop	{r4, r5, r6, r7, r8, r9, pc}
 194              	.L6:
 195              		.cfi_restore_state
 196              	.LBB289:
 197              	.LBB290:
 198              		.loc 2 189 0
 199 00ca B269     		ldr	r2, [r6, #24]
 200              	.LBE290:
 201              	.LBE289:
 202              		.loc 1 101 0
 203 00cc 184B     		ldr	r3, .L8+8
 204 00ce 9268     		ldr	r2, [r2, #8]
 205 00d0 CDF80090 		str	r9, [sp]
 206 00d4 0532     		adds	r2, r2, #5
 207 00d6 4046     		mov	r0, r8
 208 00d8 4FF4A471 		mov	r1, #328
 209 00dc FFF7FEFF 		bl	chThdCreateStatic
 210              	.LVL12:
 211              	.LBB291:
 212              	.LBB292:
 213              	.LBB293:
 214              	.LBB294:
 215              		.file 3 "../os/ext/CMSIS/include/core_cmFunc.h"
 216              		.loc 3 548 0
 217 00e0 2026     		movs	r6, #32
 218              	.LBE294:
 219              	.LBE293:
 220              	.LBE292:
 221              	.LBE291:
 222              		.loc 1 101 0
 223 00e2 2860     		str	r0, [r5]
 224              	.LVL13:
 225              	.LBB298:
 226              	.LBB297:
 227              	.LBB296:
 228              	.LBB295:
ARM GAS  /tmp/ccsXePN7.s 			page 5


 229              		.loc 3 548 0
 230              	#APP
 231              	@ 548 "../os/ext/CMSIS/include/core_cmFunc.h" 1
 232 00e4 86F31188 		MSR basepri, r6
 233              	@ 0 "" 2
 234              		.thumb
 235              	.LBE295:
 236              	.LBE296:
 237              	.LBE297:
 238              	.LBE298:
 239              		.loc 1 103 0
 240 00e8 0221     		movs	r1, #2
 241 00ea 2046     		mov	r0, r4
 242 00ec FFF7FEFF 		bl	chSemAddCounterI
 243              	.LVL14:
 244              		.loc 1 104 0
 245 00f0 FFF7FEFF 		bl	chSchRescheduleS
 246              	.LVL15:
 247              	.LBB299:
 248              	.LBB300:
 249              	.LBB301:
 250              	.LBB302:
 251              	.LBB303:
 252              		.loc 3 548 0
 253              	#APP
 254              	@ 548 "../os/ext/CMSIS/include/core_cmFunc.h" 1
 255 00f4 87F31188 		MSR basepri, r7
 256              	@ 0 "" 2
 257              		.thumb
 258              	.LBE303:
 259              	.LBE302:
 260              	.LBE301:
 261              	.LBE300:
 262              	.LBE299:
 263              		.loc 1 106 0
 264 00f8 FFF7FEFF 		bl	test_wait_threads
 265              	.LVL16:
 266              	.LBB304:
 267              	.LBB305:
 268              	.LBB306:
 269              	.LBB307:
 270              		.loc 3 548 0
 271              	#APP
 272              	@ 548 "../os/ext/CMSIS/include/core_cmFunc.h" 1
 273 00fc 86F31188 		MSR basepri, r6
 274              	@ 0 "" 2
 275              	.LVL17:
 276              		.thumb
 277              	.LBE307:
 278              	.LBE306:
 279              	.LBE305:
 280              	.LBE304:
 281              		.loc 1 107 0
 282 0100 A168     		ldr	r1, [r4, #8]
 283 0102 0220     		movs	r0, #2
 284 0104 A1F10101 		sub	r1, #1
 285 0108 B1FA81F1 		clz	r1, r1
ARM GAS  /tmp/ccsXePN7.s 			page 6


 286 010c 4909     		lsrs	r1, r1, #5
 287 010e FFF7FEFF 		bl	_test_assert
 288              	.LVL18:
 289 0112 20B9     		cbnz	r0, .L7
 290              	.LVL19:
 291              	.LBB308:
 292              	.LBB309:
 293              	.LBB310:
 294              	.LBB311:
 295              	.LBB312:
 296              		.loc 3 548 0
 297              	#APP
 298              	@ 548 "../os/ext/CMSIS/include/core_cmFunc.h" 1
 299 0114 80F31188 		MSR basepri, r0
 300              	@ 0 "" 2
 301              		.thumb
 302              	.LBE312:
 303              	.LBE311:
 304              	.LBE310:
 305              	.LBE309:
 306              	.LBE308:
 307              		.loc 1 108 0
 308 0118 03B0     		add	sp, sp, #12
 309              		.cfi_remember_state
 310              		.cfi_def_cfa_offset 28
 311              		@ sp needed
 312 011a BDE8F083 		pop	{r4, r5, r6, r7, r8, r9, pc}
 313              	.LVL20:
 314              	.L7:
 315              		.cfi_restore_state
 316              	.LBB313:
 317              	.LBB314:
 318              	.LBB315:
 319              	.LBB316:
 320              	.LBB317:
 321              		.loc 3 548 0
 322              	#APP
 323              	@ 548 "../os/ext/CMSIS/include/core_cmFunc.h" 1
 324 011e 87F31188 		MSR basepri, r7
 325              	@ 0 "" 2
 326              		.thumb
 327              	.LBE317:
 328              	.LBE316:
 329              	.LBE315:
 330              	.LBE314:
 331              	.LBE313:
 332              		.loc 1 108 0
 333 0122 03B0     		add	sp, sp, #12
 334              		.cfi_def_cfa_offset 28
 335              		@ sp needed
 336 0124 BDE8F083 		pop	{r4, r5, r6, r7, r8, r9, pc}
 337              	.L9:
 338              		.align	2
 339              	.L8:
 340 0128 00000000 		.word	ch
 341 012c 00000000 		.word	wa
 342 0130 00000000 		.word	thread1
ARM GAS  /tmp/ccsXePN7.s 			page 7


 343 0134 00000000 		.word	threads
 344 0138 00000000 		.word	.LANCHOR0
 345 013c 04000000 		.word	.LC1
 346 0140 08000000 		.word	.LC2
 347 0144 0C000000 		.word	.LC3
 348 0148 10000000 		.word	.LC4
 349 014c 14000000 		.word	.LC5
 350 0150 00000000 		.word	.LC0
 351              		.cfi_endproc
 352              	.LFE232:
 353              		.size	sem1_execute, .-sem1_execute
 354 0154 AFF30080 		.section	.text.thread3,"ax",%progbits
 354      AFF30080 
 354      AFF30080 
 355              		.align	2
 356              		.p2align 4,,15
 357              		.thumb
 358              		.thumb_func
 359              		.type	thread3, %function
 360              	thread3:
 361              	.LFB237:
 362              		.loc 1 207 0
 363              		.cfi_startproc
 364              		@ args = 0, pretend = 0, frame = 0
 365              		@ frame_needed = 0, uses_anonymous_args = 0
 366              	.LVL21:
 367 0000 10B5     		push	{r4, lr}
 368              		.cfi_def_cfa_offset 8
 369              		.cfi_offset 4, -8
 370              		.cfi_offset 14, -4
 371              		.loc 1 210 0
 372 0002 044C     		ldr	r4, .L12
 373 0004 2046     		mov	r0, r4
 374              	.LVL22:
 375 0006 FFF7FEFF 		bl	chSemWait
 376              	.LVL23:
 377              		.loc 1 211 0
 378 000a 2046     		mov	r0, r4
 379              		.loc 1 212 0
 380 000c BDE81040 		pop	{r4, lr}
 381              		.cfi_restore 14
 382              		.cfi_restore 4
 383              		.cfi_def_cfa_offset 0
 384              		.loc 1 211 0
 385 0010 FFF7FEBF 		b	chSemSignal
 386              	.LVL24:
 387              	.L13:
 388              		.align	2
 389              	.L12:
 390 0014 00000000 		.word	.LANCHOR0
 391              		.cfi_endproc
 392              	.LFE237:
 393              		.size	thread3, .-thread3
 394 0018 AFF30080 		.section	.text.thread1,"ax",%progbits
 394      AFF30080 
 395              		.align	2
 396              		.p2align 4,,15
ARM GAS  /tmp/ccsXePN7.s 			page 8


 397              		.thumb
 398              		.thumb_func
 399              		.type	thread1, %function
 400              	thread1:
 401              	.LFB231:
 402              		.loc 1 77 0
 403              		.cfi_startproc
 404              		@ args = 0, pretend = 0, frame = 0
 405              		@ frame_needed = 0, uses_anonymous_args = 0
 406              	.LVL25:
 407 0000 10B5     		push	{r4, lr}
 408              		.cfi_def_cfa_offset 8
 409              		.cfi_offset 4, -8
 410              		.cfi_offset 14, -4
 411              		.loc 1 77 0
 412 0002 0446     		mov	r4, r0
 413              		.loc 1 79 0
 414 0004 0348     		ldr	r0, .L16
 415              	.LVL26:
 416 0006 FFF7FEFF 		bl	chSemWait
 417              	.LVL27:
 418              		.loc 1 80 0
 419 000a 2078     		ldrb	r0, [r4]	@ zero_extendqisi2
 420              		.loc 1 81 0
 421 000c BDE81040 		pop	{r4, lr}
 422              		.cfi_restore 14
 423              		.cfi_restore 4
 424              		.cfi_def_cfa_offset 0
 425              	.LVL28:
 426              		.loc 1 80 0
 427 0010 FFF7FEBF 		b	test_emit_token
 428              	.LVL29:
 429              	.L17:
 430              		.align	2
 431              	.L16:
 432 0014 00000000 		.word	.LANCHOR0
 433              		.cfi_endproc
 434              	.LFE231:
 435              		.size	thread1, .-thread1
 436 0018 AFF30080 		.section	.text.sem1_setup,"ax",%progbits
 436      AFF30080 
 437              		.align	2
 438              		.p2align 4,,15
 439              		.thumb
 440              		.thumb_func
 441              		.type	sem1_setup, %function
 442              	sem1_setup:
 443              	.LFB230:
 444              		.loc 1 72 0
 445              		.cfi_startproc
 446              		@ args = 0, pretend = 0, frame = 0
 447              		@ frame_needed = 0, uses_anonymous_args = 0
 448              		@ link register save eliminated.
 449              		.loc 1 74 0
 450 0000 0148     		ldr	r0, .L19
 451 0002 0021     		movs	r1, #0
 452 0004 FFF7FEBF 		b	chSemObjectInit
ARM GAS  /tmp/ccsXePN7.s 			page 9


 453              	.LVL30:
 454              	.L20:
 455              		.align	2
 456              	.L19:
 457 0008 00000000 		.word	.LANCHOR0
 458              		.cfi_endproc
 459              	.LFE230:
 460              		.size	sem1_setup, .-sem1_setup
 461 000c AFF30080 		.section	.text.sem2_setup,"ax",%progbits
 462              		.align	2
 463              		.p2align 4,,15
 464              		.thumb
 465              		.thumb_func
 466              		.type	sem2_setup, %function
 467              	sem2_setup:
 468              	.LFB233:
 469              		.loc 1 128 0
 470              		.cfi_startproc
 471              		@ args = 0, pretend = 0, frame = 0
 472              		@ frame_needed = 0, uses_anonymous_args = 0
 473              		@ link register save eliminated.
 474              		.loc 1 130 0
 475 0000 0148     		ldr	r0, .L22
 476 0002 0021     		movs	r1, #0
 477 0004 FFF7FEBF 		b	chSemObjectInit
 478              	.LVL31:
 479              	.L23:
 480              		.align	2
 481              	.L22:
 482 0008 00000000 		.word	.LANCHOR0
 483              		.cfi_endproc
 484              	.LFE233:
 485              		.size	sem2_setup, .-sem2_setup
 486 000c AFF30080 		.section	.text.sem3_setup,"ax",%progbits
 487              		.align	2
 488              		.p2align 4,,15
 489              		.thumb
 490              		.thumb_func
 491              		.type	sem3_setup, %function
 492              	sem3_setup:
 493              	.LFB236:
 494              		.loc 1 202 0
 495              		.cfi_startproc
 496              		@ args = 0, pretend = 0, frame = 0
 497              		@ frame_needed = 0, uses_anonymous_args = 0
 498              		@ link register save eliminated.
 499              		.loc 1 204 0
 500 0000 0148     		ldr	r0, .L25
 501 0002 0021     		movs	r1, #0
 502 0004 FFF7FEBF 		b	chSemObjectInit
 503              	.LVL32:
 504              	.L26:
 505              		.align	2
 506              	.L25:
 507 0008 00000000 		.word	.LANCHOR0
 508              		.cfi_endproc
 509              	.LFE236:
ARM GAS  /tmp/ccsXePN7.s 			page 10


 510              		.size	sem3_setup, .-sem3_setup
 511 000c AFF30080 		.section	.text.thread2,"ax",%progbits
 512              		.align	2
 513              		.p2align 4,,15
 514              		.thumb
 515              		.thumb_func
 516              		.type	thread2, %function
 517              	thread2:
 518              	.LFB234:
 519              		.loc 1 133 0
 520              		.cfi_startproc
 521              		@ args = 0, pretend = 0, frame = 0
 522              		@ frame_needed = 0, uses_anonymous_args = 0
 523              	.LVL33:
 524 0000 08B5     		push	{r3, lr}
 525              		.cfi_def_cfa_offset 8
 526              		.cfi_offset 3, -8
 527              		.cfi_offset 14, -4
 528              		.loc 1 136 0
 529 0002 3220     		movs	r0, #50
 530              	.LVL34:
 531 0004 FFF7FEFF 		bl	chThdSleep
 532              	.LVL35:
 533              	.LBB318:
 534              	.LBB319:
 535              	.LBB320:
 536              	.LBB321:
 537              		.loc 3 548 0
 538 0008 2023     		movs	r3, #32
 539              	#APP
 540              	@ 548 "../os/ext/CMSIS/include/core_cmFunc.h" 1
 541 000a 83F31188 		MSR basepri, r3
 542              	@ 0 "" 2
 543              		.thumb
 544              	.LBE321:
 545              	.LBE320:
 546              	.LBE319:
 547              	.LBE318:
 548              		.loc 1 138 0
 549 000e 0448     		ldr	r0, .L29
 550 0010 FFF7FEFF 		bl	chSemSignalI
 551              	.LVL36:
 552              		.loc 1 139 0
 553 0014 FFF7FEFF 		bl	chSchRescheduleS
 554              	.LVL37:
 555              	.LBB322:
 556              	.LBB323:
 557              	.LBB324:
 558              	.LBB325:
 559              	.LBB326:
 560              		.loc 3 548 0
 561 0018 0023     		movs	r3, #0
 562              	#APP
 563              	@ 548 "../os/ext/CMSIS/include/core_cmFunc.h" 1
 564 001a 83F31188 		MSR basepri, r3
 565              	@ 0 "" 2
 566              		.thumb
ARM GAS  /tmp/ccsXePN7.s 			page 11


 567 001e 08BD     		pop	{r3, pc}
 568              	.L30:
 569              		.align	2
 570              	.L29:
 571 0020 00000000 		.word	.LANCHOR0
 572              	.LBE326:
 573              	.LBE325:
 574              	.LBE324:
 575              	.LBE323:
 576              	.LBE322:
 577              		.cfi_endproc
 578              	.LFE234:
 579              		.size	thread2, .-thread2
 580 0024 AFF30080 		.section	.text.sem2_execute,"ax",%progbits
 580      AFF30080 
 580      AFF30080 
 581              		.align	2
 582              		.p2align 4,,15
 583              		.thumb
 584              		.thumb_func
 585              		.type	sem2_execute, %function
 586              	sem2_execute:
 587              	.LFB235:
 588              		.loc 1 143 0
 589              		.cfi_startproc
 590              		@ args = 0, pretend = 0, frame = 0
 591              		@ frame_needed = 0, uses_anonymous_args = 0
 592 0000 F0B5     		push	{r4, r5, r6, r7, lr}
 593              		.cfi_def_cfa_offset 20
 594              		.cfi_offset 4, -20
 595              		.cfi_offset 5, -16
 596              		.cfi_offset 6, -12
 597              		.cfi_offset 7, -8
 598              		.cfi_offset 14, -4
 599              		.loc 1 151 0
 600 0002 4C4C     		ldr	r4, .L39
 601              		.loc 1 143 0
 602 0004 83B0     		sub	sp, sp, #12
 603              		.cfi_def_cfa_offset 32
 604              		.loc 1 151 0
 605 0006 0021     		movs	r1, #0
 606 0008 2046     		mov	r0, r4
 607 000a FFF7FEFF 		bl	chSemWaitTimeout
 608              	.LVL38:
 609              		.loc 1 152 0
 610 000e A0F1FF31 		sub	r1, r0, #-1
 611 0012 0120     		movs	r0, #1
 612              	.LVL39:
 613 0014 B1FA81F1 		clz	r1, r1
 614              	.LVL40:
 615 0018 4909     		lsrs	r1, r1, #5
 616 001a FFF7FEFF 		bl	_test_assert
 617              	.LVL41:
 618 001e 08B1     		cbz	r0, .L38
 619              	.L31:
 620              		.loc 1 181 0
 621 0020 03B0     		add	sp, sp, #12
ARM GAS  /tmp/ccsXePN7.s 			page 12


 622              		.cfi_remember_state
 623              		.cfi_def_cfa_offset 20
 624              		@ sp needed
 625 0022 F0BD     		pop	{r4, r5, r6, r7, pc}
 626              	.L38:
 627              		.cfi_restore_state
 628              	.LVL42:
 629              	.LBB354:
 630              	.LBB355:
 631              		.file 4 "../os/rt/include/chschd.h"
 632              		.loc 4 618 0
 633 0024 2168     		ldr	r1, [r4]
 634              	.LBE355:
 635              	.LBE354:
 636              		.loc 1 153 0
 637 0026 0220     		movs	r0, #2
 638 0028 091B     		subs	r1, r1, r4
 639 002a B1FA81F1 		clz	r1, r1
 640 002e 4909     		lsrs	r1, r1, #5
 641 0030 FFF7FEFF 		bl	_test_assert
 642              	.LVL43:
 643 0034 0028     		cmp	r0, #0
 644 0036 F3D1     		bne	.L31
 645              		.loc 1 154 0
 646 0038 A168     		ldr	r1, [r4, #8]
 647 003a B1FA81F1 		clz	r1, r1
 648 003e 0320     		movs	r0, #3
 649 0040 4909     		lsrs	r1, r1, #5
 650 0042 FFF7FEFF 		bl	_test_assert
 651              	.LVL44:
 652 0046 0028     		cmp	r0, #0
 653 0048 EAD1     		bne	.L31
 654              	.LBB356:
 655              	.LBB357:
 656              	.LBB358:
 657              	.LBB359:
 658              	.LBB360:
 659              	.LBB361:
 660              		.loc 2 176 0
 661 004a 3B4D     		ldr	r5, .L39+4
 662              	.LBE361:
 663              	.LBE360:
 664              	.LBE359:
 665              	.LBE358:
 666              		.loc 1 159 0
 667 004c 3B4A     		ldr	r2, .L39+8
 668              	.LBB363:
 669              	.LBB362:
 670              		.loc 2 189 0
 671 004e AB69     		ldr	r3, [r5, #24]
 672              	.LBE362:
 673              	.LBE363:
 674              		.loc 1 159 0
 675 0050 1168     		ldr	r1, [r2]
 676 0052 9A68     		ldr	r2, [r3, #8]
 677 0054 3A4B     		ldr	r3, .L39+12
 678 0056 0090     		str	r0, [sp]
ARM GAS  /tmp/ccsXePN7.s 			page 13


 679 0058 013A     		subs	r2, r2, #1
 680 005a 0846     		mov	r0, r1
 681 005c 4FF4A471 		mov	r1, #328
 682 0060 FFF7FEFF 		bl	chThdCreateStatic
 683              	.LVL45:
 684 0064 374B     		ldr	r3, .L39+16
 685              		.loc 1 161 0
 686 0066 4FF4FA71 		mov	r1, #500
 687              		.loc 1 159 0
 688 006a 1860     		str	r0, [r3]
 689              		.loc 1 161 0
 690 006c 2046     		mov	r0, r4
 691 006e FFF7FEFF 		bl	chSemWaitTimeout
 692              	.LVL46:
 693 0072 0646     		mov	r6, r0
 694              	.LVL47:
 695              		.loc 1 162 0
 696 0074 FFF7FEFF 		bl	test_wait_threads
 697              	.LVL48:
 698              		.loc 1 163 0
 699 0078 B6FA86F1 		clz	r1, r6
 700 007c 0420     		movs	r0, #4
 701 007e 4909     		lsrs	r1, r1, #5
 702 0080 FFF7FEFF 		bl	_test_assert
 703              	.LVL49:
 704 0084 0028     		cmp	r0, #0
 705 0086 CBD1     		bne	.L31
 706              	.LVL50:
 707              	.LBB364:
 708              	.LBB365:
 709              		.loc 4 618 0
 710 0088 2168     		ldr	r1, [r4]
 711              	.LBE365:
 712              	.LBE364:
 713              		.loc 1 164 0
 714 008a 0520     		movs	r0, #5
 715 008c 091B     		subs	r1, r1, r4
 716 008e B1FA81F1 		clz	r1, r1
 717 0092 4909     		lsrs	r1, r1, #5
 718 0094 FFF7FEFF 		bl	_test_assert
 719              	.LVL51:
 720 0098 0028     		cmp	r0, #0
 721 009a C1D1     		bne	.L31
 722              		.loc 1 165 0
 723 009c A168     		ldr	r1, [r4, #8]
 724 009e B1FA81F1 		clz	r1, r1
 725 00a2 0620     		movs	r0, #6
 726 00a4 4909     		lsrs	r1, r1, #5
 727 00a6 FFF7FEFF 		bl	_test_assert
 728              	.LVL52:
 729 00aa 0746     		mov	r7, r0
 730 00ac 0028     		cmp	r0, #0
 731 00ae B7D1     		bne	.L31
 732              		.loc 1 170 0
 733 00b0 FFF7FEFF 		bl	test_wait_tick
 734              	.LVL53:
 735              	.LBB366:
ARM GAS  /tmp/ccsXePN7.s 			page 14


 736              	.LBB367:
 737              	.LBB368:
 738              	.LBB369:
 739              	.LBB370:
 740              	.LBB371:
 741              		.loc 3 548 0
 742 00b4 2023     		movs	r3, #32
 743              	#APP
 744              	@ 548 "../os/ext/CMSIS/include/core_cmFunc.h" 1
 745 00b6 83F31188 		MSR basepri, r3
 746              	@ 0 "" 2
 747              		.thumb
 748              	.LBE371:
 749              	.LBE370:
 750              	.LBE369:
 751              	.LBE368:
 752              	.LBB372:
 753              	.LBB373:
 754              		.file 5 "../os/rt/include/chvt.h"
 755              		.loc 5 231 0
 756 00ba AE6A     		ldr	r6, [r5, #40]
 757              	.LVL54:
 758              	.LBE373:
 759              	.LBE372:
 760              	.LBB374:
 761              	.LBB375:
 762              	.LBB376:
 763              	.LBB377:
 764              	.LBB378:
 765              		.loc 3 548 0
 766              	#APP
 767              	@ 548 "../os/ext/CMSIS/include/core_cmFunc.h" 1
 768 00bc 87F31188 		MSR basepri, r7
 769              	@ 0 "" 2
 770              	.LVL55:
 771              		.thumb
 772 00c0 4125     		movs	r5, #65
 773              	.LVL56:
 774              	.L35:
 775              	.LBE378:
 776              	.LBE377:
 777              	.LBE376:
 778              	.LBE375:
 779              	.LBE374:
 780              	.LBE367:
 781              	.LBE366:
 782              		.loc 1 173 0
 783 00c2 2846     		mov	r0, r5
 784 00c4 FFF7FEFF 		bl	test_emit_token
 785              	.LVL57:
 786              		.loc 1 174 0
 787 00c8 3221     		movs	r1, #50
 788 00ca 1A48     		ldr	r0, .L39
 789 00cc FFF7FEFF 		bl	chSemWaitTimeout
 790              	.LVL58:
 791              		.loc 1 175 0
 792 00d0 A0F1FF31 		sub	r1, r0, #-1
ARM GAS  /tmp/ccsXePN7.s 			page 15


 793 00d4 0720     		movs	r0, #7
 794              	.LVL59:
 795 00d6 B1FA81F1 		clz	r1, r1
 796              	.LVL60:
 797 00da 4909     		lsrs	r1, r1, #5
 798 00dc FFF7FEFF 		bl	_test_assert
 799              	.LVL61:
 800 00e0 0028     		cmp	r0, #0
 801 00e2 9DD1     		bne	.L31
 802              	.LBB379:
 803              	.LBB380:
 804              		.loc 4 618 0
 805 00e4 2168     		ldr	r1, [r4]
 806              	.LBE380:
 807              	.LBE379:
 808              		.loc 1 176 0
 809 00e6 0820     		movs	r0, #8
 810 00e8 091B     		subs	r1, r1, r4
 811 00ea B1FA81F1 		clz	r1, r1
 812 00ee 4909     		lsrs	r1, r1, #5
 813 00f0 FFF7FEFF 		bl	_test_assert
 814              	.LVL62:
 815 00f4 0028     		cmp	r0, #0
 816 00f6 93D1     		bne	.L31
 817              		.loc 1 177 0
 818 00f8 A168     		ldr	r1, [r4, #8]
 819 00fa B1FA81F1 		clz	r1, r1
 820 00fe 0920     		movs	r0, #9
 821 0100 4909     		lsrs	r1, r1, #5
 822 0102 FFF7FEFF 		bl	_test_assert
 823              	.LVL63:
 824 0106 0135     		adds	r5, r5, #1
 825 0108 EDB2     		uxtb	r5, r5
 826 010a 0028     		cmp	r0, #0
 827 010c 88D1     		bne	.L31
 828              		.loc 1 172 0
 829 010e 462D     		cmp	r5, #70
 830 0110 D7D1     		bne	.L35
 831              		.loc 1 179 0
 832 0112 0A20     		movs	r0, #10
 833 0114 0C49     		ldr	r1, .L39+20
 834 0116 FFF7FEFF 		bl	_test_assert_sequence
 835              	.LVL64:
 836 011a 0028     		cmp	r0, #0
 837 011c 80D1     		bne	.L31
 838              		.loc 1 180 0
 839 011e 0B20     		movs	r0, #11
 840 0120 06F1FA01 		add	r1, r6, #250
 841 0124 06F1FC02 		add	r2, r6, #252
 842              	.LBE357:
 843              	.LBE356:
 844              		.loc 1 181 0
 845 0128 03B0     		add	sp, sp, #12
 846              		.cfi_def_cfa_offset 20
 847              		@ sp needed
 848 012a BDE8F040 		pop	{r4, r5, r6, r7, lr}
 849              		.cfi_restore 14
ARM GAS  /tmp/ccsXePN7.s 			page 16


 850              		.cfi_restore 7
 851              		.cfi_restore 6
 852              		.cfi_restore 5
 853              		.cfi_restore 4
 854              		.cfi_def_cfa_offset 0
 855              	.LVL65:
 856              	.LBB382:
 857              	.LBB381:
 858              		.loc 1 180 0
 859 012e FFF7FEBF 		b	_test_assert_time_window
 860              	.LVL66:
 861              	.L40:
 862 0132 00BF     		.align	2
 863              	.L39:
 864 0134 00000000 		.word	.LANCHOR0
 865 0138 00000000 		.word	ch
 866 013c 00000000 		.word	wa
 867 0140 00000000 		.word	thread2
 868 0144 00000000 		.word	threads
 869 0148 14000000 		.word	.LC5
 870              	.LBE381:
 871              	.LBE382:
 872              		.cfi_endproc
 873              	.LFE235:
 874              		.size	sem2_execute, .-sem2_execute
 875 014c AFF30080 		.section	.text.sem3_execute,"ax",%progbits
 876              		.align	2
 877              		.p2align 4,,15
 878              		.thumb
 879              		.thumb_func
 880              		.type	sem3_execute, %function
 881              	sem3_execute:
 882              	.LFB238:
 883              		.loc 1 214 0
 884              		.cfi_startproc
 885              		@ args = 0, pretend = 0, frame = 0
 886              		@ frame_needed = 0, uses_anonymous_args = 0
 887 0000 10B5     		push	{r4, lr}
 888              		.cfi_def_cfa_offset 8
 889              		.cfi_offset 4, -8
 890              		.cfi_offset 14, -4
 891              	.LBB399:
 892              	.LBB400:
 893              	.LBB401:
 894              	.LBB402:
 895              		.loc 2 176 0
 896 0002 204B     		ldr	r3, .L47
 897              	.LBE402:
 898              	.LBE401:
 899              	.LBE400:
 900              	.LBE399:
 901              		.loc 1 216 0
 902 0004 204A     		ldr	r2, .L47+4
 903              	.LBB404:
 904              	.LBB403:
 905              		.loc 2 189 0
 906 0006 9B69     		ldr	r3, [r3, #24]
ARM GAS  /tmp/ccsXePN7.s 			page 17


 907              	.LBE403:
 908              	.LBE404:
 909              		.loc 1 216 0
 910 0008 1068     		ldr	r0, [r2]
 911 000a 9A68     		ldr	r2, [r3, #8]
 912 000c 1F4B     		ldr	r3, .L47+8
 913              		.loc 1 217 0
 914 000e 204C     		ldr	r4, .L47+12
 915              		.loc 1 214 0
 916 0010 82B0     		sub	sp, sp, #8
 917              		.cfi_def_cfa_offset 16
 918              		.loc 1 216 0
 919 0012 0021     		movs	r1, #0
 920 0014 0132     		adds	r2, r2, #1
 921 0016 0091     		str	r1, [sp]
 922 0018 4FF4A471 		mov	r1, #328
 923 001c FFF7FEFF 		bl	chThdCreateStatic
 924              	.LVL67:
 925 0020 1C4B     		ldr	r3, .L47+16
 926              		.loc 1 217 0
 927 0022 2146     		mov	r1, r4
 928              		.loc 1 216 0
 929 0024 1860     		str	r0, [r3]
 930              		.loc 1 217 0
 931 0026 2046     		mov	r0, r4
 932 0028 FFF7FEFF 		bl	chSemSignalWait
 933              	.LVL68:
 934              	.LBB405:
 935              	.LBB406:
 936              		.loc 4 618 0
 937 002c 2168     		ldr	r1, [r4]
 938              	.LBE406:
 939              	.LBE405:
 940              		.loc 1 218 0
 941 002e 0120     		movs	r0, #1
 942 0030 091B     		subs	r1, r1, r4
 943 0032 B1FA81F1 		clz	r1, r1
 944 0036 4909     		lsrs	r1, r1, #5
 945 0038 FFF7FEFF 		bl	_test_assert
 946              	.LVL69:
 947 003c 08B1     		cbz	r0, .L46
 948              	.L41:
 949              		.loc 1 224 0
 950 003e 02B0     		add	sp, sp, #8
 951              		.cfi_remember_state
 952              		.cfi_def_cfa_offset 8
 953              		@ sp needed
 954 0040 10BD     		pop	{r4, pc}
 955              	.L46:
 956              		.cfi_restore_state
 957              		.loc 1 219 0
 958 0042 A168     		ldr	r1, [r4, #8]
 959 0044 B1FA81F1 		clz	r1, r1
 960 0048 0220     		movs	r0, #2
 961 004a 4909     		lsrs	r1, r1, #5
 962 004c FFF7FEFF 		bl	_test_assert
 963              	.LVL70:
ARM GAS  /tmp/ccsXePN7.s 			page 18


 964 0050 0028     		cmp	r0, #0
 965 0052 F4D1     		bne	.L41
 966              	.LBB407:
 967              	.LBB408:
 968              		.loc 1 221 0
 969 0054 2146     		mov	r1, r4
 970 0056 2046     		mov	r0, r4
 971 0058 FFF7FEFF 		bl	chSemSignalWait
 972              	.LVL71:
 973              	.LBB409:
 974              	.LBB410:
 975              		.loc 4 618 0
 976 005c 2168     		ldr	r1, [r4]
 977              	.LBE410:
 978              	.LBE409:
 979              		.loc 1 222 0
 980 005e 0320     		movs	r0, #3
 981 0060 091B     		subs	r1, r1, r4
 982 0062 B1FA81F1 		clz	r1, r1
 983 0066 4909     		lsrs	r1, r1, #5
 984 0068 FFF7FEFF 		bl	_test_assert
 985              	.LVL72:
 986 006c 0028     		cmp	r0, #0
 987 006e E6D1     		bne	.L41
 988              		.loc 1 223 0
 989 0070 A168     		ldr	r1, [r4, #8]
 990 0072 B1FA81F1 		clz	r1, r1
 991 0076 0420     		movs	r0, #4
 992 0078 4909     		lsrs	r1, r1, #5
 993              	.LBE408:
 994              	.LBE407:
 995              		.loc 1 224 0
 996 007a 02B0     		add	sp, sp, #8
 997              		.cfi_def_cfa_offset 8
 998              		@ sp needed
 999 007c BDE81040 		pop	{r4, lr}
 1000              		.cfi_restore 14
 1001              		.cfi_restore 4
 1002              		.cfi_def_cfa_offset 0
 1003              	.LBB412:
 1004              	.LBB411:
 1005              		.loc 1 223 0
 1006 0080 FFF7FEBF 		b	_test_assert
 1007              	.LVL73:
 1008              	.L48:
 1009              		.align	2
 1010              	.L47:
 1011 0084 00000000 		.word	ch
 1012 0088 00000000 		.word	wa
 1013 008c 00000000 		.word	thread3
 1014 0090 00000000 		.word	.LANCHOR0
 1015 0094 00000000 		.word	threads
 1016              	.LBE411:
 1017              	.LBE412:
 1018              		.cfi_endproc
 1019              	.LFE238:
 1020              		.size	sem3_execute, .-sem3_execute
ARM GAS  /tmp/ccsXePN7.s 			page 19


 1021 0098 AFF30080 		.section	.text.thread4,"ax",%progbits
 1021      AFF30080 
 1022              		.align	2
 1023              		.p2align 4,,15
 1024              		.thumb
 1025              		.thumb_func
 1026              		.type	thread4, %function
 1027              	thread4:
 1028              	.LFB239:
 1029              		.loc 1 241 0
 1030              		.cfi_startproc
 1031              		@ args = 0, pretend = 0, frame = 0
 1032              		@ frame_needed = 0, uses_anonymous_args = 0
 1033              	.LVL74:
 1034 0000 08B5     		push	{r3, lr}
 1035              		.cfi_def_cfa_offset 8
 1036              		.cfi_offset 3, -8
 1037              		.cfi_offset 14, -4
 1038              	.LBB426:
 1039              	.LBB427:
 1040              	.LBB428:
 1041              	.LBB429:
 1042              	.LBB430:
 1043              	.LBB431:
 1044              		.loc 3 548 0
 1045 0002 2022     		movs	r2, #32
 1046              	#APP
 1047              	@ 548 "../os/ext/CMSIS/include/core_cmFunc.h" 1
 1048 0004 82F31188 		MSR basepri, r2
 1049              	@ 0 "" 2
 1050              	.LVL75:
 1051              		.thumb
 1052              	.LBE431:
 1053              	.LBE430:
 1054              	.LBE429:
 1055              	.LBE428:
 1056              	.LBB432:
 1057              	.LBB433:
 1058              		.file 6 "../os/rt/include/chbsem.h"
 1059              		.loc 6 270 0
 1060 0008 8368     		ldr	r3, [r0, #8]
 1061 000a 002B     		cmp	r3, #0
 1062 000c 05DD     		ble	.L52
 1063              	.LBE433:
 1064              	.LBE432:
 1065              		.loc 6 286 0
 1066 000e FFF7FEFF 		bl	chSchRescheduleS
 1067              	.LVL76:
 1068              	.LBB435:
 1069              	.LBB436:
 1070              	.LBB437:
 1071              	.LBB438:
 1072              	.LBB439:
 1073              		.loc 3 548 0
 1074 0012 0023     		movs	r3, #0
 1075              	#APP
 1076              	@ 548 "../os/ext/CMSIS/include/core_cmFunc.h" 1
ARM GAS  /tmp/ccsXePN7.s 			page 20


 1077 0014 83F31188 		MSR basepri, r3
 1078              	@ 0 "" 2
 1079              		.thumb
 1080 0018 08BD     		pop	{r3, pc}
 1081              	.LVL77:
 1082              	.L52:
 1083              	.LBE439:
 1084              	.LBE438:
 1085              	.LBE437:
 1086              	.LBE436:
 1087              	.LBE435:
 1088              	.LBB444:
 1089              	.LBB434:
 1090              		.loc 6 271 0
 1091 001a FFF7FEFF 		bl	chSemSignalI
 1092              	.LVL78:
 1093              	.LBE434:
 1094              	.LBE444:
 1095              		.loc 6 286 0
 1096 001e FFF7FEFF 		bl	chSchRescheduleS
 1097              	.LVL79:
 1098              	.LBB445:
 1099              	.LBB443:
 1100              	.LBB442:
 1101              	.LBB441:
 1102              	.LBB440:
 1103              		.loc 3 548 0
 1104 0022 0023     		movs	r3, #0
 1105              	#APP
 1106              	@ 548 "../os/ext/CMSIS/include/core_cmFunc.h" 1
 1107 0024 83F31188 		MSR basepri, r3
 1108              	@ 0 "" 2
 1109              		.thumb
 1110 0028 08BD     		pop	{r3, pc}
 1111              	.LBE440:
 1112              	.LBE441:
 1113              	.LBE442:
 1114              	.LBE443:
 1115              	.LBE445:
 1116              	.LBE427:
 1117              	.LBE426:
 1118              		.cfi_endproc
 1119              	.LFE239:
 1120              		.size	thread4, .-thread4
 1121 002a 00BFAFF3 		.section	.text.sem4_execute,"ax",%progbits
 1121      0080
 1122              		.align	2
 1123              		.p2align 4,,15
 1124              		.thumb
 1125              		.thumb_func
 1126              		.type	sem4_execute, %function
 1127              	sem4_execute:
 1128              	.LFB240:
 1129              		.loc 1 246 0
 1130              		.cfi_startproc
 1131              		@ args = 0, pretend = 0, frame = 16
 1132              		@ frame_needed = 0, uses_anonymous_args = 0
ARM GAS  /tmp/ccsXePN7.s 			page 21


 1133 0000 70B5     		push	{r4, r5, r6, lr}
 1134              		.cfi_def_cfa_offset 16
 1135              		.cfi_offset 4, -16
 1136              		.cfi_offset 5, -12
 1137              		.cfi_offset 6, -8
 1138              		.cfi_offset 14, -4
 1139 0002 86B0     		sub	sp, sp, #24
 1140              		.cfi_def_cfa_offset 40
 1141              	.LVL80:
 1142              	.LBB574:
 1143              	.LBB575:
 1144              		.loc 6 126 0
 1145 0004 03A8     		add	r0, sp, #12
 1146              	.LVL81:
 1147 0006 0021     		movs	r1, #0
 1148 0008 FFF7FEFF 		bl	chSemObjectInit
 1149              	.LVL82:
 1150              	.LBE575:
 1151              	.LBE574:
 1152              	.LBB576:
 1153              	.LBB577:
 1154              		.loc 6 255 0
 1155 000c 03A8     		add	r0, sp, #12
 1156              	.LVL83:
 1157 000e 0021     		movs	r1, #0
 1158 0010 FFF7FEFF 		bl	chSemReset
 1159              	.LVL84:
 1160              	.LBE577:
 1161              	.LBE576:
 1162              	.LBB578:
 1163              	.LBB579:
 1164              	.LBB580:
 1165              	.LBB581:
 1166              		.loc 3 548 0
 1167 0014 2025     		movs	r5, #32
 1168              	#APP
 1169              	@ 548 "../os/ext/CMSIS/include/core_cmFunc.h" 1
 1170 0016 85F31188 		MSR basepri, r5
 1171              	@ 0 "" 2
 1172              	.LVL85:
 1173              		.thumb
 1174              	.LBE581:
 1175              	.LBE580:
 1176              	.LBE579:
 1177              	.LBE578:
 1178              	.LBB582:
 1179              	.LBB583:
 1180              		.loc 6 304 0
 1181 001a 0599     		ldr	r1, [sp, #20]
 1182              	.LBE583:
 1183              	.LBE582:
 1184              		.loc 1 252 0
 1185 001c 0029     		cmp	r1, #0
 1186 001e 4FF00100 		mov	r0, #1
 1187 0022 CCBF     		ite	gt
 1188 0024 0021     		movgt	r1, #0
 1189 0026 0121     		movle	r1, #1
ARM GAS  /tmp/ccsXePN7.s 			page 22


 1190 0028 FFF7FEFF 		bl	_test_assert
 1191              	.LVL86:
 1192 002c 0446     		mov	r4, r0
 1193 002e 20B1     		cbz	r0, .L54
 1194              	.LVL87:
 1195              	.LBB584:
 1196              	.LBB585:
 1197              	.LBB586:
 1198              	.LBB587:
 1199              	.LBB588:
 1200              		.loc 3 548 0
 1201 0030 0023     		movs	r3, #0
 1202              	#APP
 1203              	@ 548 "../os/ext/CMSIS/include/core_cmFunc.h" 1
 1204 0032 83F31188 		MSR basepri, r3
 1205              	@ 0 "" 2
 1206              	.LVL88:
 1207              		.thumb
 1208              	.L53:
 1209              	.LBE588:
 1210              	.LBE587:
 1211              	.LBE586:
 1212              	.LBE585:
 1213              	.LBE584:
 1214              		.loc 1 274 0
 1215 0036 06B0     		add	sp, sp, #24
 1216              		.cfi_remember_state
 1217              		.cfi_def_cfa_offset 16
 1218              		@ sp needed
 1219 0038 70BD     		pop	{r4, r5, r6, pc}
 1220              	.LVL89:
 1221              	.L54:
 1222              		.cfi_restore_state
 1223              	.LBB589:
 1224              	.LBB590:
 1225              	.LBB591:
 1226              	.LBB592:
 1227              	.LBB593:
 1228              		.loc 3 548 0
 1229              	#APP
 1230              	@ 548 "../os/ext/CMSIS/include/core_cmFunc.h" 1
 1231 003a 80F31188 		MSR basepri, r0
 1232              	@ 0 "" 2
 1233              		.thumb
 1234              	.LBE593:
 1235              	.LBE592:
 1236              	.LBE591:
 1237              	.LBE590:
 1238              	.LBE589:
 1239              	.LBB594:
 1240              	.LBB595:
 1241              	.LBB596:
 1242              	.LBB597:
 1243              		.loc 2 176 0
 1244 003e 414B     		ldr	r3, .L71
 1245              	.LBE597:
 1246              	.LBE596:
ARM GAS  /tmp/ccsXePN7.s 			page 23


 1247              	.LBE595:
 1248              	.LBE594:
 1249              		.loc 1 255 0
 1250 0040 414A     		ldr	r2, .L71+4
 1251              	.LBB599:
 1252              	.LBB598:
 1253              		.loc 2 189 0
 1254 0042 9B69     		ldr	r3, [r3, #24]
 1255              	.LBE598:
 1256              	.LBE599:
 1257              		.loc 1 255 0
 1258 0044 1068     		ldr	r0, [r2]
 1259 0046 9A68     		ldr	r2, [r3, #8]
 1260 0048 404B     		ldr	r3, .L71+8
 1261 004a 03A9     		add	r1, sp, #12
 1262              	.LVL90:
 1263 004c 0091     		str	r1, [sp]
 1264 004e 013A     		subs	r2, r2, #1
 1265 0050 4FF4A471 		mov	r1, #328
 1266              	.LVL91:
 1267 0054 FFF7FEFF 		bl	chThdCreateStatic
 1268              	.LVL92:
 1269 0058 3D4B     		ldr	r3, .L71+12
 1270 005a 1860     		str	r0, [r3]
 1271              	.LVL93:
 1272              	.LBB600:
 1273              	.LBB601:
 1274              		.loc 6 143 0
 1275 005c 03A8     		add	r0, sp, #12
 1276              	.LVL94:
 1277 005e FFF7FEFF 		bl	chSemWait
 1278              	.LVL95:
 1279              	.LBE601:
 1280              	.LBE600:
 1281              	.LBB602:
 1282              	.LBB603:
 1283              	.LBB604:
 1284              	.LBB605:
 1285              		.loc 3 548 0
 1286              	#APP
 1287              	@ 548 "../os/ext/CMSIS/include/core_cmFunc.h" 1
 1288 0062 85F31188 		MSR basepri, r5
 1289              	@ 0 "" 2
 1290              	.LVL96:
 1291              		.thumb
 1292              	.LBE605:
 1293              	.LBE604:
 1294              	.LBE603:
 1295              	.LBE602:
 1296              	.LBB606:
 1297              	.LBB607:
 1298              		.loc 6 304 0
 1299 0066 0599     		ldr	r1, [sp, #20]
 1300              	.LBE607:
 1301              	.LBE606:
 1302              		.loc 1 262 0
 1303 0068 0029     		cmp	r1, #0
ARM GAS  /tmp/ccsXePN7.s 			page 24


 1304 006a CCBF     		ite	gt
 1305 006c 0021     		movgt	r1, #0
 1306 006e 0121     		movle	r1, #1
 1307 0070 0220     		movs	r0, #2
 1308 0072 FFF7FEFF 		bl	_test_assert
 1309              	.LVL97:
 1310 0076 18B1     		cbz	r0, .L67
 1311              	.L65:
 1312              	.LVL98:
 1313              	.LBB608:
 1314              	.LBB609:
 1315              	.LBB610:
 1316              	.LBB611:
 1317              	.LBB612:
 1318              		.loc 3 548 0
 1319              	#APP
 1320              	@ 548 "../os/ext/CMSIS/include/core_cmFunc.h" 1
 1321 0078 84F31188 		MSR basepri, r4
 1322              	@ 0 "" 2
 1323              		.thumb
 1324              	.LBE612:
 1325              	.LBE611:
 1326              	.LBE610:
 1327              	.LBE609:
 1328              	.LBE608:
 1329              		.loc 1 274 0
 1330 007c 06B0     		add	sp, sp, #24
 1331              		.cfi_remember_state
 1332              		.cfi_def_cfa_offset 16
 1333              		@ sp needed
 1334 007e 70BD     		pop	{r4, r5, r6, pc}
 1335              	.LVL99:
 1336              	.L67:
 1337              		.cfi_restore_state
 1338              	.LBB613:
 1339              	.LBB614:
 1340              	.LBB615:
 1341              	.LBB616:
 1342              	.LBB617:
 1343              		.loc 3 548 0
 1344              	#APP
 1345              	@ 548 "../os/ext/CMSIS/include/core_cmFunc.h" 1
 1346 0080 80F31188 		MSR basepri, r0
 1347              	@ 0 "" 2
 1348              	.LVL100:
 1349              		.thumb
 1350              	.LBE617:
 1351              	.LBE616:
 1352              	.LBE615:
 1353              	.LBE614:
 1354              	.LBE613:
 1355              	.LBB618:
 1356              	.LBB619:
 1357              	.LBB620:
 1358              	.LBB621:
 1359              	.LBB622:
 1360              	.LBB623:
ARM GAS  /tmp/ccsXePN7.s 			page 25


 1361              	#APP
 1362              	@ 548 "../os/ext/CMSIS/include/core_cmFunc.h" 1
 1363 0084 85F31188 		MSR basepri, r5
 1364              	@ 0 "" 2
 1365              	.LVL101:
 1366              		.thumb
 1367              	.LBE623:
 1368              	.LBE622:
 1369              	.LBE621:
 1370              	.LBE620:
 1371              	.LBB624:
 1372              	.LBB625:
 1373              		.loc 6 270 0
 1374 0088 059B     		ldr	r3, [sp, #20]
 1375 008a 002B     		cmp	r3, #0
 1376 008c 24DD     		ble	.L68
 1377              	.L57:
 1378              	.LBE625:
 1379              	.LBE624:
 1380              		.loc 6 286 0
 1381 008e FFF7FEFF 		bl	chSchRescheduleS
 1382              	.LVL102:
 1383              	.LBB627:
 1384              	.LBB628:
 1385              	.LBB629:
 1386              	.LBB630:
 1387              	.LBB631:
 1388              		.loc 3 548 0
 1389 0092 0024     		movs	r4, #0
 1390              	#APP
 1391              	@ 548 "../os/ext/CMSIS/include/core_cmFunc.h" 1
 1392 0094 84F31188 		MSR basepri, r4
 1393              	@ 0 "" 2
 1394              	.LVL103:
 1395              		.thumb
 1396              	.LBE631:
 1397              	.LBE630:
 1398              	.LBE629:
 1399              	.LBE628:
 1400              	.LBE627:
 1401              	.LBE619:
 1402              	.LBE618:
 1403              	.LBB634:
 1404              	.LBB635:
 1405              	.LBB636:
 1406              	.LBB637:
 1407 0098 2026     		movs	r6, #32
 1408              	#APP
 1409              	@ 548 "../os/ext/CMSIS/include/core_cmFunc.h" 1
 1410 009a 86F31188 		MSR basepri, r6
 1411              	@ 0 "" 2
 1412              	.LVL104:
 1413              		.thumb
 1414              	.LBE637:
 1415              	.LBE636:
 1416              	.LBE635:
 1417              	.LBE634:
ARM GAS  /tmp/ccsXePN7.s 			page 26


 1418              		.loc 1 267 0
 1419 009e 0599     		ldr	r1, [sp, #20]
 1420 00a0 A142     		cmp	r1, r4
 1421 00a2 4FF00300 		mov	r0, #3
 1422 00a6 D4BF     		ite	le
 1423 00a8 0021     		movle	r1, #0
 1424 00aa 0121     		movgt	r1, #1
 1425 00ac FFF7FEFF 		bl	_test_assert
 1426              	.LVL105:
 1427 00b0 0546     		mov	r5, r0
 1428 00b2 0028     		cmp	r0, #0
 1429 00b4 E0D1     		bne	.L65
 1430              	.LVL106:
 1431              	.LBB638:
 1432              	.LBB639:
 1433              	.LBB640:
 1434              	.LBB641:
 1435              	.LBB642:
 1436              		.loc 3 548 0
 1437              	#APP
 1438              	@ 548 "../os/ext/CMSIS/include/core_cmFunc.h" 1
 1439 00b6 80F31188 		MSR basepri, r0
 1440              	@ 0 "" 2
 1441              	.LVL107:
 1442              		.thumb
 1443              	.LBE642:
 1444              	.LBE641:
 1445              	.LBE640:
 1446              	.LBE639:
 1447              	.LBE638:
 1448              	.LBB643:
 1449              	.LBB644:
 1450              	.LBB645:
 1451              	.LBB646:
 1452              	#APP
 1453              	@ 548 "../os/ext/CMSIS/include/core_cmFunc.h" 1
 1454 00ba 86F31188 		MSR basepri, r6
 1455              	@ 0 "" 2
 1456              	.LVL108:
 1457              		.thumb
 1458              	.LBE646:
 1459              	.LBE645:
 1460              	.LBE644:
 1461              	.LBE643:
 1462              		.loc 1 268 0
 1463 00be 0599     		ldr	r1, [sp, #20]
 1464 00c0 0420     		movs	r0, #4
 1465 00c2 A1F10101 		sub	r1, #1
 1466 00c6 B1FA81F1 		clz	r1, r1
 1467 00ca 4909     		lsrs	r1, r1, #5
 1468 00cc FFF7FEFF 		bl	_test_assert
 1469              	.LVL109:
 1470 00d0 30B1     		cbz	r0, .L69
 1471              	.L66:
 1472              	.LVL110:
 1473              	.LBB647:
 1474              	.LBB648:
ARM GAS  /tmp/ccsXePN7.s 			page 27


 1475              	.LBB649:
 1476              	.LBB650:
 1477              	.LBB651:
 1478              		.loc 3 548 0
 1479              	#APP
 1480              	@ 548 "../os/ext/CMSIS/include/core_cmFunc.h" 1
 1481 00d2 85F31188 		MSR basepri, r5
 1482              	@ 0 "" 2
 1483              		.thumb
 1484 00d6 AEE7     		b	.L53
 1485              	.LVL111:
 1486              	.L68:
 1487              	.LBE651:
 1488              	.LBE650:
 1489              	.LBE649:
 1490              	.LBE648:
 1491              	.LBE647:
 1492              	.LBB652:
 1493              	.LBB633:
 1494              	.LBB632:
 1495              	.LBB626:
 1496              		.loc 6 271 0
 1497 00d8 03A8     		add	r0, sp, #12
 1498              	.LVL112:
 1499 00da FFF7FEFF 		bl	chSemSignalI
 1500              	.LVL113:
 1501 00de D6E7     		b	.L57
 1502              	.LVL114:
 1503              	.L69:
 1504              	.LBE626:
 1505              	.LBE632:
 1506              	.LBE633:
 1507              	.LBE652:
 1508              	.LBB653:
 1509              	.LBB654:
 1510              	.LBB655:
 1511              	.LBB656:
 1512              	.LBB657:
 1513              		.loc 3 548 0
 1514              	#APP
 1515              	@ 548 "../os/ext/CMSIS/include/core_cmFunc.h" 1
 1516 00e0 80F31188 		MSR basepri, r0
 1517              	@ 0 "" 2
 1518              	.LVL115:
 1519              		.thumb
 1520              	.LBE657:
 1521              	.LBE656:
 1522              	.LBE655:
 1523              	.LBE654:
 1524              	.LBE653:
 1525              	.LBB658:
 1526              	.LBB659:
 1527              	.LBB660:
 1528              	.LBB661:
 1529              	.LBB662:
 1530              	.LBB663:
 1531              	#APP
ARM GAS  /tmp/ccsXePN7.s 			page 28


 1532              	@ 548 "../os/ext/CMSIS/include/core_cmFunc.h" 1
 1533 00e4 86F31188 		MSR basepri, r6
 1534              	@ 0 "" 2
 1535              	.LVL116:
 1536              		.thumb
 1537              	.LBE663:
 1538              	.LBE662:
 1539              	.LBE661:
 1540              	.LBE660:
 1541              	.LBB664:
 1542              	.LBB665:
 1543              		.loc 6 270 0
 1544 00e8 059B     		ldr	r3, [sp, #20]
 1545 00ea 002B     		cmp	r3, #0
 1546 00ec 25DD     		ble	.L70
 1547              	.L60:
 1548              	.LBE665:
 1549              	.LBE664:
 1550              		.loc 6 286 0
 1551 00ee FFF7FEFF 		bl	chSchRescheduleS
 1552              	.LVL117:
 1553              	.LBB667:
 1554              	.LBB668:
 1555              	.LBB669:
 1556              	.LBB670:
 1557              	.LBB671:
 1558              		.loc 3 548 0
 1559 00f2 0024     		movs	r4, #0
 1560              	#APP
 1561              	@ 548 "../os/ext/CMSIS/include/core_cmFunc.h" 1
 1562 00f4 84F31188 		MSR basepri, r4
 1563              	@ 0 "" 2
 1564              	.LVL118:
 1565              		.thumb
 1566              	.LBE671:
 1567              	.LBE670:
 1568              	.LBE669:
 1569              	.LBE668:
 1570              	.LBE667:
 1571              	.LBE659:
 1572              	.LBE658:
 1573              	.LBB674:
 1574              	.LBB675:
 1575              	.LBB676:
 1576              	.LBB677:
 1577 00f8 2026     		movs	r6, #32
 1578              	#APP
 1579              	@ 548 "../os/ext/CMSIS/include/core_cmFunc.h" 1
 1580 00fa 86F31188 		MSR basepri, r6
 1581              	@ 0 "" 2
 1582              	.LVL119:
 1583              		.thumb
 1584              	.LBE677:
 1585              	.LBE676:
 1586              	.LBE675:
 1587              	.LBE674:
 1588              		.loc 1 272 0
ARM GAS  /tmp/ccsXePN7.s 			page 29


 1589 00fe 0599     		ldr	r1, [sp, #20]
 1590 0100 A142     		cmp	r1, r4
 1591 0102 4FF00300 		mov	r0, #3
 1592 0106 D4BF     		ite	le
 1593 0108 0021     		movle	r1, #0
 1594 010a 0121     		movgt	r1, #1
 1595 010c FFF7FEFF 		bl	_test_assert
 1596              	.LVL120:
 1597 0110 0546     		mov	r5, r0
 1598 0112 0028     		cmp	r0, #0
 1599 0114 B0D1     		bne	.L65
 1600              	.LVL121:
 1601              	.LBB678:
 1602              	.LBB679:
 1603              	.LBB680:
 1604              	.LBB681:
 1605              	.LBB682:
 1606              		.loc 3 548 0
 1607              	#APP
 1608              	@ 548 "../os/ext/CMSIS/include/core_cmFunc.h" 1
 1609 0116 80F31188 		MSR basepri, r0
 1610              	@ 0 "" 2
 1611              	.LVL122:
 1612              		.thumb
 1613              	.LBE682:
 1614              	.LBE681:
 1615              	.LBE680:
 1616              	.LBE679:
 1617              	.LBE678:
 1618              	.LBB683:
 1619              	.LBB684:
 1620              	.LBB685:
 1621              	.LBB686:
 1622              	#APP
 1623              	@ 548 "../os/ext/CMSIS/include/core_cmFunc.h" 1
 1624 011a 86F31188 		MSR basepri, r6
 1625              	@ 0 "" 2
 1626              	.LVL123:
 1627              		.thumb
 1628              	.LBE686:
 1629              	.LBE685:
 1630              	.LBE684:
 1631              	.LBE683:
 1632              		.loc 1 273 0
 1633 011e 0599     		ldr	r1, [sp, #20]
 1634 0120 0520     		movs	r0, #5
 1635 0122 A1F10101 		sub	r1, #1
 1636 0126 B1FA81F1 		clz	r1, r1
 1637 012a 4909     		lsrs	r1, r1, #5
 1638 012c FFF7FEFF 		bl	_test_assert
 1639              	.LVL124:
 1640 0130 0028     		cmp	r0, #0
 1641 0132 CED1     		bne	.L66
 1642              	.LVL125:
 1643              	.LBB687:
 1644              	.LBB688:
 1645              	.LBB689:
ARM GAS  /tmp/ccsXePN7.s 			page 30


 1646              	.LBB690:
 1647              	.LBB691:
 1648              		.loc 3 548 0
 1649              	#APP
 1650              	@ 548 "../os/ext/CMSIS/include/core_cmFunc.h" 1
 1651 0134 80F31188 		MSR basepri, r0
 1652              	@ 0 "" 2
 1653              		.thumb
 1654              	.LBE691:
 1655              	.LBE690:
 1656              	.LBE689:
 1657              	.LBE688:
 1658              	.LBE687:
 1659 0138 7DE7     		b	.L53
 1660              	.LVL126:
 1661              	.L70:
 1662              	.LBB692:
 1663              	.LBB673:
 1664              	.LBB672:
 1665              	.LBB666:
 1666              		.loc 6 271 0
 1667 013a 03A8     		add	r0, sp, #12
 1668              	.LVL127:
 1669 013c FFF7FEFF 		bl	chSemSignalI
 1670              	.LVL128:
 1671 0140 D5E7     		b	.L60
 1672              	.L72:
 1673 0142 00BF     		.align	2
 1674              	.L71:
 1675 0144 00000000 		.word	ch
 1676 0148 00000000 		.word	wa
 1677 014c 00000000 		.word	thread4
 1678 0150 00000000 		.word	threads
 1679              	.LBE666:
 1680              	.LBE672:
 1681              	.LBE673:
 1682              	.LBE692:
 1683              		.cfi_endproc
 1684              	.LFE240:
 1685              		.size	sem4_execute, .-sem4_execute
 1686              		.global	patternsem
 1687              		.global	testsem4
 1688              		.global	testsem3
 1689              		.global	testsem2
 1690              		.global	testsem1
 1691 0154 AFF30080 		.section	.rodata.testsem1,"a",%progbits
 1691      AFF30080 
 1691      AFF30080 
 1692              		.align	2
 1693              		.type	testsem1, %object
 1694              		.size	testsem1, 16
 1695              	testsem1:
 1696 0000 74000000 		.word	.LC9
 1697 0004 00000000 		.word	sem1_setup
 1698 0008 00000000 		.word	0
 1699 000c 00000000 		.word	sem1_execute
 1700              		.section	.rodata.testsem2,"a",%progbits
ARM GAS  /tmp/ccsXePN7.s 			page 31


 1701              		.align	2
 1702              		.type	testsem2, %object
 1703              		.size	testsem2, 16
 1704              	testsem2:
 1705 0000 60000000 		.word	.LC8
 1706 0004 00000000 		.word	sem2_setup
 1707 0008 00000000 		.word	0
 1708 000c 00000000 		.word	sem2_execute
 1709              		.section	.rodata.testsem3,"a",%progbits
 1710              		.align	2
 1711              		.type	testsem3, %object
 1712              		.size	testsem3, 16
 1713              	testsem3:
 1714 0000 40000000 		.word	.LC7
 1715 0004 00000000 		.word	sem3_setup
 1716 0008 00000000 		.word	0
 1717 000c 00000000 		.word	sem3_execute
 1718              		.section	.rodata.testsem4,"a",%progbits
 1719              		.align	2
 1720              		.type	testsem4, %object
 1721              		.size	testsem4, 16
 1722              	testsem4:
 1723 0000 1C000000 		.word	.LC6
 1724 0004 00000000 		.word	0
 1725 0008 00000000 		.word	0
 1726 000c 00000000 		.word	sem4_execute
 1727              		.section	.data.sem1,"aw",%progbits
 1728              		.align	2
 1729              	.LANCHOR0 = . + 0
 1730              		.type	sem1, %object
 1731              		.size	sem1, 12
 1732              	sem1:
 1733 0000 00000000 		.word	sem1
 1734 0004 00000000 		.word	sem1
 1735 0008 00000000 		.word	0
 1736              		.section	.rodata.patternsem,"a",%progbits
 1737              		.align	2
 1738              		.type	patternsem, %object
 1739              		.size	patternsem, 20
 1740              	patternsem:
 1741 0000 00000000 		.word	testsem1
 1742 0004 00000000 		.word	testsem2
 1743 0008 00000000 		.word	testsem3
 1744 000c 00000000 		.word	testsem4
 1745 0010 00000000 		.word	0
 1746              		.section	.rodata.str1.4,"aMS",%progbits,1
 1747              		.align	2
 1748              	.LC0:
 1749 0000 4100     		.ascii	"A\000"
 1750 0002 0000     		.space	2
 1751              	.LC1:
 1752 0004 4200     		.ascii	"B\000"
 1753 0006 0000     		.space	2
 1754              	.LC2:
 1755 0008 4300     		.ascii	"C\000"
 1756 000a 0000     		.space	2
 1757              	.LC3:
ARM GAS  /tmp/ccsXePN7.s 			page 32


 1758 000c 4400     		.ascii	"D\000"
 1759 000e 0000     		.space	2
 1760              	.LC4:
 1761 0010 4500     		.ascii	"E\000"
 1762 0012 0000     		.space	2
 1763              	.LC5:
 1764 0014 41424344 		.ascii	"ABCDE\000"
 1764      4500
 1765 001a 0000     		.space	2
 1766              	.LC6:
 1767 001c 42696E61 		.ascii	"Binary Semaphores, functionality\000"
 1767      72792053 
 1767      656D6170 
 1767      686F7265 
 1767      732C2066 
 1768 003d 000000   		.space	3
 1769              	.LC7:
 1770 0040 53656D61 		.ascii	"Semaphores, atomic signal-wait\000"
 1770      70686F72 
 1770      65732C20 
 1770      61746F6D 
 1770      69632073 
 1771 005f 00       		.space	1
 1772              	.LC8:
 1773 0060 53656D61 		.ascii	"Semaphores, timeout\000"
 1773      70686F72 
 1773      65732C20 
 1773      74696D65 
 1773      6F757400 
 1774              	.LC9:
 1775 0074 53656D61 		.ascii	"Semaphores, enqueuing\000"
 1775      70686F72 
 1775      65732C20 
 1775      656E7175 
 1775      6575696E 
 1776 008a 0000     		.text
 1777              	.Letext0:
 1778              		.file 7 "/usr/lib/gcc/arm-linux-gnueabihf/4.9/include/stddef.h"
 1779              		.file 8 "/usr/include/stdint.h"
 1780              		.file 9 "../os/rt/ports/ARMCMx/compilers/GCC/chtypes.h"
 1781              		.file 10 "../os/rt/include/chsystypes.h"
 1782              		.file 11 "../os/rt/ports/ARMCMx/chcore.h"
 1783              		.file 12 "../os/rt/ports/ARMCMx/chcore_v7m.h"
 1784              		.file 13 "../os/rt/include/chsem.h"
 1785              		.file 14 "../os/rt/include/chmtx.h"
 1786              		.file 15 "../test/rt/test.h"
 1787              		.file 16 "../os/rt/include/chsys.h"
 1788              		.file 17 "../os/ext/CMSIS/include/core_cm4.h"
 7364              		.section	.note.GNU-stack,"",%progbits
ARM GAS  /tmp/ccsXePN7.s 			page 138

