ARM GAS  /tmp/ccbYmxgd.s 			page 1


   1              		.syntax unified
   2              		.cpu cortex-m4
   3              		.fpu softvfp
   4              		.eabi_attribute 20, 1
   5              		.eabi_attribute 21, 1
   6              		.eabi_attribute 23, 3
   7              		.eabi_attribute 24, 1
   8              		.eabi_attribute 25, 1
   9              		.eabi_attribute 26, 2
  10              		.eabi_attribute 30, 2
  11              		.eabi_attribute 34, 1
  12              		.eabi_attribute 18, 4
  13              		.thumb
  14              		.file	"testmbox.c"
  15              		.text
  16              	.Ltext0:
  17              		.cfi_sections	.debug_frame
  18              		.section	.text.mbox1_execute,"ax",%progbits
  19              		.align	2
  20              		.p2align 4,,15
  21              		.thumb
  22              		.thumb_func
  23              		.type	mbox1_execute, %function
  24              	mbox1_execute:
  25              	.LFB231:
  26              		.file 1 "../test/rt/testmbox.c"
  27              		.loc 1 76 0
  28              		.cfi_startproc
  29              		@ args = 0, pretend = 0, frame = 8
  30              		@ frame_needed = 0, uses_anonymous_args = 0
  31              	.LVL0:
  32 0000 2DE9F041 		push	{r4, r5, r6, r7, r8, lr}
  33              		.cfi_def_cfa_offset 24
  34              		.cfi_offset 4, -24
  35              		.cfi_offset 5, -20
  36              		.cfi_offset 6, -16
  37              		.cfi_offset 7, -12
  38              		.cfi_offset 8, -8
  39              		.cfi_offset 14, -4
  40              	.LBB335:
  41              	.LBB336:
  42              	.LBB337:
  43              	.LBB338:
  44              		.file 2 "../os/ext/CMSIS/include/core_cmFunc.h"
  45              		.loc 2 548 0
  46 0004 2023     		movs	r3, #32
  47              	.LBE338:
  48              	.LBE337:
  49              	.LBE336:
  50              	.LBE335:
  51              		.loc 1 76 0
  52 0006 82B0     		sub	sp, sp, #8
  53              		.cfi_def_cfa_offset 32
  54              	.LBB342:
  55              	.LBB341:
  56              	.LBB340:
  57              	.LBB339:
ARM GAS  /tmp/ccbYmxgd.s 			page 2


  58              		.loc 2 548 0
  59              	#APP
  60              	@ 548 "../os/ext/CMSIS/include/core_cmFunc.h" 1
  61 0008 83F31188 		MSR basepri, r3
  62              	@ 0 "" 2
  63              	.LVL1:
  64              		.thumb
  65 000c CC4E     		ldr	r6, .L39
  66              	.LBE339:
  67              	.LBE340:
  68              	.LBE341:
  69              	.LBE342:
  70              		.loc 1 83 0
  71 000e 716A     		ldr	r1, [r6, #36]
  72 0010 0120     		movs	r0, #1
  73 0012 A1F10501 		sub	r1, #5
  74 0016 B1FA81F1 		clz	r1, r1
  75 001a 4909     		lsrs	r1, r1, #5
  76 001c FFF7FEFF 		bl	_test_assert
  77              	.LVL2:
  78 0020 0028     		cmp	r0, #0
  79 0022 40F01A81 		bne	.L32
  80              	.LVL3:
  81              	.LBB343:
  82              	.LBB344:
  83              	.LBB345:
  84              	.LBB346:
  85              	.LBB347:
  86              		.loc 2 548 0
  87              	#APP
  88              	@ 548 "../os/ext/CMSIS/include/core_cmFunc.h" 1
  89 0026 80F31188 		MSR basepri, r0
  90              	@ 0 "" 2
  91              	.LVL4:
  92              		.thumb
  93 002a 4224     		movs	r4, #66
  94              	.LVL5:
  95              	.L5:
  96              	.LBE347:
  97              	.LBE346:
  98              	.LBE345:
  99              	.LBE344:
 100              	.LBE343:
 101              		.loc 1 89 0
 102 002c C44D     		ldr	r5, .L39
 103 002e 2146     		mov	r1, r4
 104 0030 4FF0FF32 		mov	r2, #-1
 105 0034 2846     		mov	r0, r5
 106 0036 FFF7FEFF 		bl	chMBPost
 107              	.LVL6:
 108              		.loc 1 90 0
 109 003a B0FA80F1 		clz	r1, r0
 110 003e 0220     		movs	r0, #2
 111              	.LVL7:
 112 0040 4909     		lsrs	r1, r1, #5
 113 0042 FFF7FEFF 		bl	_test_assert
 114              	.LVL8:
ARM GAS  /tmp/ccbYmxgd.s 			page 3


 115 0046 0134     		adds	r4, r4, #1
 116              	.LVL9:
 117 0048 80B9     		cbnz	r0, .L1
 118              		.loc 1 88 0 discriminator 2
 119 004a 462C     		cmp	r4, #70
 120 004c EED1     		bne	.L5
 121              		.loc 1 92 0
 122 004e 4121     		movs	r1, #65
 123 0050 2846     		mov	r0, r5
 124 0052 4FF0FF32 		mov	r2, #-1
 125 0056 FFF7FEFF 		bl	chMBPostAhead
 126              	.LVL10:
 127              		.loc 1 93 0
 128 005a B0FA80F1 		clz	r1, r0
 129 005e 0320     		movs	r0, #3
 130              	.LVL11:
 131 0060 4909     		lsrs	r1, r1, #5
 132 0062 FFF7FEFF 		bl	_test_assert
 133              	.LVL12:
 134 0066 0028     		cmp	r0, #0
 135 0068 00F0FD80 		beq	.L34
 136              	.LVL13:
 137              	.L1:
 138              		.loc 1 220 0
 139 006c 02B0     		add	sp, sp, #8
 140              		.cfi_remember_state
 141              		.cfi_def_cfa_offset 24
 142              		@ sp needed
 143 006e BDE8F081 		pop	{r4, r5, r6, r7, r8, pc}
 144              	.LVL14:
 145              	.L38:
 146              		.cfi_restore_state
 147              	.LBB348:
 148              	.LBB349:
 149              	.LBB350:
 150              	.LBB351:
 151              	.LBB352:
 152              		.loc 2 548 0
 153              	#APP
 154              	@ 548 "../os/ext/CMSIS/include/core_cmFunc.h" 1
 155 0072 85F31188 		MSR basepri, r5
 156              	@ 0 "" 2
 157              	.LVL15:
 158              		.thumb
 159              	.LBE352:
 160              	.LBE351:
 161              	.LBE350:
 162              	.LBE349:
 163              	.LBE348:
 164              	.LBB353:
 165              	.LBB354:
 166              	.LBB355:
 167              	.LBB356:
 168              	#APP
 169              	@ 548 "../os/ext/CMSIS/include/core_cmFunc.h" 1
 170 0076 87F31188 		MSR basepri, r7
 171              	@ 0 "" 2
ARM GAS  /tmp/ccbYmxgd.s 			page 4


 172              	.LVL16:
 173              		.thumb
 174              	.LBE356:
 175              	.LBE355:
 176              	.LBE354:
 177              	.LBE353:
 178              		.loc 1 180 0
 179 007a 1F20     		movs	r0, #31
 180 007c A169     		ldr	r1, [r4, #24]
 181 007e B1FA81F1 		clz	r1, r1
 182 0082 4909     		lsrs	r1, r1, #5
 183 0084 FFF7FEFF 		bl	_test_assert
 184              	.LVL17:
 185 0088 0028     		cmp	r0, #0
 186 008a 40F0A082 		bne	.L31
 187              	.LVL18:
 188              	.LBB357:
 189              	.LBB358:
 190              	.LBB359:
 191              	.LBB360:
 192              	.LBB361:
 193              		.loc 2 548 0
 194              	#APP
 195              	@ 548 "../os/ext/CMSIS/include/core_cmFunc.h" 1
 196 008e 85F31188 		MSR basepri, r5
 197              	@ 0 "" 2
 198              		.thumb
 199              	.LBE361:
 200              	.LBE360:
 201              	.LBE359:
 202              	.LBE358:
 203              	.LBE357:
 204              		.loc 1 181 0
 205 0092 E168     		ldr	r1, [r4, #12]
 206 0094 A368     		ldr	r3, [r4, #8]
 207 0096 CB1A     		subs	r3, r1, r3
 208 0098 5942     		rsbs	r1, r3, #0
 209 009a 5941     		adcs	r1, r1, r3
 210 009c 3846     		mov	r0, r7
 211 009e FFF7FEFF 		bl	_test_assert
 212              	.LVL19:
 213 00a2 0028     		cmp	r0, #0
 214 00a4 E2D1     		bne	.L1
 215              	.LVL20:
 216              	.LBB362:
 217              	.LBB363:
 218              	.LBB364:
 219              	.LBB365:
 220              		.loc 2 548 0
 221              	#APP
 222              	@ 548 "../os/ext/CMSIS/include/core_cmFunc.h" 1
 223 00a6 87F31188 		MSR basepri, r7
 224              	@ 0 "" 2
 225              		.thumb
 226              	.LBE365:
 227              	.LBE364:
 228              	.LBE363:
ARM GAS  /tmp/ccbYmxgd.s 			page 5


 229              	.LBE362:
 230              		.loc 1 184 0
 231 00aa 4521     		movs	r1, #69
 232 00ac 2046     		mov	r0, r4
 233 00ae FFF7FEFF 		bl	chMBPostAheadI
 234              	.LVL21:
 235              		.loc 1 185 0
 236 00b2 B0FA80F1 		clz	r1, r0
 237 00b6 2120     		movs	r0, #33
 238              	.LVL22:
 239 00b8 4909     		lsrs	r1, r1, #5
 240 00ba FFF7FEFF 		bl	_test_assert
 241              	.LVL23:
 242 00be 0028     		cmp	r0, #0
 243 00c0 D4D1     		bne	.L1
 244              		.loc 1 186 0
 245 00c2 4421     		movs	r1, #68
 246 00c4 2046     		mov	r0, r4
 247 00c6 FFF7FEFF 		bl	chMBPostAheadI
 248              	.LVL24:
 249              		.loc 1 187 0
 250 00ca B0FA80F1 		clz	r1, r0
 251 00ce 2220     		movs	r0, #34
 252              	.LVL25:
 253 00d0 4909     		lsrs	r1, r1, #5
 254 00d2 FFF7FEFF 		bl	_test_assert
 255              	.LVL26:
 256 00d6 0028     		cmp	r0, #0
 257 00d8 C8D1     		bne	.L1
 258              		.loc 1 188 0
 259 00da 4321     		movs	r1, #67
 260 00dc 2046     		mov	r0, r4
 261 00de FFF7FEFF 		bl	chMBPostAheadI
 262              	.LVL27:
 263              		.loc 1 189 0
 264 00e2 B0FA80F1 		clz	r1, r0
 265 00e6 2320     		movs	r0, #35
 266              	.LVL28:
 267 00e8 4909     		lsrs	r1, r1, #5
 268 00ea FFF7FEFF 		bl	_test_assert
 269              	.LVL29:
 270 00ee 0028     		cmp	r0, #0
 271 00f0 BCD1     		bne	.L1
 272              		.loc 1 190 0
 273 00f2 4221     		movs	r1, #66
 274 00f4 2046     		mov	r0, r4
 275 00f6 FFF7FEFF 		bl	chMBPostAheadI
 276              	.LVL30:
 277              		.loc 1 191 0
 278 00fa B0FA80F1 		clz	r1, r0
 279 00fe 2420     		movs	r0, #36
 280              	.LVL31:
 281 0100 4909     		lsrs	r1, r1, #5
 282 0102 FFF7FEFF 		bl	_test_assert
 283              	.LVL32:
 284 0106 0028     		cmp	r0, #0
 285 0108 B0D1     		bne	.L1
ARM GAS  /tmp/ccbYmxgd.s 			page 6


 286              		.loc 1 192 0
 287 010a 8D4C     		ldr	r4, .L39
 288 010c 4121     		movs	r1, #65
 289 010e 2046     		mov	r0, r4
 290 0110 FFF7FEFF 		bl	chMBPostAheadI
 291              	.LVL33:
 292              	.LBB366:
 293              	.LBB367:
 294              	.LBB368:
 295              	.LBB369:
 296              	.LBB370:
 297              		.loc 2 548 0
 298 0114 0023     		movs	r3, #0
 299              	.LBE370:
 300              	.LBE369:
 301              	.LBE368:
 302              	.LBE367:
 303              	.LBE366:
 304              		.loc 1 192 0
 305 0116 0146     		mov	r1, r0
 306              	.LVL34:
 307              	.LBB375:
 308              	.LBB374:
 309              	.LBB373:
 310              	.LBB372:
 311              	.LBB371:
 312              		.loc 2 548 0
 313              	#APP
 314              	@ 548 "../os/ext/CMSIS/include/core_cmFunc.h" 1
 315 0118 83F31188 		MSR basepri, r3
 316              	@ 0 "" 2
 317              		.thumb
 318              	.LBE371:
 319              	.LBE372:
 320              	.LBE373:
 321              	.LBE374:
 322              	.LBE375:
 323              		.loc 1 194 0
 324 011c 2520     		movs	r0, #37
 325              	.LVL35:
 326 011e B1FA81F1 		clz	r1, r1
 327              	.LVL36:
 328 0122 4909     		lsrs	r1, r1, #5
 329 0124 FFF7FEFF 		bl	_test_assert
 330              	.LVL37:
 331 0128 0028     		cmp	r0, #0
 332 012a 9FD1     		bne	.L1
 333              		.loc 1 195 0
 334 012c E168     		ldr	r1, [r4, #12]
 335 012e A368     		ldr	r3, [r4, #8]
 336 0130 C3EB0108 		rsb	r8, r3, r1
 337 0134 D8F10001 		rsbs	r1, r8, #0
 338 0138 41EB0801 		adc	r1, r1, r8
 339 013c 2620     		movs	r0, #38
 340 013e FFF7FEFF 		bl	_test_assert
 341              	.LVL38:
 342 0142 0028     		cmp	r0, #0
ARM GAS  /tmp/ccbYmxgd.s 			page 7


 343 0144 92D1     		bne	.L1
 344              	.LBB376:
 345              	.LBB377:
 346              	.LBB378:
 347              	.LBB379:
 348              	.LBB380:
 349              		.loc 2 548 0
 350 0146 0746     		mov	r7, r0
 351              	.LBE380:
 352              	.LBE379:
 353              	.LBE378:
 354              	.LBE377:
 355              	.LBE376:
 356 0148 0524     		movs	r4, #5
 357              	.LBB385:
 358              	.LBB386:
 359              	.LBB387:
 360              	.LBB388:
 361 014a 4FF02008 		mov	r8, #32
 362              	.LVL39:
 363              	.L16:
 364 014e 2026     		movs	r6, #32
 365              	#APP
 366              	@ 548 "../os/ext/CMSIS/include/core_cmFunc.h" 1
 367 0150 88F31188 		MSR basepri, r8
 368              	@ 0 "" 2
 369              		.thumb
 370              	.LBE388:
 371              	.LBE387:
 372              	.LBE386:
 373              	.LBE385:
 374              		.loc 1 198 0
 375 0154 7A4D     		ldr	r5, .L39
 376 0156 01A9     		add	r1, sp, #4
 377 0158 2846     		mov	r0, r5
 378 015a FFF7FEFF 		bl	chMBFetchI
 379              	.LVL40:
 380 015e 0146     		mov	r1, r0
 381              	.LVL41:
 382              	.LBB389:
 383              	.LBB384:
 384              	.LBB383:
 385              	.LBB382:
 386              	.LBB381:
 387              		.loc 2 548 0
 388              	#APP
 389              	@ 548 "../os/ext/CMSIS/include/core_cmFunc.h" 1
 390 0160 87F31188 		MSR basepri, r7
 391              	@ 0 "" 2
 392              		.thumb
 393              	.LBE381:
 394              	.LBE382:
 395              	.LBE383:
 396              	.LBE384:
 397              	.LBE389:
 398              		.loc 1 200 0
 399 0164 2720     		movs	r0, #39
ARM GAS  /tmp/ccbYmxgd.s 			page 8


 400              	.LVL42:
 401 0166 B1FA81F1 		clz	r1, r1
 402              	.LVL43:
 403 016a 4909     		lsrs	r1, r1, #5
 404 016c FFF7FEFF 		bl	_test_assert
 405              	.LVL44:
 406 0170 0028     		cmp	r0, #0
 407 0172 7FF47BAF 		bne	.L1
 408              		.loc 1 201 0 discriminator 2
 409 0176 9DF80400 		ldrb	r0, [sp, #4]	@ zero_extendqisi2
 410 017a FFF7FEFF 		bl	test_emit_token
 411              	.LVL45:
 412              		.loc 1 196 0 discriminator 2
 413 017e 013C     		subs	r4, r4, #1
 414              	.LVL46:
 415 0180 E5D1     		bne	.L16
 416              		.loc 1 203 0
 417 0182 2820     		movs	r0, #40
 418 0184 6F49     		ldr	r1, .L39+4
 419 0186 FFF7FEFF 		bl	_test_assert_sequence
 420              	.LVL47:
 421 018a 0028     		cmp	r0, #0
 422 018c 7FF46EAF 		bne	.L1
 423              	.LVL48:
 424              	.LBB390:
 425              	.LBB391:
 426              	.LBB392:
 427              	.LBB393:
 428              		.loc 2 548 0
 429              	#APP
 430              	@ 548 "../os/ext/CMSIS/include/core_cmFunc.h" 1
 431 0190 86F31188 		MSR basepri, r6
 432              	@ 0 "" 2
 433              	.LVL49:
 434              		.thumb
 435              	.LBE393:
 436              	.LBE392:
 437              	.LBE391:
 438              	.LBE390:
 439              		.loc 1 204 0
 440 0194 696A     		ldr	r1, [r5, #36]
 441 0196 A1F1050C 		sub	ip, r1, #5
 442 019a DCF10001 		rsbs	r1, ip, #0
 443 019e 41EB0C01 		adc	r1, r1, ip
 444 01a2 2920     		movs	r0, #41
 445 01a4 FFF7FEFF 		bl	_test_assert
 446              	.LVL50:
 447 01a8 0028     		cmp	r0, #0
 448 01aa 40F0C580 		bne	.L30
 449              	.LVL51:
 450              	.LBB394:
 451              	.LBB395:
 452              	.LBB396:
 453              	.LBB397:
 454              	.LBB398:
 455              		.loc 2 548 0
 456              	#APP
ARM GAS  /tmp/ccbYmxgd.s 			page 9


 457              	@ 548 "../os/ext/CMSIS/include/core_cmFunc.h" 1
 458 01ae 84F31188 		MSR basepri, r4
 459              	@ 0 "" 2
 460              	.LVL52:
 461              		.thumb
 462              	.LBE398:
 463              	.LBE397:
 464              	.LBE396:
 465              	.LBE395:
 466              	.LBE394:
 467              	.LBB399:
 468              	.LBB400:
 469              	.LBB401:
 470              	.LBB402:
 471              	#APP
 472              	@ 548 "../os/ext/CMSIS/include/core_cmFunc.h" 1
 473 01b2 86F31188 		MSR basepri, r6
 474              	@ 0 "" 2
 475              	.LVL53:
 476              		.thumb
 477              	.LBE402:
 478              	.LBE401:
 479              	.LBE400:
 480              	.LBE399:
 481              		.loc 1 205 0
 482 01b6 2A20     		movs	r0, #42
 483 01b8 A969     		ldr	r1, [r5, #24]
 484 01ba B1FA81F1 		clz	r1, r1
 485 01be 4909     		lsrs	r1, r1, #5
 486 01c0 FFF7FEFF 		bl	_test_assert
 487              	.LVL54:
 488 01c4 0028     		cmp	r0, #0
 489 01c6 40F0B780 		bne	.L30
 490              	.LVL55:
 491              	.LBB403:
 492              	.LBB404:
 493              	.LBB405:
 494              	.LBB406:
 495              	.LBB407:
 496              		.loc 2 548 0
 497              	#APP
 498              	@ 548 "../os/ext/CMSIS/include/core_cmFunc.h" 1
 499 01ca 84F31188 		MSR basepri, r4
 500              	@ 0 "" 2
 501              		.thumb
 502              	.LBE407:
 503              	.LBE406:
 504              	.LBE405:
 505              	.LBE404:
 506              	.LBE403:
 507              		.loc 1 206 0
 508 01ce E968     		ldr	r1, [r5, #12]
 509 01d0 AB68     		ldr	r3, [r5, #8]
 510 01d2 C3EB010E 		rsb	lr, r3, r1
 511 01d6 DEF10001 		rsbs	r1, lr, #0
 512 01da 41EB0E01 		adc	r1, r1, lr
 513 01de 2B20     		movs	r0, #43
ARM GAS  /tmp/ccbYmxgd.s 			page 10


 514 01e0 FFF7FEFF 		bl	_test_assert
 515              	.LVL56:
 516 01e4 0028     		cmp	r0, #0
 517 01e6 7FF441AF 		bne	.L1
 518              		.loc 1 211 0
 519 01ea 2846     		mov	r0, r5
 520 01ec FFF7FEFF 		bl	chMBReset
 521              	.LVL57:
 522              	.LBB408:
 523              	.LBB409:
 524              	.LBB410:
 525              	.LBB411:
 526              		.loc 2 548 0
 527              	#APP
 528              	@ 548 "../os/ext/CMSIS/include/core_cmFunc.h" 1
 529 01f0 86F31188 		MSR basepri, r6
 530              	@ 0 "" 2
 531              	.LVL58:
 532              		.thumb
 533              	.LBE411:
 534              	.LBE410:
 535              	.LBE409:
 536              	.LBE408:
 537              		.loc 1 216 0
 538 01f4 696A     		ldr	r1, [r5, #36]
 539 01f6 4F1F     		subs	r7, r1, #5
 540 01f8 7942     		rsbs	r1, r7, #0
 541 01fa 7941     		adcs	r1, r1, r7
 542 01fc 2C20     		movs	r0, #44
 543 01fe FFF7FEFF 		bl	_test_assert
 544              	.LVL59:
 545 0202 0028     		cmp	r0, #0
 546 0204 40F09880 		bne	.L30
 547              	.LVL60:
 548              	.LBB412:
 549              	.LBB413:
 550              	.LBB414:
 551              	.LBB415:
 552              	.LBB416:
 553              		.loc 2 548 0
 554              	#APP
 555              	@ 548 "../os/ext/CMSIS/include/core_cmFunc.h" 1
 556 0208 84F31188 		MSR basepri, r4
 557              	@ 0 "" 2
 558              	.LVL61:
 559              		.thumb
 560              	.LBE416:
 561              	.LBE415:
 562              	.LBE414:
 563              	.LBE413:
 564              	.LBE412:
 565              	.LBB417:
 566              	.LBB418:
 567              	.LBB419:
 568              	.LBB420:
 569              	#APP
 570              	@ 548 "../os/ext/CMSIS/include/core_cmFunc.h" 1
ARM GAS  /tmp/ccbYmxgd.s 			page 11


 571 020c 86F31188 		MSR basepri, r6
 572              	@ 0 "" 2
 573              	.LVL62:
 574              		.thumb
 575              	.LBE420:
 576              	.LBE419:
 577              	.LBE418:
 578              	.LBE417:
 579              		.loc 1 217 0
 580 0210 2D20     		movs	r0, #45
 581 0212 A969     		ldr	r1, [r5, #24]
 582 0214 B1FA81F1 		clz	r1, r1
 583 0218 4909     		lsrs	r1, r1, #5
 584 021a FFF7FEFF 		bl	_test_assert
 585              	.LVL63:
 586 021e 0028     		cmp	r0, #0
 587 0220 40F08A80 		bne	.L30
 588              	.LVL64:
 589              	.LBB421:
 590              	.LBB422:
 591              	.LBB423:
 592              	.LBB424:
 593              	.LBB425:
 594              		.loc 2 548 0
 595              	#APP
 596              	@ 548 "../os/ext/CMSIS/include/core_cmFunc.h" 1
 597 0224 84F31188 		MSR basepri, r4
 598              	@ 0 "" 2
 599              	.LVL65:
 600              		.thumb
 601              	.LBE425:
 602              	.LBE424:
 603              	.LBE423:
 604              	.LBE422:
 605              	.LBE421:
 606              	.LBB426:
 607              	.LBB427:
 608              	.LBB428:
 609              	.LBB429:
 610              	#APP
 611              	@ 548 "../os/ext/CMSIS/include/core_cmFunc.h" 1
 612 0228 86F31188 		MSR basepri, r6
 613              	@ 0 "" 2
 614              		.thumb
 615              	.LBE429:
 616              	.LBE428:
 617              	.LBE427:
 618              	.LBE426:
 619              		.loc 1 218 0
 620 022c 2968     		ldr	r1, [r5]
 621 022e AB68     		ldr	r3, [r5, #8]
 622 0230 CA1A     		subs	r2, r1, r3
 623 0232 5142     		rsbs	r1, r2, #0
 624 0234 5141     		adcs	r1, r1, r2
 625 0236 2E20     		movs	r0, #46
 626 0238 FFF7FEFF 		bl	_test_assert
 627              	.LVL66:
ARM GAS  /tmp/ccbYmxgd.s 			page 12


 628 023c 0028     		cmp	r0, #0
 629 023e 7BD1     		bne	.L30
 630              	.LVL67:
 631              	.LBB430:
 632              	.LBB431:
 633              	.LBB432:
 634              	.LBB433:
 635              	.LBB434:
 636              		.loc 2 548 0
 637              	#APP
 638              	@ 548 "../os/ext/CMSIS/include/core_cmFunc.h" 1
 639 0240 84F31188 		MSR basepri, r4
 640              	@ 0 "" 2
 641              	.LVL68:
 642              		.thumb
 643              	.LBE434:
 644              	.LBE433:
 645              	.LBE432:
 646              	.LBE431:
 647              	.LBE430:
 648              	.LBB435:
 649              	.LBB436:
 650              	.LBB437:
 651              	.LBB438:
 652              	#APP
 653              	@ 548 "../os/ext/CMSIS/include/core_cmFunc.h" 1
 654 0244 86F31188 		MSR basepri, r6
 655              	@ 0 "" 2
 656              		.thumb
 657              	.LBE438:
 658              	.LBE437:
 659              	.LBE436:
 660              	.LBE435:
 661              		.loc 1 219 0
 662 0248 2968     		ldr	r1, [r5]
 663 024a EB68     		ldr	r3, [r5, #12]
 664 024c CB1A     		subs	r3, r1, r3
 665 024e 5942     		rsbs	r1, r3, #0
 666 0250 4FF02F00 		mov	r0, #47
 667 0254 5941     		adcs	r1, r1, r3
 668 0256 FFF7FEFF 		bl	_test_assert
 669              	.LVL69:
 670              	.L32:
 671              	.LBB439:
 672              	.LBB440:
 673              	.LBB441:
 674              	.LBB442:
 675              	.LBB443:
 676              		.loc 2 548 0
 677 025a 0023     		movs	r3, #0
 678              	.L22:
 679              	.LVL70:
 680              	.LBE443:
 681              	.LBE442:
 682              	.LBE441:
 683              	.LBE440:
 684              	.LBE439:
ARM GAS  /tmp/ccbYmxgd.s 			page 13


 685              	.LBB444:
 686              	.LBB445:
 687              	.LBB446:
 688              	.LBB447:
 689              	.LBB448:
 690              	#APP
 691              	@ 548 "../os/ext/CMSIS/include/core_cmFunc.h" 1
 692 025c 83F31188 		MSR basepri, r3
 693              	@ 0 "" 2
 694              		.thumb
 695              	.LBE448:
 696              	.LBE447:
 697              	.LBE446:
 698              	.LBE445:
 699              	.LBE444:
 700              		.loc 1 220 0
 701 0260 02B0     		add	sp, sp, #8
 702              		.cfi_remember_state
 703              		.cfi_def_cfa_offset 24
 704              		@ sp needed
 705 0262 BDE8F081 		pop	{r4, r5, r6, r7, r8, pc}
 706              	.LVL71:
 707              	.L34:
 708              		.cfi_restore_state
 709              		.loc 1 98 0
 710 0266 5821     		movs	r1, #88
 711 0268 0122     		movs	r2, #1
 712 026a 2846     		mov	r0, r5
 713 026c FFF7FEFF 		bl	chMBPost
 714              	.LVL72:
 715              		.loc 1 99 0
 716 0270 A0F1FF31 		sub	r1, r0, #-1
 717 0274 0420     		movs	r0, #4
 718              	.LVL73:
 719 0276 B1FA81F1 		clz	r1, r1
 720              	.LVL74:
 721 027a 4909     		lsrs	r1, r1, #5
 722 027c FFF7FEFF 		bl	_test_assert
 723              	.LVL75:
 724 0280 0446     		mov	r4, r0
 725              	.LVL76:
 726 0282 0028     		cmp	r0, #0
 727 0284 7FF4F2AE 		bne	.L1
 728              	.LVL77:
 729              	.LBB449:
 730              	.LBB450:
 731              	.LBB451:
 732              	.LBB452:
 733              		.loc 2 548 0
 734 0288 2027     		movs	r7, #32
 735              	#APP
 736              	@ 548 "../os/ext/CMSIS/include/core_cmFunc.h" 1
 737 028a 87F31188 		MSR basepri, r7
 738              	@ 0 "" 2
 739              		.thumb
 740              	.LBE452:
 741              	.LBE451:
ARM GAS  /tmp/ccbYmxgd.s 			page 14


 742              	.LBE450:
 743              	.LBE449:
 744              		.loc 1 101 0
 745 028e 5821     		movs	r1, #88
 746 0290 2846     		mov	r0, r5
 747 0292 FFF7FEFF 		bl	chMBPostI
 748              	.LVL78:
 749 0296 0146     		mov	r1, r0
 750              	.LVL79:
 751              	.LBB453:
 752              	.LBB454:
 753              	.LBB455:
 754              	.LBB456:
 755              	.LBB457:
 756              		.loc 2 548 0
 757              	#APP
 758              	@ 548 "../os/ext/CMSIS/include/core_cmFunc.h" 1
 759 0298 84F31188 		MSR basepri, r4
 760              	@ 0 "" 2
 761              		.thumb
 762              	.LBE457:
 763              	.LBE456:
 764              	.LBE455:
 765              	.LBE454:
 766              	.LBE453:
 767              		.loc 1 103 0
 768 029c 0520     		movs	r0, #5
 769              	.LVL80:
 770 029e A1F1FF31 		sub	r1, r1, #-1
 771              	.LVL81:
 772 02a2 B1FA81F1 		clz	r1, r1
 773              	.LVL82:
 774 02a6 4909     		lsrs	r1, r1, #5
 775 02a8 FFF7FEFF 		bl	_test_assert
 776              	.LVL83:
 777 02ac 0028     		cmp	r0, #0
 778 02ae 7FF4DDAE 		bne	.L1
 779              		.loc 1 104 0
 780 02b2 5821     		movs	r1, #88
 781 02b4 0122     		movs	r2, #1
 782 02b6 2846     		mov	r0, r5
 783 02b8 FFF7FEFF 		bl	chMBPostAhead
 784              	.LVL84:
 785              		.loc 1 105 0
 786 02bc A0F1FF31 		sub	r1, r0, #-1
 787 02c0 0620     		movs	r0, #6
 788              	.LVL85:
 789 02c2 B1FA81F1 		clz	r1, r1
 790              	.LVL86:
 791 02c6 4909     		lsrs	r1, r1, #5
 792 02c8 FFF7FEFF 		bl	_test_assert
 793              	.LVL87:
 794 02cc 0446     		mov	r4, r0
 795 02ce 0028     		cmp	r0, #0
 796 02d0 7FF4CCAE 		bne	.L1
 797              	.LVL88:
 798              	.LBB458:
ARM GAS  /tmp/ccbYmxgd.s 			page 15


 799              	.LBB459:
 800              	.LBB460:
 801              	.LBB461:
 802              		.loc 2 548 0
 803              	#APP
 804              	@ 548 "../os/ext/CMSIS/include/core_cmFunc.h" 1
 805 02d4 87F31188 		MSR basepri, r7
 806              	@ 0 "" 2
 807              		.thumb
 808              	.LBE461:
 809              	.LBE460:
 810              	.LBE459:
 811              	.LBE458:
 812              		.loc 1 107 0
 813 02d8 5821     		movs	r1, #88
 814 02da 2846     		mov	r0, r5
 815 02dc FFF7FEFF 		bl	chMBPostAheadI
 816              	.LVL89:
 817 02e0 0146     		mov	r1, r0
 818              	.LVL90:
 819              	.LBB462:
 820              	.LBB463:
 821              	.LBB464:
 822              	.LBB465:
 823              	.LBB466:
 824              		.loc 2 548 0
 825              	#APP
 826              	@ 548 "../os/ext/CMSIS/include/core_cmFunc.h" 1
 827 02e2 84F31188 		MSR basepri, r4
 828              	@ 0 "" 2
 829              		.thumb
 830              	.LBE466:
 831              	.LBE465:
 832              	.LBE464:
 833              	.LBE463:
 834              	.LBE462:
 835              		.loc 1 109 0
 836 02e6 0720     		movs	r0, #7
 837              	.LVL91:
 838 02e8 A1F1FF31 		sub	r1, r1, #-1
 839              	.LVL92:
 840 02ec B1FA81F1 		clz	r1, r1
 841              	.LVL93:
 842 02f0 4909     		lsrs	r1, r1, #5
 843 02f2 FFF7FEFF 		bl	_test_assert
 844              	.LVL94:
 845 02f6 8046     		mov	r8, r0
 846 02f8 0028     		cmp	r0, #0
 847 02fa 7FF4B7AE 		bne	.L1
 848              	.LVL95:
 849              	.LBB467:
 850              	.LBB468:
 851              	.LBB469:
 852              	.LBB470:
 853              		.loc 2 548 0
 854              	#APP
 855              	@ 548 "../os/ext/CMSIS/include/core_cmFunc.h" 1
ARM GAS  /tmp/ccbYmxgd.s 			page 16


 856 02fe 87F31188 		MSR basepri, r7
 857              	@ 0 "" 2
 858              	.LVL96:
 859              		.thumb
 860              	.LBE470:
 861              	.LBE469:
 862              	.LBE468:
 863              	.LBE467:
 864              		.loc 1 114 0
 865 0302 0820     		movs	r0, #8
 866 0304 696A     		ldr	r1, [r5, #36]
 867 0306 B1FA81F1 		clz	r1, r1
 868 030a 4909     		lsrs	r1, r1, #5
 869 030c FFF7FEFF 		bl	_test_assert
 870              	.LVL97:
 871 0310 0446     		mov	r4, r0
 872 0312 10B1     		cbz	r0, .L6
 873              	.LVL98:
 874              	.LBB471:
 875              	.LBB472:
 876              	.LBB473:
 877              	.LBB474:
 878              	.LBB475:
 879              		.loc 2 548 0
 880              	#APP
 881              	@ 548 "../os/ext/CMSIS/include/core_cmFunc.h" 1
 882 0314 88F31188 		MSR basepri, r8
 883              	@ 0 "" 2
 884              		.thumb
 885 0318 A8E6     		b	.L1
 886              	.LVL99:
 887              	.L6:
 888              	.LBE475:
 889              	.LBE474:
 890              	.LBE473:
 891              	.LBE472:
 892              	.LBE471:
 893              	.LBB476:
 894              	.LBB477:
 895              	.LBB478:
 896              	.LBB479:
 897              	.LBB480:
 898              	#APP
 899              	@ 548 "../os/ext/CMSIS/include/core_cmFunc.h" 1
 900 031a 80F31188 		MSR basepri, r0
 901              	@ 0 "" 2
 902              	.LVL100:
 903              		.thumb
 904              	.LBE480:
 905              	.LBE479:
 906              	.LBE478:
 907              	.LBE477:
 908              	.LBE476:
 909              	.LBB481:
 910              	.LBB482:
 911              	.LBB483:
 912              	.LBB484:
ARM GAS  /tmp/ccbYmxgd.s 			page 17


 913              	#APP
 914              	@ 548 "../os/ext/CMSIS/include/core_cmFunc.h" 1
 915 031e 87F31188 		MSR basepri, r7
 916              	@ 0 "" 2
 917              	.LVL101:
 918              		.thumb
 919              	.LBE484:
 920              	.LBE483:
 921              	.LBE482:
 922              	.LBE481:
 923              		.loc 1 115 0
 924 0322 A969     		ldr	r1, [r5, #24]
 925 0324 A1F1050E 		sub	lr, r1, #5
 926 0328 DEF10001 		rsbs	r1, lr, #0
 927 032c 41EB0E01 		adc	r1, r1, lr
 928 0330 0920     		movs	r0, #9
 929 0332 FFF7FEFF 		bl	_test_assert
 930              	.LVL102:
 931 0336 38B1     		cbz	r0, .L35
 932              	.LVL103:
 933              	.L30:
 934              	.LBB485:
 935              	.LBB486:
 936              	.LBB487:
 937              	.LBB488:
 938              	.LBB489:
 939              		.loc 2 548 0
 940              	#APP
 941              	@ 548 "../os/ext/CMSIS/include/core_cmFunc.h" 1
 942 0338 84F31188 		MSR basepri, r4
 943              	@ 0 "" 2
 944              		.thumb
 945 033c 96E6     		b	.L1
 946              	.L40:
 947 033e 00BF     		.align	2
 948              	.L39:
 949 0340 00000000 		.word	.LANCHOR0
 950 0344 00000000 		.word	.LC0
 951              	.LVL104:
 952              	.L35:
 953              	.LBE489:
 954              	.LBE488:
 955              	.LBE487:
 956              	.LBE486:
 957              	.LBE485:
 958              	.LBB490:
 959              	.LBB491:
 960              	.LBB492:
 961              	.LBB493:
 962              	.LBB494:
 963              	#APP
 964              	@ 548 "../os/ext/CMSIS/include/core_cmFunc.h" 1
 965 0348 80F31188 		MSR basepri, r0
 966              	@ 0 "" 2
 967              	.LVL105:
 968              		.thumb
 969              	.LBE494:
ARM GAS  /tmp/ccbYmxgd.s 			page 18


 970              	.LBE493:
 971              	.LBE492:
 972              	.LBE491:
 973              	.LBE490:
 974              	.LBB495:
 975              	.LBB496:
 976              	.LBB497:
 977              	.LBB498:
 978              	#APP
 979              	@ 548 "../os/ext/CMSIS/include/core_cmFunc.h" 1
 980 034c 87F31188 		MSR basepri, r7
 981              	@ 0 "" 2
 982              		.thumb
 983              	.LBE498:
 984              	.LBE497:
 985              	.LBE496:
 986              	.LBE495:
 987              		.loc 1 116 0
 988 0350 E968     		ldr	r1, [r5, #12]
 989 0352 AB68     		ldr	r3, [r5, #8]
 990 0354 CC1A     		subs	r4, r1, r3
 991 0356 6142     		rsbs	r1, r4, #0
 992 0358 4FF00A00 		mov	r0, #10
 993 035c 6141     		adcs	r1, r1, r4
 994 035e FFF7FEFF 		bl	_test_assert
 995              	.LVL106:
 996              	.LBB499:
 997              	.LBB500:
 998              	.LBB501:
 999              	.LBB502:
 1000              	.LBB503:
 1001              		.loc 2 548 0
 1002 0362 0023     		movs	r3, #0
 1003              	.LBE503:
 1004              	.LBE502:
 1005              	.LBE501:
 1006              	.LBE500:
 1007              	.LBE499:
 1008              		.loc 1 116 0
 1009 0364 0028     		cmp	r0, #0
 1010 0366 7FF479AF 		bne	.L22
 1011              	.LVL107:
 1012              	.LBB504:
 1013              	.LBB505:
 1014              	.LBB506:
 1015              	.LBB507:
 1016              	.LBB508:
 1017              		.loc 2 548 0
 1018              	#APP
 1019              	@ 548 "../os/ext/CMSIS/include/core_cmFunc.h" 1
 1020 036a 83F31188 		MSR basepri, r3
 1021              	@ 0 "" 2
 1022              	.LVL108:
 1023              		.thumb
 1024 036e 0525     		movs	r5, #5
 1025 0370 05E0     		b	.L9
 1026              	.LVL109:
ARM GAS  /tmp/ccbYmxgd.s 			page 19


 1027              	.L37:
 1028              	.LBE508:
 1029              	.LBE507:
 1030              	.LBE506:
 1031              	.LBE505:
 1032              	.LBE504:
 1033              		.loc 1 124 0 discriminator 2
 1034 0372 9DF80400 		ldrb	r0, [sp, #4]	@ zero_extendqisi2
 1035 0376 FFF7FEFF 		bl	test_emit_token
 1036              	.LVL110:
 1037              		.loc 1 121 0 discriminator 2
 1038 037a 013D     		subs	r5, r5, #1
 1039              	.LVL111:
 1040 037c 0FD0     		beq	.L36
 1041              	.LVL112:
 1042              	.L9:
 1043              		.loc 1 122 0
 1044 037e 954C     		ldr	r4, .L41
 1045 0380 01A9     		add	r1, sp, #4
 1046 0382 2046     		mov	r0, r4
 1047 0384 4FF0FF32 		mov	r2, #-1
 1048 0388 FFF7FEFF 		bl	chMBFetch
 1049              	.LVL113:
 1050              		.loc 1 123 0
 1051 038c B0FA80F1 		clz	r1, r0
 1052 0390 0B20     		movs	r0, #11
 1053              	.LVL114:
 1054 0392 4909     		lsrs	r1, r1, #5
 1055 0394 FFF7FEFF 		bl	_test_assert
 1056              	.LVL115:
 1057 0398 0028     		cmp	r0, #0
 1058 039a EAD0     		beq	.L37
 1059 039c 66E6     		b	.L1
 1060              	.L36:
 1061              		.loc 1 126 0
 1062 039e 0C20     		movs	r0, #12
 1063 03a0 8D49     		ldr	r1, .L41+4
 1064 03a2 FFF7FEFF 		bl	_test_assert_sequence
 1065              	.LVL116:
 1066 03a6 0028     		cmp	r0, #0
 1067 03a8 7FF460AE 		bne	.L1
 1068              		.loc 1 131 0
 1069 03ac 4721     		movs	r1, #71
 1070 03ae 2046     		mov	r0, r4
 1071 03b0 4FF0FF32 		mov	r2, #-1
 1072 03b4 FFF7FEFF 		bl	chMBPost
 1073              	.LVL117:
 1074              		.loc 1 132 0
 1075 03b8 B0FA80F1 		clz	r1, r0
 1076 03bc 0D20     		movs	r0, #13
 1077              	.LVL118:
 1078 03be 4909     		lsrs	r1, r1, #5
 1079 03c0 FFF7FEFF 		bl	_test_assert
 1080              	.LVL119:
 1081 03c4 0028     		cmp	r0, #0
 1082 03c6 7FF451AE 		bne	.L1
 1083              		.loc 1 133 0
ARM GAS  /tmp/ccbYmxgd.s 			page 20


 1084 03ca 01A9     		add	r1, sp, #4
 1085 03cc 2046     		mov	r0, r4
 1086 03ce 4FF0FF32 		mov	r2, #-1
 1087 03d2 FFF7FEFF 		bl	chMBFetch
 1088              	.LVL120:
 1089              		.loc 1 134 0
 1090 03d6 B0FA80F1 		clz	r1, r0
 1091 03da 0E20     		movs	r0, #14
 1092              	.LVL121:
 1093 03dc 4909     		lsrs	r1, r1, #5
 1094 03de FFF7FEFF 		bl	_test_assert
 1095              	.LVL122:
 1096 03e2 0028     		cmp	r0, #0
 1097 03e4 7FF442AE 		bne	.L1
 1098              		.loc 1 135 0
 1099 03e8 2168     		ldr	r1, [r4]
 1100 03ea A368     		ldr	r3, [r4, #8]
 1101 03ec CA1A     		subs	r2, r1, r3
 1102 03ee 5142     		rsbs	r1, r2, #0
 1103 03f0 5141     		adcs	r1, r1, r2
 1104 03f2 0F20     		movs	r0, #15
 1105 03f4 FFF7FEFF 		bl	_test_assert
 1106              	.LVL123:
 1107 03f8 0028     		cmp	r0, #0
 1108 03fa 7FF437AE 		bne	.L1
 1109              		.loc 1 136 0
 1110 03fe 2168     		ldr	r1, [r4]
 1111 0400 E368     		ldr	r3, [r4, #12]
 1112 0402 CB1A     		subs	r3, r1, r3
 1113 0404 5942     		rsbs	r1, r3, #0
 1114 0406 5941     		adcs	r1, r1, r3
 1115 0408 1020     		movs	r0, #16
 1116 040a FFF7FEFF 		bl	_test_assert
 1117              	.LVL124:
 1118 040e 0028     		cmp	r0, #0
 1119 0410 7FF42CAE 		bne	.L1
 1120              		.loc 1 141 0
 1121 0414 01A9     		add	r1, sp, #4
 1122 0416 2046     		mov	r0, r4
 1123 0418 0122     		movs	r2, #1
 1124 041a FFF7FEFF 		bl	chMBFetch
 1125              	.LVL125:
 1126              		.loc 1 142 0
 1127 041e 00F10108 		add	r8, r0, #1
 1128 0422 D8F10001 		rsbs	r1, r8, #0
 1129 0426 41EB0801 		adc	r1, r1, r8
 1130 042a 1120     		movs	r0, #17
 1131              	.LVL126:
 1132 042c FFF7FEFF 		bl	_test_assert
 1133              	.LVL127:
 1134 0430 0028     		cmp	r0, #0
 1135 0432 7FF41BAE 		bne	.L1
 1136              	.LVL128:
 1137              	.LBB509:
 1138              	.LBB510:
 1139              	.LBB511:
 1140              	.LBB512:
ARM GAS  /tmp/ccbYmxgd.s 			page 21


 1141              		.loc 2 548 0
 1142 0436 2027     		movs	r7, #32
 1143              	#APP
 1144              	@ 548 "../os/ext/CMSIS/include/core_cmFunc.h" 1
 1145 0438 87F31188 		MSR basepri, r7
 1146              	@ 0 "" 2
 1147              		.thumb
 1148              	.LBE512:
 1149              	.LBE511:
 1150              	.LBE510:
 1151              	.LBE509:
 1152              		.loc 1 144 0
 1153 043c 01A9     		add	r1, sp, #4
 1154 043e 2046     		mov	r0, r4
 1155 0440 FFF7FEFF 		bl	chMBFetchI
 1156              	.LVL129:
 1157 0444 0146     		mov	r1, r0
 1158              	.LVL130:
 1159              	.LBB513:
 1160              	.LBB514:
 1161              	.LBB515:
 1162              	.LBB516:
 1163              	.LBB517:
 1164              		.loc 2 548 0
 1165              	#APP
 1166              	@ 548 "../os/ext/CMSIS/include/core_cmFunc.h" 1
 1167 0446 85F31188 		MSR basepri, r5
 1168              	@ 0 "" 2
 1169              		.thumb
 1170              	.LBE517:
 1171              	.LBE516:
 1172              	.LBE515:
 1173              	.LBE514:
 1174              	.LBE513:
 1175              		.loc 1 146 0
 1176 044a 01F1010C 		add	ip, r1, #1
 1177 044e DCF10001 		rsbs	r1, ip, #0
 1178 0452 41EB0C01 		adc	r1, r1, ip
 1179 0456 1220     		movs	r0, #18
 1180              	.LVL131:
 1181 0458 FFF7FEFF 		bl	_test_assert
 1182              	.LVL132:
 1183 045c 0028     		cmp	r0, #0
 1184 045e 7FF405AE 		bne	.L1
 1185              	.LVL133:
 1186              	.LBB518:
 1187              	.LBB519:
 1188              	.LBB520:
 1189              	.LBB521:
 1190              		.loc 2 548 0
 1191              	#APP
 1192              	@ 548 "../os/ext/CMSIS/include/core_cmFunc.h" 1
 1193 0462 87F31188 		MSR basepri, r7
 1194              	@ 0 "" 2
 1195              	.LVL134:
 1196              		.thumb
 1197              	.LBE521:
ARM GAS  /tmp/ccbYmxgd.s 			page 22


 1198              	.LBE520:
 1199              	.LBE519:
 1200              	.LBE518:
 1201              		.loc 1 151 0
 1202 0466 616A     		ldr	r1, [r4, #36]
 1203 0468 A1F1050E 		sub	lr, r1, #5
 1204 046c DEF10001 		rsbs	r1, lr, #0
 1205 0470 41EB0E01 		adc	r1, r1, lr
 1206 0474 1320     		movs	r0, #19
 1207 0476 FFF7FEFF 		bl	_test_assert
 1208              	.LVL135:
 1209 047a 0028     		cmp	r0, #0
 1210 047c 7FF4EDAE 		bne	.L32
 1211              	.LVL136:
 1212              	.LBB522:
 1213              	.LBB523:
 1214              	.LBB524:
 1215              	.LBB525:
 1216              	.LBB526:
 1217              		.loc 2 548 0
 1218 0480 0027     		movs	r7, #0
 1219              	#APP
 1220              	@ 548 "../os/ext/CMSIS/include/core_cmFunc.h" 1
 1221 0482 87F31188 		MSR basepri, r7
 1222              	@ 0 "" 2
 1223              	.LVL137:
 1224              		.thumb
 1225              	.LBE526:
 1226              	.LBE525:
 1227              	.LBE524:
 1228              	.LBE523:
 1229              	.LBE522:
 1230              	.LBB527:
 1231              	.LBB528:
 1232              	.LBB529:
 1233              	.LBB530:
 1234 0486 2025     		movs	r5, #32
 1235              	.LVL138:
 1236              	#APP
 1237              	@ 548 "../os/ext/CMSIS/include/core_cmFunc.h" 1
 1238 0488 85F31188 		MSR basepri, r5
 1239              	@ 0 "" 2
 1240              	.LVL139:
 1241              		.thumb
 1242              	.LBE530:
 1243              	.LBE529:
 1244              	.LBE528:
 1245              	.LBE527:
 1246              		.loc 1 152 0
 1247 048c 1420     		movs	r0, #20
 1248 048e B169     		ldr	r1, [r6, #24]
 1249 0490 B1FA81F1 		clz	r1, r1
 1250 0494 4909     		lsrs	r1, r1, #5
 1251 0496 FFF7FEFF 		bl	_test_assert
 1252              	.LVL140:
 1253 049a 4E4C     		ldr	r4, .L41
 1254 049c 0646     		mov	r6, r0
ARM GAS  /tmp/ccbYmxgd.s 			page 23


 1255 049e 10B1     		cbz	r0, .L11
 1256              	.LVL141:
 1257              	.LBB531:
 1258              	.LBB532:
 1259              	.LBB533:
 1260              	.LBB534:
 1261              	.LBB535:
 1262              		.loc 2 548 0
 1263              	#APP
 1264              	@ 548 "../os/ext/CMSIS/include/core_cmFunc.h" 1
 1265 04a0 87F31188 		MSR basepri, r7
 1266              	@ 0 "" 2
 1267              		.thumb
 1268 04a4 E2E5     		b	.L1
 1269              	.LVL142:
 1270              	.L11:
 1271              	.LBE535:
 1272              	.LBE534:
 1273              	.LBE533:
 1274              	.LBE532:
 1275              	.LBE531:
 1276              	.LBB536:
 1277              	.LBB537:
 1278              	.LBB538:
 1279              	.LBB539:
 1280              	.LBB540:
 1281              	#APP
 1282              	@ 548 "../os/ext/CMSIS/include/core_cmFunc.h" 1
 1283 04a6 80F31188 		MSR basepri, r0
 1284              	@ 0 "" 2
 1285              	.LVL143:
 1286              		.thumb
 1287              	.LBE540:
 1288              	.LBE539:
 1289              	.LBE538:
 1290              	.LBE537:
 1291              	.LBE536:
 1292              	.LBB541:
 1293              	.LBB542:
 1294              	.LBB543:
 1295              	.LBB544:
 1296              	#APP
 1297              	@ 548 "../os/ext/CMSIS/include/core_cmFunc.h" 1
 1298 04aa 85F31188 		MSR basepri, r5
 1299              	@ 0 "" 2
 1300              		.thumb
 1301              	.LBE544:
 1302              	.LBE543:
 1303              	.LBE542:
 1304              	.LBE541:
 1305              		.loc 1 153 0
 1306 04ae E168     		ldr	r1, [r4, #12]
 1307 04b0 A368     		ldr	r3, [r4, #8]
 1308 04b2 CF1A     		subs	r7, r1, r3
 1309 04b4 7942     		rsbs	r1, r7, #0
 1310 04b6 7941     		adcs	r1, r1, r7
 1311 04b8 1520     		movs	r0, #21
ARM GAS  /tmp/ccbYmxgd.s 			page 24


 1312 04ba FFF7FEFF 		bl	_test_assert
 1313              	.LVL144:
 1314 04be 10B1     		cbz	r0, .L12
 1315              	.LVL145:
 1316              	.LBB545:
 1317              	.LBB546:
 1318              	.LBB547:
 1319              	.LBB548:
 1320              	.LBB549:
 1321              		.loc 2 548 0
 1322              	#APP
 1323              	@ 548 "../os/ext/CMSIS/include/core_cmFunc.h" 1
 1324 04c0 86F31188 		MSR basepri, r6
 1325              	@ 0 "" 2
 1326              		.thumb
 1327 04c4 D2E5     		b	.L1
 1328              	.LVL146:
 1329              	.L12:
 1330              	.LBE549:
 1331              	.LBE548:
 1332              	.LBE547:
 1333              	.LBE546:
 1334              	.LBE545:
 1335              	.LBB550:
 1336              	.LBB551:
 1337              	.LBB552:
 1338              	.LBB553:
 1339              	.LBB554:
 1340              	#APP
 1341              	@ 548 "../os/ext/CMSIS/include/core_cmFunc.h" 1
 1342 04c6 80F31188 		MSR basepri, r0
 1343              	@ 0 "" 2
 1344              	.LVL147:
 1345              		.thumb
 1346              	.LBE554:
 1347              	.LBE553:
 1348              	.LBE552:
 1349              	.LBE551:
 1350              	.LBE550:
 1351              	.LBB555:
 1352              	.LBB556:
 1353              	.LBB557:
 1354              	.LBB558:
 1355              	#APP
 1356              	@ 548 "../os/ext/CMSIS/include/core_cmFunc.h" 1
 1357 04ca 85F31188 		MSR basepri, r5
 1358              	@ 0 "" 2
 1359              		.thumb
 1360              	.LBE558:
 1361              	.LBE557:
 1362              	.LBE556:
 1363              	.LBE555:
 1364              		.loc 1 159 0
 1365 04ce 4121     		movs	r1, #65
 1366 04d0 2046     		mov	r0, r4
 1367 04d2 FFF7FEFF 		bl	chMBPostI
 1368              	.LVL148:
ARM GAS  /tmp/ccbYmxgd.s 			page 25


 1369              		.loc 1 160 0
 1370 04d6 B0FA80F1 		clz	r1, r0
 1371 04da 1620     		movs	r0, #22
 1372              	.LVL149:
 1373 04dc 4909     		lsrs	r1, r1, #5
 1374 04de FFF7FEFF 		bl	_test_assert
 1375              	.LVL150:
 1376 04e2 0028     		cmp	r0, #0
 1377 04e4 7FF4C2AD 		bne	.L1
 1378              		.loc 1 161 0
 1379 04e8 4221     		movs	r1, #66
 1380 04ea 2046     		mov	r0, r4
 1381 04ec FFF7FEFF 		bl	chMBPostI
 1382              	.LVL151:
 1383              		.loc 1 162 0
 1384 04f0 B0FA80F1 		clz	r1, r0
 1385 04f4 1720     		movs	r0, #23
 1386              	.LVL152:
 1387 04f6 4909     		lsrs	r1, r1, #5
 1388 04f8 FFF7FEFF 		bl	_test_assert
 1389              	.LVL153:
 1390 04fc 0028     		cmp	r0, #0
 1391 04fe 7FF4B5AD 		bne	.L1
 1392              		.loc 1 163 0
 1393 0502 4321     		movs	r1, #67
 1394 0504 2046     		mov	r0, r4
 1395 0506 FFF7FEFF 		bl	chMBPostI
 1396              	.LVL154:
 1397              		.loc 1 164 0
 1398 050a B0FA80F1 		clz	r1, r0
 1399 050e 1820     		movs	r0, #24
 1400              	.LVL155:
 1401 0510 4909     		lsrs	r1, r1, #5
 1402 0512 FFF7FEFF 		bl	_test_assert
 1403              	.LVL156:
 1404 0516 0028     		cmp	r0, #0
 1405 0518 7FF4A8AD 		bne	.L1
 1406              		.loc 1 165 0
 1407 051c 4421     		movs	r1, #68
 1408 051e 2046     		mov	r0, r4
 1409 0520 FFF7FEFF 		bl	chMBPostI
 1410              	.LVL157:
 1411              		.loc 1 166 0
 1412 0524 B0FA80F1 		clz	r1, r0
 1413 0528 1920     		movs	r0, #25
 1414              	.LVL158:
 1415 052a 4909     		lsrs	r1, r1, #5
 1416 052c FFF7FEFF 		bl	_test_assert
 1417              	.LVL159:
 1418 0530 0646     		mov	r6, r0
 1419 0532 0028     		cmp	r0, #0
 1420 0534 7FF49AAD 		bne	.L1
 1421              		.loc 1 167 0
 1422 0538 2046     		mov	r0, r4
 1423 053a 4521     		movs	r1, #69
 1424 053c FFF7FEFF 		bl	chMBPostI
 1425              	.LVL160:
ARM GAS  /tmp/ccbYmxgd.s 			page 26


 1426 0540 0146     		mov	r1, r0
 1427              	.LVL161:
 1428              	.LBB559:
 1429              	.LBB560:
 1430              	.LBB561:
 1431              	.LBB562:
 1432              	.LBB563:
 1433              		.loc 2 548 0
 1434              	#APP
 1435              	@ 548 "../os/ext/CMSIS/include/core_cmFunc.h" 1
 1436 0542 86F31188 		MSR basepri, r6
 1437              	@ 0 "" 2
 1438              		.thumb
 1439              	.LBE563:
 1440              	.LBE562:
 1441              	.LBE561:
 1442              	.LBE560:
 1443              	.LBE559:
 1444              		.loc 1 169 0
 1445 0546 1A20     		movs	r0, #26
 1446              	.LVL162:
 1447 0548 B1FA81F1 		clz	r1, r1
 1448              	.LVL163:
 1449 054c 4909     		lsrs	r1, r1, #5
 1450 054e FFF7FEFF 		bl	_test_assert
 1451              	.LVL164:
 1452 0552 0028     		cmp	r0, #0
 1453 0554 7FF48AAD 		bne	.L1
 1454              		.loc 1 170 0
 1455 0558 E168     		ldr	r1, [r4, #12]
 1456 055a A368     		ldr	r3, [r4, #8]
 1457 055c CC1A     		subs	r4, r1, r3
 1458 055e 6142     		rsbs	r1, r4, #0
 1459 0560 6141     		adcs	r1, r1, r4
 1460 0562 1B20     		movs	r0, #27
 1461 0564 FFF7FEFF 		bl	_test_assert
 1462              	.LVL165:
 1463 0568 0028     		cmp	r0, #0
 1464 056a 7FF47FAD 		bne	.L1
 1465              	.LBB564:
 1466              	.LBB565:
 1467              	.LBB566:
 1468              	.LBB567:
 1469              		.loc 2 548 0
 1470 056e 2E46     		mov	r6, r5
 1471              	.LBE567:
 1472              	.LBE566:
 1473              	.LBE565:
 1474              	.LBE564:
 1475              	.LBB571:
 1476              	.LBB572:
 1477              	.LBB573:
 1478              	.LBB574:
 1479              	.LBB575:
 1480 0570 8046     		mov	r8, r0
 1481              	.LBE575:
 1482              	.LBE574:
ARM GAS  /tmp/ccbYmxgd.s 			page 27


 1483              	.LBE573:
 1484              	.LBE572:
 1485              	.LBE571:
 1486 0572 0525     		movs	r5, #5
 1487              	.L13:
 1488              	.LVL166:
 1489              	.LBB580:
 1490              	.LBB570:
 1491              	.LBB569:
 1492              	.LBB568:
 1493 0574 2027     		movs	r7, #32
 1494              	#APP
 1495              	@ 548 "../os/ext/CMSIS/include/core_cmFunc.h" 1
 1496 0576 86F31188 		MSR basepri, r6
 1497              	@ 0 "" 2
 1498              		.thumb
 1499              	.LBE568:
 1500              	.LBE569:
 1501              	.LBE570:
 1502              	.LBE580:
 1503              		.loc 1 173 0
 1504 057a 164C     		ldr	r4, .L41
 1505 057c 01A9     		add	r1, sp, #4
 1506 057e 2046     		mov	r0, r4
 1507 0580 FFF7FEFF 		bl	chMBFetchI
 1508              	.LVL167:
 1509 0584 0146     		mov	r1, r0
 1510              	.LVL168:
 1511              	.LBB581:
 1512              	.LBB579:
 1513              	.LBB578:
 1514              	.LBB577:
 1515              	.LBB576:
 1516              		.loc 2 548 0
 1517              	#APP
 1518              	@ 548 "../os/ext/CMSIS/include/core_cmFunc.h" 1
 1519 0586 88F31188 		MSR basepri, r8
 1520              	@ 0 "" 2
 1521              		.thumb
 1522              	.LBE576:
 1523              	.LBE577:
 1524              	.LBE578:
 1525              	.LBE579:
 1526              	.LBE581:
 1527              		.loc 1 175 0
 1528 058a 1C20     		movs	r0, #28
 1529              	.LVL169:
 1530 058c B1FA81F1 		clz	r1, r1
 1531              	.LVL170:
 1532 0590 4909     		lsrs	r1, r1, #5
 1533 0592 FFF7FEFF 		bl	_test_assert
 1534              	.LVL171:
 1535 0596 0028     		cmp	r0, #0
 1536 0598 7FF468AD 		bne	.L1
 1537              		.loc 1 176 0 discriminator 2
 1538 059c 9DF80400 		ldrb	r0, [sp, #4]	@ zero_extendqisi2
 1539 05a0 FFF7FEFF 		bl	test_emit_token
ARM GAS  /tmp/ccbYmxgd.s 			page 28


 1540              	.LVL172:
 1541              		.loc 1 171 0 discriminator 2
 1542 05a4 013D     		subs	r5, r5, #1
 1543              	.LVL173:
 1544 05a6 E5D1     		bne	.L13
 1545              		.loc 1 178 0
 1546 05a8 1D20     		movs	r0, #29
 1547 05aa 0B49     		ldr	r1, .L41+4
 1548 05ac FFF7FEFF 		bl	_test_assert_sequence
 1549              	.LVL174:
 1550 05b0 0028     		cmp	r0, #0
 1551 05b2 7FF45BAD 		bne	.L1
 1552              	.LVL175:
 1553              	.LBB582:
 1554              	.LBB583:
 1555              	.LBB584:
 1556              	.LBB585:
 1557              		.loc 2 548 0
 1558              	#APP
 1559              	@ 548 "../os/ext/CMSIS/include/core_cmFunc.h" 1
 1560 05b6 87F31188 		MSR basepri, r7
 1561              	@ 0 "" 2
 1562              	.LVL176:
 1563              		.thumb
 1564              	.LBE585:
 1565              	.LBE584:
 1566              	.LBE583:
 1567              	.LBE582:
 1568              		.loc 1 179 0
 1569 05ba 616A     		ldr	r1, [r4, #36]
 1570 05bc 4A1F     		subs	r2, r1, #5
 1571 05be 5142     		rsbs	r1, r2, #0
 1572 05c0 5141     		adcs	r1, r1, r2
 1573 05c2 1E20     		movs	r0, #30
 1574 05c4 FFF7FEFF 		bl	_test_assert
 1575              	.LVL177:
 1576 05c8 0028     		cmp	r0, #0
 1577 05ca 3FF452AD 		beq	.L38
 1578              	.LVL178:
 1579              	.L31:
 1580              	.LBB586:
 1581              	.LBB587:
 1582              	.LBB588:
 1583              	.LBB589:
 1584              	.LBB590:
 1585              		.loc 2 548 0
 1586              	#APP
 1587              	@ 548 "../os/ext/CMSIS/include/core_cmFunc.h" 1
 1588 05ce 85F31188 		MSR basepri, r5
 1589              	@ 0 "" 2
 1590              		.thumb
 1591 05d2 4BE5     		b	.L1
 1592              	.L42:
 1593              		.align	2
 1594              	.L41:
 1595 05d4 00000000 		.word	.LANCHOR0
 1596 05d8 00000000 		.word	.LC0
ARM GAS  /tmp/ccbYmxgd.s 			page 29


 1597              	.LBE590:
 1598              	.LBE589:
 1599              	.LBE588:
 1600              	.LBE587:
 1601              	.LBE586:
 1602              		.cfi_endproc
 1603              	.LFE231:
 1604              		.size	mbox1_execute, .-mbox1_execute
 1605 05dc AFF30080 		.section	.text.mbox1_setup,"ax",%progbits
 1606              		.align	2
 1607              		.p2align 4,,15
 1608              		.thumb
 1609              		.thumb_func
 1610              		.type	mbox1_setup, %function
 1611              	mbox1_setup:
 1612              	.LFB230:
 1613              		.loc 1 71 0
 1614              		.cfi_startproc
 1615              		@ args = 0, pretend = 0, frame = 0
 1616              		@ frame_needed = 0, uses_anonymous_args = 0
 1617              		@ link register save eliminated.
 1618              		.loc 1 73 0
 1619 0000 0248     		ldr	r0, .L44
 1620 0002 0349     		ldr	r1, .L44+4
 1621 0004 0522     		movs	r2, #5
 1622 0006 FFF7FEBF 		b	chMBObjectInit
 1623              	.LVL179:
 1624              	.L45:
 1625 000a 00BF     		.align	2
 1626              	.L44:
 1627 000c 00000000 		.word	.LANCHOR0
 1628 0010 00000000 		.word	test
 1629              		.cfi_endproc
 1630              	.LFE230:
 1631              		.size	mbox1_setup, .-mbox1_setup
 1632              		.global	patternmbox
 1633              		.global	testmbox1
 1634 0014 AFF30080 		.section	.data.mb1,"aw",%progbits
 1634      AFF30080 
 1634      AFF30080 
 1635              		.align	2
 1636              	.LANCHOR0 = . + 0
 1637              		.type	mb1, %object
 1638              		.size	mb1, 40
 1639              	mb1:
 1640 0000 00000000 		.word	test
 1641 0004 14000000 		.word	test+20
 1642 0008 00000000 		.word	test
 1643 000c 00000000 		.word	test
 1644 0010 10000000 		.word	mb1+16
 1645 0014 10000000 		.word	mb1+16
 1646 0018 00000000 		.word	0
 1647 001c 1C000000 		.word	mb1+28
 1648 0020 1C000000 		.word	mb1+28
 1649 0024 05000000 		.word	5
 1650              		.section	.rodata.patternmbox,"a",%progbits
 1651              		.align	2
ARM GAS  /tmp/ccbYmxgd.s 			page 30


 1652              		.type	patternmbox, %object
 1653              		.size	patternmbox, 8
 1654              	patternmbox:
 1655 0000 00000000 		.word	testmbox1
 1656 0004 00000000 		.word	0
 1657              		.section	.rodata.str1.4,"aMS",%progbits,1
 1658              		.align	2
 1659              	.LC0:
 1660 0000 41424344 		.ascii	"ABCDE\000"
 1660      4500
 1661 0006 0000     		.space	2
 1662              	.LC1:
 1663 0008 4D61696C 		.ascii	"Mailboxes, queuing and timeouts\000"
 1663      626F7865 
 1663      732C2071 
 1663      75657569 
 1663      6E672061 
 1664              		.section	.rodata.testmbox1,"a",%progbits
 1665              		.align	2
 1666              		.type	testmbox1, %object
 1667              		.size	testmbox1, 16
 1668              	testmbox1:
 1669 0000 08000000 		.word	.LC1
 1670 0004 00000000 		.word	mbox1_setup
 1671 0008 00000000 		.word	0
 1672 000c 00000000 		.word	mbox1_execute
 1673              		.text
 1674              	.Letext0:
 1675              		.file 3 "/usr/lib/gcc/arm-linux-gnueabihf/4.9/include/stddef.h"
 1676              		.file 4 "/usr/include/stdint.h"
 1677              		.file 5 "../os/rt/ports/ARMCMx/compilers/GCC/chtypes.h"
 1678              		.file 6 "../os/rt/include/chsystypes.h"
 1679              		.file 7 "../os/rt/include/chschd.h"
 1680              		.file 8 "../os/rt/ports/ARMCMx/chcore.h"
 1681              		.file 9 "../os/rt/ports/ARMCMx/chcore_v7m.h"
 1682              		.file 10 "../os/rt/include/chsem.h"
 1683              		.file 11 "../os/rt/include/chmtx.h"
 1684              		.file 12 "../os/rt/include/chmboxes.h"
 1685              		.file 13 "../test/rt/test.h"
 1686              		.file 14 "../os/rt/include/chsys.h"
 1687              		.file 15 "../os/ext/CMSIS/include/core_cm4.h"
 7294              		.section	.note.GNU-stack,"",%progbits
ARM GAS  /tmp/ccbYmxgd.s 			page 135

