ARM GAS  /tmp/ccf3ZVgt.s 			page 1


   1              		.syntax unified
   2              		.cpu cortex-m4
   3              		.fpu softvfp
   4              		.eabi_attribute 20, 1
   5              		.eabi_attribute 21, 1
   6              		.eabi_attribute 23, 3
   7              		.eabi_attribute 24, 1
   8              		.eabi_attribute 25, 1
   9              		.eabi_attribute 26, 2
  10              		.eabi_attribute 30, 2
  11              		.eabi_attribute 34, 1
  12              		.eabi_attribute 18, 4
  13              		.thumb
  14              		.file	"testsys.c"
  15              		.text
  16              	.Ltext0:
  17              		.cfi_sections	.debug_frame
  18              		.section	.text.sys2_execute,"ax",%progbits
  19              		.align	2
  20              		.p2align 4,,15
  21              		.thumb
  22              		.thumb_func
  23              		.type	sys2_execute, %function
  24              	sys2_execute:
  25              	.LFB232:
  26              		.file 1 "../test/rt/testsys.c"
  27              		.loc 1 115 0
  28              		.cfi_startproc
  29              		@ args = 0, pretend = 0, frame = 0
  30              		@ frame_needed = 0, uses_anonymous_args = 0
  31              		@ link register save eliminated.
  32              	.LVL0:
  33              	.LBB324:
  34              	.LBB325:
  35              	.LBB326:
  36              	.LBB327:
  37              		.file 2 "../os/ext/CMSIS/include/core_cmFunc.h"
  38              		.loc 2 548 0
  39 0000 2023     		movs	r3, #32
  40              	#APP
  41              	@ 548 "../os/ext/CMSIS/include/core_cmFunc.h" 1
  42 0002 83F31188 		MSR basepri, r3
  43              	@ 0 "" 2
  44              		.thumb
  45              	.LBE327:
  46              	.LBE326:
  47              	.LBB328:
  48              	.LBB329:
  49              		.loc 2 333 0
  50              	#APP
  51              	@ 333 "../os/ext/CMSIS/include/core_cmFunc.h" 1
  52 0006 62B6     		cpsie i
  53              	@ 0 "" 2
  54              		.thumb
  55              	.LBE329:
  56              	.LBE328:
  57              	.LBE325:
ARM GAS  /tmp/ccf3ZVgt.s 			page 2


  58              	.LBE324:
  59              	.LBB330:
  60              	.LBB331:
  61              	.LBB332:
  62              	.LBB333:
  63              		.loc 2 344 0
  64              	#APP
  65              	@ 344 "../os/ext/CMSIS/include/core_cmFunc.h" 1
  66 0008 72B6     		cpsid i
  67              	@ 0 "" 2
  68              	.LVL1:
  69              		.thumb
  70              	.LBE333:
  71              	.LBE332:
  72              	.LBE331:
  73              	.LBE330:
  74              	.LBB334:
  75              	.LBB335:
  76              	.LBB336:
  77              	.LBB337:
  78              		.loc 2 548 0
  79              	#APP
  80              	@ 548 "../os/ext/CMSIS/include/core_cmFunc.h" 1
  81 000a 83F31188 		MSR basepri, r3
  82              	@ 0 "" 2
  83              		.thumb
  84              	.LBE337:
  85              	.LBE336:
  86              	.LBB338:
  87              	.LBB339:
  88              		.loc 2 333 0
  89              	#APP
  90              	@ 333 "../os/ext/CMSIS/include/core_cmFunc.h" 1
  91 000e 62B6     		cpsie i
  92              	@ 0 "" 2
  93              	.LVL2:
  94              		.thumb
  95              	.LBE339:
  96              	.LBE338:
  97              	.LBE335:
  98              	.LBE334:
  99              	.LBB340:
 100              	.LBB341:
 101              	.LBB342:
 102              	.LBB343:
 103              		.loc 2 548 0
 104 0010 0023     		movs	r3, #0
 105              	#APP
 106              	@ 548 "../os/ext/CMSIS/include/core_cmFunc.h" 1
 107 0012 83F31188 		MSR basepri, r3
 108              	@ 0 "" 2
 109              		.thumb
 110              	.LBE343:
 111              	.LBE342:
 112              	.LBB344:
 113              	.LBB345:
 114              		.loc 2 333 0
ARM GAS  /tmp/ccf3ZVgt.s 			page 3


 115              	#APP
 116              	@ 333 "../os/ext/CMSIS/include/core_cmFunc.h" 1
 117 0016 62B6     		cpsie i
 118              	@ 0 "" 2
 119              		.thumb
 120 0018 7047     		bx	lr
 121              	.LBE345:
 122              	.LBE344:
 123              	.LBE341:
 124              	.LBE340:
 125              		.cfi_endproc
 126              	.LFE232:
 127              		.size	sys2_execute, .-sys2_execute
 128 001a 00BFAFF3 		.section	.text.vtcb,"ax",%progbits
 128      0080
 129              		.align	2
 130              		.p2align 4,,15
 131              		.thumb
 132              		.thumb_func
 133              		.type	vtcb, %function
 134              	vtcb:
 135              	.LFB230:
 136              		.loc 1 53 0
 137              		.cfi_startproc
 138              		@ args = 0, pretend = 0, frame = 0
 139              		@ frame_needed = 0, uses_anonymous_args = 0
 140              	.LVL3:
 141 0000 10B5     		push	{r4, lr}
 142              		.cfi_def_cfa_offset 8
 143              		.cfi_offset 4, -8
 144              		.cfi_offset 14, -4
 145              	.LBB346:
 146              	.LBB347:
 147              	.LBB348:
 148              	.LBB349:
 149              	.LBB350:
 150              		.loc 2 548 0
 151 0002 2023     		movs	r3, #32
 152              	#APP
 153              	@ 548 "../os/ext/CMSIS/include/core_cmFunc.h" 1
 154 0004 83F31188 		MSR basepri, r3
 155              	@ 0 "" 2
 156              	.LVL4:
 157              		.thumb
 158              	.LBE350:
 159              	.LBE349:
 160              	.LBE348:
 161              	.LBE347:
 162              	.LBE346:
 163              	.LBB351:
 164              	.LBB352:
 165              	.LBB353:
 166              	.LBB354:
 167              	.LBB355:
 168 0008 0024     		movs	r4, #0
 169              	#APP
 170              	@ 548 "../os/ext/CMSIS/include/core_cmFunc.h" 1
ARM GAS  /tmp/ccf3ZVgt.s 			page 4


 171 000a 84F31188 		MSR basepri, r4
 172              	@ 0 "" 2
 173              	.LVL5:
 174              		.thumb
 175              	.LBE355:
 176              	.LBE354:
 177              	.LBE353:
 178              	.LBE352:
 179              	.LBE351:
 180              	.LBB356:
 181              	.LBB357:
 182              	.LBB358:
 183              	.LBB359:
 184              	.LBB360:
 185              	#APP
 186              	@ 548 "../os/ext/CMSIS/include/core_cmFunc.h" 1
 187 000e 83F31188 		MSR basepri, r3
 188              	@ 0 "" 2
 189              		.thumb
 190              	.LBE360:
 191              	.LBE359:
 192              	.LBE358:
 193              	.LBE357:
 194              	.LBE356:
 195              		.loc 1 64 0
 196 0012 FFF7FEFF 		bl	chSysGetStatusAndLockX
 197              	.LVL6:
 198              		.loc 1 65 0
 199 0016 FFF7FEFF 		bl	chSysRestoreStatusX
 200              	.LVL7:
 201              	.LBB361:
 202              	.LBB362:
 203              	.LBB363:
 204              	.LBB364:
 205              	.LBB365:
 206              		.loc 2 548 0
 207              	#APP
 208              	@ 548 "../os/ext/CMSIS/include/core_cmFunc.h" 1
 209 001a 84F31188 		MSR basepri, r4
 210              	@ 0 "" 2
 211              		.thumb
 212 001e 10BD     		pop	{r4, pc}
 213              	.LBE365:
 214              	.LBE364:
 215              	.LBE363:
 216              	.LBE362:
 217              	.LBE361:
 218              		.cfi_endproc
 219              	.LFE230:
 220              		.size	vtcb, .-vtcb
 221              		.section	.text.sys3_execute,"ax",%progbits
 222              		.align	2
 223              		.p2align 4,,15
 224              		.thumb
 225              		.thumb_func
 226              		.type	sys3_execute, %function
 227              	sys3_execute:
ARM GAS  /tmp/ccf3ZVgt.s 			page 5


 228              	.LFB233:
 229              		.loc 1 138 0
 230              		.cfi_startproc
 231              		@ args = 0, pretend = 0, frame = 0
 232              		@ frame_needed = 0, uses_anonymous_args = 0
 233              	.LVL8:
 234 0000 38B5     		push	{r3, r4, r5, lr}
 235              		.cfi_def_cfa_offset 16
 236              		.cfi_offset 3, -16
 237              		.cfi_offset 4, -12
 238              		.cfi_offset 5, -8
 239              		.cfi_offset 14, -4
 240              	.LBB431:
 241              	.LBB432:
 242              	.LBB433:
 243              	.LBB434:
 244              		.loc 2 548 0
 245 0002 2024     		movs	r4, #32
 246              	#APP
 247              	@ 548 "../os/ext/CMSIS/include/core_cmFunc.h" 1
 248 0004 84F31188 		MSR basepri, r4
 249              	@ 0 "" 2
 250              		.thumb
 251              	.LBE434:
 252              	.LBE433:
 253              	.LBE432:
 254              	.LBE431:
 255              		.loc 1 142 0
 256 0008 0120     		movs	r0, #1
 257 000a FFF7FEFF 		bl	chSysIntegrityCheckI
 258              	.LVL9:
 259              	.LBB435:
 260              	.LBB436:
 261              	.LBB437:
 262              	.LBB438:
 263              	.LBB439:
 264              		.loc 2 548 0
 265 000e 0023     		movs	r3, #0
 266              	#APP
 267              	@ 548 "../os/ext/CMSIS/include/core_cmFunc.h" 1
 268 0010 83F31188 		MSR basepri, r3
 269              	@ 0 "" 2
 270              		.thumb
 271              	.LBE439:
 272              	.LBE438:
 273              	.LBE437:
 274              	.LBE436:
 275              	.LBE435:
 276              		.loc 1 144 0
 277 0014 80F00101 		eor	r1, r0, #1
 278 0018 C9B2     		uxtb	r1, r1
 279 001a 0120     		movs	r0, #1
 280              	.LVL10:
 281 001c FFF7FEFF 		bl	_test_assert
 282              	.LVL11:
 283 0020 0546     		mov	r5, r0
 284 0022 00B1     		cbz	r0, .L10
ARM GAS  /tmp/ccf3ZVgt.s 			page 6


 285              	.L4:
 286 0024 38BD     		pop	{r3, r4, r5, pc}
 287              	.L10:
 288              	.LVL12:
 289              	.LBB440:
 290              	.LBB441:
 291              	.LBB442:
 292              	.LBB443:
 293              		.loc 2 548 0
 294              	#APP
 295              	@ 548 "../os/ext/CMSIS/include/core_cmFunc.h" 1
 296 0026 84F31188 		MSR basepri, r4
 297              	@ 0 "" 2
 298              		.thumb
 299              	.LBE443:
 300              	.LBE442:
 301              	.LBE441:
 302              	.LBE440:
 303              		.loc 1 147 0
 304 002a 0220     		movs	r0, #2
 305 002c FFF7FEFF 		bl	chSysIntegrityCheckI
 306              	.LVL13:
 307              	.LBB444:
 308              	.LBB445:
 309              	.LBB446:
 310              	.LBB447:
 311              	.LBB448:
 312              		.loc 2 548 0
 313              	#APP
 314              	@ 548 "../os/ext/CMSIS/include/core_cmFunc.h" 1
 315 0030 85F31188 		MSR basepri, r5
 316              	@ 0 "" 2
 317              		.thumb
 318              	.LBE448:
 319              	.LBE447:
 320              	.LBE446:
 321              	.LBE445:
 322              	.LBE444:
 323              		.loc 1 149 0
 324 0034 80F00101 		eor	r1, r0, #1
 325 0038 C9B2     		uxtb	r1, r1
 326 003a 0220     		movs	r0, #2
 327              	.LVL14:
 328 003c FFF7FEFF 		bl	_test_assert
 329              	.LVL15:
 330 0040 0546     		mov	r5, r0
 331 0042 0028     		cmp	r0, #0
 332 0044 EED1     		bne	.L4
 333              	.LVL16:
 334              	.LBB449:
 335              	.LBB450:
 336              	.LBB451:
 337              	.LBB452:
 338              		.loc 2 548 0
 339              	#APP
 340              	@ 548 "../os/ext/CMSIS/include/core_cmFunc.h" 1
 341 0046 84F31188 		MSR basepri, r4
ARM GAS  /tmp/ccf3ZVgt.s 			page 7


 342              	@ 0 "" 2
 343              		.thumb
 344              	.LBE452:
 345              	.LBE451:
 346              	.LBE450:
 347              	.LBE449:
 348              		.loc 1 152 0
 349 004a 0420     		movs	r0, #4
 350 004c FFF7FEFF 		bl	chSysIntegrityCheckI
 351              	.LVL17:
 352              	.LBB453:
 353              	.LBB454:
 354              	.LBB455:
 355              	.LBB456:
 356              	.LBB457:
 357              		.loc 2 548 0
 358              	#APP
 359              	@ 548 "../os/ext/CMSIS/include/core_cmFunc.h" 1
 360 0050 85F31188 		MSR basepri, r5
 361              	@ 0 "" 2
 362              		.thumb
 363              	.LBE457:
 364              	.LBE456:
 365              	.LBE455:
 366              	.LBE454:
 367              	.LBE453:
 368              		.loc 1 154 0
 369 0054 80F00101 		eor	r1, r0, #1
 370 0058 C9B2     		uxtb	r1, r1
 371 005a 0320     		movs	r0, #3
 372              	.LVL18:
 373 005c FFF7FEFF 		bl	_test_assert
 374              	.LVL19:
 375 0060 0546     		mov	r5, r0
 376 0062 0028     		cmp	r0, #0
 377 0064 DED1     		bne	.L4
 378              	.LVL20:
 379              	.LBB458:
 380              	.LBB459:
 381              	.LBB460:
 382              	.LBB461:
 383              	.LBB462:
 384              	.LBB463:
 385              		.loc 2 548 0
 386              	#APP
 387              	@ 548 "../os/ext/CMSIS/include/core_cmFunc.h" 1
 388 0066 84F31188 		MSR basepri, r4
 389              	@ 0 "" 2
 390              		.thumb
 391              	.LBE463:
 392              	.LBE462:
 393              	.LBE461:
 394              	.LBE460:
 395              		.loc 1 157 0
 396 006a 0820     		movs	r0, #8
 397 006c FFF7FEFF 		bl	chSysIntegrityCheckI
 398              	.LVL21:
ARM GAS  /tmp/ccf3ZVgt.s 			page 8


 399              	.LBB464:
 400              	.LBB465:
 401              	.LBB466:
 402              	.LBB467:
 403              	.LBB468:
 404              		.loc 2 548 0
 405              	#APP
 406              	@ 548 "../os/ext/CMSIS/include/core_cmFunc.h" 1
 407 0070 85F31188 		MSR basepri, r5
 408              	@ 0 "" 2
 409              		.thumb
 410              	.LBE468:
 411              	.LBE467:
 412              	.LBE466:
 413              	.LBE465:
 414              	.LBE464:
 415              		.loc 1 159 0
 416 0074 80F00101 		eor	r1, r0, #1
 417 0078 C9B2     		uxtb	r1, r1
 418 007a 0420     		movs	r0, #4
 419              	.LVL22:
 420              	.LBE459:
 421              	.LBE458:
 422              		.loc 1 160 0
 423 007c BDE83840 		pop	{r3, r4, r5, lr}
 424              		.cfi_restore 14
 425              		.cfi_restore 5
 426              		.cfi_restore 4
 427              		.cfi_restore 3
 428              		.cfi_def_cfa_offset 0
 429              	.LBB470:
 430              	.LBB469:
 431              		.loc 1 159 0
 432 0080 FFF7FEBF 		b	_test_assert
 433              	.LVL23:
 434              	.LBE469:
 435              	.LBE470:
 436              		.cfi_endproc
 437              	.LFE233:
 438              		.size	sys3_execute, .-sys3_execute
 439 0084 AFF30080 		.section	.text.sys1_execute,"ax",%progbits
 439      AFF30080 
 439      AFF30080 
 440              		.align	2
 441              		.p2align 4,,15
 442              		.thumb
 443              		.thumb_func
 444              		.type	sys1_execute, %function
 445              	sys1_execute:
 446              	.LFB231:
 447              		.loc 1 69 0
 448              		.cfi_startproc
 449              		@ args = 0, pretend = 0, frame = 24
 450              		@ frame_needed = 0, uses_anonymous_args = 0
 451 0000 10B5     		push	{r4, lr}
 452              		.cfi_def_cfa_offset 8
 453              		.cfi_offset 4, -8
ARM GAS  /tmp/ccf3ZVgt.s 			page 9


 454              		.cfi_offset 14, -4
 455 0002 86B0     		sub	sp, sp, #24
 456              		.cfi_def_cfa_offset 32
 457              		.loc 1 74 0
 458 0004 FFF7FEFF 		bl	chSysGetStatusAndLockX
 459              	.LVL24:
 460              		.loc 1 75 0
 461 0008 FFF7FEFF 		bl	chSysRestoreStatusX
 462              	.LVL25:
 463              	.LBB561:
 464              	.LBB562:
 465              	.LBB563:
 466              	.LBB564:
 467              		.loc 2 548 0
 468 000c 2024     		movs	r4, #32
 469              	#APP
 470              	@ 548 "../os/ext/CMSIS/include/core_cmFunc.h" 1
 471 000e 84F31188 		MSR basepri, r4
 472              	@ 0 "" 2
 473              		.thumb
 474              	.LBE564:
 475              	.LBE563:
 476              	.LBE562:
 477              	.LBE561:
 478              		.loc 1 79 0
 479 0012 FFF7FEFF 		bl	chSysGetStatusAndLockX
 480              	.LVL26:
 481              		.loc 1 80 0
 482 0016 FFF7FEFF 		bl	chSysRestoreStatusX
 483              	.LVL27:
 484              	.LBB565:
 485              	.LBB566:
 486              	.LBB567:
 487              	.LBB568:
 488              	.LBB569:
 489              		.loc 2 548 0
 490 001a 0023     		movs	r3, #0
 491              	#APP
 492              	@ 548 "../os/ext/CMSIS/include/core_cmFunc.h" 1
 493 001c 83F31188 		MSR basepri, r3
 494              	@ 0 "" 2
 495              		.thumb
 496              	.LBE569:
 497              	.LBE568:
 498              	.LBE567:
 499              	.LBE566:
 500              	.LBE565:
 501              	.LBB570:
 502              	.LBB571:
 503              	.LBB572:
 504              	.LBB573:
 505              	.LBB574:
 506              	.LBB575:
 507              		.loc 2 535 0
 508              	#APP
 509              	@ 535 "../os/ext/CMSIS/include/core_cmFunc.h" 1
 510 0020 EFF31183 		MRS r3, basepri
ARM GAS  /tmp/ccf3ZVgt.s 			page 10


 511              	@ 0 "" 2
 512              	.LVL28:
 513              		.thumb
 514              	.LBE575:
 515              	.LBE574:
 516              	.LBE573:
 517              	.LBE572:
 518              		.file 3 "../os/rt/include/chsys.h"
 519              		.loc 3 422 0
 520 0024 0BB9     		cbnz	r3, .L12
 521              	.LVL29:
 522              	.LBB576:
 523              	.LBB577:
 524              	.LBB578:
 525              	.LBB579:
 526              		.loc 2 548 0
 527              	#APP
 528              	@ 548 "../os/ext/CMSIS/include/core_cmFunc.h" 1
 529 0026 84F31188 		MSR basepri, r4
 530              	@ 0 "" 2
 531              	.LVL30:
 532              		.thumb
 533              	.L12:
 534              	.LBE579:
 535              	.LBE578:
 536              	.LBE577:
 537              	.LBE576:
 538              	.LBE571:
 539              	.LBE570:
 540              	.LBB580:
 541              	.LBB581:
 542              	.LBB582:
 543              	.LBB583:
 544              	.LBB584:
 545              	.LBB585:
 546              		.loc 2 535 0
 547              	#APP
 548              	@ 535 "../os/ext/CMSIS/include/core_cmFunc.h" 1
 549 002a EFF31183 		MRS r3, basepri
 550              	@ 0 "" 2
 551              	.LVL31:
 552              		.thumb
 553              	.LBE585:
 554              	.LBE584:
 555              	.LBE583:
 556              	.LBE582:
 557              		.loc 3 422 0
 558 002e 13B9     		cbnz	r3, .L13
 559              	.LVL32:
 560              	.LBB586:
 561              	.LBB587:
 562              	.LBB588:
 563              	.LBB589:
 564              		.loc 2 548 0
 565 0030 2023     		movs	r3, #32
 566              	.LVL33:
 567              	#APP
ARM GAS  /tmp/ccf3ZVgt.s 			page 11


 568              	@ 548 "../os/ext/CMSIS/include/core_cmFunc.h" 1
 569 0032 83F31188 		MSR basepri, r3
 570              	@ 0 "" 2
 571              	.LVL34:
 572              		.thumb
 573              	.L13:
 574              	.LBE589:
 575              	.LBE588:
 576              	.LBE587:
 577              	.LBE586:
 578              	.LBE581:
 579              	.LBE580:
 580              	.LBB590:
 581              	.LBB591:
 582              	.LBB592:
 583              	.LBB593:
 584              	.LBB594:
 585 0036 0023     		movs	r3, #0
 586              	#APP
 587              	@ 548 "../os/ext/CMSIS/include/core_cmFunc.h" 1
 588 0038 83F31188 		MSR basepri, r3
 589              	@ 0 "" 2
 590              	.LVL35:
 591              		.thumb
 592              	.LBE594:
 593              	.LBE593:
 594              	.LBE592:
 595              	.LBE591:
 596              	.LBE590:
 597              	.LBB595:
 598              	.LBB596:
 599              	.LBB597:
 600              	.LBB598:
 601 003c 2022     		movs	r2, #32
 602              	#APP
 603              	@ 548 "../os/ext/CMSIS/include/core_cmFunc.h" 1
 604 003e 82F31188 		MSR basepri, r2
 605              	@ 0 "" 2
 606              		.thumb
 607              	.LBE598:
 608              	.LBE597:
 609              	.LBE596:
 610              	.LBE595:
 611              	.LBB599:
 612              	.LBB600:
 613              	.LBB601:
 614              	.LBB602:
 615              	.LBB603:
 616              	.LBB604:
 617              		.loc 2 535 0
 618              	#APP
 619              	@ 535 "../os/ext/CMSIS/include/core_cmFunc.h" 1
 620 0042 EFF31182 		MRS r2, basepri
 621              	@ 0 "" 2
 622              	.LVL36:
 623              		.thumb
 624              	.LBE604:
ARM GAS  /tmp/ccf3ZVgt.s 			page 12


 625              	.LBE603:
 626              	.LBE602:
 627              	.LBE601:
 628              		.loc 3 436 0
 629 0046 0AB1     		cbz	r2, .L14
 630              	.LVL37:
 631              	.LBB605:
 632              	.LBB606:
 633              	.LBB607:
 634              	.LBB608:
 635              	.LBB609:
 636              		.loc 2 548 0
 637              	#APP
 638              	@ 548 "../os/ext/CMSIS/include/core_cmFunc.h" 1
 639 0048 83F31188 		MSR basepri, r3
 640              	@ 0 "" 2
 641              	.LVL38:
 642              		.thumb
 643              	.L14:
 644              	.LBE609:
 645              	.LBE608:
 646              	.LBE607:
 647              	.LBE606:
 648              	.LBE605:
 649              	.LBE600:
 650              	.LBE599:
 651              	.LBB610:
 652              	.LBB611:
 653              	.LBB612:
 654              	.LBB613:
 655              	.LBB614:
 656              	.LBB615:
 657              		.loc 2 535 0
 658              	#APP
 659              	@ 535 "../os/ext/CMSIS/include/core_cmFunc.h" 1
 660 004c EFF31183 		MRS r3, basepri
 661              	@ 0 "" 2
 662              	.LVL39:
 663              		.thumb
 664              	.LBE615:
 665              	.LBE614:
 666              	.LBE613:
 667              	.LBE612:
 668              		.loc 3 436 0
 669 0050 13B1     		cbz	r3, .L15
 670              	.LVL40:
 671              	.LBB616:
 672              	.LBB617:
 673              	.LBB618:
 674              	.LBB619:
 675              	.LBB620:
 676              		.loc 2 548 0
 677 0052 0023     		movs	r3, #0
 678              	.LVL41:
 679              	#APP
 680              	@ 548 "../os/ext/CMSIS/include/core_cmFunc.h" 1
 681 0054 83F31188 		MSR basepri, r3
ARM GAS  /tmp/ccf3ZVgt.s 			page 13


 682              	@ 0 "" 2
 683              	.LVL42:
 684              		.thumb
 685              	.L15:
 686              	.LBE620:
 687              	.LBE619:
 688              	.LBE618:
 689              	.LBE617:
 690              	.LBE616:
 691              	.LBE611:
 692              	.LBE610:
 693              	.LBB621:
 694              	.LBB622:
 695              		.file 4 "../os/rt/include/chvt.h"
 696              		.loc 4 212 0
 697 0058 0023     		movs	r3, #0
 698 005a 0493     		str	r3, [sp, #16]
 699              	.LVL43:
 700              	.LBE622:
 701              	.LBE621:
 702              	.LBB623:
 703              	.LBB624:
 704              	.LBB625:
 705              	.LBB626:
 706              	.LBB627:
 707              		.loc 2 548 0
 708 005c 2023     		movs	r3, #32
 709              	#APP
 710              	@ 548 "../os/ext/CMSIS/include/core_cmFunc.h" 1
 711 005e 83F31188 		MSR basepri, r3
 712              	@ 0 "" 2
 713              	.LVL44:
 714              		.thumb
 715              	.LBE627:
 716              	.LBE626:
 717              	.LBE625:
 718              	.LBE624:
 719              	.LBB628:
 720              	.LBB629:
 721              	.LBB630:
 722              	.LBB631:
 723              		.loc 4 412 0
 724 0062 049B     		ldr	r3, [sp, #16]
 725              		.loc 4 413 0
 726 0064 01AC     		add	r4, sp, #4
 727              	.LVL45:
 728              		.loc 4 412 0
 729 0066 13B1     		cbz	r3, .L16
 730              		.loc 4 413 0
 731 0068 2046     		mov	r0, r4
 732 006a FFF7FEFF 		bl	chVTDoResetI
 733              	.LVL46:
 734              	.L16:
 735              	.LBE631:
 736              	.LBE630:
 737              		.loc 4 460 0
 738 006e 2046     		mov	r0, r4
ARM GAS  /tmp/ccf3ZVgt.s 			page 14


 739 0070 0121     		movs	r1, #1
 740 0072 0C4A     		ldr	r2, .L29
 741 0074 0023     		movs	r3, #0
 742 0076 FFF7FEFF 		bl	chVTDoSetI
 743              	.LVL47:
 744              	.LBE629:
 745              	.LBE628:
 746              	.LBB632:
 747              	.LBB633:
 748              	.LBB634:
 749              	.LBB635:
 750              	.LBB636:
 751              		.loc 2 548 0
 752 007a 0024     		movs	r4, #0
 753              	.LVL48:
 754              	#APP
 755              	@ 548 "../os/ext/CMSIS/include/core_cmFunc.h" 1
 756 007c 84F31188 		MSR basepri, r4
 757              	@ 0 "" 2
 758              		.thumb
 759              	.LBE636:
 760              	.LBE635:
 761              	.LBE634:
 762              	.LBE633:
 763              	.LBE632:
 764              	.LBE623:
 765              		.loc 1 96 0
 766 0080 0A20     		movs	r0, #10
 767 0082 FFF7FEFF 		bl	chThdSleep
 768              	.LVL49:
 769              	.LBB637:
 770              	.LBB638:
 771              	.LBB639:
 772              	.LBB640:
 773              	.LBB641:
 774              	.LBB642:
 775              		.loc 2 548 0
 776 0086 2023     		movs	r3, #32
 777              	#APP
 778              	@ 548 "../os/ext/CMSIS/include/core_cmFunc.h" 1
 779 0088 83F31188 		MSR basepri, r3
 780              	@ 0 "" 2
 781              		.thumb
 782 008c 0499     		ldr	r1, [sp, #16]
 783              	.LVL50:
 784              	.LBE642:
 785              	.LBE641:
 786              	.LBE640:
 787              	.LBE639:
 788              	.LBB643:
 789              	.LBB644:
 790              	.LBB645:
 791              	.LBB646:
 792              	.LBB647:
 793              	#APP
 794              	@ 548 "../os/ext/CMSIS/include/core_cmFunc.h" 1
 795 008e 84F31188 		MSR basepri, r4
ARM GAS  /tmp/ccf3ZVgt.s 			page 15


 796              	@ 0 "" 2
 797              		.thumb
 798              	.LBE647:
 799              	.LBE646:
 800              	.LBE645:
 801              	.LBE644:
 802              	.LBE643:
 803              	.LBE638:
 804              	.LBE637:
 805              		.loc 1 98 0
 806 0092 0120     		movs	r0, #1
 807 0094 B1FA81F1 		clz	r1, r1
 808 0098 4909     		lsrs	r1, r1, #5
 809 009a FFF7FEFF 		bl	_test_assert
 810              	.LVL51:
 811              		.loc 1 99 0
 812 009e 06B0     		add	sp, sp, #24
 813              		.cfi_def_cfa_offset 8
 814              		@ sp needed
 815 00a0 10BD     		pop	{r4, pc}
 816              	.LVL52:
 817              	.L30:
 818 00a2 00BF     		.align	2
 819              	.L29:
 820 00a4 00000000 		.word	vtcb
 821              		.cfi_endproc
 822              	.LFE231:
 823              		.size	sys1_execute, .-sys1_execute
 824              		.global	patternsys
 825              		.global	testsys3
 826              		.global	testsys2
 827              		.global	testsys1
 828 00a8 AFF30080 		.section	.rodata.testsys1,"a",%progbits
 828      AFF30080 
 829              		.align	2
 830              		.type	testsys1, %object
 831              		.size	testsys1, 16
 832              	testsys1:
 833 0000 30000000 		.word	.LC2
 834 0004 00000000 		.word	0
 835 0008 00000000 		.word	0
 836 000c 00000000 		.word	sys1_execute
 837              		.section	.rodata.testsys2,"a",%progbits
 838              		.align	2
 839              		.type	testsys2, %object
 840              		.size	testsys2, 16
 841              	testsys2:
 842 0000 14000000 		.word	.LC1
 843 0004 00000000 		.word	0
 844 0008 00000000 		.word	0
 845 000c 00000000 		.word	sys2_execute
 846              		.section	.rodata.testsys3,"a",%progbits
 847              		.align	2
 848              		.type	testsys3, %object
 849              		.size	testsys3, 16
 850              	testsys3:
 851 0000 00000000 		.word	.LC0
ARM GAS  /tmp/ccf3ZVgt.s 			page 16


 852 0004 00000000 		.word	0
 853 0008 00000000 		.word	0
 854 000c 00000000 		.word	sys3_execute
 855              		.section	.rodata.str1.4,"aMS",%progbits,1
 856              		.align	2
 857              	.LC0:
 858 0000 53797374 		.ascii	"System, integrity\000"
 858      656D2C20 
 858      696E7465 
 858      67726974 
 858      7900
 859 0012 0000     		.space	2
 860              	.LC1:
 861 0014 53797374 		.ascii	"System, interrupts handling\000"
 861      656D2C20 
 861      696E7465 
 861      72727570 
 861      74732068 
 862              	.LC2:
 863 0030 53797374 		.ascii	"System, critical zones\000"
 863      656D2C20 
 863      63726974 
 863      6963616C 
 863      207A6F6E 
 864 0047 00       		.section	.rodata.patternsys,"a",%progbits
 865              		.align	2
 866              		.type	patternsys, %object
 867              		.size	patternsys, 16
 868              	patternsys:
 869 0000 00000000 		.word	testsys1
 870 0004 00000000 		.word	testsys2
 871 0008 00000000 		.word	testsys3
 872 000c 00000000 		.word	0
 873              		.text
 874              	.Letext0:
 875              		.file 5 "/usr/lib/gcc/arm-linux-gnueabihf/4.9/include/stddef.h"
 876              		.file 6 "/usr/include/stdint.h"
 877              		.file 7 "../os/rt/ports/ARMCMx/compilers/GCC/chtypes.h"
 878              		.file 8 "../os/rt/include/chsystypes.h"
 879              		.file 9 "../os/rt/include/chschd.h"
 880              		.file 10 "../os/rt/ports/ARMCMx/chcore.h"
 881              		.file 11 "../os/rt/ports/ARMCMx/chcore_v7m.h"
 882              		.file 12 "../os/rt/include/chsem.h"
 883              		.file 13 "../os/rt/include/chmtx.h"
 884              		.file 14 "../test/rt/test.h"
 885              		.file 15 "../os/ext/CMSIS/include/core_cm4.h"
 886              		.file 16 "../os/rt/include/chthreads.h"
 887              		.section	.debug_info,"",%progbits
 888              	.Ldebug_info0:
 889 0000 12150000 		.4byte	0x1512
 890 0004 0400     		.2byte	0x4
 891 0006 00000000 		.4byte	.Ldebug_abbrev0
 892 000a 04       		.byte	0x4
 893 000b 01       		.uleb128 0x1
 894 000c 51000000 		.4byte	.LASF149
 895 0010 01       		.byte	0x1
 896 0011 68030000 		.4byte	.LASF150
ARM GAS  /tmp/ccf3ZVgt.s 			page 17


 897 0015 12060000 		.4byte	.LASF151
 898 0019 18000000 		.4byte	.Ldebug_ranges0+0x18
 899 001d 00000000 		.4byte	0
 900 0021 00000000 		.4byte	.Ldebug_line0
 901 0025 02       		.uleb128 0x2
 902 0026 04       		.byte	0x4
 903 0027 05       		.byte	0x5
 904 0028 696E7400 		.ascii	"int\000"
 905 002c 03       		.uleb128 0x3
 906 002d 15000000 		.4byte	.LASF3
 907 0031 05       		.byte	0x5
 908 0032 D4       		.byte	0xd4
 909 0033 37000000 		.4byte	0x37
 910 0037 04       		.uleb128 0x4
 911 0038 04       		.byte	0x4
 912 0039 07       		.byte	0x7
 913 003a BE020000 		.4byte	.LASF0
 914 003e 04       		.uleb128 0x4
 915 003f 01       		.byte	0x1
 916 0040 06       		.byte	0x6
 917 0041 CC010000 		.4byte	.LASF1
 918 0045 04       		.uleb128 0x4
 919 0046 02       		.byte	0x2
 920 0047 05       		.byte	0x5
 921 0048 03050000 		.4byte	.LASF2
 922 004c 03       		.uleb128 0x3
 923 004d DF040000 		.4byte	.LASF4
 924 0051 06       		.byte	0x6
 925 0052 26       		.byte	0x26
 926 0053 25000000 		.4byte	0x25
 927 0057 04       		.uleb128 0x4
 928 0058 08       		.byte	0x8
 929 0059 05       		.byte	0x5
 930 005a BE010000 		.4byte	.LASF5
 931 005e 03       		.uleb128 0x3
 932 005f 09070000 		.4byte	.LASF6
 933 0063 06       		.byte	0x6
 934 0064 30       		.byte	0x30
 935 0065 69000000 		.4byte	0x69
 936 0069 04       		.uleb128 0x4
 937 006a 01       		.byte	0x1
 938 006b 08       		.byte	0x8
 939 006c E7040000 		.4byte	.LASF7
 940 0070 04       		.uleb128 0x4
 941 0071 02       		.byte	0x2
 942 0072 07       		.byte	0x7
 943 0073 31030000 		.4byte	.LASF8
 944 0077 03       		.uleb128 0x3
 945 0078 BA050000 		.4byte	.LASF9
 946 007c 06       		.byte	0x6
 947 007d 33       		.byte	0x33
 948 007e 37000000 		.4byte	0x37
 949 0082 03       		.uleb128 0x3
 950 0083 21000000 		.4byte	.LASF10
 951 0087 06       		.byte	0x6
 952 0088 3A       		.byte	0x3a
 953 0089 8D000000 		.4byte	0x8d
ARM GAS  /tmp/ccf3ZVgt.s 			page 18


 954 008d 04       		.uleb128 0x4
 955 008e 08       		.byte	0x8
 956 008f 07       		.byte	0x7
 957 0090 3E010000 		.4byte	.LASF11
 958 0094 03       		.uleb128 0x3
 959 0095 79020000 		.4byte	.LASF12
 960 0099 07       		.byte	0x7
 961 009a 3B       		.byte	0x3b
 962 009b 77000000 		.4byte	0x77
 963 009f 03       		.uleb128 0x3
 964 00a0 56070000 		.4byte	.LASF13
 965 00a4 07       		.byte	0x7
 966 00a5 3C       		.byte	0x3c
 967 00a6 5E000000 		.4byte	0x5e
 968 00aa 03       		.uleb128 0x3
 969 00ab 3B020000 		.4byte	.LASF14
 970 00af 07       		.byte	0x7
 971 00b0 3D       		.byte	0x3d
 972 00b1 5E000000 		.4byte	0x5e
 973 00b5 03       		.uleb128 0x3
 974 00b6 00000000 		.4byte	.LASF15
 975 00ba 07       		.byte	0x7
 976 00bb 3E       		.byte	0x3e
 977 00bc 5E000000 		.4byte	0x5e
 978 00c0 03       		.uleb128 0x3
 979 00c1 14020000 		.4byte	.LASF16
 980 00c5 07       		.byte	0x7
 981 00c6 3F       		.byte	0x3f
 982 00c7 5E000000 		.4byte	0x5e
 983 00cb 03       		.uleb128 0x3
 984 00cc AE040000 		.4byte	.LASF17
 985 00d0 07       		.byte	0x7
 986 00d1 40       		.byte	0x40
 987 00d2 77000000 		.4byte	0x77
 988 00d6 03       		.uleb128 0x3
 989 00d7 4E030000 		.4byte	.LASF18
 990 00db 07       		.byte	0x7
 991 00dc 41       		.byte	0x41
 992 00dd 4C000000 		.4byte	0x4c
 993 00e1 03       		.uleb128 0x3
 994 00e2 2A000000 		.4byte	.LASF19
 995 00e6 07       		.byte	0x7
 996 00e7 43       		.byte	0x43
 997 00e8 77000000 		.4byte	0x77
 998 00ec 03       		.uleb128 0x3
 999 00ed B8020000 		.4byte	.LASF20
 1000 00f1 07       		.byte	0x7
 1001 00f2 45       		.byte	0x45
 1002 00f3 4C000000 		.4byte	0x4c
 1003 00f7 03       		.uleb128 0x3
 1004 00f8 5F060000 		.4byte	.LASF21
 1005 00fc 08       		.byte	0x8
 1006 00fd 33       		.byte	0x33
 1007 00fe 77000000 		.4byte	0x77
 1008 0102 03       		.uleb128 0x3
 1009 0103 4F060000 		.4byte	.LASF22
 1010 0107 08       		.byte	0x8
ARM GAS  /tmp/ccf3ZVgt.s 			page 19


 1011 0108 3F       		.byte	0x3f
 1012 0109 0D010000 		.4byte	0x10d
 1013 010d 05       		.uleb128 0x5
 1014 010e 44030000 		.4byte	.LASF43
 1015 0112 44       		.byte	0x44
 1016 0113 09       		.byte	0x9
 1017 0114 C2       		.byte	0xc2
 1018 0115 06020000 		.4byte	0x206
 1019 0119 06       		.uleb128 0x6
 1020 011a 25050000 		.4byte	.LASF23
 1021 011e 09       		.byte	0x9
 1022 011f C3       		.byte	0xc3
 1023 0120 11020000 		.4byte	0x211
 1024 0124 00       		.byte	0
 1025 0125 06       		.uleb128 0x6
 1026 0126 9F040000 		.4byte	.LASF24
 1027 012a 09       		.byte	0x9
 1028 012b C5       		.byte	0xc5
 1029 012c 11020000 		.4byte	0x211
 1030 0130 04       		.byte	0x4
 1031 0131 06       		.uleb128 0x6
 1032 0132 AA010000 		.4byte	.LASF25
 1033 0136 09       		.byte	0x9
 1034 0137 C7       		.byte	0xc7
 1035 0138 CB000000 		.4byte	0xcb
 1036 013c 08       		.byte	0x8
 1037 013d 06       		.uleb128 0x6
 1038 013e 8C070000 		.4byte	.LASF26
 1039 0142 09       		.byte	0x9
 1040 0143 C8       		.byte	0xc8
 1041 0144 35040000 		.4byte	0x435
 1042 0148 0C       		.byte	0xc
 1043 0149 06       		.uleb128 0x6
 1044 014a 69020000 		.4byte	.LASF27
 1045 014e 09       		.byte	0x9
 1046 014f CA       		.byte	0xca
 1047 0150 11020000 		.4byte	0x211
 1048 0154 10       		.byte	0x10
 1049 0155 06       		.uleb128 0x6
 1050 0156 19040000 		.4byte	.LASF28
 1051 015a 09       		.byte	0x9
 1052 015b CB       		.byte	0xcb
 1053 015c 11020000 		.4byte	0x211
 1054 0160 14       		.byte	0x14
 1055 0161 06       		.uleb128 0x6
 1056 0162 22070000 		.4byte	.LASF29
 1057 0166 09       		.byte	0x9
 1058 0167 D2       		.byte	0xd2
 1059 0168 94050000 		.4byte	0x594
 1060 016c 18       		.byte	0x18
 1061 016d 06       		.uleb128 0x6
 1062 016e FB040000 		.4byte	.LASF30
 1063 0172 09       		.byte	0x9
 1064 0173 DD       		.byte	0xdd
 1065 0174 AA000000 		.4byte	0xaa
 1066 0178 1C       		.byte	0x1c
 1067 0179 06       		.uleb128 0x6
ARM GAS  /tmp/ccf3ZVgt.s 			page 20


 1068 017a 43050000 		.4byte	.LASF31
 1069 017e 09       		.byte	0x9
 1070 017f E1       		.byte	0xe1
 1071 0180 9F000000 		.4byte	0x9f
 1072 0184 1D       		.byte	0x1d
 1073 0185 06       		.uleb128 0x6
 1074 0186 F0060000 		.4byte	.LASF32
 1075 018a 09       		.byte	0x9
 1076 018b E6       		.byte	0xe6
 1077 018c B5000000 		.4byte	0xb5
 1078 0190 1E       		.byte	0x1e
 1079 0191 06       		.uleb128 0x6
 1080 0192 0D050000 		.4byte	.LASF33
 1081 0196 09       		.byte	0x9
 1082 0197 EC       		.byte	0xec
 1083 0198 C0000000 		.4byte	0xc0
 1084 019c 1F       		.byte	0x1f
 1085 019d 07       		.uleb128 0x7
 1086 019e 705F7500 		.ascii	"p_u\000"
 1087 01a2 09       		.byte	0x9
 1088 01a3 3101     		.2byte	0x131
 1089 01a5 CF040000 		.4byte	0x4cf
 1090 01a9 20       		.byte	0x20
 1091 01aa 08       		.uleb128 0x8
 1092 01ab B8030000 		.4byte	.LASF34
 1093 01af 09       		.byte	0x9
 1094 01b0 3601     		.2byte	0x136
 1095 01b2 17020000 		.4byte	0x217
 1096 01b6 24       		.byte	0x24
 1097 01b7 08       		.uleb128 0x8
 1098 01b8 E3020000 		.4byte	.LASF35
 1099 01bc 09       		.byte	0x9
 1100 01bd 3C01     		.2byte	0x13c
 1101 01bf 3B020000 		.4byte	0x23b
 1102 01c3 28       		.byte	0x28
 1103 01c4 08       		.uleb128 0x8
 1104 01c5 6A070000 		.4byte	.LASF36
 1105 01c9 09       		.byte	0x9
 1106 01ca 4001     		.2byte	0x140
 1107 01cc D6000000 		.4byte	0xd6
 1108 01d0 30       		.byte	0x30
 1109 01d1 08       		.uleb128 0x8
 1110 01d2 A4050000 		.4byte	.LASF37
 1111 01d6 09       		.byte	0x9
 1112 01d7 4601     		.2byte	0x146
 1113 01d9 E1000000 		.4byte	0xe1
 1114 01dd 34       		.byte	0x34
 1115 01de 08       		.uleb128 0x8
 1116 01df 7D030000 		.4byte	.LASF38
 1117 01e3 09       		.byte	0x9
 1118 01e4 4D01     		.2byte	0x14d
 1119 01e6 8E050000 		.4byte	0x58e
 1120 01ea 38       		.byte	0x38
 1121 01eb 08       		.uleb128 0x8
 1122 01ec 69060000 		.4byte	.LASF39
 1123 01f0 09       		.byte	0x9
 1124 01f1 5101     		.2byte	0x151
ARM GAS  /tmp/ccf3ZVgt.s 			page 21


 1125 01f3 CB000000 		.4byte	0xcb
 1126 01f7 3C       		.byte	0x3c
 1127 01f8 08       		.uleb128 0x8
 1128 01f9 D8010000 		.4byte	.LASF40
 1129 01fd 09       		.byte	0x9
 1130 01fe 5801     		.2byte	0x158
 1131 0200 EE020000 		.4byte	0x2ee
 1132 0204 40       		.byte	0x40
 1133 0205 00       		.byte	0
 1134 0206 03       		.uleb128 0x3
 1135 0207 CB030000 		.4byte	.LASF41
 1136 020b 08       		.byte	0x8
 1137 020c 44       		.byte	0x44
 1138 020d 11020000 		.4byte	0x211
 1139 0211 09       		.uleb128 0x9
 1140 0212 04       		.byte	0x4
 1141 0213 02010000 		.4byte	0x102
 1142 0217 03       		.uleb128 0x3
 1143 0218 A9030000 		.4byte	.LASF42
 1144 021c 08       		.byte	0x8
 1145 021d 49       		.byte	0x49
 1146 021e 22020000 		.4byte	0x222
 1147 0222 05       		.uleb128 0x5
 1148 0223 E6050000 		.4byte	.LASF44
 1149 0227 04       		.byte	0x4
 1150 0228 09       		.byte	0x9
 1151 0229 B0       		.byte	0xb0
 1152 022a 3B020000 		.4byte	0x23b
 1153 022e 06       		.uleb128 0x6
 1154 022f 25050000 		.4byte	.LASF23
 1155 0233 09       		.byte	0x9
 1156 0234 B1       		.byte	0xb1
 1157 0235 11020000 		.4byte	0x211
 1158 0239 00       		.byte	0
 1159 023a 00       		.byte	0
 1160 023b 03       		.uleb128 0x3
 1161 023c D7060000 		.4byte	.LASF45
 1162 0240 08       		.byte	0x8
 1163 0241 50       		.byte	0x50
 1164 0242 46020000 		.4byte	0x246
 1165 0246 05       		.uleb128 0x5
 1166 0247 99010000 		.4byte	.LASF46
 1167 024b 08       		.byte	0x8
 1168 024c 09       		.byte	0x9
 1169 024d B7       		.byte	0xb7
 1170 024e 6B020000 		.4byte	0x26b
 1171 0252 06       		.uleb128 0x6
 1172 0253 25050000 		.4byte	.LASF23
 1173 0257 09       		.byte	0x9
 1174 0258 B8       		.byte	0xb8
 1175 0259 11020000 		.4byte	0x211
 1176 025d 00       		.byte	0
 1177 025e 06       		.uleb128 0x6
 1178 025f 9F040000 		.4byte	.LASF24
 1179 0263 09       		.byte	0x9
 1180 0264 B9       		.byte	0xb9
 1181 0265 11020000 		.4byte	0x211
ARM GAS  /tmp/ccf3ZVgt.s 			page 22


 1182 0269 04       		.byte	0x4
 1183 026a 00       		.byte	0
 1184 026b 03       		.uleb128 0x3
 1185 026c 08000000 		.4byte	.LASF47
 1186 0270 08       		.byte	0x8
 1187 0271 57       		.byte	0x57
 1188 0272 76020000 		.4byte	0x276
 1189 0276 0A       		.uleb128 0xa
 1190 0277 0B030000 		.4byte	.LASF48
 1191 027b 1C       		.byte	0x1c
 1192 027c 09       		.byte	0x9
 1193 027d 9001     		.2byte	0x190
 1194 027f D2020000 		.4byte	0x2d2
 1195 0283 08       		.uleb128 0x8
 1196 0284 CA050000 		.4byte	.LASF49
 1197 0288 09       		.byte	0x9
 1198 0289 9101     		.2byte	0x191
 1199 028b 3B020000 		.4byte	0x23b
 1200 028f 00       		.byte	0
 1201 0290 08       		.uleb128 0x8
 1202 0291 17050000 		.4byte	.LASF50
 1203 0295 09       		.byte	0x9
 1204 0296 9201     		.2byte	0x192
 1205 0298 CB000000 		.4byte	0xcb
 1206 029c 08       		.byte	0x8
 1207 029d 08       		.uleb128 0x8
 1208 029e 21040000 		.4byte	.LASF51
 1209 02a2 09       		.byte	0x9
 1210 02a3 9401     		.2byte	0x194
 1211 02a5 35040000 		.4byte	0x435
 1212 02a9 0C       		.byte	0xc
 1213 02aa 08       		.uleb128 0x8
 1214 02ab 82020000 		.4byte	.LASF52
 1215 02af 09       		.byte	0x9
 1216 02b0 9701     		.2byte	0x197
 1217 02b2 11020000 		.4byte	0x211
 1218 02b6 10       		.byte	0x10
 1219 02b7 08       		.uleb128 0x8
 1220 02b8 5D040000 		.4byte	.LASF53
 1221 02bc 09       		.byte	0x9
 1222 02bd 9801     		.2byte	0x198
 1223 02bf 11020000 		.4byte	0x211
 1224 02c3 14       		.byte	0x14
 1225 02c4 08       		.uleb128 0x8
 1226 02c5 53040000 		.4byte	.LASF54
 1227 02c9 09       		.byte	0x9
 1228 02ca 9B01     		.2byte	0x19b
 1229 02cc 11020000 		.4byte	0x211
 1230 02d0 18       		.byte	0x18
 1231 02d1 00       		.byte	0
 1232 02d2 03       		.uleb128 0x3
 1233 02d3 74060000 		.4byte	.LASF55
 1234 02d7 08       		.byte	0x8
 1235 02d8 5C       		.byte	0x5c
 1236 02d9 DD020000 		.4byte	0x2dd
 1237 02dd 09       		.uleb128 0x9
 1238 02de 04       		.byte	0x4
ARM GAS  /tmp/ccf3ZVgt.s 			page 23


 1239 02df E3020000 		.4byte	0x2e3
 1240 02e3 0B       		.uleb128 0xb
 1241 02e4 EE020000 		.4byte	0x2ee
 1242 02e8 0C       		.uleb128 0xc
 1243 02e9 EE020000 		.4byte	0x2ee
 1244 02ed 00       		.byte	0
 1245 02ee 0D       		.uleb128 0xd
 1246 02ef 04       		.byte	0x4
 1247 02f0 03       		.uleb128 0x3
 1248 02f1 8F040000 		.4byte	.LASF56
 1249 02f5 08       		.byte	0x8
 1250 02f6 61       		.byte	0x61
 1251 02f7 FB020000 		.4byte	0x2fb
 1252 02fb 0A       		.uleb128 0xa
 1253 02fc 72050000 		.4byte	.LASF57
 1254 0300 14       		.byte	0x14
 1255 0301 09       		.byte	0x9
 1256 0302 6B01     		.2byte	0x16b
 1257 0304 4A030000 		.4byte	0x34a
 1258 0308 08       		.uleb128 0x8
 1259 0309 CB020000 		.4byte	.LASF58
 1260 030d 09       		.byte	0x9
 1261 030e 6C01     		.2byte	0x16c
 1262 0310 A6050000 		.4byte	0x5a6
 1263 0314 00       		.byte	0
 1264 0315 08       		.uleb128 0x8
 1265 0316 93020000 		.4byte	.LASF59
 1266 031a 09       		.byte	0x9
 1267 031b 6D01     		.2byte	0x16d
 1268 031d A6050000 		.4byte	0x5a6
 1269 0321 04       		.byte	0x4
 1270 0322 08       		.uleb128 0x8
 1271 0323 DA020000 		.4byte	.LASF60
 1272 0327 09       		.byte	0x9
 1273 0328 6E01     		.2byte	0x16e
 1274 032a F7000000 		.4byte	0xf7
 1275 032e 08       		.byte	0x8
 1276 032f 08       		.uleb128 0x8
 1277 0330 92070000 		.4byte	.LASF61
 1278 0334 09       		.byte	0x9
 1279 0335 6F01     		.2byte	0x16f
 1280 0337 D2020000 		.4byte	0x2d2
 1281 033b 0C       		.byte	0xc
 1282 033c 08       		.uleb128 0x8
 1283 033d C9060000 		.4byte	.LASF62
 1284 0341 09       		.byte	0x9
 1285 0342 7101     		.2byte	0x171
 1286 0344 EE020000 		.4byte	0x2ee
 1287 0348 10       		.byte	0x10
 1288 0349 00       		.byte	0
 1289 034a 03       		.uleb128 0x3
 1290 034b 76010000 		.4byte	.LASF63
 1291 034f 08       		.byte	0x8
 1292 0350 66       		.byte	0x66
 1293 0351 55030000 		.4byte	0x355
 1294 0355 0A       		.uleb128 0xa
 1295 0356 DE030000 		.4byte	.LASF64
ARM GAS  /tmp/ccf3ZVgt.s 			page 24


 1296 035a 10       		.byte	0x10
 1297 035b 09       		.byte	0x9
 1298 035c 7B01     		.2byte	0x17b
 1299 035e 97030000 		.4byte	0x397
 1300 0362 08       		.uleb128 0x8
 1301 0363 CB020000 		.4byte	.LASF58
 1302 0367 09       		.byte	0x9
 1303 0368 7C01     		.2byte	0x17c
 1304 036a A6050000 		.4byte	0x5a6
 1305 036e 00       		.byte	0
 1306 036f 08       		.uleb128 0x8
 1307 0370 93020000 		.4byte	.LASF59
 1308 0374 09       		.byte	0x9
 1309 0375 7E01     		.2byte	0x17e
 1310 0377 A6050000 		.4byte	0x5a6
 1311 037b 04       		.byte	0x4
 1312 037c 08       		.uleb128 0x8
 1313 037d DA020000 		.4byte	.LASF60
 1314 0381 09       		.byte	0x9
 1315 0382 8001     		.2byte	0x180
 1316 0384 F7000000 		.4byte	0xf7
 1317 0388 08       		.byte	0x8
 1318 0389 08       		.uleb128 0x8
 1319 038a 36070000 		.4byte	.LASF65
 1320 038e 09       		.byte	0x9
 1321 038f 8201     		.2byte	0x182
 1322 0391 AC050000 		.4byte	0x5ac
 1323 0395 0C       		.byte	0xc
 1324 0396 00       		.byte	0
 1325 0397 03       		.uleb128 0x3
 1326 0398 42000000 		.4byte	.LASF66
 1327 039c 08       		.byte	0x8
 1328 039d 6B       		.byte	0x6b
 1329 039e A2030000 		.4byte	0x3a2
 1330 03a2 0A       		.uleb128 0xa
 1331 03a3 C9040000 		.4byte	.LASF67
 1332 03a7 04       		.byte	0x4
 1333 03a8 09       		.byte	0x9
 1334 03a9 A201     		.2byte	0x1a2
 1335 03ab BD030000 		.4byte	0x3bd
 1336 03af 08       		.uleb128 0x8
 1337 03b0 8B060000 		.4byte	.LASF68
 1338 03b4 09       		.byte	0x9
 1339 03b5 AA01     		.2byte	0x1aa
 1340 03b7 B1050000 		.4byte	0x5b1
 1341 03bb 00       		.byte	0
 1342 03bc 00       		.byte	0
 1343 03bd 03       		.uleb128 0x3
 1344 03be 9D060000 		.4byte	.LASF69
 1345 03c2 08       		.byte	0x8
 1346 03c3 70       		.byte	0x70
 1347 03c4 C8030000 		.4byte	0x3c8
 1348 03c8 0E       		.uleb128 0xe
 1349 03c9 24020000 		.4byte	.LASF70
 1350 03cd 5001     		.2byte	0x150
 1351 03cf 09       		.byte	0x9
 1352 03d0 C201     		.2byte	0x1c2
ARM GAS  /tmp/ccf3ZVgt.s 			page 25


 1353 03d2 18040000 		.4byte	0x418
 1354 03d6 08       		.uleb128 0x8
 1355 03d7 F7060000 		.4byte	.LASF71
 1356 03db 09       		.byte	0x9
 1357 03dc C601     		.2byte	0x1c6
 1358 03de 6B020000 		.4byte	0x26b
 1359 03e2 00       		.byte	0
 1360 03e3 08       		.uleb128 0x8
 1361 03e4 01020000 		.4byte	.LASF72
 1362 03e8 09       		.byte	0x9
 1363 03e9 CA01     		.2byte	0x1ca
 1364 03eb 4A030000 		.4byte	0x34a
 1365 03ef 1C       		.byte	0x1c
 1366 03f0 07       		.uleb128 0x7
 1367 03f1 64626700 		.ascii	"dbg\000"
 1368 03f5 09       		.byte	0x9
 1369 03f6 CE01     		.2byte	0x1ce
 1370 03f8 97030000 		.4byte	0x397
 1371 03fc 2C       		.byte	0x2c
 1372 03fd 08       		.uleb128 0x8
 1373 03fe 6B010000 		.4byte	.LASF73
 1374 0402 09       		.byte	0x9
 1375 0403 D201     		.2byte	0x1d2
 1376 0405 02010000 		.4byte	0x102
 1377 0409 30       		.byte	0x30
 1378 040a 08       		.uleb128 0x8
 1379 040b A9020000 		.4byte	.LASF74
 1380 040f 09       		.byte	0x9
 1381 0410 E301     		.2byte	0x1e3
 1382 0412 B6050000 		.4byte	0x5b6
 1383 0416 78       		.byte	0x78
 1384 0417 00       		.byte	0
 1385 0418 04       		.uleb128 0x4
 1386 0419 04       		.byte	0x4
 1387 041a 07       		.byte	0x7
 1388 041b C2030000 		.4byte	.LASF75
 1389 041f 03       		.uleb128 0x3
 1390 0420 8A020000 		.4byte	.LASF76
 1391 0424 0A       		.byte	0xa
 1392 0425 65       		.byte	0x65
 1393 0426 EE020000 		.4byte	0x2ee
 1394 042a 03       		.uleb128 0x3
 1395 042b 9E030000 		.4byte	.LASF77
 1396 042f 0A       		.byte	0xa
 1397 0430 6D       		.byte	0x6d
 1398 0431 82000000 		.4byte	0x82
 1399 0435 05       		.uleb128 0x5
 1400 0436 95060000 		.4byte	.LASF78
 1401 043a 04       		.byte	0x4
 1402 043b 0A       		.byte	0xa
 1403 043c 89       		.byte	0x89
 1404 043d 4E040000 		.4byte	0x44e
 1405 0441 0F       		.uleb128 0xf
 1406 0442 72313300 		.ascii	"r13\000"
 1407 0446 0A       		.byte	0xa
 1408 0447 8A       		.byte	0x8a
 1409 0448 C9040000 		.4byte	0x4c9
ARM GAS  /tmp/ccf3ZVgt.s 			page 26


 1410 044c 00       		.byte	0
 1411 044d 00       		.byte	0
 1412 044e 05       		.uleb128 0x5
 1413 044f 36000000 		.4byte	.LASF79
 1414 0453 24       		.byte	0x24
 1415 0454 0B       		.byte	0xb
 1416 0455 FD       		.byte	0xfd
 1417 0456 C9040000 		.4byte	0x4c9
 1418 045a 07       		.uleb128 0x7
 1419 045b 723400   		.ascii	"r4\000"
 1420 045e 0B       		.byte	0xb
 1421 045f 1001     		.2byte	0x110
 1422 0461 1F040000 		.4byte	0x41f
 1423 0465 00       		.byte	0
 1424 0466 07       		.uleb128 0x7
 1425 0467 723500   		.ascii	"r5\000"
 1426 046a 0B       		.byte	0xb
 1427 046b 1101     		.2byte	0x111
 1428 046d 1F040000 		.4byte	0x41f
 1429 0471 04       		.byte	0x4
 1430 0472 07       		.uleb128 0x7
 1431 0473 723600   		.ascii	"r6\000"
 1432 0476 0B       		.byte	0xb
 1433 0477 1201     		.2byte	0x112
 1434 0479 1F040000 		.4byte	0x41f
 1435 047d 08       		.byte	0x8
 1436 047e 07       		.uleb128 0x7
 1437 047f 723700   		.ascii	"r7\000"
 1438 0482 0B       		.byte	0xb
 1439 0483 1301     		.2byte	0x113
 1440 0485 1F040000 		.4byte	0x41f
 1441 0489 0C       		.byte	0xc
 1442 048a 07       		.uleb128 0x7
 1443 048b 723800   		.ascii	"r8\000"
 1444 048e 0B       		.byte	0xb
 1445 048f 1401     		.2byte	0x114
 1446 0491 1F040000 		.4byte	0x41f
 1447 0495 10       		.byte	0x10
 1448 0496 07       		.uleb128 0x7
 1449 0497 723900   		.ascii	"r9\000"
 1450 049a 0B       		.byte	0xb
 1451 049b 1501     		.2byte	0x115
 1452 049d 1F040000 		.4byte	0x41f
 1453 04a1 14       		.byte	0x14
 1454 04a2 07       		.uleb128 0x7
 1455 04a3 72313000 		.ascii	"r10\000"
 1456 04a7 0B       		.byte	0xb
 1457 04a8 1601     		.2byte	0x116
 1458 04aa 1F040000 		.4byte	0x41f
 1459 04ae 18       		.byte	0x18
 1460 04af 07       		.uleb128 0x7
 1461 04b0 72313100 		.ascii	"r11\000"
 1462 04b4 0B       		.byte	0xb
 1463 04b5 1701     		.2byte	0x117
 1464 04b7 1F040000 		.4byte	0x41f
 1465 04bb 1C       		.byte	0x1c
 1466 04bc 07       		.uleb128 0x7
ARM GAS  /tmp/ccf3ZVgt.s 			page 27


 1467 04bd 6C7200   		.ascii	"lr\000"
 1468 04c0 0B       		.byte	0xb
 1469 04c1 1801     		.2byte	0x118
 1470 04c3 1F040000 		.4byte	0x41f
 1471 04c7 20       		.byte	0x20
 1472 04c8 00       		.byte	0
 1473 04c9 09       		.uleb128 0x9
 1474 04ca 04       		.byte	0x4
 1475 04cb 4E040000 		.4byte	0x44e
 1476 04cf 10       		.uleb128 0x10
 1477 04d0 04       		.byte	0x4
 1478 04d1 09       		.byte	0x9
 1479 04d2 FA       		.byte	0xfa
 1480 04d3 2C050000 		.4byte	0x52c
 1481 04d7 11       		.uleb128 0x11
 1482 04d8 6B050000 		.4byte	.LASF80
 1483 04dc 09       		.byte	0x9
 1484 04dd 0101     		.2byte	0x101
 1485 04df D6000000 		.4byte	0xd6
 1486 04e3 11       		.uleb128 0x11
 1487 04e4 62010000 		.4byte	.LASF81
 1488 04e8 09       		.byte	0x9
 1489 04e9 0801     		.2byte	0x108
 1490 04eb D6000000 		.4byte	0xd6
 1491 04ef 11       		.uleb128 0x11
 1492 04f0 61030000 		.4byte	.LASF82
 1493 04f4 09       		.byte	0x9
 1494 04f5 0F01     		.2byte	0x10f
 1495 04f7 EE020000 		.4byte	0x2ee
 1496 04fb 11       		.uleb128 0x11
 1497 04fc 1E020000 		.4byte	.LASF83
 1498 0500 09       		.byte	0x9
 1499 0501 1601     		.2byte	0x116
 1500 0503 2C050000 		.4byte	0x52c
 1501 0507 11       		.uleb128 0x11
 1502 0508 D3020000 		.4byte	.LASF84
 1503 050c 09       		.byte	0x9
 1504 050d 1E01     		.2byte	0x11e
 1505 050f 57050000 		.4byte	0x557
 1506 0513 11       		.uleb128 0x11
 1507 0514 C3050000 		.4byte	.LASF85
 1508 0518 09       		.byte	0x9
 1509 0519 2701     		.2byte	0x127
 1510 051b 8E050000 		.4byte	0x58e
 1511 051f 11       		.uleb128 0x11
 1512 0520 1E050000 		.4byte	.LASF86
 1513 0524 09       		.byte	0x9
 1514 0525 2F01     		.2byte	0x12f
 1515 0527 E1000000 		.4byte	0xe1
 1516 052b 00       		.byte	0
 1517 052c 09       		.uleb128 0x9
 1518 052d 04       		.byte	0x4
 1519 052e 06020000 		.4byte	0x206
 1520 0532 05       		.uleb128 0x5
 1521 0533 97050000 		.4byte	.LASF87
 1522 0537 0C       		.byte	0xc
 1523 0538 0C       		.byte	0xc
ARM GAS  /tmp/ccf3ZVgt.s 			page 28


 1524 0539 34       		.byte	0x34
 1525 053a 57050000 		.4byte	0x557
 1526 053e 06       		.uleb128 0x6
 1527 053f 71020000 		.4byte	.LASF88
 1528 0543 0C       		.byte	0xc
 1529 0544 35       		.byte	0x35
 1530 0545 3B020000 		.4byte	0x23b
 1531 0549 00       		.byte	0
 1532 054a 06       		.uleb128 0x6
 1533 054b 2B030000 		.4byte	.LASF89
 1534 054f 0C       		.byte	0xc
 1535 0550 37       		.byte	0x37
 1536 0551 EC000000 		.4byte	0xec
 1537 0555 08       		.byte	0x8
 1538 0556 00       		.byte	0
 1539 0557 09       		.uleb128 0x9
 1540 0558 04       		.byte	0x4
 1541 0559 32050000 		.4byte	0x532
 1542 055d 05       		.uleb128 0x5
 1543 055e E7060000 		.4byte	.LASF90
 1544 0562 10       		.byte	0x10
 1545 0563 0D       		.byte	0xd
 1546 0564 39       		.byte	0x39
 1547 0565 8E050000 		.4byte	0x58e
 1548 0569 06       		.uleb128 0x6
 1549 056a E0010000 		.4byte	.LASF91
 1550 056e 0D       		.byte	0xd
 1551 056f 3A       		.byte	0x3a
 1552 0570 3B020000 		.4byte	0x23b
 1553 0574 00       		.byte	0
 1554 0575 06       		.uleb128 0x6
 1555 0576 70070000 		.4byte	.LASF92
 1556 057a 0D       		.byte	0xd
 1557 057b 3C       		.byte	0x3c
 1558 057c 11020000 		.4byte	0x211
 1559 0580 08       		.byte	0x8
 1560 0581 06       		.uleb128 0x6
 1561 0582 58060000 		.4byte	.LASF93
 1562 0586 0D       		.byte	0xd
 1563 0587 3E       		.byte	0x3e
 1564 0588 D1050000 		.4byte	0x5d1
 1565 058c 0C       		.byte	0xc
 1566 058d 00       		.byte	0
 1567 058e 09       		.uleb128 0x9
 1568 058f 04       		.byte	0x4
 1569 0590 5D050000 		.4byte	0x55d
 1570 0594 09       		.uleb128 0x9
 1571 0595 04       		.byte	0x4
 1572 0596 9A050000 		.4byte	0x59a
 1573 059a 12       		.uleb128 0x12
 1574 059b 9F050000 		.4byte	0x59f
 1575 059f 04       		.uleb128 0x4
 1576 05a0 01       		.byte	0x1
 1577 05a1 08       		.byte	0x8
 1578 05a2 0D060000 		.4byte	.LASF94
 1579 05a6 09       		.uleb128 0x9
 1580 05a7 04       		.byte	0x4
ARM GAS  /tmp/ccf3ZVgt.s 			page 29


 1581 05a8 F0020000 		.4byte	0x2f0
 1582 05ac 13       		.uleb128 0x13
 1583 05ad F7000000 		.4byte	0xf7
 1584 05b1 13       		.uleb128 0x13
 1585 05b2 94050000 		.4byte	0x594
 1586 05b6 14       		.uleb128 0x14
 1587 05b7 2A040000 		.4byte	0x42a
 1588 05bb C6050000 		.4byte	0x5c6
 1589 05bf 15       		.uleb128 0x15
 1590 05c0 18040000 		.4byte	0x418
 1591 05c4 1A       		.byte	0x1a
 1592 05c5 00       		.byte	0
 1593 05c6 03       		.uleb128 0x3
 1594 05c7 9B020000 		.4byte	.LASF95
 1595 05cb 0D       		.byte	0xd
 1596 05cc 34       		.byte	0x34
 1597 05cd 5D050000 		.4byte	0x55d
 1598 05d1 09       		.uleb128 0x9
 1599 05d2 04       		.byte	0x4
 1600 05d3 C6050000 		.4byte	0x5c6
 1601 05d7 05       		.uleb128 0x5
 1602 05d8 8E050000 		.4byte	.LASF96
 1603 05dc 10       		.byte	0x10
 1604 05dd 0E       		.byte	0xe
 1605 05de 3B       		.byte	0x3b
 1606 05df 14060000 		.4byte	0x614
 1607 05e3 06       		.uleb128 0x6
 1608 05e4 19030000 		.4byte	.LASF97
 1609 05e8 0E       		.byte	0xe
 1610 05e9 3C       		.byte	0x3c
 1611 05ea 94050000 		.4byte	0x594
 1612 05ee 00       		.byte	0
 1613 05ef 06       		.uleb128 0x6
 1614 05f0 4D040000 		.4byte	.LASF98
 1615 05f4 0E       		.byte	0xe
 1616 05f5 3D       		.byte	0x3d
 1617 05f6 15060000 		.4byte	0x615
 1618 05fa 04       		.byte	0x4
 1619 05fb 06       		.uleb128 0x6
 1620 05fc 02030000 		.4byte	.LASF99
 1621 0600 0E       		.byte	0xe
 1622 0601 3E       		.byte	0x3e
 1623 0602 15060000 		.4byte	0x615
 1624 0606 08       		.byte	0x8
 1625 0607 06       		.uleb128 0x6
 1626 0608 A6040000 		.4byte	.LASF100
 1627 060c 0E       		.byte	0xe
 1628 060d 3F       		.byte	0x3f
 1629 060e 15060000 		.4byte	0x615
 1630 0612 0C       		.byte	0xc
 1631 0613 00       		.byte	0
 1632 0614 16       		.uleb128 0x16
 1633 0615 09       		.uleb128 0x9
 1634 0616 04       		.byte	0x4
 1635 0617 14060000 		.4byte	0x614
 1636 061b 17       		.uleb128 0x17
 1637 061c 44020000 		.4byte	.LASF110
ARM GAS  /tmp/ccf3ZVgt.s 			page 30


 1638 0620 02       		.byte	0x2
 1639 0621 1302     		.2byte	0x213
 1640 0623 77000000 		.4byte	0x77
 1641 0627 03       		.byte	0x3
 1642 0628 39060000 		.4byte	0x639
 1643 062c 18       		.uleb128 0x18
 1644 062d 78070000 		.4byte	.LASF112
 1645 0631 02       		.byte	0x2
 1646 0632 1502     		.2byte	0x215
 1647 0634 77000000 		.4byte	0x77
 1648 0638 00       		.byte	0
 1649 0639 19       		.uleb128 0x19
 1650 063a 7D060000 		.4byte	.LASF117
 1651 063e 02       		.byte	0x2
 1652 063f 2202     		.2byte	0x222
 1653 0641 03       		.byte	0x3
 1654 0642 53060000 		.4byte	0x653
 1655 0646 1A       		.uleb128 0x1a
 1656 0647 A3020000 		.4byte	.LASF114
 1657 064b 02       		.byte	0x2
 1658 064c 2202     		.2byte	0x222
 1659 064e 77000000 		.4byte	0x77
 1660 0652 00       		.byte	0
 1661 0653 1B       		.uleb128 0x1b
 1662 0654 34010000 		.4byte	.LASF101
 1663 0658 0B       		.byte	0xb
 1664 0659 C801     		.2byte	0x1c8
 1665 065b 03       		.byte	0x3
 1666 065c 1B       		.uleb128 0x1b
 1667 065d 08020000 		.4byte	.LASF102
 1668 0661 0B       		.byte	0xb
 1669 0662 E001     		.2byte	0x1e0
 1670 0664 03       		.byte	0x3
 1671 0665 1B       		.uleb128 0x1b
 1672 0666 81040000 		.4byte	.LASF103
 1673 066a 02       		.byte	0x2
 1674 066b 5601     		.2byte	0x156
 1675 066d 03       		.byte	0x3
 1676 066e 1B       		.uleb128 0x1b
 1677 066f 65040000 		.4byte	.LASF104
 1678 0673 02       		.byte	0x2
 1679 0674 4B01     		.2byte	0x14b
 1680 0676 03       		.byte	0x3
 1681 0677 1B       		.uleb128 0x1b
 1682 0678 2E020000 		.4byte	.LASF105
 1683 067c 0B       		.byte	0xb
 1684 067d 0402     		.2byte	0x204
 1685 067f 03       		.byte	0x3
 1686 0680 1B       		.uleb128 0x1b
 1687 0681 54030000 		.4byte	.LASF106
 1688 0685 0B       		.byte	0xb
 1689 0686 0E02     		.2byte	0x20e
 1690 0688 03       		.byte	0x3
 1691 0689 1B       		.uleb128 0x1b
 1692 068a 92030000 		.4byte	.LASF107
 1693 068e 0B       		.byte	0xb
 1694 068f 1C02     		.2byte	0x21c
ARM GAS  /tmp/ccf3ZVgt.s 			page 31


 1695 0691 03       		.byte	0x3
 1696 0692 1B       		.uleb128 0x1b
 1697 0693 B6060000 		.4byte	.LASF108
 1698 0697 0B       		.byte	0xb
 1699 0698 EF01     		.2byte	0x1ef
 1700 069a 03       		.byte	0x3
 1701 069b 1B       		.uleb128 0x1b
 1702 069c 3A060000 		.4byte	.LASF109
 1703 06a0 0B       		.byte	0xb
 1704 06a1 FA01     		.2byte	0x1fa
 1705 06a3 03       		.byte	0x3
 1706 06a4 17       		.uleb128 0x17
 1707 06a5 EE020000 		.4byte	.LASF111
 1708 06a9 0B       		.byte	0xb
 1709 06aa 9A01     		.2byte	0x19a
 1710 06ac 94000000 		.4byte	0x94
 1711 06b0 03       		.byte	0x3
 1712 06b1 C2060000 		.4byte	0x6c2
 1713 06b5 1C       		.uleb128 0x1c
 1714 06b6 73747300 		.ascii	"sts\000"
 1715 06ba 0B       		.byte	0xb
 1716 06bb 9B01     		.2byte	0x19b
 1717 06bd 94000000 		.4byte	0x94
 1718 06c1 00       		.byte	0
 1719 06c2 17       		.uleb128 0x17
 1720 06c3 27040000 		.4byte	.LASF113
 1721 06c7 0B       		.byte	0xb
 1722 06c8 AE01     		.2byte	0x1ae
 1723 06ca E0060000 		.4byte	0x6e0
 1724 06ce 03       		.byte	0x3
 1725 06cf E0060000 		.4byte	0x6e0
 1726 06d3 1D       		.uleb128 0x1d
 1727 06d4 73747300 		.ascii	"sts\000"
 1728 06d8 0B       		.byte	0xb
 1729 06d9 AE01     		.2byte	0x1ae
 1730 06db 94000000 		.4byte	0x94
 1731 06df 00       		.byte	0
 1732 06e0 04       		.uleb128 0x4
 1733 06e1 01       		.byte	0x1
 1734 06e2 02       		.byte	0x2
 1735 06e3 D9040000 		.4byte	.LASF115
 1736 06e7 1B       		.uleb128 0x1b
 1737 06e8 54050000 		.4byte	.LASF116
 1738 06ec 03       		.byte	0x3
 1739 06ed 5A01     		.2byte	0x15a
 1740 06ef 03       		.byte	0x3
 1741 06f0 19       		.uleb128 0x19
 1742 06f1 5E070000 		.4byte	.LASF118
 1743 06f5 03       		.byte	0x3
 1744 06f6 6601     		.2byte	0x166
 1745 06f8 03       		.byte	0x3
 1746 06f9 0B070000 		.4byte	0x70b
 1747 06fd 1E       		.uleb128 0x1e
 1748 06fe 4B050000 		.4byte	.LASF119
 1749 0702 1B070000 		.4byte	0x71b
 1750 0706 5E070000 		.4byte	.LASF118
 1751 070a 00       		.byte	0
ARM GAS  /tmp/ccf3ZVgt.s 			page 32


 1752 070b 14       		.uleb128 0x14
 1753 070c 9F050000 		.4byte	0x59f
 1754 0710 1B070000 		.4byte	0x71b
 1755 0714 15       		.uleb128 0x15
 1756 0715 18040000 		.4byte	0x418
 1757 0719 0B       		.byte	0xb
 1758 071a 00       		.byte	0
 1759 071b 12       		.uleb128 0x12
 1760 071c 0B070000 		.4byte	0x70b
 1761 0720 1F       		.uleb128 0x1f
 1762 0721 72040000 		.4byte	.LASF120
 1763 0725 04       		.byte	0x4
 1764 0726 D2       		.byte	0xd2
 1765 0727 03       		.byte	0x3
 1766 0728 38070000 		.4byte	0x738
 1767 072c 20       		.uleb128 0x20
 1768 072d 76747000 		.ascii	"vtp\000"
 1769 0731 04       		.byte	0x4
 1770 0732 D2       		.byte	0xd2
 1771 0733 A6050000 		.4byte	0x5a6
 1772 0737 00       		.byte	0
 1773 0738 17       		.uleb128 0x17
 1774 0739 5E050000 		.4byte	.LASF121
 1775 073d 04       		.byte	0x4
 1776 073e 7501     		.2byte	0x175
 1777 0740 E0060000 		.4byte	0x6e0
 1778 0744 03       		.byte	0x3
 1779 0745 56070000 		.4byte	0x756
 1780 0749 1D       		.uleb128 0x1d
 1781 074a 76747000 		.ascii	"vtp\000"
 1782 074e 04       		.byte	0x4
 1783 074f 7501     		.2byte	0x175
 1784 0751 A6050000 		.4byte	0x5a6
 1785 0755 00       		.byte	0
 1786 0756 1B       		.uleb128 0x1b
 1787 0757 40040000 		.4byte	.LASF122
 1788 075b 03       		.byte	0x3
 1789 075c 4001     		.2byte	0x140
 1790 075e 03       		.byte	0x3
 1791 075f 1B       		.uleb128 0x1b
 1792 0760 1E030000 		.4byte	.LASF123
 1793 0764 03       		.byte	0x3
 1794 0765 2F01     		.2byte	0x12f
 1795 0767 03       		.byte	0x3
 1796 0768 1B       		.uleb128 0x1b
 1797 0769 52020000 		.4byte	.LASF124
 1798 076d 03       		.byte	0x3
 1799 076e 4F01     		.2byte	0x14f
 1800 0770 03       		.byte	0x3
 1801 0771 1B       		.uleb128 0x1b
 1802 0772 11070000 		.4byte	.LASF125
 1803 0776 03       		.byte	0x3
 1804 0777 8201     		.2byte	0x182
 1805 0779 03       		.byte	0x3
 1806 077a 1B       		.uleb128 0x1b
 1807 077b B6040000 		.4byte	.LASF126
 1808 077f 03       		.byte	0x3
ARM GAS  /tmp/ccf3ZVgt.s 			page 33


 1809 0780 9601     		.2byte	0x196
 1810 0782 03       		.byte	0x3
 1811 0783 19       		.uleb128 0x19
 1812 0784 83050000 		.4byte	.LASF127
 1813 0788 04       		.byte	0x4
 1814 0789 9A01     		.2byte	0x19a
 1815 078b 03       		.byte	0x3
 1816 078c 9D070000 		.4byte	0x79d
 1817 0790 1D       		.uleb128 0x1d
 1818 0791 76747000 		.ascii	"vtp\000"
 1819 0795 04       		.byte	0x4
 1820 0796 9A01     		.2byte	0x19a
 1821 0798 A6050000 		.4byte	0x5a6
 1822 079c 00       		.byte	0
 1823 079d 1B       		.uleb128 0x1b
 1824 079e 2C050000 		.4byte	.LASF128
 1825 07a2 03       		.byte	0x3
 1826 07a3 A401     		.2byte	0x1a4
 1827 07a5 03       		.byte	0x3
 1828 07a6 1B       		.uleb128 0x1b
 1829 07a7 E8010000 		.4byte	.LASF129
 1830 07ab 03       		.byte	0x3
 1831 07ac B201     		.2byte	0x1b2
 1832 07ae 03       		.byte	0x3
 1833 07af 19       		.uleb128 0x19
 1834 07b0 38040000 		.4byte	.LASF130
 1835 07b4 04       		.byte	0x4
 1836 07b5 E501     		.2byte	0x1e5
 1837 07b7 03       		.byte	0x3
 1838 07b8 ED070000 		.4byte	0x7ed
 1839 07bc 1D       		.uleb128 0x1d
 1840 07bd 76747000 		.ascii	"vtp\000"
 1841 07c1 04       		.byte	0x4
 1842 07c2 E501     		.2byte	0x1e5
 1843 07c4 A6050000 		.4byte	0x5a6
 1844 07c8 1A       		.uleb128 0x1a
 1845 07c9 F5040000 		.4byte	.LASF131
 1846 07cd 04       		.byte	0x4
 1847 07ce E501     		.2byte	0x1e5
 1848 07d0 F7000000 		.4byte	0xf7
 1849 07d4 1A       		.uleb128 0x1a
 1850 07d5 D0060000 		.4byte	.LASF132
 1851 07d9 04       		.byte	0x4
 1852 07da E601     		.2byte	0x1e6
 1853 07dc D2020000 		.4byte	0x2d2
 1854 07e0 1D       		.uleb128 0x1d
 1855 07e1 70617200 		.ascii	"par\000"
 1856 07e5 04       		.byte	0x4
 1857 07e6 E601     		.2byte	0x1e6
 1858 07e8 EE020000 		.4byte	0x2ee
 1859 07ec 00       		.byte	0
 1860 07ed 17       		.uleb128 0x17
 1861 07ee FD060000 		.4byte	.LASF133
 1862 07f2 04       		.byte	0x4
 1863 07f3 8601     		.2byte	0x186
 1864 07f5 E0060000 		.4byte	0x6e0
 1865 07f9 03       		.byte	0x3
ARM GAS  /tmp/ccf3ZVgt.s 			page 34


 1866 07fa 15080000 		.4byte	0x815
 1867 07fe 1D       		.uleb128 0x1d
 1868 07ff 76747000 		.ascii	"vtp\000"
 1869 0803 04       		.byte	0x4
 1870 0804 8601     		.2byte	0x186
 1871 0806 A6050000 		.4byte	0x5a6
 1872 080a 1C       		.uleb128 0x1c
 1873 080b 6200     		.ascii	"b\000"
 1874 080d 04       		.byte	0x4
 1875 080e 8701     		.2byte	0x187
 1876 0810 E0060000 		.4byte	0x6e0
 1877 0814 00       		.byte	0
 1878 0815 1F       		.uleb128 0x1f
 1879 0816 B1010000 		.4byte	.LASF134
 1880 081a 01       		.byte	0x1
 1881 081b 8A       		.byte	0x8a
 1882 081c 01       		.byte	0x1
 1883 081d 2D080000 		.4byte	0x82d
 1884 0821 21       		.uleb128 0x21
 1885 0822 78070000 		.4byte	.LASF112
 1886 0826 01       		.byte	0x1
 1887 0827 8B       		.byte	0x8b
 1888 0828 E0060000 		.4byte	0x6e0
 1889 082c 00       		.byte	0
 1890 082d 19       		.uleb128 0x19
 1891 082e 10040000 		.4byte	.LASF135
 1892 0832 04       		.byte	0x4
 1893 0833 C801     		.2byte	0x1c8
 1894 0835 03       		.byte	0x3
 1895 0836 6B080000 		.4byte	0x86b
 1896 083a 1D       		.uleb128 0x1d
 1897 083b 76747000 		.ascii	"vtp\000"
 1898 083f 04       		.byte	0x4
 1899 0840 C801     		.2byte	0x1c8
 1900 0842 A6050000 		.4byte	0x5a6
 1901 0846 1A       		.uleb128 0x1a
 1902 0847 F5040000 		.4byte	.LASF131
 1903 084b 04       		.byte	0x4
 1904 084c C801     		.2byte	0x1c8
 1905 084e F7000000 		.4byte	0xf7
 1906 0852 1A       		.uleb128 0x1a
 1907 0853 D0060000 		.4byte	.LASF132
 1908 0857 04       		.byte	0x4
 1909 0858 C901     		.2byte	0x1c9
 1910 085a D2020000 		.4byte	0x2d2
 1911 085e 1D       		.uleb128 0x1d
 1912 085f 70617200 		.ascii	"par\000"
 1913 0863 04       		.byte	0x4
 1914 0864 C901     		.2byte	0x1c9
 1915 0866 EE020000 		.4byte	0x2ee
 1916 086a 00       		.byte	0
 1917 086b 22       		.uleb128 0x22
 1918 086c 7F070000 		.4byte	.LASF136
 1919 0870 01       		.byte	0x1
 1920 0871 73       		.byte	0x73
 1921 0872 00000000 		.4byte	.LFB232
 1922 0876 1A000000 		.4byte	.LFE232-.LFB232
ARM GAS  /tmp/ccf3ZVgt.s 			page 35


 1923 087a 01       		.uleb128 0x1
 1924 087b 9C       		.byte	0x9c
 1925 087c A2090000 		.4byte	0x9a2
 1926 0880 23       		.uleb128 0x23
 1927 0881 56070000 		.4byte	0x756
 1928 0885 00000000 		.4byte	.LBB324
 1929 0889 08000000 		.4byte	.LBE324-.LBB324
 1930 088d 01       		.byte	0x1
 1931 088e 75       		.byte	0x75
 1932 088f D0080000 		.4byte	0x8d0
 1933 0893 24       		.uleb128 0x24
 1934 0894 80060000 		.4byte	0x680
 1935 0898 00000000 		.4byte	.LBB325
 1936 089c 08000000 		.4byte	.LBE325-.LBB325
 1937 08a0 03       		.byte	0x3
 1938 08a1 4201     		.2byte	0x142
 1939 08a3 25       		.uleb128 0x25
 1940 08a4 39060000 		.4byte	0x639
 1941 08a8 00000000 		.4byte	.LBB326
 1942 08ac 06000000 		.4byte	.LBE326-.LBB326
 1943 08b0 0B       		.byte	0xb
 1944 08b1 1102     		.2byte	0x211
 1945 08b3 BE080000 		.4byte	0x8be
 1946 08b7 26       		.uleb128 0x26
 1947 08b8 46060000 		.4byte	0x646
 1948 08bc 20       		.byte	0x20
 1949 08bd 00       		.byte	0
 1950 08be 27       		.uleb128 0x27
 1951 08bf 6E060000 		.4byte	0x66e
 1952 08c3 06000000 		.4byte	.LBB328
 1953 08c7 02000000 		.4byte	.LBE328-.LBB328
 1954 08cb 0B       		.byte	0xb
 1955 08cc 1202     		.2byte	0x212
 1956 08ce 00       		.byte	0
 1957 08cf 00       		.byte	0
 1958 08d0 23       		.uleb128 0x23
 1959 08d1 5F070000 		.4byte	0x75f
 1960 08d5 08000000 		.4byte	.LBB330
 1961 08d9 02000000 		.4byte	.LBE330-.LBB330
 1962 08dd 01       		.byte	0x1
 1963 08de 76       		.byte	0x76
 1964 08df 05090000 		.4byte	0x905
 1965 08e3 24       		.uleb128 0x24
 1966 08e4 77060000 		.4byte	0x677
 1967 08e8 08000000 		.4byte	.LBB331
 1968 08ec 02000000 		.4byte	.LBE331-.LBB331
 1969 08f0 03       		.byte	0x3
 1970 08f1 3101     		.2byte	0x131
 1971 08f3 27       		.uleb128 0x27
 1972 08f4 65060000 		.4byte	0x665
 1973 08f8 08000000 		.4byte	.LBB332
 1974 08fc 02000000 		.4byte	.LBE332-.LBB332
 1975 0900 0B       		.byte	0xb
 1976 0901 0602     		.2byte	0x206
 1977 0903 00       		.byte	0
 1978 0904 00       		.byte	0
 1979 0905 23       		.uleb128 0x23
ARM GAS  /tmp/ccf3ZVgt.s 			page 36


 1980 0906 56070000 		.4byte	0x756
 1981 090a 0A000000 		.4byte	.LBB334
 1982 090e 06000000 		.4byte	.LBE334-.LBB334
 1983 0912 01       		.byte	0x1
 1984 0913 77       		.byte	0x77
 1985 0914 55090000 		.4byte	0x955
 1986 0918 24       		.uleb128 0x24
 1987 0919 80060000 		.4byte	0x680
 1988 091d 0A000000 		.4byte	.LBB335
 1989 0921 06000000 		.4byte	.LBE335-.LBB335
 1990 0925 03       		.byte	0x3
 1991 0926 4201     		.2byte	0x142
 1992 0928 25       		.uleb128 0x25
 1993 0929 39060000 		.4byte	0x639
 1994 092d 0A000000 		.4byte	.LBB336
 1995 0931 04000000 		.4byte	.LBE336-.LBB336
 1996 0935 0B       		.byte	0xb
 1997 0936 1102     		.2byte	0x211
 1998 0938 43090000 		.4byte	0x943
 1999 093c 26       		.uleb128 0x26
 2000 093d 46060000 		.4byte	0x646
 2001 0941 20       		.byte	0x20
 2002 0942 00       		.byte	0
 2003 0943 27       		.uleb128 0x27
 2004 0944 6E060000 		.4byte	0x66e
 2005 0948 0E000000 		.4byte	.LBB338
 2006 094c 02000000 		.4byte	.LBE338-.LBB338
 2007 0950 0B       		.byte	0xb
 2008 0951 1202     		.2byte	0x212
 2009 0953 00       		.byte	0
 2010 0954 00       		.byte	0
 2011 0955 28       		.uleb128 0x28
 2012 0956 68070000 		.4byte	0x768
 2013 095a 10000000 		.4byte	.LBB340
 2014 095e 0A000000 		.4byte	.LBE340-.LBB340
 2015 0962 01       		.byte	0x1
 2016 0963 78       		.byte	0x78
 2017 0964 24       		.uleb128 0x24
 2018 0965 89060000 		.4byte	0x689
 2019 0969 10000000 		.4byte	.LBB341
 2020 096d 0A000000 		.4byte	.LBE341-.LBB341
 2021 0971 03       		.byte	0x3
 2022 0972 5201     		.2byte	0x152
 2023 0974 25       		.uleb128 0x25
 2024 0975 39060000 		.4byte	0x639
 2025 0979 10000000 		.4byte	.LBB342
 2026 097d 06000000 		.4byte	.LBE342-.LBB342
 2027 0981 0B       		.byte	0xb
 2028 0982 1F02     		.2byte	0x21f
 2029 0984 8F090000 		.4byte	0x98f
 2030 0988 26       		.uleb128 0x26
 2031 0989 46060000 		.4byte	0x646
 2032 098d 00       		.byte	0
 2033 098e 00       		.byte	0
 2034 098f 27       		.uleb128 0x27
 2035 0990 6E060000 		.4byte	0x66e
 2036 0994 16000000 		.4byte	.LBB344
ARM GAS  /tmp/ccf3ZVgt.s 			page 37


 2037 0998 04000000 		.4byte	.LBE344-.LBB344
 2038 099c 0B       		.byte	0xb
 2039 099d 2102     		.2byte	0x221
 2040 099f 00       		.byte	0
 2041 09a0 00       		.byte	0
 2042 09a1 00       		.byte	0
 2043 09a2 22       		.uleb128 0x22
 2044 09a3 1C000000 		.4byte	.LASF137
 2045 09a7 01       		.byte	0x1
 2046 09a8 35       		.byte	0x35
 2047 09a9 00000000 		.4byte	.LFB230
 2048 09ad 20000000 		.4byte	.LFE230-.LFB230
 2049 09b1 01       		.uleb128 0x1
 2050 09b2 9C       		.byte	0x9c
 2051 09b3 1A0B0000 		.4byte	0xb1a
 2052 09b7 29       		.uleb128 0x29
 2053 09b8 7000     		.ascii	"p\000"
 2054 09ba 01       		.byte	0x1
 2055 09bb 35       		.byte	0x35
 2056 09bc EE020000 		.4byte	0x2ee
 2057 09c0 00000000 		.4byte	.LLST0
 2058 09c4 2A       		.uleb128 0x2a
 2059 09c5 73747300 		.ascii	"sts\000"
 2060 09c9 01       		.byte	0x1
 2061 09ca 36       		.byte	0x36
 2062 09cb 94000000 		.4byte	0x94
 2063 09cf 21000000 		.4byte	.LLST1
 2064 09d3 23       		.uleb128 0x23
 2065 09d4 71070000 		.4byte	0x771
 2066 09d8 02000000 		.4byte	.LBB346
 2067 09dc 06000000 		.4byte	.LBE346-.LBB346
 2068 09e0 01       		.byte	0x1
 2069 09e1 3B       		.byte	0x3b
 2070 09e2 200A0000 		.4byte	0xa20
 2071 09e6 24       		.uleb128 0x24
 2072 09e7 92060000 		.4byte	0x692
 2073 09eb 02000000 		.4byte	.LBB347
 2074 09ef 06000000 		.4byte	.LBE347-.LBB347
 2075 09f3 03       		.byte	0x3
 2076 09f4 8401     		.2byte	0x184
 2077 09f6 24       		.uleb128 0x24
 2078 09f7 53060000 		.4byte	0x653
 2079 09fb 02000000 		.4byte	.LBB348
 2080 09ff 06000000 		.4byte	.LBE348-.LBB348
 2081 0a03 0B       		.byte	0xb
 2082 0a04 F101     		.2byte	0x1f1
 2083 0a06 24       		.uleb128 0x24
 2084 0a07 39060000 		.4byte	0x639
 2085 0a0b 02000000 		.4byte	.LBB349
 2086 0a0f 06000000 		.4byte	.LBE349-.LBB349
 2087 0a13 0B       		.byte	0xb
 2088 0a14 D001     		.2byte	0x1d0
 2089 0a16 26       		.uleb128 0x26
 2090 0a17 46060000 		.4byte	0x646
 2091 0a1b 20       		.byte	0x20
 2092 0a1c 00       		.byte	0
 2093 0a1d 00       		.byte	0
ARM GAS  /tmp/ccf3ZVgt.s 			page 38


 2094 0a1e 00       		.byte	0
 2095 0a1f 00       		.byte	0
 2096 0a20 23       		.uleb128 0x23
 2097 0a21 7A070000 		.4byte	0x77a
 2098 0a25 08000000 		.4byte	.LBB351
 2099 0a29 06000000 		.4byte	.LBE351-.LBB351
 2100 0a2d 01       		.byte	0x1
 2101 0a2e 3C       		.byte	0x3c
 2102 0a2f 6D0A0000 		.4byte	0xa6d
 2103 0a33 24       		.uleb128 0x24
 2104 0a34 9B060000 		.4byte	0x69b
 2105 0a38 08000000 		.4byte	.LBB352
 2106 0a3c 06000000 		.4byte	.LBE352-.LBB352
 2107 0a40 03       		.byte	0x3
 2108 0a41 9A01     		.2byte	0x19a
 2109 0a43 24       		.uleb128 0x24
 2110 0a44 5C060000 		.4byte	0x65c
 2111 0a48 08000000 		.4byte	.LBB353
 2112 0a4c 06000000 		.4byte	.LBE353-.LBB353
 2113 0a50 0B       		.byte	0xb
 2114 0a51 FC01     		.2byte	0x1fc
 2115 0a53 24       		.uleb128 0x24
 2116 0a54 39060000 		.4byte	0x639
 2117 0a58 08000000 		.4byte	.LBB354
 2118 0a5c 06000000 		.4byte	.LBE354-.LBB354
 2119 0a60 0B       		.byte	0xb
 2120 0a61 E301     		.2byte	0x1e3
 2121 0a63 26       		.uleb128 0x26
 2122 0a64 46060000 		.4byte	0x646
 2123 0a68 00       		.byte	0
 2124 0a69 00       		.byte	0
 2125 0a6a 00       		.byte	0
 2126 0a6b 00       		.byte	0
 2127 0a6c 00       		.byte	0
 2128 0a6d 23       		.uleb128 0x23
 2129 0a6e 71070000 		.4byte	0x771
 2130 0a72 0E000000 		.4byte	.LBB356
 2131 0a76 04000000 		.4byte	.LBE356-.LBB356
 2132 0a7a 01       		.byte	0x1
 2133 0a7b 3F       		.byte	0x3f
 2134 0a7c BA0A0000 		.4byte	0xaba
 2135 0a80 24       		.uleb128 0x24
 2136 0a81 92060000 		.4byte	0x692
 2137 0a85 0E000000 		.4byte	.LBB357
 2138 0a89 04000000 		.4byte	.LBE357-.LBB357
 2139 0a8d 03       		.byte	0x3
 2140 0a8e 8401     		.2byte	0x184
 2141 0a90 24       		.uleb128 0x24
 2142 0a91 53060000 		.4byte	0x653
 2143 0a95 0E000000 		.4byte	.LBB358
 2144 0a99 04000000 		.4byte	.LBE358-.LBB358
 2145 0a9d 0B       		.byte	0xb
 2146 0a9e F101     		.2byte	0x1f1
 2147 0aa0 24       		.uleb128 0x24
 2148 0aa1 39060000 		.4byte	0x639
 2149 0aa5 0E000000 		.4byte	.LBB359
 2150 0aa9 04000000 		.4byte	.LBE359-.LBB359
ARM GAS  /tmp/ccf3ZVgt.s 			page 39


 2151 0aad 0B       		.byte	0xb
 2152 0aae D001     		.2byte	0x1d0
 2153 0ab0 26       		.uleb128 0x26
 2154 0ab1 46060000 		.4byte	0x646
 2155 0ab5 20       		.byte	0x20
 2156 0ab6 00       		.byte	0
 2157 0ab7 00       		.byte	0
 2158 0ab8 00       		.byte	0
 2159 0ab9 00       		.byte	0
 2160 0aba 23       		.uleb128 0x23
 2161 0abb 7A070000 		.4byte	0x77a
 2162 0abf 1A000000 		.4byte	.LBB361
 2163 0ac3 06000000 		.4byte	.LBE361-.LBB361
 2164 0ac7 01       		.byte	0x1
 2165 0ac8 42       		.byte	0x42
 2166 0ac9 070B0000 		.4byte	0xb07
 2167 0acd 24       		.uleb128 0x24
 2168 0ace 9B060000 		.4byte	0x69b
 2169 0ad2 1A000000 		.4byte	.LBB362
 2170 0ad6 06000000 		.4byte	.LBE362-.LBB362
 2171 0ada 03       		.byte	0x3
 2172 0adb 9A01     		.2byte	0x19a
 2173 0add 24       		.uleb128 0x24
 2174 0ade 5C060000 		.4byte	0x65c
 2175 0ae2 1A000000 		.4byte	.LBB363
 2176 0ae6 06000000 		.4byte	.LBE363-.LBB363
 2177 0aea 0B       		.byte	0xb
 2178 0aeb FC01     		.2byte	0x1fc
 2179 0aed 24       		.uleb128 0x24
 2180 0aee 39060000 		.4byte	0x639
 2181 0af2 1A000000 		.4byte	.LBB364
 2182 0af6 06000000 		.4byte	.LBE364-.LBB364
 2183 0afa 0B       		.byte	0xb
 2184 0afb E301     		.2byte	0x1e3
 2185 0afd 26       		.uleb128 0x26
 2186 0afe 46060000 		.4byte	0x646
 2187 0b02 00       		.byte	0
 2188 0b03 00       		.byte	0
 2189 0b04 00       		.byte	0
 2190 0b05 00       		.byte	0
 2191 0b06 00       		.byte	0
 2192 0b07 2B       		.uleb128 0x2b
 2193 0b08 16000000 		.4byte	.LVL6
 2194 0b0c 89140000 		.4byte	0x1489
 2195 0b10 2B       		.uleb128 0x2b
 2196 0b11 1A000000 		.4byte	.LVL7
 2197 0b15 95140000 		.4byte	0x1495
 2198 0b19 00       		.byte	0
 2199 0b1a 2C       		.uleb128 0x2c
 2200 0b1b 15080000 		.4byte	0x815
 2201 0b1f 00000000 		.4byte	.LFB233
 2202 0b23 84000000 		.4byte	.LFE233-.LFB233
 2203 0b27 01       		.uleb128 0x1
 2204 0b28 9C       		.byte	0x9c
 2205 0b29 F60D0000 		.4byte	0xdf6
 2206 0b2d 2D       		.uleb128 0x2d
 2207 0b2e 21080000 		.4byte	0x821
ARM GAS  /tmp/ccf3ZVgt.s 			page 40


 2208 0b32 34000000 		.4byte	.LLST2
 2209 0b36 23       		.uleb128 0x23
 2210 0b37 E7060000 		.4byte	0x6e7
 2211 0b3b 02000000 		.4byte	.LBB431
 2212 0b3f 06000000 		.4byte	.LBE431-.LBB431
 2213 0b43 01       		.byte	0x1
 2214 0b44 8D       		.byte	0x8d
 2215 0b45 720B0000 		.4byte	0xb72
 2216 0b49 24       		.uleb128 0x24
 2217 0b4a 53060000 		.4byte	0x653
 2218 0b4e 02000000 		.4byte	.LBB432
 2219 0b52 06000000 		.4byte	.LBE432-.LBB432
 2220 0b56 03       		.byte	0x3
 2221 0b57 5C01     		.2byte	0x15c
 2222 0b59 24       		.uleb128 0x24
 2223 0b5a 39060000 		.4byte	0x639
 2224 0b5e 02000000 		.4byte	.LBB433
 2225 0b62 06000000 		.4byte	.LBE433-.LBB433
 2226 0b66 0B       		.byte	0xb
 2227 0b67 D001     		.2byte	0x1d0
 2228 0b69 26       		.uleb128 0x26
 2229 0b6a 46060000 		.4byte	0x646
 2230 0b6e 20       		.byte	0x20
 2231 0b6f 00       		.byte	0
 2232 0b70 00       		.byte	0
 2233 0b71 00       		.byte	0
 2234 0b72 23       		.uleb128 0x23
 2235 0b73 F0060000 		.4byte	0x6f0
 2236 0b77 0E000000 		.4byte	.LBB435
 2237 0b7b 06000000 		.4byte	.LBE435-.LBB435
 2238 0b7f 01       		.byte	0x1
 2239 0b80 8F       		.byte	0x8f
 2240 0b81 BD0B0000 		.4byte	0xbbd
 2241 0b85 2E       		.uleb128 0x2e
 2242 0b86 0E000000 		.4byte	.LBB436
 2243 0b8a 06000000 		.4byte	.LBE436-.LBB436
 2244 0b8e 2F       		.uleb128 0x2f
 2245 0b8f FD060000 		.4byte	0x6fd
 2246 0b93 24       		.uleb128 0x24
 2247 0b94 5C060000 		.4byte	0x65c
 2248 0b98 0E000000 		.4byte	.LBB437
 2249 0b9c 06000000 		.4byte	.LBE437-.LBB437
 2250 0ba0 03       		.byte	0x3
 2251 0ba1 7301     		.2byte	0x173
 2252 0ba3 24       		.uleb128 0x24
 2253 0ba4 39060000 		.4byte	0x639
 2254 0ba8 0E000000 		.4byte	.LBB438
 2255 0bac 06000000 		.4byte	.LBE438-.LBB438
 2256 0bb0 0B       		.byte	0xb
 2257 0bb1 E301     		.2byte	0x1e3
 2258 0bb3 26       		.uleb128 0x26
 2259 0bb4 46060000 		.4byte	0x646
 2260 0bb8 00       		.byte	0
 2261 0bb9 00       		.byte	0
 2262 0bba 00       		.byte	0
 2263 0bbb 00       		.byte	0
 2264 0bbc 00       		.byte	0
ARM GAS  /tmp/ccf3ZVgt.s 			page 41


 2265 0bbd 23       		.uleb128 0x23
 2266 0bbe E7060000 		.4byte	0x6e7
 2267 0bc2 26000000 		.4byte	.LBB440
 2268 0bc6 04000000 		.4byte	.LBE440-.LBB440
 2269 0bca 01       		.byte	0x1
 2270 0bcb 92       		.byte	0x92
 2271 0bcc F90B0000 		.4byte	0xbf9
 2272 0bd0 24       		.uleb128 0x24
 2273 0bd1 53060000 		.4byte	0x653
 2274 0bd5 26000000 		.4byte	.LBB441
 2275 0bd9 04000000 		.4byte	.LBE441-.LBB441
 2276 0bdd 03       		.byte	0x3
 2277 0bde 5C01     		.2byte	0x15c
 2278 0be0 24       		.uleb128 0x24
 2279 0be1 39060000 		.4byte	0x639
 2280 0be5 26000000 		.4byte	.LBB442
 2281 0be9 04000000 		.4byte	.LBE442-.LBB442
 2282 0bed 0B       		.byte	0xb
 2283 0bee D001     		.2byte	0x1d0
 2284 0bf0 26       		.uleb128 0x26
 2285 0bf1 46060000 		.4byte	0x646
 2286 0bf5 20       		.byte	0x20
 2287 0bf6 00       		.byte	0
 2288 0bf7 00       		.byte	0
 2289 0bf8 00       		.byte	0
 2290 0bf9 23       		.uleb128 0x23
 2291 0bfa F0060000 		.4byte	0x6f0
 2292 0bfe 30000000 		.4byte	.LBB444
 2293 0c02 04000000 		.4byte	.LBE444-.LBB444
 2294 0c06 01       		.byte	0x1
 2295 0c07 94       		.byte	0x94
 2296 0c08 440C0000 		.4byte	0xc44
 2297 0c0c 2E       		.uleb128 0x2e
 2298 0c0d 30000000 		.4byte	.LBB445
 2299 0c11 04000000 		.4byte	.LBE445-.LBB445
 2300 0c15 2F       		.uleb128 0x2f
 2301 0c16 FD060000 		.4byte	0x6fd
 2302 0c1a 24       		.uleb128 0x24
 2303 0c1b 5C060000 		.4byte	0x65c
 2304 0c1f 30000000 		.4byte	.LBB446
 2305 0c23 04000000 		.4byte	.LBE446-.LBB446
 2306 0c27 03       		.byte	0x3
 2307 0c28 7301     		.2byte	0x173
 2308 0c2a 24       		.uleb128 0x24
 2309 0c2b 39060000 		.4byte	0x639
 2310 0c2f 30000000 		.4byte	.LBB447
 2311 0c33 04000000 		.4byte	.LBE447-.LBB447
 2312 0c37 0B       		.byte	0xb
 2313 0c38 E301     		.2byte	0x1e3
 2314 0c3a 26       		.uleb128 0x26
 2315 0c3b 46060000 		.4byte	0x646
 2316 0c3f 00       		.byte	0
 2317 0c40 00       		.byte	0
 2318 0c41 00       		.byte	0
 2319 0c42 00       		.byte	0
 2320 0c43 00       		.byte	0
 2321 0c44 23       		.uleb128 0x23
ARM GAS  /tmp/ccf3ZVgt.s 			page 42


 2322 0c45 E7060000 		.4byte	0x6e7
 2323 0c49 46000000 		.4byte	.LBB449
 2324 0c4d 04000000 		.4byte	.LBE449-.LBB449
 2325 0c51 01       		.byte	0x1
 2326 0c52 97       		.byte	0x97
 2327 0c53 800C0000 		.4byte	0xc80
 2328 0c57 24       		.uleb128 0x24
 2329 0c58 53060000 		.4byte	0x653
 2330 0c5c 46000000 		.4byte	.LBB450
 2331 0c60 04000000 		.4byte	.LBE450-.LBB450
 2332 0c64 03       		.byte	0x3
 2333 0c65 5C01     		.2byte	0x15c
 2334 0c67 24       		.uleb128 0x24
 2335 0c68 39060000 		.4byte	0x639
 2336 0c6c 46000000 		.4byte	.LBB451
 2337 0c70 04000000 		.4byte	.LBE451-.LBB451
 2338 0c74 0B       		.byte	0xb
 2339 0c75 D001     		.2byte	0x1d0
 2340 0c77 26       		.uleb128 0x26
 2341 0c78 46060000 		.4byte	0x646
 2342 0c7c 20       		.byte	0x20
 2343 0c7d 00       		.byte	0
 2344 0c7e 00       		.byte	0
 2345 0c7f 00       		.byte	0
 2346 0c80 23       		.uleb128 0x23
 2347 0c81 F0060000 		.4byte	0x6f0
 2348 0c85 50000000 		.4byte	.LBB453
 2349 0c89 04000000 		.4byte	.LBE453-.LBB453
 2350 0c8d 01       		.byte	0x1
 2351 0c8e 99       		.byte	0x99
 2352 0c8f CB0C0000 		.4byte	0xccb
 2353 0c93 2E       		.uleb128 0x2e
 2354 0c94 50000000 		.4byte	.LBB454
 2355 0c98 04000000 		.4byte	.LBE454-.LBB454
 2356 0c9c 2F       		.uleb128 0x2f
 2357 0c9d FD060000 		.4byte	0x6fd
 2358 0ca1 24       		.uleb128 0x24
 2359 0ca2 5C060000 		.4byte	0x65c
 2360 0ca6 50000000 		.4byte	.LBB455
 2361 0caa 04000000 		.4byte	.LBE455-.LBB455
 2362 0cae 03       		.byte	0x3
 2363 0caf 7301     		.2byte	0x173
 2364 0cb1 24       		.uleb128 0x24
 2365 0cb2 39060000 		.4byte	0x639
 2366 0cb6 50000000 		.4byte	.LBB456
 2367 0cba 04000000 		.4byte	.LBE456-.LBB456
 2368 0cbe 0B       		.byte	0xb
 2369 0cbf E301     		.2byte	0x1e3
 2370 0cc1 26       		.uleb128 0x26
 2371 0cc2 46060000 		.4byte	0x646
 2372 0cc6 00       		.byte	0
 2373 0cc7 00       		.byte	0
 2374 0cc8 00       		.byte	0
 2375 0cc9 00       		.byte	0
 2376 0cca 00       		.byte	0
 2377 0ccb 30       		.uleb128 0x30
 2378 0ccc 00000000 		.4byte	.Ldebug_ranges0+0
ARM GAS  /tmp/ccf3ZVgt.s 			page 43


 2379 0cd0 870D0000 		.4byte	0xd87
 2380 0cd4 2D       		.uleb128 0x2d
 2381 0cd5 21080000 		.4byte	0x821
 2382 0cd9 5D000000 		.4byte	.LLST3
 2383 0cdd 23       		.uleb128 0x23
 2384 0cde E7060000 		.4byte	0x6e7
 2385 0ce2 66000000 		.4byte	.LBB460
 2386 0ce6 04000000 		.4byte	.LBE460-.LBB460
 2387 0cea 01       		.byte	0x1
 2388 0ceb 9C       		.byte	0x9c
 2389 0cec 190D0000 		.4byte	0xd19
 2390 0cf0 24       		.uleb128 0x24
 2391 0cf1 53060000 		.4byte	0x653
 2392 0cf5 66000000 		.4byte	.LBB461
 2393 0cf9 04000000 		.4byte	.LBE461-.LBB461
 2394 0cfd 03       		.byte	0x3
 2395 0cfe 5C01     		.2byte	0x15c
 2396 0d00 24       		.uleb128 0x24
 2397 0d01 39060000 		.4byte	0x639
 2398 0d05 66000000 		.4byte	.LBB462
 2399 0d09 04000000 		.4byte	.LBE462-.LBB462
 2400 0d0d 0B       		.byte	0xb
 2401 0d0e D001     		.2byte	0x1d0
 2402 0d10 26       		.uleb128 0x26
 2403 0d11 46060000 		.4byte	0x646
 2404 0d15 20       		.byte	0x20
 2405 0d16 00       		.byte	0
 2406 0d17 00       		.byte	0
 2407 0d18 00       		.byte	0
 2408 0d19 23       		.uleb128 0x23
 2409 0d1a F0060000 		.4byte	0x6f0
 2410 0d1e 70000000 		.4byte	.LBB464
 2411 0d22 04000000 		.4byte	.LBE464-.LBB464
 2412 0d26 01       		.byte	0x1
 2413 0d27 9E       		.byte	0x9e
 2414 0d28 640D0000 		.4byte	0xd64
 2415 0d2c 2E       		.uleb128 0x2e
 2416 0d2d 70000000 		.4byte	.LBB465
 2417 0d31 04000000 		.4byte	.LBE465-.LBB465
 2418 0d35 2F       		.uleb128 0x2f
 2419 0d36 FD060000 		.4byte	0x6fd
 2420 0d3a 24       		.uleb128 0x24
 2421 0d3b 5C060000 		.4byte	0x65c
 2422 0d3f 70000000 		.4byte	.LBB466
 2423 0d43 04000000 		.4byte	.LBE466-.LBB466
 2424 0d47 03       		.byte	0x3
 2425 0d48 7301     		.2byte	0x173
 2426 0d4a 24       		.uleb128 0x24
 2427 0d4b 39060000 		.4byte	0x639
 2428 0d4f 70000000 		.4byte	.LBB467
 2429 0d53 04000000 		.4byte	.LBE467-.LBB467
 2430 0d57 0B       		.byte	0xb
 2431 0d58 E301     		.2byte	0x1e3
 2432 0d5a 26       		.uleb128 0x26
 2433 0d5b 46060000 		.4byte	0x646
 2434 0d5f 00       		.byte	0
 2435 0d60 00       		.byte	0
ARM GAS  /tmp/ccf3ZVgt.s 			page 44


 2436 0d61 00       		.byte	0
 2437 0d62 00       		.byte	0
 2438 0d63 00       		.byte	0
 2439 0d64 31       		.uleb128 0x31
 2440 0d65 70000000 		.4byte	.LVL21
 2441 0d69 A7140000 		.4byte	0x14a7
 2442 0d6d 770D0000 		.4byte	0xd77
 2443 0d71 32       		.uleb128 0x32
 2444 0d72 01       		.uleb128 0x1
 2445 0d73 50       		.byte	0x50
 2446 0d74 01       		.uleb128 0x1
 2447 0d75 38       		.byte	0x38
 2448 0d76 00       		.byte	0
 2449 0d77 33       		.uleb128 0x33
 2450 0d78 84000000 		.4byte	.LVL23
 2451 0d7c BD140000 		.4byte	0x14bd
 2452 0d80 32       		.uleb128 0x32
 2453 0d81 01       		.uleb128 0x1
 2454 0d82 50       		.byte	0x50
 2455 0d83 01       		.uleb128 0x1
 2456 0d84 34       		.byte	0x34
 2457 0d85 00       		.byte	0
 2458 0d86 00       		.byte	0
 2459 0d87 31       		.uleb128 0x31
 2460 0d88 0E000000 		.4byte	.LVL9
 2461 0d8c A7140000 		.4byte	0x14a7
 2462 0d90 9A0D0000 		.4byte	0xd9a
 2463 0d94 32       		.uleb128 0x32
 2464 0d95 01       		.uleb128 0x1
 2465 0d96 50       		.byte	0x50
 2466 0d97 01       		.uleb128 0x1
 2467 0d98 31       		.byte	0x31
 2468 0d99 00       		.byte	0
 2469 0d9a 31       		.uleb128 0x31
 2470 0d9b 20000000 		.4byte	.LVL11
 2471 0d9f BD140000 		.4byte	0x14bd
 2472 0da3 AD0D0000 		.4byte	0xdad
 2473 0da7 32       		.uleb128 0x32
 2474 0da8 01       		.uleb128 0x1
 2475 0da9 50       		.byte	0x50
 2476 0daa 01       		.uleb128 0x1
 2477 0dab 31       		.byte	0x31
 2478 0dac 00       		.byte	0
 2479 0dad 31       		.uleb128 0x31
 2480 0dae 30000000 		.4byte	.LVL13
 2481 0db2 A7140000 		.4byte	0x14a7
 2482 0db6 C00D0000 		.4byte	0xdc0
 2483 0dba 32       		.uleb128 0x32
 2484 0dbb 01       		.uleb128 0x1
 2485 0dbc 50       		.byte	0x50
 2486 0dbd 01       		.uleb128 0x1
 2487 0dbe 32       		.byte	0x32
 2488 0dbf 00       		.byte	0
 2489 0dc0 31       		.uleb128 0x31
 2490 0dc1 40000000 		.4byte	.LVL15
 2491 0dc5 BD140000 		.4byte	0x14bd
 2492 0dc9 D30D0000 		.4byte	0xdd3
ARM GAS  /tmp/ccf3ZVgt.s 			page 45


 2493 0dcd 32       		.uleb128 0x32
 2494 0dce 01       		.uleb128 0x1
 2495 0dcf 50       		.byte	0x50
 2496 0dd0 01       		.uleb128 0x1
 2497 0dd1 32       		.byte	0x32
 2498 0dd2 00       		.byte	0
 2499 0dd3 31       		.uleb128 0x31
 2500 0dd4 50000000 		.4byte	.LVL17
 2501 0dd8 A7140000 		.4byte	0x14a7
 2502 0ddc E60D0000 		.4byte	0xde6
 2503 0de0 32       		.uleb128 0x32
 2504 0de1 01       		.uleb128 0x1
 2505 0de2 50       		.byte	0x50
 2506 0de3 01       		.uleb128 0x1
 2507 0de4 34       		.byte	0x34
 2508 0de5 00       		.byte	0
 2509 0de6 34       		.uleb128 0x34
 2510 0de7 60000000 		.4byte	.LVL19
 2511 0deb BD140000 		.4byte	0x14bd
 2512 0def 32       		.uleb128 0x32
 2513 0df0 01       		.uleb128 0x1
 2514 0df1 50       		.byte	0x50
 2515 0df2 01       		.uleb128 0x1
 2516 0df3 33       		.byte	0x33
 2517 0df4 00       		.byte	0
 2518 0df5 00       		.byte	0
 2519 0df6 22       		.uleb128 0x22
 2520 0df7 A9060000 		.4byte	.LASF138
 2521 0dfb 01       		.byte	0x1
 2522 0dfc 45       		.byte	0x45
 2523 0dfd 00000000 		.4byte	.LFB231
 2524 0e01 A8000000 		.4byte	.LFE231-.LFB231
 2525 0e05 01       		.uleb128 0x1
 2526 0e06 9C       		.byte	0x9c
 2527 0e07 09140000 		.4byte	0x1409
 2528 0e0b 2A       		.uleb128 0x2a
 2529 0e0c 73747300 		.ascii	"sts\000"
 2530 0e10 01       		.byte	0x1
 2531 0e11 46       		.byte	0x46
 2532 0e12 94000000 		.4byte	0x94
 2533 0e16 70000000 		.4byte	.LLST4
 2534 0e1a 35       		.uleb128 0x35
 2535 0e1b 767400   		.ascii	"vt\000"
 2536 0e1e 01       		.byte	0x1
 2537 0e1f 47       		.byte	0x47
 2538 0e20 F0020000 		.4byte	0x2f0
 2539 0e24 02       		.uleb128 0x2
 2540 0e25 91       		.byte	0x91
 2541 0e26 64       		.sleb128 -28
 2542 0e27 23       		.uleb128 0x23
 2543 0e28 E7060000 		.4byte	0x6e7
 2544 0e2c 0C000000 		.4byte	.LBB561
 2545 0e30 06000000 		.4byte	.LBE561-.LBB561
 2546 0e34 01       		.byte	0x1
 2547 0e35 4E       		.byte	0x4e
 2548 0e36 630E0000 		.4byte	0xe63
 2549 0e3a 24       		.uleb128 0x24
ARM GAS  /tmp/ccf3ZVgt.s 			page 46


 2550 0e3b 53060000 		.4byte	0x653
 2551 0e3f 0C000000 		.4byte	.LBB562
 2552 0e43 06000000 		.4byte	.LBE562-.LBB562
 2553 0e47 03       		.byte	0x3
 2554 0e48 5C01     		.2byte	0x15c
 2555 0e4a 24       		.uleb128 0x24
 2556 0e4b 39060000 		.4byte	0x639
 2557 0e4f 0C000000 		.4byte	.LBB563
 2558 0e53 06000000 		.4byte	.LBE563-.LBB563
 2559 0e57 0B       		.byte	0xb
 2560 0e58 D001     		.2byte	0x1d0
 2561 0e5a 26       		.uleb128 0x26
 2562 0e5b 46060000 		.4byte	0x646
 2563 0e5f 20       		.byte	0x20
 2564 0e60 00       		.byte	0
 2565 0e61 00       		.byte	0
 2566 0e62 00       		.byte	0
 2567 0e63 23       		.uleb128 0x23
 2568 0e64 F0060000 		.4byte	0x6f0
 2569 0e68 1A000000 		.4byte	.LBB565
 2570 0e6c 06000000 		.4byte	.LBE565-.LBB565
 2571 0e70 01       		.byte	0x1
 2572 0e71 51       		.byte	0x51
 2573 0e72 AE0E0000 		.4byte	0xeae
 2574 0e76 2E       		.uleb128 0x2e
 2575 0e77 1A000000 		.4byte	.LBB566
 2576 0e7b 06000000 		.4byte	.LBE566-.LBB566
 2577 0e7f 2F       		.uleb128 0x2f
 2578 0e80 FD060000 		.4byte	0x6fd
 2579 0e84 24       		.uleb128 0x24
 2580 0e85 5C060000 		.4byte	0x65c
 2581 0e89 1A000000 		.4byte	.LBB567
 2582 0e8d 06000000 		.4byte	.LBE567-.LBB567
 2583 0e91 03       		.byte	0x3
 2584 0e92 7301     		.2byte	0x173
 2585 0e94 24       		.uleb128 0x24
 2586 0e95 39060000 		.4byte	0x639
 2587 0e99 1A000000 		.4byte	.LBB568
 2588 0e9d 06000000 		.4byte	.LBE568-.LBB568
 2589 0ea1 0B       		.byte	0xb
 2590 0ea2 E301     		.2byte	0x1e3
 2591 0ea4 26       		.uleb128 0x26
 2592 0ea5 46060000 		.4byte	0x646
 2593 0ea9 00       		.byte	0
 2594 0eaa 00       		.byte	0
 2595 0eab 00       		.byte	0
 2596 0eac 00       		.byte	0
 2597 0ead 00       		.byte	0
 2598 0eae 23       		.uleb128 0x23
 2599 0eaf 9D070000 		.4byte	0x79d
 2600 0eb3 20000000 		.4byte	.LBB570
 2601 0eb7 0A000000 		.4byte	.LBE570-.LBB570
 2602 0ebb 01       		.byte	0x1
 2603 0ebc 54       		.byte	0x54
 2604 0ebd 460F0000 		.4byte	0xf46
 2605 0ec1 25       		.uleb128 0x25
 2606 0ec2 A4060000 		.4byte	0x6a4
ARM GAS  /tmp/ccf3ZVgt.s 			page 47


 2607 0ec6 20000000 		.4byte	.LBB572
 2608 0eca 04000000 		.4byte	.LBE572-.LBB572
 2609 0ece 03       		.byte	0x3
 2610 0ecf A601     		.2byte	0x1a6
 2611 0ed1 090F0000 		.4byte	0xf09
 2612 0ed5 2E       		.uleb128 0x2e
 2613 0ed6 20000000 		.4byte	.LBB573
 2614 0eda 04000000 		.4byte	.LBE573-.LBB573
 2615 0ede 2F       		.uleb128 0x2f
 2616 0edf B5060000 		.4byte	0x6b5
 2617 0ee3 24       		.uleb128 0x24
 2618 0ee4 1B060000 		.4byte	0x61b
 2619 0ee8 20000000 		.4byte	.LBB574
 2620 0eec 04000000 		.4byte	.LBE574-.LBB574
 2621 0ef0 0B       		.byte	0xb
 2622 0ef1 9E01     		.2byte	0x19e
 2623 0ef3 2E       		.uleb128 0x2e
 2624 0ef4 20000000 		.4byte	.LBB575
 2625 0ef8 04000000 		.4byte	.LBE575-.LBB575
 2626 0efc 2D       		.uleb128 0x2d
 2627 0efd 2C060000 		.4byte	0x62c
 2628 0f01 8E000000 		.4byte	.LLST5
 2629 0f05 00       		.byte	0
 2630 0f06 00       		.byte	0
 2631 0f07 00       		.byte	0
 2632 0f08 00       		.byte	0
 2633 0f09 24       		.uleb128 0x24
 2634 0f0a E7060000 		.4byte	0x6e7
 2635 0f0e 26000000 		.4byte	.LBB576
 2636 0f12 04000000 		.4byte	.LBE576-.LBB576
 2637 0f16 03       		.byte	0x3
 2638 0f17 A701     		.2byte	0x1a7
 2639 0f19 24       		.uleb128 0x24
 2640 0f1a 53060000 		.4byte	0x653
 2641 0f1e 26000000 		.4byte	.LBB577
 2642 0f22 04000000 		.4byte	.LBE577-.LBB577
 2643 0f26 03       		.byte	0x3
 2644 0f27 5C01     		.2byte	0x15c
 2645 0f29 24       		.uleb128 0x24
 2646 0f2a 39060000 		.4byte	0x639
 2647 0f2e 26000000 		.4byte	.LBB578
 2648 0f32 04000000 		.4byte	.LBE578-.LBB578
 2649 0f36 0B       		.byte	0xb
 2650 0f37 D001     		.2byte	0x1d0
 2651 0f39 36       		.uleb128 0x36
 2652 0f3a 46060000 		.4byte	0x646
 2653 0f3e A1000000 		.4byte	.LLST6
 2654 0f42 00       		.byte	0
 2655 0f43 00       		.byte	0
 2656 0f44 00       		.byte	0
 2657 0f45 00       		.byte	0
 2658 0f46 23       		.uleb128 0x23
 2659 0f47 9D070000 		.4byte	0x79d
 2660 0f4b 2A000000 		.4byte	.LBB580
 2661 0f4f 0C000000 		.4byte	.LBE580-.LBB580
 2662 0f53 01       		.byte	0x1
 2663 0f54 55       		.byte	0x55
ARM GAS  /tmp/ccf3ZVgt.s 			page 48


 2664 0f55 DE0F0000 		.4byte	0xfde
 2665 0f59 25       		.uleb128 0x25
 2666 0f5a A4060000 		.4byte	0x6a4
 2667 0f5e 2A000000 		.4byte	.LBB582
 2668 0f62 04000000 		.4byte	.LBE582-.LBB582
 2669 0f66 03       		.byte	0x3
 2670 0f67 A601     		.2byte	0x1a6
 2671 0f69 A10F0000 		.4byte	0xfa1
 2672 0f6d 2E       		.uleb128 0x2e
 2673 0f6e 2A000000 		.4byte	.LBB583
 2674 0f72 04000000 		.4byte	.LBE583-.LBB583
 2675 0f76 2F       		.uleb128 0x2f
 2676 0f77 B5060000 		.4byte	0x6b5
 2677 0f7b 24       		.uleb128 0x24
 2678 0f7c 1B060000 		.4byte	0x61b
 2679 0f80 2A000000 		.4byte	.LBB584
 2680 0f84 04000000 		.4byte	.LBE584-.LBB584
 2681 0f88 0B       		.byte	0xb
 2682 0f89 9E01     		.2byte	0x19e
 2683 0f8b 2E       		.uleb128 0x2e
 2684 0f8c 2A000000 		.4byte	.LBB585
 2685 0f90 04000000 		.4byte	.LBE585-.LBB585
 2686 0f94 2D       		.uleb128 0x2d
 2687 0f95 2C060000 		.4byte	0x62c
 2688 0f99 B6000000 		.4byte	.LLST7
 2689 0f9d 00       		.byte	0
 2690 0f9e 00       		.byte	0
 2691 0f9f 00       		.byte	0
 2692 0fa0 00       		.byte	0
 2693 0fa1 24       		.uleb128 0x24
 2694 0fa2 E7060000 		.4byte	0x6e7
 2695 0fa6 30000000 		.4byte	.LBB586
 2696 0faa 06000000 		.4byte	.LBE586-.LBB586
 2697 0fae 03       		.byte	0x3
 2698 0faf A701     		.2byte	0x1a7
 2699 0fb1 24       		.uleb128 0x24
 2700 0fb2 53060000 		.4byte	0x653
 2701 0fb6 30000000 		.4byte	.LBB587
 2702 0fba 06000000 		.4byte	.LBE587-.LBB587
 2703 0fbe 03       		.byte	0x3
 2704 0fbf 5C01     		.2byte	0x15c
 2705 0fc1 24       		.uleb128 0x24
 2706 0fc2 39060000 		.4byte	0x639
 2707 0fc6 30000000 		.4byte	.LBB588
 2708 0fca 06000000 		.4byte	.LBE588-.LBB588
 2709 0fce 0B       		.byte	0xb
 2710 0fcf D001     		.2byte	0x1d0
 2711 0fd1 36       		.uleb128 0x36
 2712 0fd2 46060000 		.4byte	0x646
 2713 0fd6 C9000000 		.4byte	.LLST8
 2714 0fda 00       		.byte	0
 2715 0fdb 00       		.byte	0
 2716 0fdc 00       		.byte	0
 2717 0fdd 00       		.byte	0
 2718 0fde 23       		.uleb128 0x23
 2719 0fdf F0060000 		.4byte	0x6f0
 2720 0fe3 36000000 		.4byte	.LBB590
ARM GAS  /tmp/ccf3ZVgt.s 			page 49


 2721 0fe7 06000000 		.4byte	.LBE590-.LBB590
 2722 0feb 01       		.byte	0x1
 2723 0fec 56       		.byte	0x56
 2724 0fed 29100000 		.4byte	0x1029
 2725 0ff1 2E       		.uleb128 0x2e
 2726 0ff2 36000000 		.4byte	.LBB591
 2727 0ff6 06000000 		.4byte	.LBE591-.LBB591
 2728 0ffa 2F       		.uleb128 0x2f
 2729 0ffb FD060000 		.4byte	0x6fd
 2730 0fff 24       		.uleb128 0x24
 2731 1000 5C060000 		.4byte	0x65c
 2732 1004 36000000 		.4byte	.LBB592
 2733 1008 06000000 		.4byte	.LBE592-.LBB592
 2734 100c 03       		.byte	0x3
 2735 100d 7301     		.2byte	0x173
 2736 100f 24       		.uleb128 0x24
 2737 1010 39060000 		.4byte	0x639
 2738 1014 36000000 		.4byte	.LBB593
 2739 1018 06000000 		.4byte	.LBE593-.LBB593
 2740 101c 0B       		.byte	0xb
 2741 101d E301     		.2byte	0x1e3
 2742 101f 26       		.uleb128 0x26
 2743 1020 46060000 		.4byte	0x646
 2744 1024 00       		.byte	0
 2745 1025 00       		.byte	0
 2746 1026 00       		.byte	0
 2747 1027 00       		.byte	0
 2748 1028 00       		.byte	0
 2749 1029 23       		.uleb128 0x23
 2750 102a E7060000 		.4byte	0x6e7
 2751 102e 3C000000 		.4byte	.LBB595
 2752 1032 06000000 		.4byte	.LBE595-.LBB595
 2753 1036 01       		.byte	0x1
 2754 1037 59       		.byte	0x59
 2755 1038 65100000 		.4byte	0x1065
 2756 103c 24       		.uleb128 0x24
 2757 103d 53060000 		.4byte	0x653
 2758 1041 3C000000 		.4byte	.LBB596
 2759 1045 06000000 		.4byte	.LBE596-.LBB596
 2760 1049 03       		.byte	0x3
 2761 104a 5C01     		.2byte	0x15c
 2762 104c 24       		.uleb128 0x24
 2763 104d 39060000 		.4byte	0x639
 2764 1051 3C000000 		.4byte	.LBB597
 2765 1055 06000000 		.4byte	.LBE597-.LBB597
 2766 1059 0B       		.byte	0xb
 2767 105a D001     		.2byte	0x1d0
 2768 105c 26       		.uleb128 0x26
 2769 105d 46060000 		.4byte	0x646
 2770 1061 20       		.byte	0x20
 2771 1062 00       		.byte	0
 2772 1063 00       		.byte	0
 2773 1064 00       		.byte	0
 2774 1065 23       		.uleb128 0x23
 2775 1066 A6070000 		.4byte	0x7a6
 2776 106a 42000000 		.4byte	.LBB599
 2777 106e 0A000000 		.4byte	.LBE599-.LBB599
ARM GAS  /tmp/ccf3ZVgt.s 			page 50


 2778 1072 01       		.byte	0x1
 2779 1073 5A       		.byte	0x5a
 2780 1074 0C110000 		.4byte	0x110c
 2781 1078 25       		.uleb128 0x25
 2782 1079 A4060000 		.4byte	0x6a4
 2783 107d 42000000 		.4byte	.LBB601
 2784 1081 04000000 		.4byte	.LBE601-.LBB601
 2785 1085 03       		.byte	0x3
 2786 1086 B401     		.2byte	0x1b4
 2787 1088 C0100000 		.4byte	0x10c0
 2788 108c 2E       		.uleb128 0x2e
 2789 108d 42000000 		.4byte	.LBB602
 2790 1091 04000000 		.4byte	.LBE602-.LBB602
 2791 1095 2F       		.uleb128 0x2f
 2792 1096 B5060000 		.4byte	0x6b5
 2793 109a 24       		.uleb128 0x24
 2794 109b 1B060000 		.4byte	0x61b
 2795 109f 42000000 		.4byte	.LBB603
 2796 10a3 04000000 		.4byte	.LBE603-.LBB603
 2797 10a7 0B       		.byte	0xb
 2798 10a8 9E01     		.2byte	0x19e
 2799 10aa 2E       		.uleb128 0x2e
 2800 10ab 42000000 		.4byte	.LBB604
 2801 10af 04000000 		.4byte	.LBE604-.LBB604
 2802 10b3 2D       		.uleb128 0x2d
 2803 10b4 2C060000 		.4byte	0x62c
 2804 10b8 DE000000 		.4byte	.LLST9
 2805 10bc 00       		.byte	0
 2806 10bd 00       		.byte	0
 2807 10be 00       		.byte	0
 2808 10bf 00       		.byte	0
 2809 10c0 24       		.uleb128 0x24
 2810 10c1 F0060000 		.4byte	0x6f0
 2811 10c5 48000000 		.4byte	.LBB605
 2812 10c9 04000000 		.4byte	.LBE605-.LBB605
 2813 10cd 03       		.byte	0x3
 2814 10ce B501     		.2byte	0x1b5
 2815 10d0 2E       		.uleb128 0x2e
 2816 10d1 48000000 		.4byte	.LBB606
 2817 10d5 04000000 		.4byte	.LBE606-.LBB606
 2818 10d9 2F       		.uleb128 0x2f
 2819 10da FD060000 		.4byte	0x6fd
 2820 10de 24       		.uleb128 0x24
 2821 10df 5C060000 		.4byte	0x65c
 2822 10e3 48000000 		.4byte	.LBB607
 2823 10e7 04000000 		.4byte	.LBE607-.LBB607
 2824 10eb 03       		.byte	0x3
 2825 10ec 7301     		.2byte	0x173
 2826 10ee 24       		.uleb128 0x24
 2827 10ef 39060000 		.4byte	0x639
 2828 10f3 48000000 		.4byte	.LBB608
 2829 10f7 04000000 		.4byte	.LBE608-.LBB608
 2830 10fb 0B       		.byte	0xb
 2831 10fc E301     		.2byte	0x1e3
 2832 10fe 36       		.uleb128 0x36
 2833 10ff 46060000 		.4byte	0x646
 2834 1103 F1000000 		.4byte	.LLST10
ARM GAS  /tmp/ccf3ZVgt.s 			page 51


 2835 1107 00       		.byte	0
 2836 1108 00       		.byte	0
 2837 1109 00       		.byte	0
 2838 110a 00       		.byte	0
 2839 110b 00       		.byte	0
 2840 110c 23       		.uleb128 0x23
 2841 110d A6070000 		.4byte	0x7a6
 2842 1111 4C000000 		.4byte	.LBB610
 2843 1115 0C000000 		.4byte	.LBE610-.LBB610
 2844 1119 01       		.byte	0x1
 2845 111a 5B       		.byte	0x5b
 2846 111b B3110000 		.4byte	0x11b3
 2847 111f 25       		.uleb128 0x25
 2848 1120 A4060000 		.4byte	0x6a4
 2849 1124 4C000000 		.4byte	.LBB612
 2850 1128 04000000 		.4byte	.LBE612-.LBB612
 2851 112c 03       		.byte	0x3
 2852 112d B401     		.2byte	0x1b4
 2853 112f 67110000 		.4byte	0x1167
 2854 1133 2E       		.uleb128 0x2e
 2855 1134 4C000000 		.4byte	.LBB613
 2856 1138 04000000 		.4byte	.LBE613-.LBB613
 2857 113c 2F       		.uleb128 0x2f
 2858 113d B5060000 		.4byte	0x6b5
 2859 1141 24       		.uleb128 0x24
 2860 1142 1B060000 		.4byte	0x61b
 2861 1146 4C000000 		.4byte	.LBB614
 2862 114a 04000000 		.4byte	.LBE614-.LBB614
 2863 114e 0B       		.byte	0xb
 2864 114f 9E01     		.2byte	0x19e
 2865 1151 2E       		.uleb128 0x2e
 2866 1152 4C000000 		.4byte	.LBB615
 2867 1156 04000000 		.4byte	.LBE615-.LBB615
 2868 115a 2D       		.uleb128 0x2d
 2869 115b 2C060000 		.4byte	0x62c
 2870 115f 05010000 		.4byte	.LLST11
 2871 1163 00       		.byte	0
 2872 1164 00       		.byte	0
 2873 1165 00       		.byte	0
 2874 1166 00       		.byte	0
 2875 1167 24       		.uleb128 0x24
 2876 1168 F0060000 		.4byte	0x6f0
 2877 116c 52000000 		.4byte	.LBB616
 2878 1170 06000000 		.4byte	.LBE616-.LBB616
 2879 1174 03       		.byte	0x3
 2880 1175 B501     		.2byte	0x1b5
 2881 1177 2E       		.uleb128 0x2e
 2882 1178 52000000 		.4byte	.LBB617
 2883 117c 06000000 		.4byte	.LBE617-.LBB617
 2884 1180 2F       		.uleb128 0x2f
 2885 1181 FD060000 		.4byte	0x6fd
 2886 1185 24       		.uleb128 0x24
 2887 1186 5C060000 		.4byte	0x65c
 2888 118a 52000000 		.4byte	.LBB618
 2889 118e 06000000 		.4byte	.LBE618-.LBB618
 2890 1192 03       		.byte	0x3
 2891 1193 7301     		.2byte	0x173
ARM GAS  /tmp/ccf3ZVgt.s 			page 52


 2892 1195 24       		.uleb128 0x24
 2893 1196 39060000 		.4byte	0x639
 2894 119a 52000000 		.4byte	.LBB619
 2895 119e 06000000 		.4byte	.LBE619-.LBB619
 2896 11a2 0B       		.byte	0xb
 2897 11a3 E301     		.2byte	0x1e3
 2898 11a5 36       		.uleb128 0x36
 2899 11a6 46060000 		.4byte	0x646
 2900 11aa 18010000 		.4byte	.LLST12
 2901 11ae 00       		.byte	0
 2902 11af 00       		.byte	0
 2903 11b0 00       		.byte	0
 2904 11b1 00       		.byte	0
 2905 11b2 00       		.byte	0
 2906 11b3 23       		.uleb128 0x23
 2907 11b4 20070000 		.4byte	0x720
 2908 11b8 58000000 		.4byte	.LBB621
 2909 11bc 04000000 		.4byte	.LBE621-.LBB621
 2910 11c0 01       		.byte	0x1
 2911 11c1 5E       		.byte	0x5e
 2912 11c2 D0110000 		.4byte	0x11d0
 2913 11c6 36       		.uleb128 0x36
 2914 11c7 2C070000 		.4byte	0x72c
 2915 11cb 2C010000 		.4byte	.LLST13
 2916 11cf 00       		.byte	0
 2917 11d0 23       		.uleb128 0x23
 2918 11d1 AF070000 		.4byte	0x7af
 2919 11d5 5C000000 		.4byte	.LBB623
 2920 11d9 24000000 		.4byte	.LBE623-.LBB623
 2921 11dd 01       		.byte	0x1
 2922 11de 5F       		.byte	0x5f
 2923 11df 11130000 		.4byte	0x1311
 2924 11e3 26       		.uleb128 0x26
 2925 11e4 E0070000 		.4byte	0x7e0
 2926 11e8 00       		.byte	0
 2927 11e9 37       		.uleb128 0x37
 2928 11ea D4070000 		.4byte	0x7d4
 2929 11ee 06       		.uleb128 0x6
 2930 11ef 03       		.byte	0x3
 2931 11f0 00000000 		.4byte	vtcb
 2932 11f4 9F       		.byte	0x9f
 2933 11f5 26       		.uleb128 0x26
 2934 11f6 C8070000 		.4byte	0x7c8
 2935 11fa 01       		.byte	0x1
 2936 11fb 36       		.uleb128 0x36
 2937 11fc BC070000 		.4byte	0x7bc
 2938 1200 66010000 		.4byte	.LLST14
 2939 1204 25       		.uleb128 0x25
 2940 1205 E7060000 		.4byte	0x6e7
 2941 1209 5C000000 		.4byte	.LBB624
 2942 120d 06000000 		.4byte	.LBE624-.LBB624
 2943 1211 04       		.byte	0x4
 2944 1212 E801     		.2byte	0x1e8
 2945 1214 41120000 		.4byte	0x1241
 2946 1218 24       		.uleb128 0x24
 2947 1219 53060000 		.4byte	0x653
 2948 121d 5C000000 		.4byte	.LBB625
ARM GAS  /tmp/ccf3ZVgt.s 			page 53


 2949 1221 06000000 		.4byte	.LBE625-.LBB625
 2950 1225 03       		.byte	0x3
 2951 1226 5C01     		.2byte	0x15c
 2952 1228 24       		.uleb128 0x24
 2953 1229 39060000 		.4byte	0x639
 2954 122d 5C000000 		.4byte	.LBB626
 2955 1231 06000000 		.4byte	.LBE626-.LBB626
 2956 1235 0B       		.byte	0xb
 2957 1236 D001     		.2byte	0x1d0
 2958 1238 26       		.uleb128 0x26
 2959 1239 46060000 		.4byte	0x646
 2960 123d 20       		.byte	0x20
 2961 123e 00       		.byte	0
 2962 123f 00       		.byte	0
 2963 1240 00       		.byte	0
 2964 1241 25       		.uleb128 0x25
 2965 1242 2D080000 		.4byte	0x82d
 2966 1246 62000000 		.4byte	.LBB628
 2967 124a 18000000 		.4byte	.LBE628-.LBB628
 2968 124e 04       		.byte	0x4
 2969 124f E901     		.2byte	0x1e9
 2970 1251 C8120000 		.4byte	0x12c8
 2971 1255 26       		.uleb128 0x26
 2972 1256 46080000 		.4byte	0x846
 2973 125a 01       		.byte	0x1
 2974 125b 37       		.uleb128 0x37
 2975 125c 52080000 		.4byte	0x852
 2976 1260 06       		.uleb128 0x6
 2977 1261 03       		.byte	0x3
 2978 1262 00000000 		.4byte	vtcb
 2979 1266 9F       		.byte	0x9f
 2980 1267 26       		.uleb128 0x26
 2981 1268 5E080000 		.4byte	0x85e
 2982 126c 00       		.byte	0
 2983 126d 36       		.uleb128 0x36
 2984 126e 3A080000 		.4byte	0x83a
 2985 1272 A0010000 		.4byte	.LLST15
 2986 1276 25       		.uleb128 0x25
 2987 1277 83070000 		.4byte	0x783
 2988 127b 62000000 		.4byte	.LBB630
 2989 127f 0C000000 		.4byte	.LBE630-.LBB630
 2990 1283 04       		.byte	0x4
 2991 1284 CB01     		.2byte	0x1cb
 2992 1286 A4120000 		.4byte	0x12a4
 2993 128a 36       		.uleb128 0x36
 2994 128b 90070000 		.4byte	0x790
 2995 128f A0010000 		.4byte	.LLST15
 2996 1293 34       		.uleb128 0x34
 2997 1294 6E000000 		.4byte	.LVL46
 2998 1298 D7140000 		.4byte	0x14d7
 2999 129c 32       		.uleb128 0x32
 3000 129d 01       		.uleb128 0x1
 3001 129e 50       		.byte	0x50
 3002 129f 02       		.uleb128 0x2
 3003 12a0 74       		.byte	0x74
 3004 12a1 00       		.sleb128 0
 3005 12a2 00       		.byte	0
ARM GAS  /tmp/ccf3ZVgt.s 			page 54


 3006 12a3 00       		.byte	0
 3007 12a4 34       		.uleb128 0x34
 3008 12a5 7A000000 		.4byte	.LVL47
 3009 12a9 E8140000 		.4byte	0x14e8
 3010 12ad 32       		.uleb128 0x32
 3011 12ae 01       		.uleb128 0x1
 3012 12af 53       		.byte	0x53
 3013 12b0 01       		.uleb128 0x1
 3014 12b1 30       		.byte	0x30
 3015 12b2 32       		.uleb128 0x32
 3016 12b3 01       		.uleb128 0x1
 3017 12b4 52       		.byte	0x52
 3018 12b5 05       		.uleb128 0x5
 3019 12b6 03       		.byte	0x3
 3020 12b7 00000000 		.4byte	vtcb
 3021 12bb 32       		.uleb128 0x32
 3022 12bc 01       		.uleb128 0x1
 3023 12bd 51       		.byte	0x51
 3024 12be 01       		.uleb128 0x1
 3025 12bf 31       		.byte	0x31
 3026 12c0 32       		.uleb128 0x32
 3027 12c1 01       		.uleb128 0x1
 3028 12c2 50       		.byte	0x50
 3029 12c3 02       		.uleb128 0x2
 3030 12c4 74       		.byte	0x74
 3031 12c5 00       		.sleb128 0
 3032 12c6 00       		.byte	0
 3033 12c7 00       		.byte	0
 3034 12c8 24       		.uleb128 0x24
 3035 12c9 F0060000 		.4byte	0x6f0
 3036 12cd 7A000000 		.4byte	.LBB632
 3037 12d1 06000000 		.4byte	.LBE632-.LBB632
 3038 12d5 04       		.byte	0x4
 3039 12d6 EA01     		.2byte	0x1ea
 3040 12d8 2E       		.uleb128 0x2e
 3041 12d9 7A000000 		.4byte	.LBB633
 3042 12dd 06000000 		.4byte	.LBE633-.LBB633
 3043 12e1 2F       		.uleb128 0x2f
 3044 12e2 FD060000 		.4byte	0x6fd
 3045 12e6 24       		.uleb128 0x24
 3046 12e7 5C060000 		.4byte	0x65c
 3047 12eb 7A000000 		.4byte	.LBB634
 3048 12ef 06000000 		.4byte	.LBE634-.LBB634
 3049 12f3 03       		.byte	0x3
 3050 12f4 7301     		.2byte	0x173
 3051 12f6 24       		.uleb128 0x24
 3052 12f7 39060000 		.4byte	0x639
 3053 12fb 7A000000 		.4byte	.LBB635
 3054 12ff 06000000 		.4byte	.LBE635-.LBB635
 3055 1303 0B       		.byte	0xb
 3056 1304 E301     		.2byte	0x1e3
 3057 1306 26       		.uleb128 0x26
 3058 1307 46060000 		.4byte	0x646
 3059 130b 00       		.byte	0
 3060 130c 00       		.byte	0
 3061 130d 00       		.byte	0
 3062 130e 00       		.byte	0
ARM GAS  /tmp/ccf3ZVgt.s 			page 55


 3063 130f 00       		.byte	0
 3064 1310 00       		.byte	0
 3065 1311 23       		.uleb128 0x23
 3066 1312 ED070000 		.4byte	0x7ed
 3067 1316 86000000 		.4byte	.LBB637
 3068 131a 0C000000 		.4byte	.LBE637-.LBB637
 3069 131e 01       		.byte	0x1
 3070 131f 62       		.byte	0x62
 3071 1320 C2130000 		.4byte	0x13c2
 3072 1324 36       		.uleb128 0x36
 3073 1325 FE070000 		.4byte	0x7fe
 3074 1329 DA010000 		.4byte	.LLST17
 3075 132d 2E       		.uleb128 0x2e
 3076 132e 86000000 		.4byte	.LBB638
 3077 1332 0C000000 		.4byte	.LBE638-.LBB638
 3078 1336 2F       		.uleb128 0x2f
 3079 1337 0A080000 		.4byte	0x80a
 3080 133b 25       		.uleb128 0x25
 3081 133c E7060000 		.4byte	0x6e7
 3082 1340 86000000 		.4byte	.LBB639
 3083 1344 08000000 		.4byte	.LBE639-.LBB639
 3084 1348 04       		.byte	0x4
 3085 1349 8901     		.2byte	0x189
 3086 134b 78130000 		.4byte	0x1378
 3087 134f 24       		.uleb128 0x24
 3088 1350 53060000 		.4byte	0x653
 3089 1354 86000000 		.4byte	.LBB640
 3090 1358 08000000 		.4byte	.LBE640-.LBB640
 3091 135c 03       		.byte	0x3
 3092 135d 5C01     		.2byte	0x15c
 3093 135f 24       		.uleb128 0x24
 3094 1360 39060000 		.4byte	0x639
 3095 1364 86000000 		.4byte	.LBB641
 3096 1368 08000000 		.4byte	.LBE641-.LBB641
 3097 136c 0B       		.byte	0xb
 3098 136d D001     		.2byte	0x1d0
 3099 136f 26       		.uleb128 0x26
 3100 1370 46060000 		.4byte	0x646
 3101 1374 20       		.byte	0x20
 3102 1375 00       		.byte	0
 3103 1376 00       		.byte	0
 3104 1377 00       		.byte	0
 3105 1378 24       		.uleb128 0x24
 3106 1379 F0060000 		.4byte	0x6f0
 3107 137d 8E000000 		.4byte	.LBB643
 3108 1381 04000000 		.4byte	.LBE643-.LBB643
 3109 1385 04       		.byte	0x4
 3110 1386 8B01     		.2byte	0x18b
 3111 1388 2E       		.uleb128 0x2e
 3112 1389 8E000000 		.4byte	.LBB644
 3113 138d 04000000 		.4byte	.LBE644-.LBB644
 3114 1391 2F       		.uleb128 0x2f
 3115 1392 FD060000 		.4byte	0x6fd
 3116 1396 24       		.uleb128 0x24
 3117 1397 5C060000 		.4byte	0x65c
 3118 139b 8E000000 		.4byte	.LBB645
 3119 139f 04000000 		.4byte	.LBE645-.LBB645
ARM GAS  /tmp/ccf3ZVgt.s 			page 56


 3120 13a3 03       		.byte	0x3
 3121 13a4 7301     		.2byte	0x173
 3122 13a6 24       		.uleb128 0x24
 3123 13a7 39060000 		.4byte	0x639
 3124 13ab 8E000000 		.4byte	.LBB646
 3125 13af 04000000 		.4byte	.LBE646-.LBB646
 3126 13b3 0B       		.byte	0xb
 3127 13b4 E301     		.2byte	0x1e3
 3128 13b6 26       		.uleb128 0x26
 3129 13b7 46060000 		.4byte	0x646
 3130 13bb 00       		.byte	0
 3131 13bc 00       		.byte	0
 3132 13bd 00       		.byte	0
 3133 13be 00       		.byte	0
 3134 13bf 00       		.byte	0
 3135 13c0 00       		.byte	0
 3136 13c1 00       		.byte	0
 3137 13c2 2B       		.uleb128 0x2b
 3138 13c3 08000000 		.4byte	.LVL24
 3139 13c7 89140000 		.4byte	0x1489
 3140 13cb 2B       		.uleb128 0x2b
 3141 13cc 0C000000 		.4byte	.LVL25
 3142 13d0 95140000 		.4byte	0x1495
 3143 13d4 2B       		.uleb128 0x2b
 3144 13d5 16000000 		.4byte	.LVL26
 3145 13d9 89140000 		.4byte	0x1489
 3146 13dd 2B       		.uleb128 0x2b
 3147 13de 1A000000 		.4byte	.LVL27
 3148 13e2 95140000 		.4byte	0x1495
 3149 13e6 31       		.uleb128 0x31
 3150 13e7 86000000 		.4byte	.LVL49
 3151 13eb 08150000 		.4byte	0x1508
 3152 13ef F9130000 		.4byte	0x13f9
 3153 13f3 32       		.uleb128 0x32
 3154 13f4 01       		.uleb128 0x1
 3155 13f5 50       		.byte	0x50
 3156 13f6 01       		.uleb128 0x1
 3157 13f7 3A       		.byte	0x3a
 3158 13f8 00       		.byte	0
 3159 13f9 34       		.uleb128 0x34
 3160 13fa 9E000000 		.4byte	.LVL51
 3161 13fe BD140000 		.4byte	0x14bd
 3162 1402 32       		.uleb128 0x32
 3163 1403 01       		.uleb128 0x1
 3164 1404 50       		.byte	0x50
 3165 1405 01       		.uleb128 0x1
 3166 1406 31       		.byte	0x31
 3167 1407 00       		.byte	0
 3168 1408 00       		.byte	0
 3169 1409 38       		.uleb128 0x38
 3170 140a 8C010000 		.4byte	.LASF139
 3171 140e 0F       		.byte	0xf
 3172 140f FA06     		.2byte	0x6fa
 3173 1411 15140000 		.4byte	0x1415
 3174 1415 13       		.uleb128 0x13
 3175 1416 4C000000 		.4byte	0x4c
 3176 141a 39       		.uleb128 0x39
ARM GAS  /tmp/ccf3ZVgt.s 			page 57


 3177 141b 636800   		.ascii	"ch\000"
 3178 141e 09       		.byte	0x9
 3179 141f 0902     		.2byte	0x209
 3180 1421 BD030000 		.4byte	0x3bd
 3181 1425 3A       		.uleb128 0x3a
 3182 1426 F5030000 		.4byte	.LASF140
 3183 142a 01       		.byte	0x1
 3184 142b 65       		.byte	0x65
 3185 142c 36140000 		.4byte	0x1436
 3186 1430 05       		.uleb128 0x5
 3187 1431 03       		.byte	0x3
 3188 1432 00000000 		.4byte	testsys1
 3189 1436 12       		.uleb128 0x12
 3190 1437 D7050000 		.4byte	0x5d7
 3191 143b 3A       		.uleb128 0x3a
 3192 143c FE030000 		.4byte	.LASF141
 3193 1440 01       		.byte	0x1
 3194 1441 7B       		.byte	0x7b
 3195 1442 36140000 		.4byte	0x1436
 3196 1446 05       		.uleb128 0x5
 3197 1447 03       		.byte	0x3
 3198 1448 00000000 		.4byte	testsys2
 3199 144c 3A       		.uleb128 0x3a
 3200 144d 07040000 		.4byte	.LASF142
 3201 1451 01       		.byte	0x1
 3202 1452 A2       		.byte	0xa2
 3203 1453 36140000 		.4byte	0x1436
 3204 1457 05       		.uleb128 0x5
 3205 1458 03       		.byte	0x3
 3206 1459 00000000 		.4byte	testsys3
 3207 145d 14       		.uleb128 0x14
 3208 145e 6D140000 		.4byte	0x146d
 3209 1462 6D140000 		.4byte	0x146d
 3210 1466 15       		.uleb128 0x15
 3211 1467 18040000 		.4byte	0x418
 3212 146b 03       		.byte	0x3
 3213 146c 00       		.byte	0
 3214 146d 09       		.uleb128 0x9
 3215 146e 04       		.byte	0x4
 3216 146f 36140000 		.4byte	0x1436
 3217 1473 3A       		.uleb128 0x3a
 3218 1474 5E020000 		.4byte	.LASF143
 3219 1478 01       		.byte	0x1
 3220 1479 AC       		.byte	0xac
 3221 147a 84140000 		.4byte	0x1484
 3222 147e 05       		.uleb128 0x5
 3223 147f 03       		.byte	0x3
 3224 1480 00000000 		.4byte	patternsys
 3225 1484 12       		.uleb128 0x12
 3226 1485 5D140000 		.4byte	0x145d
 3227 1489 3B       		.uleb128 0x3b
 3228 148a F6050000 		.4byte	.LASF152
 3229 148e 03       		.byte	0x3
 3230 148f 1901     		.2byte	0x119
 3231 1491 94000000 		.4byte	0x94
 3232 1495 3C       		.uleb128 0x3c
 3233 1496 D2050000 		.4byte	.LASF146
ARM GAS  /tmp/ccf3ZVgt.s 			page 58


 3234 149a 03       		.byte	0x3
 3235 149b 1A01     		.2byte	0x11a
 3236 149d A7140000 		.4byte	0x14a7
 3237 14a1 0C       		.uleb128 0xc
 3238 14a2 94000000 		.4byte	0x94
 3239 14a6 00       		.byte	0
 3240 14a7 3D       		.uleb128 0x3d
 3241 14a8 41070000 		.4byte	.LASF144
 3242 14ac 03       		.byte	0x3
 3243 14ad 1701     		.2byte	0x117
 3244 14af E0060000 		.4byte	0x6e0
 3245 14b3 BD140000 		.4byte	0x14bd
 3246 14b7 0C       		.uleb128 0xc
 3247 14b8 37000000 		.4byte	0x37
 3248 14bc 00       		.byte	0
 3249 14bd 3E       		.uleb128 0x3e
 3250 14be 29070000 		.4byte	.LASF145
 3251 14c2 0E       		.byte	0xe
 3252 14c3 5A       		.byte	0x5a
 3253 14c4 E0060000 		.4byte	0x6e0
 3254 14c8 D7140000 		.4byte	0x14d7
 3255 14cc 0C       		.uleb128 0xc
 3256 14cd 37000000 		.4byte	0x37
 3257 14d1 0C       		.uleb128 0xc
 3258 14d2 E0060000 		.4byte	0x6e0
 3259 14d6 00       		.byte	0
 3260 14d7 3F       		.uleb128 0x3f
 3261 14d8 55010000 		.4byte	.LASF147
 3262 14dc 04       		.byte	0x4
 3263 14dd BE       		.byte	0xbe
 3264 14de E8140000 		.4byte	0x14e8
 3265 14e2 0C       		.uleb128 0xc
 3266 14e3 A6050000 		.4byte	0x5a6
 3267 14e7 00       		.byte	0
 3268 14e8 3F       		.uleb128 0x3f
 3269 14e9 87030000 		.4byte	.LASF148
 3270 14ed 04       		.byte	0x4
 3271 14ee BC       		.byte	0xbc
 3272 14ef 08150000 		.4byte	0x1508
 3273 14f3 0C       		.uleb128 0xc
 3274 14f4 A6050000 		.4byte	0x5a6
 3275 14f8 0C       		.uleb128 0xc
 3276 14f9 F7000000 		.4byte	0xf7
 3277 14fd 0C       		.uleb128 0xc
 3278 14fe D2020000 		.4byte	0x2d2
 3279 1502 0C       		.uleb128 0xc
 3280 1503 EE020000 		.4byte	0x2ee
 3281 1507 00       		.byte	0
 3282 1508 40       		.uleb128 0x40
 3283 1509 AF050000 		.4byte	.LASF153
 3284 150d 10       		.byte	0x10
 3285 150e 96       		.byte	0x96
 3286 150f 0C       		.uleb128 0xc
 3287 1510 F7000000 		.4byte	0xf7
 3288 1514 00       		.byte	0
 3289 1515 00       		.byte	0
 3290              		.section	.debug_abbrev,"",%progbits
ARM GAS  /tmp/ccf3ZVgt.s 			page 59


 3291              	.Ldebug_abbrev0:
 3292 0000 01       		.uleb128 0x1
 3293 0001 11       		.uleb128 0x11
 3294 0002 01       		.byte	0x1
 3295 0003 25       		.uleb128 0x25
 3296 0004 0E       		.uleb128 0xe
 3297 0005 13       		.uleb128 0x13
 3298 0006 0B       		.uleb128 0xb
 3299 0007 03       		.uleb128 0x3
 3300 0008 0E       		.uleb128 0xe
 3301 0009 1B       		.uleb128 0x1b
 3302 000a 0E       		.uleb128 0xe
 3303 000b 55       		.uleb128 0x55
 3304 000c 17       		.uleb128 0x17
 3305 000d 11       		.uleb128 0x11
 3306 000e 01       		.uleb128 0x1
 3307 000f 10       		.uleb128 0x10
 3308 0010 17       		.uleb128 0x17
 3309 0011 00       		.byte	0
 3310 0012 00       		.byte	0
 3311 0013 02       		.uleb128 0x2
 3312 0014 24       		.uleb128 0x24
 3313 0015 00       		.byte	0
 3314 0016 0B       		.uleb128 0xb
 3315 0017 0B       		.uleb128 0xb
 3316 0018 3E       		.uleb128 0x3e
 3317 0019 0B       		.uleb128 0xb
 3318 001a 03       		.uleb128 0x3
 3319 001b 08       		.uleb128 0x8
 3320 001c 00       		.byte	0
 3321 001d 00       		.byte	0
 3322 001e 03       		.uleb128 0x3
 3323 001f 16       		.uleb128 0x16
 3324 0020 00       		.byte	0
 3325 0021 03       		.uleb128 0x3
 3326 0022 0E       		.uleb128 0xe
 3327 0023 3A       		.uleb128 0x3a
 3328 0024 0B       		.uleb128 0xb
 3329 0025 3B       		.uleb128 0x3b
 3330 0026 0B       		.uleb128 0xb
 3331 0027 49       		.uleb128 0x49
 3332 0028 13       		.uleb128 0x13
 3333 0029 00       		.byte	0
 3334 002a 00       		.byte	0
 3335 002b 04       		.uleb128 0x4
 3336 002c 24       		.uleb128 0x24
 3337 002d 00       		.byte	0
 3338 002e 0B       		.uleb128 0xb
 3339 002f 0B       		.uleb128 0xb
 3340 0030 3E       		.uleb128 0x3e
 3341 0031 0B       		.uleb128 0xb
 3342 0032 03       		.uleb128 0x3
 3343 0033 0E       		.uleb128 0xe
 3344 0034 00       		.byte	0
 3345 0035 00       		.byte	0
 3346 0036 05       		.uleb128 0x5
 3347 0037 13       		.uleb128 0x13
ARM GAS  /tmp/ccf3ZVgt.s 			page 60


 3348 0038 01       		.byte	0x1
 3349 0039 03       		.uleb128 0x3
 3350 003a 0E       		.uleb128 0xe
 3351 003b 0B       		.uleb128 0xb
 3352 003c 0B       		.uleb128 0xb
 3353 003d 3A       		.uleb128 0x3a
 3354 003e 0B       		.uleb128 0xb
 3355 003f 3B       		.uleb128 0x3b
 3356 0040 0B       		.uleb128 0xb
 3357 0041 01       		.uleb128 0x1
 3358 0042 13       		.uleb128 0x13
 3359 0043 00       		.byte	0
 3360 0044 00       		.byte	0
 3361 0045 06       		.uleb128 0x6
 3362 0046 0D       		.uleb128 0xd
 3363 0047 00       		.byte	0
 3364 0048 03       		.uleb128 0x3
 3365 0049 0E       		.uleb128 0xe
 3366 004a 3A       		.uleb128 0x3a
 3367 004b 0B       		.uleb128 0xb
 3368 004c 3B       		.uleb128 0x3b
 3369 004d 0B       		.uleb128 0xb
 3370 004e 49       		.uleb128 0x49
 3371 004f 13       		.uleb128 0x13
 3372 0050 38       		.uleb128 0x38
 3373 0051 0B       		.uleb128 0xb
 3374 0052 00       		.byte	0
 3375 0053 00       		.byte	0
 3376 0054 07       		.uleb128 0x7
 3377 0055 0D       		.uleb128 0xd
 3378 0056 00       		.byte	0
 3379 0057 03       		.uleb128 0x3
 3380 0058 08       		.uleb128 0x8
 3381 0059 3A       		.uleb128 0x3a
 3382 005a 0B       		.uleb128 0xb
 3383 005b 3B       		.uleb128 0x3b
 3384 005c 05       		.uleb128 0x5
 3385 005d 49       		.uleb128 0x49
 3386 005e 13       		.uleb128 0x13
 3387 005f 38       		.uleb128 0x38
 3388 0060 0B       		.uleb128 0xb
 3389 0061 00       		.byte	0
 3390 0062 00       		.byte	0
 3391 0063 08       		.uleb128 0x8
 3392 0064 0D       		.uleb128 0xd
 3393 0065 00       		.byte	0
 3394 0066 03       		.uleb128 0x3
 3395 0067 0E       		.uleb128 0xe
 3396 0068 3A       		.uleb128 0x3a
 3397 0069 0B       		.uleb128 0xb
 3398 006a 3B       		.uleb128 0x3b
 3399 006b 05       		.uleb128 0x5
 3400 006c 49       		.uleb128 0x49
 3401 006d 13       		.uleb128 0x13
 3402 006e 38       		.uleb128 0x38
 3403 006f 0B       		.uleb128 0xb
 3404 0070 00       		.byte	0
ARM GAS  /tmp/ccf3ZVgt.s 			page 61


 3405 0071 00       		.byte	0
 3406 0072 09       		.uleb128 0x9
 3407 0073 0F       		.uleb128 0xf
 3408 0074 00       		.byte	0
 3409 0075 0B       		.uleb128 0xb
 3410 0076 0B       		.uleb128 0xb
 3411 0077 49       		.uleb128 0x49
 3412 0078 13       		.uleb128 0x13
 3413 0079 00       		.byte	0
 3414 007a 00       		.byte	0
 3415 007b 0A       		.uleb128 0xa
 3416 007c 13       		.uleb128 0x13
 3417 007d 01       		.byte	0x1
 3418 007e 03       		.uleb128 0x3
 3419 007f 0E       		.uleb128 0xe
 3420 0080 0B       		.uleb128 0xb
 3421 0081 0B       		.uleb128 0xb
 3422 0082 3A       		.uleb128 0x3a
 3423 0083 0B       		.uleb128 0xb
 3424 0084 3B       		.uleb128 0x3b
 3425 0085 05       		.uleb128 0x5
 3426 0086 01       		.uleb128 0x1
 3427 0087 13       		.uleb128 0x13
 3428 0088 00       		.byte	0
 3429 0089 00       		.byte	0
 3430 008a 0B       		.uleb128 0xb
 3431 008b 15       		.uleb128 0x15
 3432 008c 01       		.byte	0x1
 3433 008d 27       		.uleb128 0x27
 3434 008e 19       		.uleb128 0x19
 3435 008f 01       		.uleb128 0x1
 3436 0090 13       		.uleb128 0x13
 3437 0091 00       		.byte	0
 3438 0092 00       		.byte	0
 3439 0093 0C       		.uleb128 0xc
 3440 0094 05       		.uleb128 0x5
 3441 0095 00       		.byte	0
 3442 0096 49       		.uleb128 0x49
 3443 0097 13       		.uleb128 0x13
 3444 0098 00       		.byte	0
 3445 0099 00       		.byte	0
 3446 009a 0D       		.uleb128 0xd
 3447 009b 0F       		.uleb128 0xf
 3448 009c 00       		.byte	0
 3449 009d 0B       		.uleb128 0xb
 3450 009e 0B       		.uleb128 0xb
 3451 009f 00       		.byte	0
 3452 00a0 00       		.byte	0
 3453 00a1 0E       		.uleb128 0xe
 3454 00a2 13       		.uleb128 0x13
 3455 00a3 01       		.byte	0x1
 3456 00a4 03       		.uleb128 0x3
 3457 00a5 0E       		.uleb128 0xe
 3458 00a6 0B       		.uleb128 0xb
 3459 00a7 05       		.uleb128 0x5
 3460 00a8 3A       		.uleb128 0x3a
 3461 00a9 0B       		.uleb128 0xb
ARM GAS  /tmp/ccf3ZVgt.s 			page 62


 3462 00aa 3B       		.uleb128 0x3b
 3463 00ab 05       		.uleb128 0x5
 3464 00ac 01       		.uleb128 0x1
 3465 00ad 13       		.uleb128 0x13
 3466 00ae 00       		.byte	0
 3467 00af 00       		.byte	0
 3468 00b0 0F       		.uleb128 0xf
 3469 00b1 0D       		.uleb128 0xd
 3470 00b2 00       		.byte	0
 3471 00b3 03       		.uleb128 0x3
 3472 00b4 08       		.uleb128 0x8
 3473 00b5 3A       		.uleb128 0x3a
 3474 00b6 0B       		.uleb128 0xb
 3475 00b7 3B       		.uleb128 0x3b
 3476 00b8 0B       		.uleb128 0xb
 3477 00b9 49       		.uleb128 0x49
 3478 00ba 13       		.uleb128 0x13
 3479 00bb 38       		.uleb128 0x38
 3480 00bc 0B       		.uleb128 0xb
 3481 00bd 00       		.byte	0
 3482 00be 00       		.byte	0
 3483 00bf 10       		.uleb128 0x10
 3484 00c0 17       		.uleb128 0x17
 3485 00c1 01       		.byte	0x1
 3486 00c2 0B       		.uleb128 0xb
 3487 00c3 0B       		.uleb128 0xb
 3488 00c4 3A       		.uleb128 0x3a
 3489 00c5 0B       		.uleb128 0xb
 3490 00c6 3B       		.uleb128 0x3b
 3491 00c7 0B       		.uleb128 0xb
 3492 00c8 01       		.uleb128 0x1
 3493 00c9 13       		.uleb128 0x13
 3494 00ca 00       		.byte	0
 3495 00cb 00       		.byte	0
 3496 00cc 11       		.uleb128 0x11
 3497 00cd 0D       		.uleb128 0xd
 3498 00ce 00       		.byte	0
 3499 00cf 03       		.uleb128 0x3
 3500 00d0 0E       		.uleb128 0xe
 3501 00d1 3A       		.uleb128 0x3a
 3502 00d2 0B       		.uleb128 0xb
 3503 00d3 3B       		.uleb128 0x3b
 3504 00d4 05       		.uleb128 0x5
 3505 00d5 49       		.uleb128 0x49
 3506 00d6 13       		.uleb128 0x13
 3507 00d7 00       		.byte	0
 3508 00d8 00       		.byte	0
 3509 00d9 12       		.uleb128 0x12
 3510 00da 26       		.uleb128 0x26
 3511 00db 00       		.byte	0
 3512 00dc 49       		.uleb128 0x49
 3513 00dd 13       		.uleb128 0x13
 3514 00de 00       		.byte	0
 3515 00df 00       		.byte	0
 3516 00e0 13       		.uleb128 0x13
 3517 00e1 35       		.uleb128 0x35
 3518 00e2 00       		.byte	0
ARM GAS  /tmp/ccf3ZVgt.s 			page 63


 3519 00e3 49       		.uleb128 0x49
 3520 00e4 13       		.uleb128 0x13
 3521 00e5 00       		.byte	0
 3522 00e6 00       		.byte	0
 3523 00e7 14       		.uleb128 0x14
 3524 00e8 01       		.uleb128 0x1
 3525 00e9 01       		.byte	0x1
 3526 00ea 49       		.uleb128 0x49
 3527 00eb 13       		.uleb128 0x13
 3528 00ec 01       		.uleb128 0x1
 3529 00ed 13       		.uleb128 0x13
 3530 00ee 00       		.byte	0
 3531 00ef 00       		.byte	0
 3532 00f0 15       		.uleb128 0x15
 3533 00f1 21       		.uleb128 0x21
 3534 00f2 00       		.byte	0
 3535 00f3 49       		.uleb128 0x49
 3536 00f4 13       		.uleb128 0x13
 3537 00f5 2F       		.uleb128 0x2f
 3538 00f6 0B       		.uleb128 0xb
 3539 00f7 00       		.byte	0
 3540 00f8 00       		.byte	0
 3541 00f9 16       		.uleb128 0x16
 3542 00fa 15       		.uleb128 0x15
 3543 00fb 00       		.byte	0
 3544 00fc 27       		.uleb128 0x27
 3545 00fd 19       		.uleb128 0x19
 3546 00fe 00       		.byte	0
 3547 00ff 00       		.byte	0
 3548 0100 17       		.uleb128 0x17
 3549 0101 2E       		.uleb128 0x2e
 3550 0102 01       		.byte	0x1
 3551 0103 03       		.uleb128 0x3
 3552 0104 0E       		.uleb128 0xe
 3553 0105 3A       		.uleb128 0x3a
 3554 0106 0B       		.uleb128 0xb
 3555 0107 3B       		.uleb128 0x3b
 3556 0108 05       		.uleb128 0x5
 3557 0109 27       		.uleb128 0x27
 3558 010a 19       		.uleb128 0x19
 3559 010b 49       		.uleb128 0x49
 3560 010c 13       		.uleb128 0x13
 3561 010d 20       		.uleb128 0x20
 3562 010e 0B       		.uleb128 0xb
 3563 010f 01       		.uleb128 0x1
 3564 0110 13       		.uleb128 0x13
 3565 0111 00       		.byte	0
 3566 0112 00       		.byte	0
 3567 0113 18       		.uleb128 0x18
 3568 0114 34       		.uleb128 0x34
 3569 0115 00       		.byte	0
 3570 0116 03       		.uleb128 0x3
 3571 0117 0E       		.uleb128 0xe
 3572 0118 3A       		.uleb128 0x3a
 3573 0119 0B       		.uleb128 0xb
 3574 011a 3B       		.uleb128 0x3b
 3575 011b 05       		.uleb128 0x5
ARM GAS  /tmp/ccf3ZVgt.s 			page 64


 3576 011c 49       		.uleb128 0x49
 3577 011d 13       		.uleb128 0x13
 3578 011e 00       		.byte	0
 3579 011f 00       		.byte	0
 3580 0120 19       		.uleb128 0x19
 3581 0121 2E       		.uleb128 0x2e
 3582 0122 01       		.byte	0x1
 3583 0123 03       		.uleb128 0x3
 3584 0124 0E       		.uleb128 0xe
 3585 0125 3A       		.uleb128 0x3a
 3586 0126 0B       		.uleb128 0xb
 3587 0127 3B       		.uleb128 0x3b
 3588 0128 05       		.uleb128 0x5
 3589 0129 27       		.uleb128 0x27
 3590 012a 19       		.uleb128 0x19
 3591 012b 20       		.uleb128 0x20
 3592 012c 0B       		.uleb128 0xb
 3593 012d 01       		.uleb128 0x1
 3594 012e 13       		.uleb128 0x13
 3595 012f 00       		.byte	0
 3596 0130 00       		.byte	0
 3597 0131 1A       		.uleb128 0x1a
 3598 0132 05       		.uleb128 0x5
 3599 0133 00       		.byte	0
 3600 0134 03       		.uleb128 0x3
 3601 0135 0E       		.uleb128 0xe
 3602 0136 3A       		.uleb128 0x3a
 3603 0137 0B       		.uleb128 0xb
 3604 0138 3B       		.uleb128 0x3b
 3605 0139 05       		.uleb128 0x5
 3606 013a 49       		.uleb128 0x49
 3607 013b 13       		.uleb128 0x13
 3608 013c 00       		.byte	0
 3609 013d 00       		.byte	0
 3610 013e 1B       		.uleb128 0x1b
 3611 013f 2E       		.uleb128 0x2e
 3612 0140 00       		.byte	0
 3613 0141 03       		.uleb128 0x3
 3614 0142 0E       		.uleb128 0xe
 3615 0143 3A       		.uleb128 0x3a
 3616 0144 0B       		.uleb128 0xb
 3617 0145 3B       		.uleb128 0x3b
 3618 0146 05       		.uleb128 0x5
 3619 0147 27       		.uleb128 0x27
 3620 0148 19       		.uleb128 0x19
 3621 0149 20       		.uleb128 0x20
 3622 014a 0B       		.uleb128 0xb
 3623 014b 00       		.byte	0
 3624 014c 00       		.byte	0
 3625 014d 1C       		.uleb128 0x1c
 3626 014e 34       		.uleb128 0x34
 3627 014f 00       		.byte	0
 3628 0150 03       		.uleb128 0x3
 3629 0151 08       		.uleb128 0x8
 3630 0152 3A       		.uleb128 0x3a
 3631 0153 0B       		.uleb128 0xb
 3632 0154 3B       		.uleb128 0x3b
ARM GAS  /tmp/ccf3ZVgt.s 			page 65


 3633 0155 05       		.uleb128 0x5
 3634 0156 49       		.uleb128 0x49
 3635 0157 13       		.uleb128 0x13
 3636 0158 00       		.byte	0
 3637 0159 00       		.byte	0
 3638 015a 1D       		.uleb128 0x1d
 3639 015b 05       		.uleb128 0x5
 3640 015c 00       		.byte	0
 3641 015d 03       		.uleb128 0x3
 3642 015e 08       		.uleb128 0x8
 3643 015f 3A       		.uleb128 0x3a
 3644 0160 0B       		.uleb128 0xb
 3645 0161 3B       		.uleb128 0x3b
 3646 0162 05       		.uleb128 0x5
 3647 0163 49       		.uleb128 0x49
 3648 0164 13       		.uleb128 0x13
 3649 0165 00       		.byte	0
 3650 0166 00       		.byte	0
 3651 0167 1E       		.uleb128 0x1e
 3652 0168 34       		.uleb128 0x34
 3653 0169 00       		.byte	0
 3654 016a 03       		.uleb128 0x3
 3655 016b 0E       		.uleb128 0xe
 3656 016c 49       		.uleb128 0x49
 3657 016d 13       		.uleb128 0x13
 3658 016e 34       		.uleb128 0x34
 3659 016f 19       		.uleb128 0x19
 3660 0170 1C       		.uleb128 0x1c
 3661 0171 0E       		.uleb128 0xe
 3662 0172 00       		.byte	0
 3663 0173 00       		.byte	0
 3664 0174 1F       		.uleb128 0x1f
 3665 0175 2E       		.uleb128 0x2e
 3666 0176 01       		.byte	0x1
 3667 0177 03       		.uleb128 0x3
 3668 0178 0E       		.uleb128 0xe
 3669 0179 3A       		.uleb128 0x3a
 3670 017a 0B       		.uleb128 0xb
 3671 017b 3B       		.uleb128 0x3b
 3672 017c 0B       		.uleb128 0xb
 3673 017d 27       		.uleb128 0x27
 3674 017e 19       		.uleb128 0x19
 3675 017f 20       		.uleb128 0x20
 3676 0180 0B       		.uleb128 0xb
 3677 0181 01       		.uleb128 0x1
 3678 0182 13       		.uleb128 0x13
 3679 0183 00       		.byte	0
 3680 0184 00       		.byte	0
 3681 0185 20       		.uleb128 0x20
 3682 0186 05       		.uleb128 0x5
 3683 0187 00       		.byte	0
 3684 0188 03       		.uleb128 0x3
 3685 0189 08       		.uleb128 0x8
 3686 018a 3A       		.uleb128 0x3a
 3687 018b 0B       		.uleb128 0xb
 3688 018c 3B       		.uleb128 0x3b
 3689 018d 0B       		.uleb128 0xb
ARM GAS  /tmp/ccf3ZVgt.s 			page 66


 3690 018e 49       		.uleb128 0x49
 3691 018f 13       		.uleb128 0x13
 3692 0190 00       		.byte	0
 3693 0191 00       		.byte	0
 3694 0192 21       		.uleb128 0x21
 3695 0193 34       		.uleb128 0x34
 3696 0194 00       		.byte	0
 3697 0195 03       		.uleb128 0x3
 3698 0196 0E       		.uleb128 0xe
 3699 0197 3A       		.uleb128 0x3a
 3700 0198 0B       		.uleb128 0xb
 3701 0199 3B       		.uleb128 0x3b
 3702 019a 0B       		.uleb128 0xb
 3703 019b 49       		.uleb128 0x49
 3704 019c 13       		.uleb128 0x13
 3705 019d 00       		.byte	0
 3706 019e 00       		.byte	0
 3707 019f 22       		.uleb128 0x22
 3708 01a0 2E       		.uleb128 0x2e
 3709 01a1 01       		.byte	0x1
 3710 01a2 03       		.uleb128 0x3
 3711 01a3 0E       		.uleb128 0xe
 3712 01a4 3A       		.uleb128 0x3a
 3713 01a5 0B       		.uleb128 0xb
 3714 01a6 3B       		.uleb128 0x3b
 3715 01a7 0B       		.uleb128 0xb
 3716 01a8 27       		.uleb128 0x27
 3717 01a9 19       		.uleb128 0x19
 3718 01aa 11       		.uleb128 0x11
 3719 01ab 01       		.uleb128 0x1
 3720 01ac 12       		.uleb128 0x12
 3721 01ad 06       		.uleb128 0x6
 3722 01ae 40       		.uleb128 0x40
 3723 01af 18       		.uleb128 0x18
 3724 01b0 9742     		.uleb128 0x2117
 3725 01b2 19       		.uleb128 0x19
 3726 01b3 01       		.uleb128 0x1
 3727 01b4 13       		.uleb128 0x13
 3728 01b5 00       		.byte	0
 3729 01b6 00       		.byte	0
 3730 01b7 23       		.uleb128 0x23
 3731 01b8 1D       		.uleb128 0x1d
 3732 01b9 01       		.byte	0x1
 3733 01ba 31       		.uleb128 0x31
 3734 01bb 13       		.uleb128 0x13
 3735 01bc 11       		.uleb128 0x11
 3736 01bd 01       		.uleb128 0x1
 3737 01be 12       		.uleb128 0x12
 3738 01bf 06       		.uleb128 0x6
 3739 01c0 58       		.uleb128 0x58
 3740 01c1 0B       		.uleb128 0xb
 3741 01c2 59       		.uleb128 0x59
 3742 01c3 0B       		.uleb128 0xb
 3743 01c4 01       		.uleb128 0x1
 3744 01c5 13       		.uleb128 0x13
 3745 01c6 00       		.byte	0
 3746 01c7 00       		.byte	0
ARM GAS  /tmp/ccf3ZVgt.s 			page 67


 3747 01c8 24       		.uleb128 0x24
 3748 01c9 1D       		.uleb128 0x1d
 3749 01ca 01       		.byte	0x1
 3750 01cb 31       		.uleb128 0x31
 3751 01cc 13       		.uleb128 0x13
 3752 01cd 11       		.uleb128 0x11
 3753 01ce 01       		.uleb128 0x1
 3754 01cf 12       		.uleb128 0x12
 3755 01d0 06       		.uleb128 0x6
 3756 01d1 58       		.uleb128 0x58
 3757 01d2 0B       		.uleb128 0xb
 3758 01d3 59       		.uleb128 0x59
 3759 01d4 05       		.uleb128 0x5
 3760 01d5 00       		.byte	0
 3761 01d6 00       		.byte	0
 3762 01d7 25       		.uleb128 0x25
 3763 01d8 1D       		.uleb128 0x1d
 3764 01d9 01       		.byte	0x1
 3765 01da 31       		.uleb128 0x31
 3766 01db 13       		.uleb128 0x13
 3767 01dc 11       		.uleb128 0x11
 3768 01dd 01       		.uleb128 0x1
 3769 01de 12       		.uleb128 0x12
 3770 01df 06       		.uleb128 0x6
 3771 01e0 58       		.uleb128 0x58
 3772 01e1 0B       		.uleb128 0xb
 3773 01e2 59       		.uleb128 0x59
 3774 01e3 05       		.uleb128 0x5
 3775 01e4 01       		.uleb128 0x1
 3776 01e5 13       		.uleb128 0x13
 3777 01e6 00       		.byte	0
 3778 01e7 00       		.byte	0
 3779 01e8 26       		.uleb128 0x26
 3780 01e9 05       		.uleb128 0x5
 3781 01ea 00       		.byte	0
 3782 01eb 31       		.uleb128 0x31
 3783 01ec 13       		.uleb128 0x13
 3784 01ed 1C       		.uleb128 0x1c
 3785 01ee 0B       		.uleb128 0xb
 3786 01ef 00       		.byte	0
 3787 01f0 00       		.byte	0
 3788 01f1 27       		.uleb128 0x27
 3789 01f2 1D       		.uleb128 0x1d
 3790 01f3 00       		.byte	0
 3791 01f4 31       		.uleb128 0x31
 3792 01f5 13       		.uleb128 0x13
 3793 01f6 11       		.uleb128 0x11
 3794 01f7 01       		.uleb128 0x1
 3795 01f8 12       		.uleb128 0x12
 3796 01f9 06       		.uleb128 0x6
 3797 01fa 58       		.uleb128 0x58
 3798 01fb 0B       		.uleb128 0xb
 3799 01fc 59       		.uleb128 0x59
 3800 01fd 05       		.uleb128 0x5
 3801 01fe 00       		.byte	0
 3802 01ff 00       		.byte	0
 3803 0200 28       		.uleb128 0x28
ARM GAS  /tmp/ccf3ZVgt.s 			page 68


 3804 0201 1D       		.uleb128 0x1d
 3805 0202 01       		.byte	0x1
 3806 0203 31       		.uleb128 0x31
 3807 0204 13       		.uleb128 0x13
 3808 0205 11       		.uleb128 0x11
 3809 0206 01       		.uleb128 0x1
 3810 0207 12       		.uleb128 0x12
 3811 0208 06       		.uleb128 0x6
 3812 0209 58       		.uleb128 0x58
 3813 020a 0B       		.uleb128 0xb
 3814 020b 59       		.uleb128 0x59
 3815 020c 0B       		.uleb128 0xb
 3816 020d 00       		.byte	0
 3817 020e 00       		.byte	0
 3818 020f 29       		.uleb128 0x29
 3819 0210 05       		.uleb128 0x5
 3820 0211 00       		.byte	0
 3821 0212 03       		.uleb128 0x3
 3822 0213 08       		.uleb128 0x8
 3823 0214 3A       		.uleb128 0x3a
 3824 0215 0B       		.uleb128 0xb
 3825 0216 3B       		.uleb128 0x3b
 3826 0217 0B       		.uleb128 0xb
 3827 0218 49       		.uleb128 0x49
 3828 0219 13       		.uleb128 0x13
 3829 021a 02       		.uleb128 0x2
 3830 021b 17       		.uleb128 0x17
 3831 021c 00       		.byte	0
 3832 021d 00       		.byte	0
 3833 021e 2A       		.uleb128 0x2a
 3834 021f 34       		.uleb128 0x34
 3835 0220 00       		.byte	0
 3836 0221 03       		.uleb128 0x3
 3837 0222 08       		.uleb128 0x8
 3838 0223 3A       		.uleb128 0x3a
 3839 0224 0B       		.uleb128 0xb
 3840 0225 3B       		.uleb128 0x3b
 3841 0226 0B       		.uleb128 0xb
 3842 0227 49       		.uleb128 0x49
 3843 0228 13       		.uleb128 0x13
 3844 0229 02       		.uleb128 0x2
 3845 022a 17       		.uleb128 0x17
 3846 022b 00       		.byte	0
 3847 022c 00       		.byte	0
 3848 022d 2B       		.uleb128 0x2b
 3849 022e 898201   		.uleb128 0x4109
 3850 0231 00       		.byte	0
 3851 0232 11       		.uleb128 0x11
 3852 0233 01       		.uleb128 0x1
 3853 0234 31       		.uleb128 0x31
 3854 0235 13       		.uleb128 0x13
 3855 0236 00       		.byte	0
 3856 0237 00       		.byte	0
 3857 0238 2C       		.uleb128 0x2c
 3858 0239 2E       		.uleb128 0x2e
 3859 023a 01       		.byte	0x1
 3860 023b 31       		.uleb128 0x31
ARM GAS  /tmp/ccf3ZVgt.s 			page 69


 3861 023c 13       		.uleb128 0x13
 3862 023d 11       		.uleb128 0x11
 3863 023e 01       		.uleb128 0x1
 3864 023f 12       		.uleb128 0x12
 3865 0240 06       		.uleb128 0x6
 3866 0241 40       		.uleb128 0x40
 3867 0242 18       		.uleb128 0x18
 3868 0243 9742     		.uleb128 0x2117
 3869 0245 19       		.uleb128 0x19
 3870 0246 01       		.uleb128 0x1
 3871 0247 13       		.uleb128 0x13
 3872 0248 00       		.byte	0
 3873 0249 00       		.byte	0
 3874 024a 2D       		.uleb128 0x2d
 3875 024b 34       		.uleb128 0x34
 3876 024c 00       		.byte	0
 3877 024d 31       		.uleb128 0x31
 3878 024e 13       		.uleb128 0x13
 3879 024f 02       		.uleb128 0x2
 3880 0250 17       		.uleb128 0x17
 3881 0251 00       		.byte	0
 3882 0252 00       		.byte	0
 3883 0253 2E       		.uleb128 0x2e
 3884 0254 0B       		.uleb128 0xb
 3885 0255 01       		.byte	0x1
 3886 0256 11       		.uleb128 0x11
 3887 0257 01       		.uleb128 0x1
 3888 0258 12       		.uleb128 0x12
 3889 0259 06       		.uleb128 0x6
 3890 025a 00       		.byte	0
 3891 025b 00       		.byte	0
 3892 025c 2F       		.uleb128 0x2f
 3893 025d 34       		.uleb128 0x34
 3894 025e 00       		.byte	0
 3895 025f 31       		.uleb128 0x31
 3896 0260 13       		.uleb128 0x13
 3897 0261 00       		.byte	0
 3898 0262 00       		.byte	0
 3899 0263 30       		.uleb128 0x30
 3900 0264 0B       		.uleb128 0xb
 3901 0265 01       		.byte	0x1
 3902 0266 55       		.uleb128 0x55
 3903 0267 17       		.uleb128 0x17
 3904 0268 01       		.uleb128 0x1
 3905 0269 13       		.uleb128 0x13
 3906 026a 00       		.byte	0
 3907 026b 00       		.byte	0
 3908 026c 31       		.uleb128 0x31
 3909 026d 898201   		.uleb128 0x4109
 3910 0270 01       		.byte	0x1
 3911 0271 11       		.uleb128 0x11
 3912 0272 01       		.uleb128 0x1
 3913 0273 31       		.uleb128 0x31
 3914 0274 13       		.uleb128 0x13
 3915 0275 01       		.uleb128 0x1
 3916 0276 13       		.uleb128 0x13
 3917 0277 00       		.byte	0
ARM GAS  /tmp/ccf3ZVgt.s 			page 70


 3918 0278 00       		.byte	0
 3919 0279 32       		.uleb128 0x32
 3920 027a 8A8201   		.uleb128 0x410a
 3921 027d 00       		.byte	0
 3922 027e 02       		.uleb128 0x2
 3923 027f 18       		.uleb128 0x18
 3924 0280 9142     		.uleb128 0x2111
 3925 0282 18       		.uleb128 0x18
 3926 0283 00       		.byte	0
 3927 0284 00       		.byte	0
 3928 0285 33       		.uleb128 0x33
 3929 0286 898201   		.uleb128 0x4109
 3930 0289 01       		.byte	0x1
 3931 028a 11       		.uleb128 0x11
 3932 028b 01       		.uleb128 0x1
 3933 028c 9542     		.uleb128 0x2115
 3934 028e 19       		.uleb128 0x19
 3935 028f 31       		.uleb128 0x31
 3936 0290 13       		.uleb128 0x13
 3937 0291 00       		.byte	0
 3938 0292 00       		.byte	0
 3939 0293 34       		.uleb128 0x34
 3940 0294 898201   		.uleb128 0x4109
 3941 0297 01       		.byte	0x1
 3942 0298 11       		.uleb128 0x11
 3943 0299 01       		.uleb128 0x1
 3944 029a 31       		.uleb128 0x31
 3945 029b 13       		.uleb128 0x13
 3946 029c 00       		.byte	0
 3947 029d 00       		.byte	0
 3948 029e 35       		.uleb128 0x35
 3949 029f 34       		.uleb128 0x34
 3950 02a0 00       		.byte	0
 3951 02a1 03       		.uleb128 0x3
 3952 02a2 08       		.uleb128 0x8
 3953 02a3 3A       		.uleb128 0x3a
 3954 02a4 0B       		.uleb128 0xb
 3955 02a5 3B       		.uleb128 0x3b
 3956 02a6 0B       		.uleb128 0xb
 3957 02a7 49       		.uleb128 0x49
 3958 02a8 13       		.uleb128 0x13
 3959 02a9 02       		.uleb128 0x2
 3960 02aa 18       		.uleb128 0x18
 3961 02ab 00       		.byte	0
 3962 02ac 00       		.byte	0
 3963 02ad 36       		.uleb128 0x36
 3964 02ae 05       		.uleb128 0x5
 3965 02af 00       		.byte	0
 3966 02b0 31       		.uleb128 0x31
 3967 02b1 13       		.uleb128 0x13
 3968 02b2 02       		.uleb128 0x2
 3969 02b3 17       		.uleb128 0x17
 3970 02b4 00       		.byte	0
 3971 02b5 00       		.byte	0
 3972 02b6 37       		.uleb128 0x37
 3973 02b7 05       		.uleb128 0x5
 3974 02b8 00       		.byte	0
ARM GAS  /tmp/ccf3ZVgt.s 			page 71


 3975 02b9 31       		.uleb128 0x31
 3976 02ba 13       		.uleb128 0x13
 3977 02bb 02       		.uleb128 0x2
 3978 02bc 18       		.uleb128 0x18
 3979 02bd 00       		.byte	0
 3980 02be 00       		.byte	0
 3981 02bf 38       		.uleb128 0x38
 3982 02c0 34       		.uleb128 0x34
 3983 02c1 00       		.byte	0
 3984 02c2 03       		.uleb128 0x3
 3985 02c3 0E       		.uleb128 0xe
 3986 02c4 3A       		.uleb128 0x3a
 3987 02c5 0B       		.uleb128 0xb
 3988 02c6 3B       		.uleb128 0x3b
 3989 02c7 05       		.uleb128 0x5
 3990 02c8 49       		.uleb128 0x49
 3991 02c9 13       		.uleb128 0x13
 3992 02ca 3F       		.uleb128 0x3f
 3993 02cb 19       		.uleb128 0x19
 3994 02cc 3C       		.uleb128 0x3c
 3995 02cd 19       		.uleb128 0x19
 3996 02ce 00       		.byte	0
 3997 02cf 00       		.byte	0
 3998 02d0 39       		.uleb128 0x39
 3999 02d1 34       		.uleb128 0x34
 4000 02d2 00       		.byte	0
 4001 02d3 03       		.uleb128 0x3
 4002 02d4 08       		.uleb128 0x8
 4003 02d5 3A       		.uleb128 0x3a
 4004 02d6 0B       		.uleb128 0xb
 4005 02d7 3B       		.uleb128 0x3b
 4006 02d8 05       		.uleb128 0x5
 4007 02d9 49       		.uleb128 0x49
 4008 02da 13       		.uleb128 0x13
 4009 02db 3F       		.uleb128 0x3f
 4010 02dc 19       		.uleb128 0x19
 4011 02dd 3C       		.uleb128 0x3c
 4012 02de 19       		.uleb128 0x19
 4013 02df 00       		.byte	0
 4014 02e0 00       		.byte	0
 4015 02e1 3A       		.uleb128 0x3a
 4016 02e2 34       		.uleb128 0x34
 4017 02e3 00       		.byte	0
 4018 02e4 03       		.uleb128 0x3
 4019 02e5 0E       		.uleb128 0xe
 4020 02e6 3A       		.uleb128 0x3a
 4021 02e7 0B       		.uleb128 0xb
 4022 02e8 3B       		.uleb128 0x3b
 4023 02e9 0B       		.uleb128 0xb
 4024 02ea 49       		.uleb128 0x49
 4025 02eb 13       		.uleb128 0x13
 4026 02ec 3F       		.uleb128 0x3f
 4027 02ed 19       		.uleb128 0x19
 4028 02ee 02       		.uleb128 0x2
 4029 02ef 18       		.uleb128 0x18
 4030 02f0 00       		.byte	0
 4031 02f1 00       		.byte	0
ARM GAS  /tmp/ccf3ZVgt.s 			page 72


 4032 02f2 3B       		.uleb128 0x3b
 4033 02f3 2E       		.uleb128 0x2e
 4034 02f4 00       		.byte	0
 4035 02f5 3F       		.uleb128 0x3f
 4036 02f6 19       		.uleb128 0x19
 4037 02f7 03       		.uleb128 0x3
 4038 02f8 0E       		.uleb128 0xe
 4039 02f9 3A       		.uleb128 0x3a
 4040 02fa 0B       		.uleb128 0xb
 4041 02fb 3B       		.uleb128 0x3b
 4042 02fc 05       		.uleb128 0x5
 4043 02fd 27       		.uleb128 0x27
 4044 02fe 19       		.uleb128 0x19
 4045 02ff 49       		.uleb128 0x49
 4046 0300 13       		.uleb128 0x13
 4047 0301 3C       		.uleb128 0x3c
 4048 0302 19       		.uleb128 0x19
 4049 0303 00       		.byte	0
 4050 0304 00       		.byte	0
 4051 0305 3C       		.uleb128 0x3c
 4052 0306 2E       		.uleb128 0x2e
 4053 0307 01       		.byte	0x1
 4054 0308 3F       		.uleb128 0x3f
 4055 0309 19       		.uleb128 0x19
 4056 030a 03       		.uleb128 0x3
 4057 030b 0E       		.uleb128 0xe
 4058 030c 3A       		.uleb128 0x3a
 4059 030d 0B       		.uleb128 0xb
 4060 030e 3B       		.uleb128 0x3b
 4061 030f 05       		.uleb128 0x5
 4062 0310 27       		.uleb128 0x27
 4063 0311 19       		.uleb128 0x19
 4064 0312 3C       		.uleb128 0x3c
 4065 0313 19       		.uleb128 0x19
 4066 0314 01       		.uleb128 0x1
 4067 0315 13       		.uleb128 0x13
 4068 0316 00       		.byte	0
 4069 0317 00       		.byte	0
 4070 0318 3D       		.uleb128 0x3d
 4071 0319 2E       		.uleb128 0x2e
 4072 031a 01       		.byte	0x1
 4073 031b 3F       		.uleb128 0x3f
 4074 031c 19       		.uleb128 0x19
 4075 031d 03       		.uleb128 0x3
 4076 031e 0E       		.uleb128 0xe
 4077 031f 3A       		.uleb128 0x3a
 4078 0320 0B       		.uleb128 0xb
 4079 0321 3B       		.uleb128 0x3b
 4080 0322 05       		.uleb128 0x5
 4081 0323 27       		.uleb128 0x27
 4082 0324 19       		.uleb128 0x19
 4083 0325 49       		.uleb128 0x49
 4084 0326 13       		.uleb128 0x13
 4085 0327 3C       		.uleb128 0x3c
 4086 0328 19       		.uleb128 0x19
 4087 0329 01       		.uleb128 0x1
 4088 032a 13       		.uleb128 0x13
ARM GAS  /tmp/ccf3ZVgt.s 			page 73


 4089 032b 00       		.byte	0
 4090 032c 00       		.byte	0
 4091 032d 3E       		.uleb128 0x3e
 4092 032e 2E       		.uleb128 0x2e
 4093 032f 01       		.byte	0x1
 4094 0330 3F       		.uleb128 0x3f
 4095 0331 19       		.uleb128 0x19
 4096 0332 03       		.uleb128 0x3
 4097 0333 0E       		.uleb128 0xe
 4098 0334 3A       		.uleb128 0x3a
 4099 0335 0B       		.uleb128 0xb
 4100 0336 3B       		.uleb128 0x3b
 4101 0337 0B       		.uleb128 0xb
 4102 0338 27       		.uleb128 0x27
 4103 0339 19       		.uleb128 0x19
 4104 033a 49       		.uleb128 0x49
 4105 033b 13       		.uleb128 0x13
 4106 033c 3C       		.uleb128 0x3c
 4107 033d 19       		.uleb128 0x19
 4108 033e 01       		.uleb128 0x1
 4109 033f 13       		.uleb128 0x13
 4110 0340 00       		.byte	0
 4111 0341 00       		.byte	0
 4112 0342 3F       		.uleb128 0x3f
 4113 0343 2E       		.uleb128 0x2e
 4114 0344 01       		.byte	0x1
 4115 0345 3F       		.uleb128 0x3f
 4116 0346 19       		.uleb128 0x19
 4117 0347 03       		.uleb128 0x3
 4118 0348 0E       		.uleb128 0xe
 4119 0349 3A       		.uleb128 0x3a
 4120 034a 0B       		.uleb128 0xb
 4121 034b 3B       		.uleb128 0x3b
 4122 034c 0B       		.uleb128 0xb
 4123 034d 27       		.uleb128 0x27
 4124 034e 19       		.uleb128 0x19
 4125 034f 3C       		.uleb128 0x3c
 4126 0350 19       		.uleb128 0x19
 4127 0351 01       		.uleb128 0x1
 4128 0352 13       		.uleb128 0x13
 4129 0353 00       		.byte	0
 4130 0354 00       		.byte	0
 4131 0355 40       		.uleb128 0x40
 4132 0356 2E       		.uleb128 0x2e
 4133 0357 01       		.byte	0x1
 4134 0358 3F       		.uleb128 0x3f
 4135 0359 19       		.uleb128 0x19
 4136 035a 03       		.uleb128 0x3
 4137 035b 0E       		.uleb128 0xe
 4138 035c 3A       		.uleb128 0x3a
 4139 035d 0B       		.uleb128 0xb
 4140 035e 3B       		.uleb128 0x3b
 4141 035f 0B       		.uleb128 0xb
 4142 0360 27       		.uleb128 0x27
 4143 0361 19       		.uleb128 0x19
 4144 0362 3C       		.uleb128 0x3c
 4145 0363 19       		.uleb128 0x19
ARM GAS  /tmp/ccf3ZVgt.s 			page 74


 4146 0364 00       		.byte	0
 4147 0365 00       		.byte	0
 4148 0366 00       		.byte	0
 4149              		.section	.debug_loc,"",%progbits
 4150              	.Ldebug_loc0:
 4151              	.LLST0:
 4152 0000 00000000 		.4byte	.LVL3
 4153 0004 15000000 		.4byte	.LVL6-1
 4154 0008 0100     		.2byte	0x1
 4155 000a 50       		.byte	0x50
 4156 000b 15000000 		.4byte	.LVL6-1
 4157 000f 20000000 		.4byte	.LFE230
 4158 0013 0400     		.2byte	0x4
 4159 0015 F3       		.byte	0xf3
 4160 0016 01       		.uleb128 0x1
 4161 0017 50       		.byte	0x50
 4162 0018 9F       		.byte	0x9f
 4163 0019 00000000 		.4byte	0
 4164 001d 00000000 		.4byte	0
 4165              	.LLST1:
 4166 0021 16000000 		.4byte	.LVL6
 4167 0025 19000000 		.4byte	.LVL7-1
 4168 0029 0100     		.2byte	0x1
 4169 002b 50       		.byte	0x50
 4170 002c 00000000 		.4byte	0
 4171 0030 00000000 		.4byte	0
 4172              	.LLST2:
 4173 0034 0E000000 		.4byte	.LVL9
 4174 0038 1C000000 		.4byte	.LVL10
 4175 003c 0100     		.2byte	0x1
 4176 003e 50       		.byte	0x50
 4177 003f 30000000 		.4byte	.LVL13
 4178 0043 3C000000 		.4byte	.LVL14
 4179 0047 0100     		.2byte	0x1
 4180 0049 50       		.byte	0x50
 4181 004a 50000000 		.4byte	.LVL17
 4182 004e 5C000000 		.4byte	.LVL18
 4183 0052 0100     		.2byte	0x1
 4184 0054 50       		.byte	0x50
 4185 0055 00000000 		.4byte	0
 4186 0059 00000000 		.4byte	0
 4187              	.LLST3:
 4188 005d 70000000 		.4byte	.LVL21
 4189 0061 7C000000 		.4byte	.LVL22
 4190 0065 0100     		.2byte	0x1
 4191 0067 50       		.byte	0x50
 4192 0068 00000000 		.4byte	0
 4193 006c 00000000 		.4byte	0
 4194              	.LLST4:
 4195 0070 08000000 		.4byte	.LVL24
 4196 0074 0B000000 		.4byte	.LVL25-1
 4197 0078 0100     		.2byte	0x1
 4198 007a 50       		.byte	0x50
 4199 007b 16000000 		.4byte	.LVL26
 4200 007f 19000000 		.4byte	.LVL27-1
 4201 0083 0100     		.2byte	0x1
 4202 0085 50       		.byte	0x50
ARM GAS  /tmp/ccf3ZVgt.s 			page 75


 4203 0086 00000000 		.4byte	0
 4204 008a 00000000 		.4byte	0
 4205              	.LLST5:
 4206 008e 24000000 		.4byte	.LVL28
 4207 0092 2E000000 		.4byte	.LVL31
 4208 0096 0100     		.2byte	0x1
 4209 0098 53       		.byte	0x53
 4210 0099 00000000 		.4byte	0
 4211 009d 00000000 		.4byte	0
 4212              	.LLST6:
 4213 00a1 26000000 		.4byte	.LVL29
 4214 00a5 2A000000 		.4byte	.LVL30
 4215 00a9 0300     		.2byte	0x3
 4216 00ab 08       		.byte	0x8
 4217 00ac 20       		.byte	0x20
 4218 00ad 9F       		.byte	0x9f
 4219 00ae 00000000 		.4byte	0
 4220 00b2 00000000 		.4byte	0
 4221              	.LLST7:
 4222 00b6 2E000000 		.4byte	.LVL31
 4223 00ba 32000000 		.4byte	.LVL33
 4224 00be 0100     		.2byte	0x1
 4225 00c0 53       		.byte	0x53
 4226 00c1 00000000 		.4byte	0
 4227 00c5 00000000 		.4byte	0
 4228              	.LLST8:
 4229 00c9 30000000 		.4byte	.LVL32
 4230 00cd 36000000 		.4byte	.LVL34
 4231 00d1 0300     		.2byte	0x3
 4232 00d3 08       		.byte	0x8
 4233 00d4 20       		.byte	0x20
 4234 00d5 9F       		.byte	0x9f
 4235 00d6 00000000 		.4byte	0
 4236 00da 00000000 		.4byte	0
 4237              	.LLST9:
 4238 00de 46000000 		.4byte	.LVL36
 4239 00e2 6D000000 		.4byte	.LVL46-1
 4240 00e6 0100     		.2byte	0x1
 4241 00e8 52       		.byte	0x52
 4242 00e9 00000000 		.4byte	0
 4243 00ed 00000000 		.4byte	0
 4244              	.LLST10:
 4245 00f1 48000000 		.4byte	.LVL37
 4246 00f5 4C000000 		.4byte	.LVL38
 4247 00f9 0200     		.2byte	0x2
 4248 00fb 30       		.byte	0x30
 4249 00fc 9F       		.byte	0x9f
 4250 00fd 00000000 		.4byte	0
 4251 0101 00000000 		.4byte	0
 4252              	.LLST11:
 4253 0105 50000000 		.4byte	.LVL39
 4254 0109 54000000 		.4byte	.LVL41
 4255 010d 0100     		.2byte	0x1
 4256 010f 53       		.byte	0x53
 4257 0110 00000000 		.4byte	0
 4258 0114 00000000 		.4byte	0
 4259              	.LLST12:
ARM GAS  /tmp/ccf3ZVgt.s 			page 76


 4260 0118 52000000 		.4byte	.LVL40
 4261 011c 58000000 		.4byte	.LVL42
 4262 0120 0200     		.2byte	0x2
 4263 0122 30       		.byte	0x30
 4264 0123 9F       		.byte	0x9f
 4265 0124 00000000 		.4byte	0
 4266 0128 00000000 		.4byte	0
 4267              	.LLST13:
 4268 012c 58000000 		.4byte	.LVL42
 4269 0130 66000000 		.4byte	.LVL45
 4270 0134 0300     		.2byte	0x3
 4271 0136 91       		.byte	0x91
 4272 0137 64       		.sleb128 -28
 4273 0138 9F       		.byte	0x9f
 4274 0139 66000000 		.4byte	.LVL45
 4275 013d 7C000000 		.4byte	.LVL48
 4276 0141 0100     		.2byte	0x1
 4277 0143 54       		.byte	0x54
 4278 0144 7C000000 		.4byte	.LVL48
 4279 0148 A2000000 		.4byte	.LVL52
 4280 014c 0300     		.2byte	0x3
 4281 014e 91       		.byte	0x91
 4282 014f 64       		.sleb128 -28
 4283 0150 9F       		.byte	0x9f
 4284 0151 A2000000 		.4byte	.LVL52
 4285 0155 A8000000 		.4byte	.LFE231
 4286 0159 0300     		.2byte	0x3
 4287 015b 7D       		.byte	0x7d
 4288 015c 64       		.sleb128 -28
 4289 015d 9F       		.byte	0x9f
 4290 015e 00000000 		.4byte	0
 4291 0162 00000000 		.4byte	0
 4292              	.LLST14:
 4293 0166 5C000000 		.4byte	.LVL43
 4294 016a 66000000 		.4byte	.LVL45
 4295 016e 0300     		.2byte	0x3
 4296 0170 91       		.byte	0x91
 4297 0171 64       		.sleb128 -28
 4298 0172 9F       		.byte	0x9f
 4299 0173 66000000 		.4byte	.LVL45
 4300 0177 7C000000 		.4byte	.LVL48
 4301 017b 0100     		.2byte	0x1
 4302 017d 54       		.byte	0x54
 4303 017e 7C000000 		.4byte	.LVL48
 4304 0182 A2000000 		.4byte	.LVL52
 4305 0186 0300     		.2byte	0x3
 4306 0188 91       		.byte	0x91
 4307 0189 64       		.sleb128 -28
 4308 018a 9F       		.byte	0x9f
 4309 018b A2000000 		.4byte	.LVL52
 4310 018f A8000000 		.4byte	.LFE231
 4311 0193 0300     		.2byte	0x3
 4312 0195 7D       		.byte	0x7d
 4313 0196 64       		.sleb128 -28
 4314 0197 9F       		.byte	0x9f
 4315 0198 00000000 		.4byte	0
 4316 019c 00000000 		.4byte	0
ARM GAS  /tmp/ccf3ZVgt.s 			page 77


 4317              	.LLST15:
 4318 01a0 62000000 		.4byte	.LVL44
 4319 01a4 66000000 		.4byte	.LVL45
 4320 01a8 0300     		.2byte	0x3
 4321 01aa 91       		.byte	0x91
 4322 01ab 64       		.sleb128 -28
 4323 01ac 9F       		.byte	0x9f
 4324 01ad 66000000 		.4byte	.LVL45
 4325 01b1 7C000000 		.4byte	.LVL48
 4326 01b5 0100     		.2byte	0x1
 4327 01b7 54       		.byte	0x54
 4328 01b8 7C000000 		.4byte	.LVL48
 4329 01bc A2000000 		.4byte	.LVL52
 4330 01c0 0300     		.2byte	0x3
 4331 01c2 91       		.byte	0x91
 4332 01c3 64       		.sleb128 -28
 4333 01c4 9F       		.byte	0x9f
 4334 01c5 A2000000 		.4byte	.LVL52
 4335 01c9 A8000000 		.4byte	.LFE231
 4336 01cd 0300     		.2byte	0x3
 4337 01cf 7D       		.byte	0x7d
 4338 01d0 64       		.sleb128 -28
 4339 01d1 9F       		.byte	0x9f
 4340 01d2 00000000 		.4byte	0
 4341 01d6 00000000 		.4byte	0
 4342              	.LLST17:
 4343 01da 86000000 		.4byte	.LVL49
 4344 01de A2000000 		.4byte	.LVL52
 4345 01e2 0300     		.2byte	0x3
 4346 01e4 91       		.byte	0x91
 4347 01e5 64       		.sleb128 -28
 4348 01e6 9F       		.byte	0x9f
 4349 01e7 A2000000 		.4byte	.LVL52
 4350 01eb A8000000 		.4byte	.LFE231
 4351 01ef 0300     		.2byte	0x3
 4352 01f1 7D       		.byte	0x7d
 4353 01f2 64       		.sleb128 -28
 4354 01f3 9F       		.byte	0x9f
 4355 01f4 00000000 		.4byte	0
 4356 01f8 00000000 		.4byte	0
 4357              		.section	.debug_aranges,"",%progbits
 4358 0000 34000000 		.4byte	0x34
 4359 0004 0200     		.2byte	0x2
 4360 0006 00000000 		.4byte	.Ldebug_info0
 4361 000a 04       		.byte	0x4
 4362 000b 00       		.byte	0
 4363 000c 0000     		.2byte	0
 4364 000e 0000     		.2byte	0
 4365 0010 00000000 		.4byte	.LFB232
 4366 0014 1A000000 		.4byte	.LFE232-.LFB232
 4367 0018 00000000 		.4byte	.LFB230
 4368 001c 20000000 		.4byte	.LFE230-.LFB230
 4369 0020 00000000 		.4byte	.LFB233
 4370 0024 84000000 		.4byte	.LFE233-.LFB233
 4371 0028 00000000 		.4byte	.LFB231
 4372 002c A8000000 		.4byte	.LFE231-.LFB231
 4373 0030 00000000 		.4byte	0
ARM GAS  /tmp/ccf3ZVgt.s 			page 78


 4374 0034 00000000 		.4byte	0
 4375              		.section	.debug_ranges,"",%progbits
 4376              	.Ldebug_ranges0:
 4377 0000 66000000 		.4byte	.LBB459
 4378 0004 7C000000 		.4byte	.LBE459
 4379 0008 80000000 		.4byte	.LBB469
 4380 000c 84000000 		.4byte	.LBE469
 4381 0010 00000000 		.4byte	0
 4382 0014 00000000 		.4byte	0
 4383 0018 00000000 		.4byte	.LFB232
 4384 001c 1A000000 		.4byte	.LFE232
 4385 0020 00000000 		.4byte	.LFB230
 4386 0024 20000000 		.4byte	.LFE230
 4387 0028 00000000 		.4byte	.LFB233
 4388 002c 84000000 		.4byte	.LFE233
 4389 0030 00000000 		.4byte	.LFB231
 4390 0034 A8000000 		.4byte	.LFE231
 4391 0038 00000000 		.4byte	0
 4392 003c 00000000 		.4byte	0
 4393              		.section	.debug_line,"",%progbits
 4394              	.Ldebug_line0:
 4395 0000 E1020000 		.section	.debug_str,"MS",%progbits,1
 4395      02008801 
 4395      00000201 
 4395      FB0E0D00 
 4395      01010101 
 4396              	.LASF15:
 4397 0000 74726566 		.ascii	"trefs_t\000"
 4397      735F7400 
 4398              	.LASF47:
 4399 0008 72656164 		.ascii	"ready_list_t\000"
 4399      795F6C69 
 4399      73745F74 
 4399      00
 4400              	.LASF3:
 4401 0015 73697A65 		.ascii	"size_t\000"
 4401      5F7400
 4402              	.LASF137:
 4403 001c 76746362 		.ascii	"vtcb\000"
 4403      00
 4404              	.LASF10:
 4405 0021 75696E74 		.ascii	"uint64_t\000"
 4405      36345F74 
 4405      00
 4406              	.LASF19:
 4407 002a 6576656E 		.ascii	"eventmask_t\000"
 4407      746D6173 
 4407      6B5F7400 
 4408              	.LASF79:
 4409 0036 706F7274 		.ascii	"port_intctx\000"
 4409      5F696E74 
 4409      63747800 
 4410              	.LASF66:
 4411 0042 73797374 		.ascii	"system_debug_t\000"
 4411      656D5F64 
 4411      65627567 
 4411      5F7400
ARM GAS  /tmp/ccf3ZVgt.s 			page 79


 4412              	.LASF149:
 4413 0051 474E5520 		.ascii	"GNU C 4.9.2 -mcpu=cortex-m4 -mfloat-abi=soft -mfp16"
 4413      4320342E 
 4413      392E3220 
 4413      2D6D6370 
 4413      753D636F 
 4414 0084 2D666F72 		.ascii	"-format=none -mno-thumb-interwork -mthumb -mfpu=vfp"
 4414      6D61743D 
 4414      6E6F6E65 
 4414      202D6D6E 
 4414      6F2D7468 
 4415 00b7 76332D64 		.ascii	"v3-d16 -mtls-dialect=gnu -ggdb -O2 -fomit-frame-poi"
 4415      3136202D 
 4415      6D746C73 
 4415      2D646961 
 4415      6C656374 
 4416 00ea 6E746572 		.ascii	"nter -falign-functions=16 -ffunction-sections -fdat"
 4416      202D6661 
 4416      6C69676E 
 4416      2D66756E 
 4416      6374696F 
 4417 011d 612D7365 		.ascii	"a-sections -fno-common\000"
 4417      6374696F 
 4417      6E73202D 
 4417      666E6F2D 
 4417      636F6D6D 
 4418              	.LASF101:
 4419 0134 706F7274 		.ascii	"port_lock\000"
 4419      5F6C6F63 
 4419      6B00
 4420              	.LASF11:
 4421 013e 6C6F6E67 		.ascii	"long long unsigned int\000"
 4421      206C6F6E 
 4421      6720756E 
 4421      7369676E 
 4421      65642069 
 4422              	.LASF147:
 4423 0155 63685654 		.ascii	"chVTDoResetI\000"
 4423      446F5265 
 4423      73657449 
 4423      00
 4424              	.LASF81:
 4425 0162 65786974 		.ascii	"exitcode\000"
 4425      636F6465 
 4425      00
 4426              	.LASF73:
 4427 016b 6D61696E 		.ascii	"mainthread\000"
 4427      74687265 
 4427      616400
 4428              	.LASF63:
 4429 0176 76697274 		.ascii	"virtual_timers_list_t\000"
 4429      75616C5F 
 4429      74696D65 
 4429      72735F6C 
 4429      6973745F 
 4430              	.LASF139:
 4431 018c 49544D5F 		.ascii	"ITM_RxBuffer\000"
ARM GAS  /tmp/ccf3ZVgt.s 			page 80


 4431      52784275 
 4431      66666572 
 4431      00
 4432              	.LASF46:
 4433 0199 63685F74 		.ascii	"ch_threads_queue\000"
 4433      68726561 
 4433      64735F71 
 4433      75657565 
 4433      00
 4434              	.LASF25:
 4435 01aa 705F7072 		.ascii	"p_prio\000"
 4435      696F00
 4436              	.LASF134:
 4437 01b1 73797333 		.ascii	"sys3_execute\000"
 4437      5F657865 
 4437      63757465 
 4437      00
 4438              	.LASF5:
 4439 01be 6C6F6E67 		.ascii	"long long int\000"
 4439      206C6F6E 
 4439      6720696E 
 4439      7400
 4440              	.LASF1:
 4441 01cc 7369676E 		.ascii	"signed char\000"
 4441      65642063 
 4441      68617200 
 4442              	.LASF40:
 4443 01d8 705F6D70 		.ascii	"p_mpool\000"
 4443      6F6F6C00 
 4444              	.LASF91:
 4445 01e0 6D5F7175 		.ascii	"m_queue\000"
 4445      65756500 
 4446              	.LASF129:
 4447 01e8 63685379 		.ascii	"chSysUnconditionalUnlock\000"
 4447      73556E63 
 4447      6F6E6469 
 4447      74696F6E 
 4447      616C556E 
 4448              	.LASF72:
 4449 0201 76746C69 		.ascii	"vtlist\000"
 4449      737400
 4450              	.LASF102:
 4451 0208 706F7274 		.ascii	"port_unlock\000"
 4451      5F756E6C 
 4451      6F636B00 
 4452              	.LASF16:
 4453 0214 74736C69 		.ascii	"tslices_t\000"
 4453      6365735F 
 4453      7400
 4454              	.LASF83:
 4455 021e 77747472 		.ascii	"wttrp\000"
 4455      7000
 4456              	.LASF70:
 4457 0224 63685F73 		.ascii	"ch_system\000"
 4457      79737465 
 4457      6D00
 4458              	.LASF105:
ARM GAS  /tmp/ccf3ZVgt.s 			page 81


 4459 022e 706F7274 		.ascii	"port_disable\000"
 4459      5F646973 
 4459      61626C65 
 4459      00
 4460              	.LASF14:
 4461 023b 74737461 		.ascii	"tstate_t\000"
 4461      74655F74 
 4461      00
 4462              	.LASF110:
 4463 0244 5F5F6765 		.ascii	"__get_BASEPRI\000"
 4463      745F4241 
 4463      53455052 
 4463      4900
 4464              	.LASF124:
 4465 0252 63685379 		.ascii	"chSysEnable\000"
 4465      73456E61 
 4465      626C6500 
 4466              	.LASF143:
 4467 025e 70617474 		.ascii	"patternsys\000"
 4467      65726E73 
 4467      797300
 4468              	.LASF27:
 4469 0269 705F6E65 		.ascii	"p_newer\000"
 4469      77657200 
 4470              	.LASF88:
 4471 0271 735F7175 		.ascii	"s_queue\000"
 4471      65756500 
 4472              	.LASF12:
 4473 0279 73797373 		.ascii	"syssts_t\000"
 4473      74735F74 
 4473      00
 4474              	.LASF52:
 4475 0282 725F6E65 		.ascii	"r_newer\000"
 4475      77657200 
 4476              	.LASF76:
 4477 028a 72656761 		.ascii	"regarm_t\000"
 4477      726D5F74 
 4477      00
 4478              	.LASF59:
 4479 0293 76745F70 		.ascii	"vt_prev\000"
 4479      72657600 
 4480              	.LASF95:
 4481 029b 6D757465 		.ascii	"mutex_t\000"
 4481      785F7400 
 4482              	.LASF114:
 4483 02a3 76616C75 		.ascii	"value\000"
 4483      6500
 4484              	.LASF74:
 4485 02a9 69646C65 		.ascii	"idle_thread_wa\000"
 4485      5F746872 
 4485      6561645F 
 4485      776100
 4486              	.LASF20:
 4487 02b8 636E745F 		.ascii	"cnt_t\000"
 4487      7400
 4488              	.LASF0:
 4489 02be 756E7369 		.ascii	"unsigned int\000"
ARM GAS  /tmp/ccf3ZVgt.s 			page 82


 4489      676E6564 
 4489      20696E74 
 4489      00
 4490              	.LASF58:
 4491 02cb 76745F6E 		.ascii	"vt_next\000"
 4491      65787400 
 4492              	.LASF84:
 4493 02d3 77747365 		.ascii	"wtsemp\000"
 4493      6D7000
 4494              	.LASF60:
 4495 02da 76745F64 		.ascii	"vt_delta\000"
 4495      656C7461 
 4495      00
 4496              	.LASF35:
 4497 02e3 705F6D73 		.ascii	"p_msgqueue\000"
 4497      67717565 
 4497      756500
 4498              	.LASF111:
 4499 02ee 706F7274 		.ascii	"port_get_irq_status\000"
 4499      5F676574 
 4499      5F697271 
 4499      5F737461 
 4499      74757300 
 4500              	.LASF99:
 4501 0302 74656172 		.ascii	"teardown\000"
 4501      646F776E 
 4501      00
 4502              	.LASF48:
 4503 030b 63685F72 		.ascii	"ch_ready_list\000"
 4503      65616479 
 4503      5F6C6973 
 4503      7400
 4504              	.LASF97:
 4505 0319 6E616D65 		.ascii	"name\000"
 4505      00
 4506              	.LASF123:
 4507 031e 63685379 		.ascii	"chSysDisable\000"
 4507      73446973 
 4507      61626C65 
 4507      00
 4508              	.LASF89:
 4509 032b 735F636E 		.ascii	"s_cnt\000"
 4509      7400
 4510              	.LASF8:
 4511 0331 73686F72 		.ascii	"short unsigned int\000"
 4511      7420756E 
 4511      7369676E 
 4511      65642069 
 4511      6E7400
 4512              	.LASF43:
 4513 0344 63685F74 		.ascii	"ch_thread\000"
 4513      68726561 
 4513      6400
 4514              	.LASF18:
 4515 034e 6D73675F 		.ascii	"msg_t\000"
 4515      7400
 4516              	.LASF106:
ARM GAS  /tmp/ccf3ZVgt.s 			page 83


 4517 0354 706F7274 		.ascii	"port_suspend\000"
 4517      5F737573 
 4517      70656E64 
 4517      00
 4518              	.LASF82:
 4519 0361 77746F62 		.ascii	"wtobjp\000"
 4519      6A7000
 4520              	.LASF150:
 4521 0368 2E2E2F74 		.ascii	"../test/rt/testsys.c\000"
 4521      6573742F 
 4521      72742F74 
 4521      65737473 
 4521      79732E63 
 4522              	.LASF38:
 4523 037d 705F6D74 		.ascii	"p_mtxlist\000"
 4523      786C6973 
 4523      7400
 4524              	.LASF148:
 4525 0387 63685654 		.ascii	"chVTDoSetI\000"
 4525      446F5365 
 4525      744900
 4526              	.LASF107:
 4527 0392 706F7274 		.ascii	"port_enable\000"
 4527      5F656E61 
 4527      626C6500 
 4528              	.LASF77:
 4529 039e 73746B61 		.ascii	"stkalign_t\000"
 4529      6C69676E 
 4529      5F7400
 4530              	.LASF42:
 4531 03a9 74687265 		.ascii	"threads_list_t\000"
 4531      6164735F 
 4531      6C697374 
 4531      5F7400
 4532              	.LASF34:
 4533 03b8 705F7761 		.ascii	"p_waiting\000"
 4533      6974696E 
 4533      6700
 4534              	.LASF75:
 4535 03c2 73697A65 		.ascii	"sizetype\000"
 4535      74797065 
 4535      00
 4536              	.LASF41:
 4537 03cb 74687265 		.ascii	"thread_reference_t\000"
 4537      61645F72 
 4537      65666572 
 4537      656E6365 
 4537      5F7400
 4538              	.LASF64:
 4539 03de 63685F76 		.ascii	"ch_virtual_timers_list\000"
 4539      69727475 
 4539      616C5F74 
 4539      696D6572 
 4539      735F6C69 
 4540              	.LASF140:
 4541 03f5 74657374 		.ascii	"testsys1\000"
 4541      73797331 
ARM GAS  /tmp/ccf3ZVgt.s 			page 84


 4541      00
 4542              	.LASF141:
 4543 03fe 74657374 		.ascii	"testsys2\000"
 4543      73797332 
 4543      00
 4544              	.LASF142:
 4545 0407 74657374 		.ascii	"testsys3\000"
 4545      73797333 
 4545      00
 4546              	.LASF135:
 4547 0410 63685654 		.ascii	"chVTSetI\000"
 4547      53657449 
 4547      00
 4548              	.LASF28:
 4549 0419 705F6F6C 		.ascii	"p_older\000"
 4549      64657200 
 4550              	.LASF51:
 4551 0421 725F6374 		.ascii	"r_ctx\000"
 4551      7800
 4552              	.LASF113:
 4553 0427 706F7274 		.ascii	"port_irq_enabled\000"
 4553      5F697271 
 4553      5F656E61 
 4553      626C6564 
 4553      00
 4554              	.LASF130:
 4555 0438 63685654 		.ascii	"chVTSet\000"
 4555      53657400 
 4556              	.LASF122:
 4557 0440 63685379 		.ascii	"chSysSuspend\000"
 4557      73537573 
 4557      70656E64 
 4557      00
 4558              	.LASF98:
 4559 044d 73657475 		.ascii	"setup\000"
 4559      7000
 4560              	.LASF54:
 4561 0453 725F6375 		.ascii	"r_current\000"
 4561      7272656E 
 4561      7400
 4562              	.LASF53:
 4563 045d 725F6F6C 		.ascii	"r_older\000"
 4563      64657200 
 4564              	.LASF104:
 4565 0465 5F5F656E 		.ascii	"__enable_irq\000"
 4565      61626C65 
 4565      5F697271 
 4565      00
 4566              	.LASF120:
 4567 0472 63685654 		.ascii	"chVTObjectInit\000"
 4567      4F626A65 
 4567      6374496E 
 4567      697400
 4568              	.LASF103:
 4569 0481 5F5F6469 		.ascii	"__disable_irq\000"
 4569      7361626C 
 4569      655F6972 
ARM GAS  /tmp/ccf3ZVgt.s 			page 85


 4569      7100
 4570              	.LASF56:
 4571 048f 76697274 		.ascii	"virtual_timer_t\000"
 4571      75616C5F 
 4571      74696D65 
 4571      725F7400 
 4572              	.LASF24:
 4573 049f 705F7072 		.ascii	"p_prev\000"
 4573      657600
 4574              	.LASF100:
 4575 04a6 65786563 		.ascii	"execute\000"
 4575      75746500 
 4576              	.LASF17:
 4577 04ae 74707269 		.ascii	"tprio_t\000"
 4577      6F5F7400 
 4578              	.LASF126:
 4579 04b6 63685379 		.ascii	"chSysUnlockFromISR\000"
 4579      73556E6C 
 4579      6F636B46 
 4579      726F6D49 
 4579      535200
 4580              	.LASF67:
 4581 04c9 63685F73 		.ascii	"ch_system_debug\000"
 4581      79737465 
 4581      6D5F6465 
 4581      62756700 
 4582              	.LASF115:
 4583 04d9 5F426F6F 		.ascii	"_Bool\000"
 4583      6C00
 4584              	.LASF4:
 4585 04df 696E7433 		.ascii	"int32_t\000"
 4585      325F7400 
 4586              	.LASF7:
 4587 04e7 756E7369 		.ascii	"unsigned char\000"
 4587      676E6564 
 4587      20636861 
 4587      7200
 4588              	.LASF131:
 4589 04f5 64656C61 		.ascii	"delay\000"
 4589      7900
 4590              	.LASF30:
 4591 04fb 705F7374 		.ascii	"p_state\000"
 4591      61746500 
 4592              	.LASF2:
 4593 0503 73686F72 		.ascii	"short int\000"
 4593      7420696E 
 4593      7400
 4594              	.LASF33:
 4595 050d 705F7072 		.ascii	"p_preempt\000"
 4595      65656D70 
 4595      7400
 4596              	.LASF50:
 4597 0517 725F7072 		.ascii	"r_prio\000"
 4597      696F00
 4598              	.LASF86:
 4599 051e 65776D61 		.ascii	"ewmask\000"
 4599      736B00
ARM GAS  /tmp/ccf3ZVgt.s 			page 86


 4600              	.LASF23:
 4601 0525 705F6E65 		.ascii	"p_next\000"
 4601      787400
 4602              	.LASF128:
 4603 052c 63685379 		.ascii	"chSysUnconditionalLock\000"
 4603      73556E63 
 4603      6F6E6469 
 4603      74696F6E 
 4603      616C4C6F 
 4604              	.LASF31:
 4605 0543 705F666C 		.ascii	"p_flags\000"
 4605      61677300 
 4606              	.LASF119:
 4607 054b 5F5F6675 		.ascii	"__func__\000"
 4607      6E635F5F 
 4607      00
 4608              	.LASF116:
 4609 0554 63685379 		.ascii	"chSysLock\000"
 4609      734C6F63 
 4609      6B00
 4610              	.LASF121:
 4611 055e 63685654 		.ascii	"chVTIsArmedI\000"
 4611      49734172 
 4611      6D656449 
 4611      00
 4612              	.LASF80:
 4613 056b 7264796D 		.ascii	"rdymsg\000"
 4613      736700
 4614              	.LASF57:
 4615 0572 63685F76 		.ascii	"ch_virtual_timer\000"
 4615      69727475 
 4615      616C5F74 
 4615      696D6572 
 4615      00
 4616              	.LASF127:
 4617 0583 63685654 		.ascii	"chVTResetI\000"
 4617      52657365 
 4617      744900
 4618              	.LASF96:
 4619 058e 74657374 		.ascii	"testcase\000"
 4619      63617365 
 4619      00
 4620              	.LASF87:
 4621 0597 63685F73 		.ascii	"ch_semaphore\000"
 4621      656D6170 
 4621      686F7265 
 4621      00
 4622              	.LASF37:
 4623 05a4 705F6570 		.ascii	"p_epending\000"
 4623      656E6469 
 4623      6E6700
 4624              	.LASF153:
 4625 05af 63685468 		.ascii	"chThdSleep\000"
 4625      64536C65 
 4625      657000
 4626              	.LASF9:
 4627 05ba 75696E74 		.ascii	"uint32_t\000"
ARM GAS  /tmp/ccf3ZVgt.s 			page 87


 4627      33325F74 
 4627      00
 4628              	.LASF85:
 4629 05c3 77746D74 		.ascii	"wtmtxp\000"
 4629      787000
 4630              	.LASF49:
 4631 05ca 725F7175 		.ascii	"r_queue\000"
 4631      65756500 
 4632              	.LASF146:
 4633 05d2 63685379 		.ascii	"chSysRestoreStatusX\000"
 4633      73526573 
 4633      746F7265 
 4633      53746174 
 4633      75735800 
 4634              	.LASF44:
 4635 05e6 63685F74 		.ascii	"ch_threads_list\000"
 4635      68726561 
 4635      64735F6C 
 4635      69737400 
 4636              	.LASF152:
 4637 05f6 63685379 		.ascii	"chSysGetStatusAndLockX\000"
 4637      73476574 
 4637      53746174 
 4637      7573416E 
 4637      644C6F63 
 4638              	.LASF94:
 4639 060d 63686172 		.ascii	"char\000"
 4639      00
 4640              	.LASF151:
 4641 0612 2F686F6D 		.ascii	"/home/bunnie/code/chibios-netvcr/netvcr\000"
 4641      652F6275 
 4641      6E6E6965 
 4641      2F636F64 
 4641      652F6368 
 4642              	.LASF109:
 4643 063a 706F7274 		.ascii	"port_unlock_from_isr\000"
 4643      5F756E6C 
 4643      6F636B5F 
 4643      66726F6D 
 4643      5F697372 
 4644              	.LASF22:
 4645 064f 74687265 		.ascii	"thread_t\000"
 4645      61645F74 
 4645      00
 4646              	.LASF93:
 4647 0658 6D5F6E65 		.ascii	"m_next\000"
 4647      787400
 4648              	.LASF21:
 4649 065f 73797374 		.ascii	"systime_t\000"
 4649      696D655F 
 4649      7400
 4650              	.LASF39:
 4651 0669 705F7265 		.ascii	"p_realprio\000"
 4651      616C7072 
 4651      696F00
 4652              	.LASF55:
 4653 0674 76746675 		.ascii	"vtfunc_t\000"
ARM GAS  /tmp/ccf3ZVgt.s 			page 88


 4653      6E635F74 
 4653      00
 4654              	.LASF117:
 4655 067d 5F5F7365 		.ascii	"__set_BASEPRI\000"
 4655      745F4241 
 4655      53455052 
 4655      4900
 4656              	.LASF68:
 4657 068b 70616E69 		.ascii	"panic_msg\000"
 4657      635F6D73 
 4657      6700
 4658              	.LASF78:
 4659 0695 636F6E74 		.ascii	"context\000"
 4659      65787400 
 4660              	.LASF69:
 4661 069d 63685F73 		.ascii	"ch_system_t\000"
 4661      79737465 
 4661      6D5F7400 
 4662              	.LASF138:
 4663 06a9 73797331 		.ascii	"sys1_execute\000"
 4663      5F657865 
 4663      63757465 
 4663      00
 4664              	.LASF108:
 4665 06b6 706F7274 		.ascii	"port_lock_from_isr\000"
 4665      5F6C6F63 
 4665      6B5F6672 
 4665      6F6D5F69 
 4665      737200
 4666              	.LASF62:
 4667 06c9 76745F70 		.ascii	"vt_par\000"
 4667      617200
 4668              	.LASF132:
 4669 06d0 76746675 		.ascii	"vtfunc\000"
 4669      6E6300
 4670              	.LASF45:
 4671 06d7 74687265 		.ascii	"threads_queue_t\000"
 4671      6164735F 
 4671      71756575 
 4671      655F7400 
 4672              	.LASF90:
 4673 06e7 63685F6D 		.ascii	"ch_mutex\000"
 4673      75746578 
 4673      00
 4674              	.LASF32:
 4675 06f0 705F7265 		.ascii	"p_refs\000"
 4675      667300
 4676              	.LASF71:
 4677 06f7 726C6973 		.ascii	"rlist\000"
 4677      7400
 4678              	.LASF133:
 4679 06fd 63685654 		.ascii	"chVTIsArmed\000"
 4679      49734172 
 4679      6D656400 
 4680              	.LASF6:
 4681 0709 75696E74 		.ascii	"uint8_t\000"
 4681      385F7400 
ARM GAS  /tmp/ccf3ZVgt.s 			page 89


 4682              	.LASF125:
 4683 0711 63685379 		.ascii	"chSysLockFromISR\000"
 4683      734C6F63 
 4683      6B46726F 
 4683      6D495352 
 4683      00
 4684              	.LASF29:
 4685 0722 705F6E61 		.ascii	"p_name\000"
 4685      6D6500
 4686              	.LASF145:
 4687 0729 5F746573 		.ascii	"_test_assert\000"
 4687      745F6173 
 4687      73657274 
 4687      00
 4688              	.LASF65:
 4689 0736 76745F73 		.ascii	"vt_systime\000"
 4689      79737469 
 4689      6D6500
 4690              	.LASF144:
 4691 0741 63685379 		.ascii	"chSysIntegrityCheckI\000"
 4691      73496E74 
 4691      65677269 
 4691      74794368 
 4691      65636B49 
 4692              	.LASF13:
 4693 0756 746D6F64 		.ascii	"tmode_t\000"
 4693      655F7400 
 4694              	.LASF118:
 4695 075e 63685379 		.ascii	"chSysUnlock\000"
 4695      73556E6C 
 4695      6F636B00 
 4696              	.LASF36:
 4697 076a 705F6D73 		.ascii	"p_msg\000"
 4697      6700
 4698              	.LASF92:
 4699 0770 6D5F6F77 		.ascii	"m_owner\000"
 4699      6E657200 
 4700              	.LASF112:
 4701 0778 72657375 		.ascii	"result\000"
 4701      6C7400
 4702              	.LASF136:
 4703 077f 73797332 		.ascii	"sys2_execute\000"
 4703      5F657865 
 4703      63757465 
 4703      00
 4704              	.LASF26:
 4705 078c 705F6374 		.ascii	"p_ctx\000"
 4705      7800
 4706              	.LASF61:
 4707 0792 76745F66 		.ascii	"vt_func\000"
 4707      756E6300 
 4708              		.ident	"GCC: (Debian 4.9.2-10) 4.9.2"
 4709              		.section	.note.GNU-stack,"",%progbits
ARM GAS  /tmp/ccf3ZVgt.s 			page 90


DEFINED SYMBOLS
                            *ABS*:00000000 testsys.c
     /tmp/ccf3ZVgt.s:19     .text.sys2_execute:00000000 $t
     /tmp/ccf3ZVgt.s:24     .text.sys2_execute:00000000 sys2_execute
     /tmp/ccf3ZVgt.s:129    .text.vtcb:00000000 $t
     /tmp/ccf3ZVgt.s:134    .text.vtcb:00000000 vtcb
     /tmp/ccf3ZVgt.s:222    .text.sys3_execute:00000000 $t
     /tmp/ccf3ZVgt.s:227    .text.sys3_execute:00000000 sys3_execute
     /tmp/ccf3ZVgt.s:440    .text.sys1_execute:00000000 $t
     /tmp/ccf3ZVgt.s:445    .text.sys1_execute:00000000 sys1_execute
     /tmp/ccf3ZVgt.s:820    .text.sys1_execute:000000a4 $d
     /tmp/ccf3ZVgt.s:868    .rodata.patternsys:00000000 patternsys
     /tmp/ccf3ZVgt.s:850    .rodata.testsys3:00000000 testsys3
     /tmp/ccf3ZVgt.s:841    .rodata.testsys2:00000000 testsys2
     /tmp/ccf3ZVgt.s:832    .rodata.testsys1:00000000 testsys1
     /tmp/ccf3ZVgt.s:829    .rodata.testsys1:00000000 $d
     /tmp/ccf3ZVgt.s:838    .rodata.testsys2:00000000 $d
     /tmp/ccf3ZVgt.s:847    .rodata.testsys3:00000000 $d
     /tmp/ccf3ZVgt.s:856    .rodata.str1.4:00000000 $d
     /tmp/ccf3ZVgt.s:865    .rodata.patternsys:00000000 $d
                     .debug_frame:00000010 $d
     /tmp/ccf3ZVgt.s:828    .text.sys1_execute:000000a8 $t

UNDEFINED SYMBOLS
chSysGetStatusAndLockX
chSysRestoreStatusX
chSysIntegrityCheckI
_test_assert
chVTDoResetI
chVTDoSetI
chThdSleep
