ARM GAS  /tmp/ccZ8cUpU.s 			page 1


   1              		.syntax unified
   2              		.cpu cortex-m4
   3              		.fpu softvfp
   4              		.eabi_attribute 20, 1
   5              		.eabi_attribute 21, 1
   6              		.eabi_attribute 23, 3
   7              		.eabi_attribute 24, 1
   8              		.eabi_attribute 25, 1
   9              		.eabi_attribute 26, 2
  10              		.eabi_attribute 30, 2
  11              		.eabi_attribute 34, 1
  12              		.eabi_attribute 18, 4
  13              		.thumb
  14              		.file	"version.c"
  15              		.text
  16              	.Ltext0:
  17              		.cfi_sections	.debug_frame
  18              		.section	.text.atoi.constprop.0,"ax",%progbits
  19              		.align	2
  20              		.p2align 4,,15
  21              		.thumb
  22              		.thumb_func
  23              		.type	atoi.constprop.0, %function
  24              	atoi.constprop.0:
  25              	.LFB22:
  26              		.file 1 "../netvcr/opensda/bootloader/Common/src/version.c"
  27              		.loc 1 42 0
  28              		.cfi_startproc
  29              		@ args = 0, pretend = 0, frame = 0
  30              		@ frame_needed = 0, uses_anonymous_args = 0
  31              		@ link register save eliminated.
  32              	.LVL0:
  33              		.loc 1 45 0
  34 0000 21B3     		cbz	r1, .L5
  35              		.loc 1 42 0
  36 0002 70B4     		push	{r4, r5, r6}
  37              		.cfi_def_cfa_offset 12
  38              		.cfi_offset 4, -12
  39              		.cfi_offset 5, -8
  40              		.cfi_offset 6, -4
  41 0004 0139     		subs	r1, r1, #1
  42              	.LVL1:
  43              		.loc 1 45 0
  44 0006 0024     		movs	r4, #0
  45 0008 50FA81F1 		uxtab	r1, r0, r1
  46 000c 421E     		subs	r2, r0, #1
  47 000e 2046     		mov	r0, r4
  48              	.LVL2:
  49              	.L4:
  50              		.loc 1 46 0
  51 0010 12F8013F 		ldrb	r3, [r2, #1]!	@ zero_extendqisi2
  52              	.LVL3:
  53 0014 A3F13005 		sub	r5, r3, #48
  54 0018 092D     		cmp	r5, #9
  55              		.loc 1 48 0
  56 001a A3F14106 		sub	r6, r3, #65
  57              		.loc 1 46 0
ARM GAS  /tmp/ccZ8cUpU.s 			page 2


  58 001e 0FD9     		bls	.L6
  59              		.loc 1 48 0
  60 0020 052E     		cmp	r6, #5
  61              		.loc 1 50 0
  62 0022 A3F16105 		sub	r5, r3, #97
  63              		.loc 1 48 0
  64 0026 0ED9     		bls	.L7
  65              		.loc 1 50 0
  66 0028 052D     		cmp	r5, #5
  67 002a 00D8     		bhi	.L12
  68 002c 5724     		movs	r4, #87
  69              	.LVL4:
  70              	.L12:
  71              		.loc 1 51 0
  72 002e 2546     		mov	r5, r4
  73              	.L3:
  74              	.LVL5:
  75              		.loc 1 52 0
  76 0030 03EB0010 		add	r0, r3, r0, lsl #4
  77              	.LVL6:
  78              		.loc 1 45 0
  79 0034 8A42     		cmp	r2, r1
  80              		.loc 1 52 0
  81 0036 A0EB0500 		sub	r0, r0, r5
  82              	.LVL7:
  83              		.loc 1 45 0
  84 003a E9D1     		bne	.L4
  85              		.loc 1 56 0
  86 003c 70BC     		pop	{r4, r5, r6}
  87              		.cfi_remember_state
  88              		.cfi_restore 6
  89              		.cfi_restore 5
  90              		.cfi_restore 4
  91              		.cfi_def_cfa_offset 0
  92              	.LVL8:
  93 003e 7047     		bx	lr
  94              	.LVL9:
  95              	.L6:
  96              		.cfi_restore_state
  97              		.loc 1 46 0
  98 0040 3024     		movs	r4, #48
  99              	.LVL10:
 100              		.loc 1 47 0
 101 0042 2546     		mov	r5, r4
 102 0044 F4E7     		b	.L3
 103              	.LVL11:
 104              	.L7:
 105              		.loc 1 48 0
 106 0046 3724     		movs	r4, #55
 107              	.LVL12:
 108              		.loc 1 49 0
 109 0048 2546     		mov	r5, r4
 110 004a F1E7     		b	.L3
 111              	.LVL13:
 112              	.L5:
 113              		.cfi_def_cfa_offset 0
 114              		.cfi_restore 4
ARM GAS  /tmp/ccZ8cUpU.s 			page 3


 115              		.cfi_restore 5
 116              		.cfi_restore 6
 117              		.loc 1 43 0
 118 004c 0846     		mov	r0, r1
 119              	.LVL14:
 120 004e 7047     		bx	lr
 121              		.cfi_endproc
 122              	.LFE22:
 123              		.size	atoi.constprop.0, .-atoi.constprop.0
 124              		.section	.text.get_len_string_interface,"ax",%progbits
 125              		.align	2
 126              		.p2align 4,,15
 127              		.global	get_len_string_interface
 128              		.thumb
 129              		.thumb_func
 130              		.type	get_len_string_interface, %function
 131              	get_len_string_interface:
 132              	.LFB16:
 133              		.loc 1 101 0
 134              		.cfi_startproc
 135              		@ args = 0, pretend = 0, frame = 0
 136              		@ frame_needed = 0, uses_anonymous_args = 0
 137 0000 08B5     		push	{r3, lr}
 138              		.cfi_def_cfa_offset 8
 139              		.cfi_offset 3, -8
 140              		.cfi_offset 14, -4
 141              		.loc 1 102 0
 142 0002 0448     		ldr	r0, .L17
 143 0004 FFF7FEFF 		bl	strlen
 144              	.LVL15:
 145 0008 0130     		adds	r0, r0, #1
 146 000a 4000     		lsls	r0, r0, #1
 147              		.loc 1 103 0
 148 000c 00F0FE00 		and	r0, r0, #254
 149 0010 08BD     		pop	{r3, pc}
 150              	.L18:
 151 0012 00BF     		.align	2
 152              	.L17:
 153 0014 04000000 		.word	.LANCHOR0+4
 154              		.cfi_endproc
 155              	.LFE16:
 156              		.size	get_len_string_interface, .-get_len_string_interface
 157 0018 AFF30080 		.section	.text.get_uid_string_interface,"ax",%progbits
 157      AFF30080 
 158              		.align	2
 159              		.p2align 4,,15
 160              		.global	get_uid_string_interface
 161              		.thumb
 162              		.thumb_func
 163              		.type	get_uid_string_interface, %function
 164              	get_uid_string_interface:
 165              	.LFB17:
 166              		.loc 1 105 0
 167              		.cfi_startproc
 168              		@ args = 0, pretend = 0, frame = 0
 169              		@ frame_needed = 0, uses_anonymous_args = 0
 170              		@ link register save eliminated.
ARM GAS  /tmp/ccZ8cUpU.s 			page 4


 171              		.loc 1 107 0
 172 0000 0048     		ldr	r0, .L20
 173 0002 7047     		bx	lr
 174              	.L21:
 175              		.align	2
 176              	.L20:
 177 0004 00000000 		.word	.LANCHOR1
 178              		.cfi_endproc
 179              	.LFE17:
 180              		.size	get_uid_string_interface, .-get_uid_string_interface
 181 0008 AFF30080 		.section	.text.update_html_file,"ax",%progbits
 181      AFF30080 
 182              		.align	2
 183              		.p2align 4,,15
 184              		.global	update_html_file
 185              		.thumb
 186              		.thumb_func
 187              		.type	update_html_file, %function
 188              	update_html_file:
 189              	.LFB21:
 190              		.loc 1 195 0
 191              		.cfi_startproc
 192              		@ args = 0, pretend = 0, frame = 0
 193              		@ frame_needed = 0, uses_anonymous_args = 0
 194              	.LVL16:
 195 0000 2DE9F041 		push	{r4, r5, r6, r7, r8, lr}
 196              		.cfi_def_cfa_offset 24
 197              		.cfi_offset 4, -24
 198              		.cfi_offset 5, -20
 199              		.cfi_offset 6, -16
 200              		.cfi_offset 7, -12
 201              		.cfi_offset 8, -8
 202              		.cfi_offset 14, -4
 203              		.loc 1 204 0
 204 0004 524E     		ldr	r6, .L61
 205 0006 3378     		ldrb	r3, [r6]	@ zero_extendqisi2
 206 0008 1BB3     		cbz	r3, .L55
 207 000a 524D     		ldr	r5, .L61+4
 208              	.L23:
 209              	.LVL17:
 210 000c 524E     		ldr	r6, .L61+8
 211              	.LBB22:
 212              	.LBB23:
 213              		.loc 1 175 0
 214 000e 2C79     		ldrb	r4, [r5, #4]	@ zero_extendqisi2
 215 0010 3068     		ldr	r0, [r6]
 216 0012 524D     		ldr	r5, .L61+12
 217              	.LVL18:
 218              	.LBE23:
 219              	.LBE22:
 220              	.LBB27:
 221              	.LBB28:
 222              		.loc 1 126 0
 223 0014 524A     		ldr	r2, .L61+16
 224              		.loc 1 125 0
 225 0016 0021     		movs	r1, #0
 226              	.LVL19:
ARM GAS  /tmp/ccZ8cUpU.s 			page 5


 227              	.LBE28:
 228              	.LBE27:
 229              	.LBB29:
 230              	.LBB24:
 231              		.loc 1 141 0
 232 0018 39B1     		cbz	r1, .L35
 233              	.LVL20:
 234              	.L59:
 235              		.loc 1 143 0
 236 001a 0378     		ldrb	r3, [r0]	@ zero_extendqisi2
 237 001c 2BB1     		cbz	r3, .L35
 238              	.LVL21:
 239              	.L32:
 240              		.loc 1 188 0
 241 001e 0130     		adds	r0, r0, #1
 242 0020 0121     		movs	r1, #1
 243              	.LVL22:
 244              	.L38:
 245              	.LBE24:
 246              	.LBE29:
 247              		.loc 1 218 0
 248 0022 05F8013B 		strb	r3, [r5], #1
 249              	.LVL23:
 250              	.LBB30:
 251              	.LBB25:
 252              		.loc 1 141 0
 253 0026 0029     		cmp	r1, #0
 254 0028 F7D1     		bne	.L59
 255              	.LVL24:
 256              	.L35:
 257              		.loc 1 151 0
 258 002a 1378     		ldrb	r3, [r2]	@ zero_extendqisi2
 259              	.LVL25:
 260              		.loc 1 154 0
 261 002c 402B     		cmp	r3, #64
 262 002e 02D1     		bne	.L33
 263              		.loc 1 158 0
 264 0030 5178     		ldrb	r1, [r2, #1]	@ zero_extendqisi2
 265 0032 4129     		cmp	r1, #65
 266 0034 07D0     		beq	.L60
 267              	.L33:
 268              		.loc 1 151 0
 269 0036 0132     		adds	r2, r2, #1
 270              	.LVL26:
 271              	.LBE25:
 272              	.LBE30:
 273              		.loc 1 217 0
 274 0038 002B     		cmp	r3, #0
 275 003a 40F08680 		bne	.L41
 276 003e 3060     		str	r0, [r6]
 277              		.loc 1 223 0
 278 0040 0120     		movs	r0, #1
 279 0042 BDE8F081 		pop	{r4, r5, r6, r7, r8, pc}
 280              	.LVL27:
 281              	.L60:
 282 0046 0232     		adds	r2, r2, #2
 283              	.LVL28:
ARM GAS  /tmp/ccZ8cUpU.s 			page 6


 284              	.LBB31:
 285              	.LBB26:
 286              		.loc 1 160 0
 287 0048 4648     		ldr	r0, .L61+20
 288              		.loc 1 175 0
 289 004a 002C     		cmp	r4, #0
 290 004c EDD0     		beq	.L35
 291 004e 2346     		mov	r3, r4
 292              	.LVL29:
 293 0050 E5E7     		b	.L32
 294              	.LVL30:
 295              	.L55:
 296              	.LBE26:
 297              	.LBE31:
 298              		.loc 1 205 0
 299 0052 454F     		ldr	r7, .L61+24
 300              	.LBB32:
 301              	.LBB33:
 302              		.loc 1 62 0
 303 0054 3F4D     		ldr	r5, .L61+4
 304              	.LBE33:
 305              	.LBE32:
 306              		.loc 1 205 0
 307 0056 3846     		mov	r0, r7
 308 0058 FFF7FEFF 		bl	read_unique_id
 309              	.LVL31:
 310              	.LBB43:
 311              	.LBB44:
 312              		.loc 1 112 0
 313 005c 434B     		ldr	r3, .L61+28
 314 005e D3F80080 		ldr	r8, [r3]
 315 0062 0421     		movs	r1, #4
 316 0064 4046     		mov	r0, r8
 317 0066 FFF7FEFF 		bl	atoi.constprop.0
 318              	.LVL32:
 319              		.loc 1 114 0
 320 006a 0821     		movs	r1, #8
 321              		.loc 1 112 0
 322 006c 0446     		mov	r4, r0
 323              		.loc 1 114 0
 324 006e 4048     		ldr	r0, .L61+32
 325              		.loc 1 113 0
 326 0070 3F68     		ldr	r7, [r7]
 327              		.loc 1 114 0
 328 0072 FFF7FEFF 		bl	atoi.constprop.0
 329              	.LVL33:
 330              	.LBE44:
 331              	.LBE43:
 332              	.LBB48:
 333              	.LBB38:
 334              		.loc 1 65 0
 335 0076 2B46     		mov	r3, r5
 336 0078 4440     		eors	r4, r4, r0
 337              	.LBE38:
 338              	.LBE48:
 339              	.LBB49:
 340              	.LBB45:
ARM GAS  /tmp/ccZ8cUpU.s 			page 7


 341              		.loc 1 114 0
 342 007a 3E48     		ldr	r0, .L61+36
 343              	.LBE45:
 344              	.LBE49:
 345              	.LBB50:
 346              	.LBB39:
 347              		.loc 1 62 0
 348 007c 2421     		movs	r1, #36
 349              		.loc 1 65 0
 350 007e 1822     		movs	r2, #24
 351              	.LBE39:
 352              	.LBE50:
 353              	.LBB51:
 354              	.LBB46:
 355              		.loc 1 114 0
 356 0080 7C40     		eors	r4, r4, r7
 357              	.LBE46:
 358              	.LBE51:
 359              	.LBB52:
 360              	.LBB40:
 361              		.loc 1 65 0
 362 0082 03F8032F 		strb	r2, [r3, #3]!
 363              		.loc 1 62 0
 364 0086 2970     		strb	r1, [r5]
 365              		.loc 1 63 0
 366 0088 6970     		strb	r1, [r5, #1]
 367              		.loc 1 64 0
 368 008a A970     		strb	r1, [r5, #2]
 369 008c 08F1FF32 		add	r2, r8, #-1
 370              	.LBE40:
 371              	.LBE52:
 372              	.LBB53:
 373              	.LBB47:
 374              		.loc 1 114 0
 375 0090 0460     		str	r4, [r0]
 376              	.LVL34:
 377 0092 0735     		adds	r5, r5, #7
 378              	.LVL35:
 379              	.L24:
 380              	.LBE47:
 381              	.LBE53:
 382              	.LBB54:
 383              	.LBB41:
 384              		.loc 1 70 0
 385 0094 12F8011F 		ldrb	r1, [r2, #1]!	@ zero_extendqisi2
 386              	.LVL36:
 387 0098 03F8011F 		strb	r1, [r3, #1]!
 388              	.LVL37:
 389              		.loc 1 69 0
 390 009c AB42     		cmp	r3, r5
 391 009e F9D1     		bne	.L24
 392              	.LVL38:
 393 00a0 2C4A     		ldr	r2, .L61+4
 394 00a2 3548     		ldr	r0, .L61+40
 395 00a4 02F1080E 		add	lr, r2, #8
 396 00a8 1546     		mov	r5, r2
 397 00aa 1146     		mov	r1, r2
ARM GAS  /tmp/ccZ8cUpU.s 			page 8


 398 00ac 4FF0180C 		mov	ip, #24
 399              	.LVL39:
 400              	.L25:
 401              		.loc 1 72 0
 402 00b0 27FA0CF3 		lsr	r3, r7, ip
 403 00b4 DBB2     		uxtb	r3, r3
 404              	.LVL40:
 405              	.LBB34:
 406              	.LBB35:
 407              		.loc 1 38 0
 408 00b6 4FEA1318 		lsr	r8, r3, #4
 409              		.loc 1 39 0
 410 00ba 03F00F03 		and	r3, r3, #15
 411              	.LVL41:
 412              		.loc 1 38 0
 413 00be 10F80880 		ldrb	r8, [r0, r8]	@ zero_extendqisi2
 414              		.loc 1 39 0
 415 00c2 C35C     		ldrb	r3, [r0, r3]	@ zero_extendqisi2
 416              		.loc 1 38 0
 417 00c4 81F80880 		strb	r8, [r1, #8]
 418              		.loc 1 39 0
 419 00c8 4B72     		strb	r3, [r1, #9]
 420 00ca 0231     		adds	r1, r1, #2
 421              	.LVL42:
 422              	.LBE35:
 423              	.LBE34:
 424              		.loc 1 71 0
 425 00cc 7145     		cmp	r1, lr
 426 00ce ACF1080C 		sub	ip, ip, #8
 427              	.LVL43:
 428 00d2 EDD1     		bne	.L25
 429 00d4 1821     		movs	r1, #24
 430              	.LVL44:
 431              	.L26:
 432              		.loc 1 77 0
 433 00d6 24FA01F3 		lsr	r3, r4, r1
 434 00da DBB2     		uxtb	r3, r3
 435              	.LVL45:
 436              	.LBB36:
 437              	.LBB37:
 438              		.loc 1 38 0
 439 00dc 1F09     		lsrs	r7, r3, #4
 440              		.loc 1 39 0
 441 00de 03F00F03 		and	r3, r3, #15
 442              	.LVL46:
 443              		.loc 1 38 0
 444 00e2 C75D     		ldrb	r7, [r0, r7]	@ zero_extendqisi2
 445              		.loc 1 39 0
 446 00e4 C35C     		ldrb	r3, [r0, r3]	@ zero_extendqisi2
 447              		.loc 1 38 0
 448 00e6 1774     		strb	r7, [r2, #16]
 449              		.loc 1 39 0
 450 00e8 5374     		strb	r3, [r2, #17]
 451 00ea 0232     		adds	r2, r2, #2
 452              	.LVL47:
 453              	.LBE37:
 454              	.LBE36:
ARM GAS  /tmp/ccZ8cUpU.s 			page 9


 455              		.loc 1 76 0
 456 00ec 9645     		cmp	lr, r2
 457 00ee A1F10801 		sub	r1, r1, #8
 458              	.LVL48:
 459 00f2 F0D1     		bne	.L26
 460              	.LVL49:
 461              		.loc 1 80 0
 462 00f4 0024     		movs	r4, #0
 463              	.LVL50:
 464              	.LBE41:
 465              	.LBE54:
 466              	.LBB55:
 467              	.LBB56:
 468              		.loc 1 85 0
 469 00f6 1B48     		ldr	r0, .L61+20
 470              	.LBE56:
 471              	.LBE55:
 472              	.LBB59:
 473              	.LBB42:
 474              		.loc 1 80 0
 475 00f8 2C76     		strb	r4, [r5, #24]
 476              	.LVL51:
 477              	.LBE42:
 478              	.LBE59:
 479              	.LBB60:
 480              	.LBB57:
 481              		.loc 1 85 0
 482 00fa FFF7FEFF 		bl	strlen
 483              	.LVL52:
 484 00fe C0B2     		uxtb	r0, r0
 485              	.LVL53:
 486              		.loc 1 86 0
 487 0100 1E49     		ldr	r1, .L61+44
 488 0102 431C     		adds	r3, r0, #1
 489 0104 5B00     		lsls	r3, r3, #1
 490              		.loc 1 87 0
 491 0106 0322     		movs	r2, #3
 492              		.loc 1 86 0
 493 0108 0B70     		strb	r3, [r1]
 494              		.loc 1 87 0
 495 010a 4A70     		strb	r2, [r1, #1]
 496              	.LVL54:
 497              		.loc 1 90 0
 498 010c 4700     		lsls	r7, r0, #1
 499 010e A8B1     		cbz	r0, .L30
 500 0110 2246     		mov	r2, r4
 501 0112 2346     		mov	r3, r4
 502              		.loc 1 94 0
 503 0114 A646     		mov	lr, r4
 504              	.LVL55:
 505              	.L27:
 506              		.loc 1 91 0
 507 0116 13F0010F 		tst	r3, #1
 508              		.loc 1 92 0
 509 011a 05EB5304 		add	r4, r5, r3, lsr #1
 510 011e 01EB0200 		add	r0, r1, r2
 511              		.loc 1 90 0
ARM GAS  /tmp/ccZ8cUpU.s 			page 10


 512 0122 03F10103 		add	r3, r3, #1
 513              	.LVL56:
 514              		.loc 1 94 0
 515 0126 12BF     		itee	ne
 516 0128 5218     		addne	r2, r2, r1
 517              		.loc 1 92 0
 518 012a 2279     		ldrbeq	r2, [r4, #4]	@ zero_extendqisi2
 519 012c 8270     		strbeq	r2, [r0, #2]
 520              		.loc 1 90 0
 521 012e DBB2     		uxtb	r3, r3
 522              	.LVL57:
 523              		.loc 1 94 0
 524 0130 18BF     		it	ne
 525 0132 82F802E0 		strbne	lr, [r2, #2]
 526              		.loc 1 90 0
 527 0136 BB42     		cmp	r3, r7
 528 0138 1A46     		mov	r2, r3
 529 013a ECDB     		blt	.L27
 530              	.LVL58:
 531              	.L30:
 532              		.loc 1 96 0
 533 013c BB1C     		adds	r3, r7, #2
 534              		.loc 1 98 0
 535 013e DBB2     		uxtb	r3, r3
 536 0140 0020     		movs	r0, #0
 537              	.LBE57:
 538              	.LBE60:
 539              		.loc 1 209 0
 540 0142 0122     		movs	r2, #1
 541              	.LBB61:
 542              	.LBB58:
 543              		.loc 1 98 0
 544 0144 C854     		strb	r0, [r1, r3]
 545              	.LBE58:
 546              	.LBE61:
 547              		.loc 1 209 0
 548 0146 3270     		strb	r2, [r6]
 549 0148 60E7     		b	.L23
 550              	.LVL59:
 551              	.L41:
 552 014a 0021     		movs	r1, #0
 553 014c 69E7     		b	.L38
 554              	.L62:
 555 014e 00BF     		.align	2
 556              	.L61:
 557 0150 00000000 		.word	.LANCHOR3
 558 0154 00000000 		.word	.LANCHOR0
 559 0158 00000000 		.word	.LANCHOR9
 560 015c 00000000 		.word	BlockBuf
 561 0160 00000000 		.word	.LANCHOR2
 562 0164 04000000 		.word	.LANCHOR0+4
 563 0168 00000000 		.word	.LANCHOR4
 564 016c 00000000 		.word	.LANCHOR5
 565 0170 00000000 		.word	.LANCHOR6
 566 0174 00000000 		.word	.LANCHOR7
 567 0178 00000000 		.word	.LANCHOR8
 568 017c 00000000 		.word	.LANCHOR1
ARM GAS  /tmp/ccZ8cUpU.s 			page 11


 569              		.cfi_endproc
 570              	.LFE21:
 571              		.size	update_html_file, .-update_html_file
 572              		.global	board_secret
 573              		.global	string_auth_descriptor
 574              		.global	string_auth
 575              		.global	fw_version
 576              		.global	WebSide
 577              		.section	.bss.unique_id,"aw",%nobits
 578              		.align	2
 579              	.LANCHOR4 = . + 0
 580              		.type	unique_id, %object
 581              		.size	unique_id, 4
 582              	unique_id:
 583 0000 00000000 		.space	4
 584              		.section	.bss.auth,"aw",%nobits
 585              		.align	2
 586              	.LANCHOR7 = . + 0
 587              		.type	auth, %object
 588              		.size	auth, 4
 589              	auth:
 590 0000 00000000 		.space	4
 591              		.section	.bss.string_auth_descriptor,"aw",%nobits
 592              		.align	2
 593              	.LANCHOR1 = . + 0
 594              		.type	string_auth_descriptor, %object
 595              		.size	string_auth_descriptor, 52
 596              	string_auth_descriptor:
 597 0000 00000000 		.space	52
 597      00000000 
 597      00000000 
 597      00000000 
 597      00000000 
 598              		.section	.bss.already_unique_id,"aw",%nobits
 599              	.LANCHOR3 = . + 0
 600              		.type	already_unique_id, %object
 601              		.size	already_unique_id, 1
 602              	already_unique_id:
 603 0000 00       		.space	1
 604              		.section	.rodata.nybble_chars,"a",%progbits
 605              		.align	2
 606              	.LANCHOR8 = . + 0
 607              		.type	nybble_chars, %object
 608              		.size	nybble_chars, 17
 609              	nybble_chars:
 610 0000 30313233 		.ascii	"0123456789ABCDEF\000"
 610      34353637 
 610      38394142 
 610      43444546 
 610      00
 611 0011 000000   		.section	.bss.sptr.4598,"aw",%nobits
 612              		.align	2
 613              	.LANCHOR9 = . + 0
 614              		.type	sptr.4598, %object
 615              		.size	sptr.4598, 4
 616              	sptr.4598:
 617 0000 00000000 		.space	4
ARM GAS  /tmp/ccZ8cUpU.s 			page 12


 618              		.section	.data.fw_version,"aw",%progbits
 619              		.align	2
 620              	.LANCHOR5 = . + 0
 621              		.type	fw_version, %object
 622              		.size	fw_version, 4
 623              	fw_version:
 624 0000 00000000 		.word	.LC0
 625              		.section	.rodata.WebSide,"a",%progbits
 626              		.align	2
 627              	.LANCHOR2 = . + 0
 628              		.type	WebSide, %object
 629              		.size	WebSide, 347
 630              	WebSide:
 631 0000 3C212D2D 		.ascii	"<!-- mbed Microcontroller Website and Authenticatio"
 631      206D6265 
 631      64204D69 
 631      63726F63 
 631      6F6E7472 
 632 0033 6E205368 		.ascii	"n Shortcut -->\015\012<!-- Version: 0201 Build: May"
 632      6F727463 
 632      7574202D 
 632      2D3E0D0A 
 632      3C212D2D 
 633 0060 20313220 		.ascii	" 12 2016 00:50:35 Git Commit SHA: 5e66bcef280b62c10"
 633      32303136 
 633      2030303A 
 633      35303A33 
 633      35204769 
 634 0093 32303934 		.ascii	"2094328885b6181bb673ec7-->\015\012<html>\015\012<he"
 634      33323838 
 634      38356236 
 634      31383162 
 634      62363733 
 635 00ba 61643E0D 		.ascii	"ad>\015\012<meta http-equiv=\"refresh\" content=\"0"
 635      0A3C6D65 
 635      74612068 
 635      7474702D 
 635      65717569 
 636 00e4 3B207572 		.ascii	"; url=http://mbed.org/device/?code_bl=@A\"/>\015\012"
 636      6C3D6874 
 636      74703A2F 
 636      2F6D6265 
 636      642E6F72 
 637 0111 3C746974 		.ascii	"<title>mbed Website Shortcut</title>\015\012</head>"
 637      6C653E6D 
 637      62656420 
 637      57656273 
 637      69746520 
 638 013e 0D0A3C62 		.ascii	"\015\012<body></body>\015\012</html>\015\012\015\012"
 638      6F64793E 
 638      3C2F626F 
 638      64793E0D 
 638      0A3C2F68 
 639 015a 00       		.ascii	"\000"
 640 015b 00       		.section	.rodata.str1.4,"aMS",%progbits,1
 641              		.align	2
 642              	.LC0:
ARM GAS  /tmp/ccZ8cUpU.s 			page 13


 643 0000 30323031 		.ascii	"0201\000"
 643      00
 644 0005 000000   		.section	.bss.string_auth,"aw",%nobits
 645              		.align	2
 646              	.LANCHOR0 = . + 0
 647              		.type	string_auth, %object
 648              		.size	string_auth, 29
 649              	string_auth:
 650 0000 00000000 		.space	29
 650      00000000 
 650      00000000 
 650      00000000 
 650      00000000 
 651 001d 000000   		.section	.rodata.board_secret,"a",%progbits
 652              		.align	2
 653              	.LANCHOR6 = . + 0
 654              		.type	board_secret, %object
 655              		.size	board_secret, 9
 656              	board_secret:
 657 0000 6B34666C 		.ascii	"k4flu5fs\000"
 657      75356673 
 657      00
 658 0009 000000   		.text
 659              	.Letext0:
 660              		.file 2 "/usr/lib/gcc/arm-linux-gnueabihf/4.9/include/stddef.h"
 661              		.file 3 "/usr/include/stdint.h"
 662              		.file 4 "../netvcr/opensda/bootloader/Common/inc/mbed_htm.h"
 663              		.file 5 "/usr/include/string.h"
 664              		.file 6 "../netvcr/opensda/bootloader/Common/inc/read_uid.h"
 3027              		.section	.note.GNU-stack,"",%progbits
ARM GAS  /tmp/ccZ8cUpU.s 			page 58

