ARM GAS  /tmp/ccZ8cUpU.s 			page 1


   1              		.syntax unified
   2              		.cpu cortex-m4
   3              		.fpu softvfp
   4              		.eabi_attribute 20, 1
   5              		.eabi_attribute 21, 1
   6              		.eabi_attribute 23, 3
   7              		.eabi_attribute 24, 1
   8              		.eabi_attribute 25, 1
   9              		.eabi_attribute 26, 2
  10              		.eabi_attribute 30, 2
  11              		.eabi_attribute 34, 1
  12              		.eabi_attribute 18, 4
  13              		.thumb
  14              		.file	"version.c"
  15              		.text
  16              	.Ltext0:
  17              		.cfi_sections	.debug_frame
  18              		.section	.text.atoi.constprop.0,"ax",%progbits
  19              		.align	2
  20              		.p2align 4,,15
  21              		.thumb
  22              		.thumb_func
  23              		.type	atoi.constprop.0, %function
  24              	atoi.constprop.0:
  25              	.LFB22:
  26              		.file 1 "../netvcr/opensda/bootloader/Common/src/version.c"
  27              		.loc 1 42 0
  28              		.cfi_startproc
  29              		@ args = 0, pretend = 0, frame = 0
  30              		@ frame_needed = 0, uses_anonymous_args = 0
  31              		@ link register save eliminated.
  32              	.LVL0:
  33              		.loc 1 45 0
  34 0000 21B3     		cbz	r1, .L5
  35              		.loc 1 42 0
  36 0002 70B4     		push	{r4, r5, r6}
  37              		.cfi_def_cfa_offset 12
  38              		.cfi_offset 4, -12
  39              		.cfi_offset 5, -8
  40              		.cfi_offset 6, -4
  41 0004 0139     		subs	r1, r1, #1
  42              	.LVL1:
  43              		.loc 1 45 0
  44 0006 0024     		movs	r4, #0
  45 0008 50FA81F1 		uxtab	r1, r0, r1
  46 000c 421E     		subs	r2, r0, #1
  47 000e 2046     		mov	r0, r4
  48              	.LVL2:
  49              	.L4:
  50              		.loc 1 46 0
  51 0010 12F8013F 		ldrb	r3, [r2, #1]!	@ zero_extendqisi2
  52              	.LVL3:
  53 0014 A3F13005 		sub	r5, r3, #48
  54 0018 092D     		cmp	r5, #9
  55              		.loc 1 48 0
  56 001a A3F14106 		sub	r6, r3, #65
  57              		.loc 1 46 0
ARM GAS  /tmp/ccZ8cUpU.s 			page 2


  58 001e 0FD9     		bls	.L6
  59              		.loc 1 48 0
  60 0020 052E     		cmp	r6, #5
  61              		.loc 1 50 0
  62 0022 A3F16105 		sub	r5, r3, #97
  63              		.loc 1 48 0
  64 0026 0ED9     		bls	.L7
  65              		.loc 1 50 0
  66 0028 052D     		cmp	r5, #5
  67 002a 00D8     		bhi	.L12
  68 002c 5724     		movs	r4, #87
  69              	.LVL4:
  70              	.L12:
  71              		.loc 1 51 0
  72 002e 2546     		mov	r5, r4
  73              	.L3:
  74              	.LVL5:
  75              		.loc 1 52 0
  76 0030 03EB0010 		add	r0, r3, r0, lsl #4
  77              	.LVL6:
  78              		.loc 1 45 0
  79 0034 8A42     		cmp	r2, r1
  80              		.loc 1 52 0
  81 0036 A0EB0500 		sub	r0, r0, r5
  82              	.LVL7:
  83              		.loc 1 45 0
  84 003a E9D1     		bne	.L4
  85              		.loc 1 56 0
  86 003c 70BC     		pop	{r4, r5, r6}
  87              		.cfi_remember_state
  88              		.cfi_restore 6
  89              		.cfi_restore 5
  90              		.cfi_restore 4
  91              		.cfi_def_cfa_offset 0
  92              	.LVL8:
  93 003e 7047     		bx	lr
  94              	.LVL9:
  95              	.L6:
  96              		.cfi_restore_state
  97              		.loc 1 46 0
  98 0040 3024     		movs	r4, #48
  99              	.LVL10:
 100              		.loc 1 47 0
 101 0042 2546     		mov	r5, r4
 102 0044 F4E7     		b	.L3
 103              	.LVL11:
 104              	.L7:
 105              		.loc 1 48 0
 106 0046 3724     		movs	r4, #55
 107              	.LVL12:
 108              		.loc 1 49 0
 109 0048 2546     		mov	r5, r4
 110 004a F1E7     		b	.L3
 111              	.LVL13:
 112              	.L5:
 113              		.cfi_def_cfa_offset 0
 114              		.cfi_restore 4
ARM GAS  /tmp/ccZ8cUpU.s 			page 3


 115              		.cfi_restore 5
 116              		.cfi_restore 6
 117              		.loc 1 43 0
 118 004c 0846     		mov	r0, r1
 119              	.LVL14:
 120 004e 7047     		bx	lr
 121              		.cfi_endproc
 122              	.LFE22:
 123              		.size	atoi.constprop.0, .-atoi.constprop.0
 124              		.section	.text.get_len_string_interface,"ax",%progbits
 125              		.align	2
 126              		.p2align 4,,15
 127              		.global	get_len_string_interface
 128              		.thumb
 129              		.thumb_func
 130              		.type	get_len_string_interface, %function
 131              	get_len_string_interface:
 132              	.LFB16:
 133              		.loc 1 101 0
 134              		.cfi_startproc
 135              		@ args = 0, pretend = 0, frame = 0
 136              		@ frame_needed = 0, uses_anonymous_args = 0
 137 0000 08B5     		push	{r3, lr}
 138              		.cfi_def_cfa_offset 8
 139              		.cfi_offset 3, -8
 140              		.cfi_offset 14, -4
 141              		.loc 1 102 0
 142 0002 0448     		ldr	r0, .L17
 143 0004 FFF7FEFF 		bl	strlen
 144              	.LVL15:
 145 0008 0130     		adds	r0, r0, #1
 146 000a 4000     		lsls	r0, r0, #1
 147              		.loc 1 103 0
 148 000c 00F0FE00 		and	r0, r0, #254
 149 0010 08BD     		pop	{r3, pc}
 150              	.L18:
 151 0012 00BF     		.align	2
 152              	.L17:
 153 0014 04000000 		.word	.LANCHOR0+4
 154              		.cfi_endproc
 155              	.LFE16:
 156              		.size	get_len_string_interface, .-get_len_string_interface
 157 0018 AFF30080 		.section	.text.get_uid_string_interface,"ax",%progbits
 157      AFF30080 
 158              		.align	2
 159              		.p2align 4,,15
 160              		.global	get_uid_string_interface
 161              		.thumb
 162              		.thumb_func
 163              		.type	get_uid_string_interface, %function
 164              	get_uid_string_interface:
 165              	.LFB17:
 166              		.loc 1 105 0
 167              		.cfi_startproc
 168              		@ args = 0, pretend = 0, frame = 0
 169              		@ frame_needed = 0, uses_anonymous_args = 0
 170              		@ link register save eliminated.
ARM GAS  /tmp/ccZ8cUpU.s 			page 4


 171              		.loc 1 107 0
 172 0000 0048     		ldr	r0, .L20
 173 0002 7047     		bx	lr
 174              	.L21:
 175              		.align	2
 176              	.L20:
 177 0004 00000000 		.word	.LANCHOR1
 178              		.cfi_endproc
 179              	.LFE17:
 180              		.size	get_uid_string_interface, .-get_uid_string_interface
 181 0008 AFF30080 		.section	.text.update_html_file,"ax",%progbits
 181      AFF30080 
 182              		.align	2
 183              		.p2align 4,,15
 184              		.global	update_html_file
 185              		.thumb
 186              		.thumb_func
 187              		.type	update_html_file, %function
 188              	update_html_file:
 189              	.LFB21:
 190              		.loc 1 195 0
 191              		.cfi_startproc
 192              		@ args = 0, pretend = 0, frame = 0
 193              		@ frame_needed = 0, uses_anonymous_args = 0
 194              	.LVL16:
 195 0000 2DE9F041 		push	{r4, r5, r6, r7, r8, lr}
 196              		.cfi_def_cfa_offset 24
 197              		.cfi_offset 4, -24
 198              		.cfi_offset 5, -20
 199              		.cfi_offset 6, -16
 200              		.cfi_offset 7, -12
 201              		.cfi_offset 8, -8
 202              		.cfi_offset 14, -4
 203              		.loc 1 204 0
 204 0004 524E     		ldr	r6, .L61
 205 0006 3378     		ldrb	r3, [r6]	@ zero_extendqisi2
 206 0008 1BB3     		cbz	r3, .L55
 207 000a 524D     		ldr	r5, .L61+4
 208              	.L23:
 209              	.LVL17:
 210 000c 524E     		ldr	r6, .L61+8
 211              	.LBB22:
 212              	.LBB23:
 213              		.loc 1 175 0
 214 000e 2C79     		ldrb	r4, [r5, #4]	@ zero_extendqisi2
 215 0010 3068     		ldr	r0, [r6]
 216 0012 524D     		ldr	r5, .L61+12
 217              	.LVL18:
 218              	.LBE23:
 219              	.LBE22:
 220              	.LBB27:
 221              	.LBB28:
 222              		.loc 1 126 0
 223 0014 524A     		ldr	r2, .L61+16
 224              		.loc 1 125 0
 225 0016 0021     		movs	r1, #0
 226              	.LVL19:
ARM GAS  /tmp/ccZ8cUpU.s 			page 5


 227              	.LBE28:
 228              	.LBE27:
 229              	.LBB29:
 230              	.LBB24:
 231              		.loc 1 141 0
 232 0018 39B1     		cbz	r1, .L35
 233              	.LVL20:
 234              	.L59:
 235              		.loc 1 143 0
 236 001a 0378     		ldrb	r3, [r0]	@ zero_extendqisi2
 237 001c 2BB1     		cbz	r3, .L35
 238              	.LVL21:
 239              	.L32:
 240              		.loc 1 188 0
 241 001e 0130     		adds	r0, r0, #1
 242 0020 0121     		movs	r1, #1
 243              	.LVL22:
 244              	.L38:
 245              	.LBE24:
 246              	.LBE29:
 247              		.loc 1 218 0
 248 0022 05F8013B 		strb	r3, [r5], #1
 249              	.LVL23:
 250              	.LBB30:
 251              	.LBB25:
 252              		.loc 1 141 0
 253 0026 0029     		cmp	r1, #0
 254 0028 F7D1     		bne	.L59
 255              	.LVL24:
 256              	.L35:
 257              		.loc 1 151 0
 258 002a 1378     		ldrb	r3, [r2]	@ zero_extendqisi2
 259              	.LVL25:
 260              		.loc 1 154 0
 261 002c 402B     		cmp	r3, #64
 262 002e 02D1     		bne	.L33
 263              		.loc 1 158 0
 264 0030 5178     		ldrb	r1, [r2, #1]	@ zero_extendqisi2
 265 0032 4129     		cmp	r1, #65
 266 0034 07D0     		beq	.L60
 267              	.L33:
 268              		.loc 1 151 0
 269 0036 0132     		adds	r2, r2, #1
 270              	.LVL26:
 271              	.LBE25:
 272              	.LBE30:
 273              		.loc 1 217 0
 274 0038 002B     		cmp	r3, #0
 275 003a 40F08680 		bne	.L41
 276 003e 3060     		str	r0, [r6]
 277              		.loc 1 223 0
 278 0040 0120     		movs	r0, #1
 279 0042 BDE8F081 		pop	{r4, r5, r6, r7, r8, pc}
 280              	.LVL27:
 281              	.L60:
 282 0046 0232     		adds	r2, r2, #2
 283              	.LVL28:
ARM GAS  /tmp/ccZ8cUpU.s 			page 6


 284              	.LBB31:
 285              	.LBB26:
 286              		.loc 1 160 0
 287 0048 4648     		ldr	r0, .L61+20
 288              		.loc 1 175 0
 289 004a 002C     		cmp	r4, #0
 290 004c EDD0     		beq	.L35
 291 004e 2346     		mov	r3, r4
 292              	.LVL29:
 293 0050 E5E7     		b	.L32
 294              	.LVL30:
 295              	.L55:
 296              	.LBE26:
 297              	.LBE31:
 298              		.loc 1 205 0
 299 0052 454F     		ldr	r7, .L61+24
 300              	.LBB32:
 301              	.LBB33:
 302              		.loc 1 62 0
 303 0054 3F4D     		ldr	r5, .L61+4
 304              	.LBE33:
 305              	.LBE32:
 306              		.loc 1 205 0
 307 0056 3846     		mov	r0, r7
 308 0058 FFF7FEFF 		bl	read_unique_id
 309              	.LVL31:
 310              	.LBB43:
 311              	.LBB44:
 312              		.loc 1 112 0
 313 005c 434B     		ldr	r3, .L61+28
 314 005e D3F80080 		ldr	r8, [r3]
 315 0062 0421     		movs	r1, #4
 316 0064 4046     		mov	r0, r8
 317 0066 FFF7FEFF 		bl	atoi.constprop.0
 318              	.LVL32:
 319              		.loc 1 114 0
 320 006a 0821     		movs	r1, #8
 321              		.loc 1 112 0
 322 006c 0446     		mov	r4, r0
 323              		.loc 1 114 0
 324 006e 4048     		ldr	r0, .L61+32
 325              		.loc 1 113 0
 326 0070 3F68     		ldr	r7, [r7]
 327              		.loc 1 114 0
 328 0072 FFF7FEFF 		bl	atoi.constprop.0
 329              	.LVL33:
 330              	.LBE44:
 331              	.LBE43:
 332              	.LBB48:
 333              	.LBB38:
 334              		.loc 1 65 0
 335 0076 2B46     		mov	r3, r5
 336 0078 4440     		eors	r4, r4, r0
 337              	.LBE38:
 338              	.LBE48:
 339              	.LBB49:
 340              	.LBB45:
ARM GAS  /tmp/ccZ8cUpU.s 			page 7


 341              		.loc 1 114 0
 342 007a 3E48     		ldr	r0, .L61+36
 343              	.LBE45:
 344              	.LBE49:
 345              	.LBB50:
 346              	.LBB39:
 347              		.loc 1 62 0
 348 007c 2421     		movs	r1, #36
 349              		.loc 1 65 0
 350 007e 1822     		movs	r2, #24
 351              	.LBE39:
 352              	.LBE50:
 353              	.LBB51:
 354              	.LBB46:
 355              		.loc 1 114 0
 356 0080 7C40     		eors	r4, r4, r7
 357              	.LBE46:
 358              	.LBE51:
 359              	.LBB52:
 360              	.LBB40:
 361              		.loc 1 65 0
 362 0082 03F8032F 		strb	r2, [r3, #3]!
 363              		.loc 1 62 0
 364 0086 2970     		strb	r1, [r5]
 365              		.loc 1 63 0
 366 0088 6970     		strb	r1, [r5, #1]
 367              		.loc 1 64 0
 368 008a A970     		strb	r1, [r5, #2]
 369 008c 08F1FF32 		add	r2, r8, #-1
 370              	.LBE40:
 371              	.LBE52:
 372              	.LBB53:
 373              	.LBB47:
 374              		.loc 1 114 0
 375 0090 0460     		str	r4, [r0]
 376              	.LVL34:
 377 0092 0735     		adds	r5, r5, #7
 378              	.LVL35:
 379              	.L24:
 380              	.LBE47:
 381              	.LBE53:
 382              	.LBB54:
 383              	.LBB41:
 384              		.loc 1 70 0
 385 0094 12F8011F 		ldrb	r1, [r2, #1]!	@ zero_extendqisi2
 386              	.LVL36:
 387 0098 03F8011F 		strb	r1, [r3, #1]!
 388              	.LVL37:
 389              		.loc 1 69 0
 390 009c AB42     		cmp	r3, r5
 391 009e F9D1     		bne	.L24
 392              	.LVL38:
 393 00a0 2C4A     		ldr	r2, .L61+4
 394 00a2 3548     		ldr	r0, .L61+40
 395 00a4 02F1080E 		add	lr, r2, #8
 396 00a8 1546     		mov	r5, r2
 397 00aa 1146     		mov	r1, r2
ARM GAS  /tmp/ccZ8cUpU.s 			page 8


 398 00ac 4FF0180C 		mov	ip, #24
 399              	.LVL39:
 400              	.L25:
 401              		.loc 1 72 0
 402 00b0 27FA0CF3 		lsr	r3, r7, ip
 403 00b4 DBB2     		uxtb	r3, r3
 404              	.LVL40:
 405              	.LBB34:
 406              	.LBB35:
 407              		.loc 1 38 0
 408 00b6 4FEA1318 		lsr	r8, r3, #4
 409              		.loc 1 39 0
 410 00ba 03F00F03 		and	r3, r3, #15
 411              	.LVL41:
 412              		.loc 1 38 0
 413 00be 10F80880 		ldrb	r8, [r0, r8]	@ zero_extendqisi2
 414              		.loc 1 39 0
 415 00c2 C35C     		ldrb	r3, [r0, r3]	@ zero_extendqisi2
 416              		.loc 1 38 0
 417 00c4 81F80880 		strb	r8, [r1, #8]
 418              		.loc 1 39 0
 419 00c8 4B72     		strb	r3, [r1, #9]
 420 00ca 0231     		adds	r1, r1, #2
 421              	.LVL42:
 422              	.LBE35:
 423              	.LBE34:
 424              		.loc 1 71 0
 425 00cc 7145     		cmp	r1, lr
 426 00ce ACF1080C 		sub	ip, ip, #8
 427              	.LVL43:
 428 00d2 EDD1     		bne	.L25
 429 00d4 1821     		movs	r1, #24
 430              	.LVL44:
 431              	.L26:
 432              		.loc 1 77 0
 433 00d6 24FA01F3 		lsr	r3, r4, r1
 434 00da DBB2     		uxtb	r3, r3
 435              	.LVL45:
 436              	.LBB36:
 437              	.LBB37:
 438              		.loc 1 38 0
 439 00dc 1F09     		lsrs	r7, r3, #4
 440              		.loc 1 39 0
 441 00de 03F00F03 		and	r3, r3, #15
 442              	.LVL46:
 443              		.loc 1 38 0
 444 00e2 C75D     		ldrb	r7, [r0, r7]	@ zero_extendqisi2
 445              		.loc 1 39 0
 446 00e4 C35C     		ldrb	r3, [r0, r3]	@ zero_extendqisi2
 447              		.loc 1 38 0
 448 00e6 1774     		strb	r7, [r2, #16]
 449              		.loc 1 39 0
 450 00e8 5374     		strb	r3, [r2, #17]
 451 00ea 0232     		adds	r2, r2, #2
 452              	.LVL47:
 453              	.LBE37:
 454              	.LBE36:
ARM GAS  /tmp/ccZ8cUpU.s 			page 9


 455              		.loc 1 76 0
 456 00ec 9645     		cmp	lr, r2
 457 00ee A1F10801 		sub	r1, r1, #8
 458              	.LVL48:
 459 00f2 F0D1     		bne	.L26
 460              	.LVL49:
 461              		.loc 1 80 0
 462 00f4 0024     		movs	r4, #0
 463              	.LVL50:
 464              	.LBE41:
 465              	.LBE54:
 466              	.LBB55:
 467              	.LBB56:
 468              		.loc 1 85 0
 469 00f6 1B48     		ldr	r0, .L61+20
 470              	.LBE56:
 471              	.LBE55:
 472              	.LBB59:
 473              	.LBB42:
 474              		.loc 1 80 0
 475 00f8 2C76     		strb	r4, [r5, #24]
 476              	.LVL51:
 477              	.LBE42:
 478              	.LBE59:
 479              	.LBB60:
 480              	.LBB57:
 481              		.loc 1 85 0
 482 00fa FFF7FEFF 		bl	strlen
 483              	.LVL52:
 484 00fe C0B2     		uxtb	r0, r0
 485              	.LVL53:
 486              		.loc 1 86 0
 487 0100 1E49     		ldr	r1, .L61+44
 488 0102 431C     		adds	r3, r0, #1
 489 0104 5B00     		lsls	r3, r3, #1
 490              		.loc 1 87 0
 491 0106 0322     		movs	r2, #3
 492              		.loc 1 86 0
 493 0108 0B70     		strb	r3, [r1]
 494              		.loc 1 87 0
 495 010a 4A70     		strb	r2, [r1, #1]
 496              	.LVL54:
 497              		.loc 1 90 0
 498 010c 4700     		lsls	r7, r0, #1
 499 010e A8B1     		cbz	r0, .L30
 500 0110 2246     		mov	r2, r4
 501 0112 2346     		mov	r3, r4
 502              		.loc 1 94 0
 503 0114 A646     		mov	lr, r4
 504              	.LVL55:
 505              	.L27:
 506              		.loc 1 91 0
 507 0116 13F0010F 		tst	r3, #1
 508              		.loc 1 92 0
 509 011a 05EB5304 		add	r4, r5, r3, lsr #1
 510 011e 01EB0200 		add	r0, r1, r2
 511              		.loc 1 90 0
ARM GAS  /tmp/ccZ8cUpU.s 			page 10


 512 0122 03F10103 		add	r3, r3, #1
 513              	.LVL56:
 514              		.loc 1 94 0
 515 0126 12BF     		itee	ne
 516 0128 5218     		addne	r2, r2, r1
 517              		.loc 1 92 0
 518 012a 2279     		ldrbeq	r2, [r4, #4]	@ zero_extendqisi2
 519 012c 8270     		strbeq	r2, [r0, #2]
 520              		.loc 1 90 0
 521 012e DBB2     		uxtb	r3, r3
 522              	.LVL57:
 523              		.loc 1 94 0
 524 0130 18BF     		it	ne
 525 0132 82F802E0 		strbne	lr, [r2, #2]
 526              		.loc 1 90 0
 527 0136 BB42     		cmp	r3, r7
 528 0138 1A46     		mov	r2, r3
 529 013a ECDB     		blt	.L27
 530              	.LVL58:
 531              	.L30:
 532              		.loc 1 96 0
 533 013c BB1C     		adds	r3, r7, #2
 534              		.loc 1 98 0
 535 013e DBB2     		uxtb	r3, r3
 536 0140 0020     		movs	r0, #0
 537              	.LBE57:
 538              	.LBE60:
 539              		.loc 1 209 0
 540 0142 0122     		movs	r2, #1
 541              	.LBB61:
 542              	.LBB58:
 543              		.loc 1 98 0
 544 0144 C854     		strb	r0, [r1, r3]
 545              	.LBE58:
 546              	.LBE61:
 547              		.loc 1 209 0
 548 0146 3270     		strb	r2, [r6]
 549 0148 60E7     		b	.L23
 550              	.LVL59:
 551              	.L41:
 552 014a 0021     		movs	r1, #0
 553 014c 69E7     		b	.L38
 554              	.L62:
 555 014e 00BF     		.align	2
 556              	.L61:
 557 0150 00000000 		.word	.LANCHOR3
 558 0154 00000000 		.word	.LANCHOR0
 559 0158 00000000 		.word	.LANCHOR9
 560 015c 00000000 		.word	BlockBuf
 561 0160 00000000 		.word	.LANCHOR2
 562 0164 04000000 		.word	.LANCHOR0+4
 563 0168 00000000 		.word	.LANCHOR4
 564 016c 00000000 		.word	.LANCHOR5
 565 0170 00000000 		.word	.LANCHOR6
 566 0174 00000000 		.word	.LANCHOR7
 567 0178 00000000 		.word	.LANCHOR8
 568 017c 00000000 		.word	.LANCHOR1
ARM GAS  /tmp/ccZ8cUpU.s 			page 11


 569              		.cfi_endproc
 570              	.LFE21:
 571              		.size	update_html_file, .-update_html_file
 572              		.global	board_secret
 573              		.global	string_auth_descriptor
 574              		.global	string_auth
 575              		.global	fw_version
 576              		.global	WebSide
 577              		.section	.bss.unique_id,"aw",%nobits
 578              		.align	2
 579              	.LANCHOR4 = . + 0
 580              		.type	unique_id, %object
 581              		.size	unique_id, 4
 582              	unique_id:
 583 0000 00000000 		.space	4
 584              		.section	.bss.auth,"aw",%nobits
 585              		.align	2
 586              	.LANCHOR7 = . + 0
 587              		.type	auth, %object
 588              		.size	auth, 4
 589              	auth:
 590 0000 00000000 		.space	4
 591              		.section	.bss.string_auth_descriptor,"aw",%nobits
 592              		.align	2
 593              	.LANCHOR1 = . + 0
 594              		.type	string_auth_descriptor, %object
 595              		.size	string_auth_descriptor, 52
 596              	string_auth_descriptor:
 597 0000 00000000 		.space	52
 597      00000000 
 597      00000000 
 597      00000000 
 597      00000000 
 598              		.section	.bss.already_unique_id,"aw",%nobits
 599              	.LANCHOR3 = . + 0
 600              		.type	already_unique_id, %object
 601              		.size	already_unique_id, 1
 602              	already_unique_id:
 603 0000 00       		.space	1
 604              		.section	.rodata.nybble_chars,"a",%progbits
 605              		.align	2
 606              	.LANCHOR8 = . + 0
 607              		.type	nybble_chars, %object
 608              		.size	nybble_chars, 17
 609              	nybble_chars:
 610 0000 30313233 		.ascii	"0123456789ABCDEF\000"
 610      34353637 
 610      38394142 
 610      43444546 
 610      00
 611 0011 000000   		.section	.bss.sptr.4598,"aw",%nobits
 612              		.align	2
 613              	.LANCHOR9 = . + 0
 614              		.type	sptr.4598, %object
 615              		.size	sptr.4598, 4
 616              	sptr.4598:
 617 0000 00000000 		.space	4
ARM GAS  /tmp/ccZ8cUpU.s 			page 12


 618              		.section	.data.fw_version,"aw",%progbits
 619              		.align	2
 620              	.LANCHOR5 = . + 0
 621              		.type	fw_version, %object
 622              		.size	fw_version, 4
 623              	fw_version:
 624 0000 00000000 		.word	.LC0
 625              		.section	.rodata.WebSide,"a",%progbits
 626              		.align	2
 627              	.LANCHOR2 = . + 0
 628              		.type	WebSide, %object
 629              		.size	WebSide, 347
 630              	WebSide:
 631 0000 3C212D2D 		.ascii	"<!-- mbed Microcontroller Website and Authenticatio"
 631      206D6265 
 631      64204D69 
 631      63726F63 
 631      6F6E7472 
 632 0033 6E205368 		.ascii	"n Shortcut -->\015\012<!-- Version: 0201 Build: May"
 632      6F727463 
 632      7574202D 
 632      2D3E0D0A 
 632      3C212D2D 
 633 0060 20313220 		.ascii	" 12 2016 00:50:35 Git Commit SHA: 5e66bcef280b62c10"
 633      32303136 
 633      2030303A 
 633      35303A33 
 633      35204769 
 634 0093 32303934 		.ascii	"2094328885b6181bb673ec7-->\015\012<html>\015\012<he"
 634      33323838 
 634      38356236 
 634      31383162 
 634      62363733 
 635 00ba 61643E0D 		.ascii	"ad>\015\012<meta http-equiv=\"refresh\" content=\"0"
 635      0A3C6D65 
 635      74612068 
 635      7474702D 
 635      65717569 
 636 00e4 3B207572 		.ascii	"; url=http://mbed.org/device/?code_bl=@A\"/>\015\012"
 636      6C3D6874 
 636      74703A2F 
 636      2F6D6265 
 636      642E6F72 
 637 0111 3C746974 		.ascii	"<title>mbed Website Shortcut</title>\015\012</head>"
 637      6C653E6D 
 637      62656420 
 637      57656273 
 637      69746520 
 638 013e 0D0A3C62 		.ascii	"\015\012<body></body>\015\012</html>\015\012\015\012"
 638      6F64793E 
 638      3C2F626F 
 638      64793E0D 
 638      0A3C2F68 
 639 015a 00       		.ascii	"\000"
 640 015b 00       		.section	.rodata.str1.4,"aMS",%progbits,1
 641              		.align	2
 642              	.LC0:
ARM GAS  /tmp/ccZ8cUpU.s 			page 13


 643 0000 30323031 		.ascii	"0201\000"
 643      00
 644 0005 000000   		.section	.bss.string_auth,"aw",%nobits
 645              		.align	2
 646              	.LANCHOR0 = . + 0
 647              		.type	string_auth, %object
 648              		.size	string_auth, 29
 649              	string_auth:
 650 0000 00000000 		.space	29
 650      00000000 
 650      00000000 
 650      00000000 
 650      00000000 
 651 001d 000000   		.section	.rodata.board_secret,"a",%progbits
 652              		.align	2
 653              	.LANCHOR6 = . + 0
 654              		.type	board_secret, %object
 655              		.size	board_secret, 9
 656              	board_secret:
 657 0000 6B34666C 		.ascii	"k4flu5fs\000"
 657      75356673 
 657      00
 658 0009 000000   		.text
 659              	.Letext0:
 660              		.file 2 "/usr/lib/gcc/arm-linux-gnueabihf/4.9/include/stddef.h"
 661              		.file 3 "/usr/include/stdint.h"
 662              		.file 4 "../netvcr/opensda/bootloader/Common/inc/mbed_htm.h"
 663              		.file 5 "/usr/include/string.h"
 664              		.file 6 "../netvcr/opensda/bootloader/Common/inc/read_uid.h"
 665              		.section	.debug_info,"",%progbits
 666              	.Ldebug_info0:
 667 0000 F8060000 		.4byte	0x6f8
 668 0004 0400     		.2byte	0x4
 669 0006 00000000 		.4byte	.Ldebug_abbrev0
 670 000a 04       		.byte	0x4
 671 000b 01       		.uleb128 0x1
 672 000c 0F020000 		.4byte	.LASF37
 673 0010 01       		.byte	0x1
 674 0011 F5000000 		.4byte	.LASF38
 675 0015 04030000 		.4byte	.LASF39
 676 0019 A8000000 		.4byte	.Ldebug_ranges0+0xa8
 677 001d 00000000 		.4byte	0
 678 0021 00000000 		.4byte	.Ldebug_line0
 679 0025 02       		.uleb128 0x2
 680 0026 4A000000 		.4byte	.LASF8
 681 002a 02       		.byte	0x2
 682 002b D4       		.byte	0xd4
 683 002c 30000000 		.4byte	0x30
 684 0030 03       		.uleb128 0x3
 685 0031 04       		.byte	0x4
 686 0032 07       		.byte	0x7
 687 0033 8A010000 		.4byte	.LASF0
 688 0037 03       		.uleb128 0x3
 689 0038 04       		.byte	0x4
 690 0039 07       		.byte	0x7
 691 003a 51000000 		.4byte	.LASF1
 692 003e 03       		.uleb128 0x3
ARM GAS  /tmp/ccZ8cUpU.s 			page 14


 693 003f 02       		.byte	0x2
 694 0040 07       		.byte	0x7
 695 0041 B8010000 		.4byte	.LASF2
 696 0045 04       		.uleb128 0x4
 697 0046 04       		.byte	0x4
 698 0047 05       		.byte	0x5
 699 0048 696E7400 		.ascii	"int\000"
 700 004c 05       		.uleb128 0x5
 701 004d 04       		.byte	0x4
 702 004e 52000000 		.4byte	0x52
 703 0052 06       		.uleb128 0x6
 704 0053 57000000 		.4byte	0x57
 705 0057 03       		.uleb128 0x3
 706 0058 01       		.byte	0x1
 707 0059 08       		.byte	0x8
 708 005a D4010000 		.4byte	.LASF3
 709 005e 03       		.uleb128 0x3
 710 005f 01       		.byte	0x1
 711 0060 08       		.byte	0x8
 712 0061 43010000 		.4byte	.LASF4
 713 0065 03       		.uleb128 0x3
 714 0066 01       		.byte	0x1
 715 0067 06       		.byte	0x6
 716 0068 5E010000 		.4byte	.LASF5
 717 006c 03       		.uleb128 0x3
 718 006d 02       		.byte	0x2
 719 006e 05       		.byte	0x5
 720 006f 40000000 		.4byte	.LASF6
 721 0073 03       		.uleb128 0x3
 722 0074 08       		.byte	0x8
 723 0075 05       		.byte	0x5
 724 0076 C8000000 		.4byte	.LASF7
 725 007a 02       		.uleb128 0x2
 726 007b 96000000 		.4byte	.LASF9
 727 007f 03       		.byte	0x3
 728 0080 30       		.byte	0x30
 729 0081 5E000000 		.4byte	0x5e
 730 0085 02       		.uleb128 0x2
 731 0086 81010000 		.4byte	.LASF10
 732 008a 03       		.byte	0x3
 733 008b 33       		.byte	0x33
 734 008c 30000000 		.4byte	0x30
 735 0090 03       		.uleb128 0x3
 736 0091 08       		.byte	0x8
 737 0092 07       		.byte	0x7
 738 0093 6A010000 		.4byte	.LASF11
 739 0097 07       		.uleb128 0x7
 740 0098 08       		.byte	0x8
 741 0099 01       		.byte	0x1
 742 009a 76       		.byte	0x76
 743 009b B8000000 		.4byte	0xb8
 744 009f 08       		.uleb128 0x8
 745 00a0 EF000000 		.4byte	.LASF12
 746 00a4 01       		.byte	0x1
 747 00a5 77       		.byte	0x77
 748 00a6 B8000000 		.4byte	0xb8
 749 00aa 00       		.byte	0
ARM GAS  /tmp/ccZ8cUpU.s 			page 15


 750 00ab 08       		.uleb128 0x8
 751 00ac 5A000000 		.4byte	.LASF13
 752 00b0 01       		.byte	0x1
 753 00b1 78       		.byte	0x78
 754 00b2 7A000000 		.4byte	0x7a
 755 00b6 04       		.byte	0x4
 756 00b7 00       		.byte	0
 757 00b8 05       		.uleb128 0x5
 758 00b9 04       		.byte	0x4
 759 00ba 7A000000 		.4byte	0x7a
 760 00be 02       		.uleb128 0x2
 761 00bf FD010000 		.4byte	.LASF14
 762 00c3 01       		.byte	0x1
 763 00c4 79       		.byte	0x79
 764 00c5 97000000 		.4byte	0x97
 765 00c9 09       		.uleb128 0x9
 766 00ca 36010000 		.4byte	.LASF15
 767 00ce 01       		.byte	0x1
 768 00cf 25       		.byte	0x25
 769 00d0 01       		.byte	0x1
 770 00d1 F5000000 		.4byte	0xf5
 771 00d5 0A       		.uleb128 0xa
 772 00d6 6200     		.ascii	"b\000"
 773 00d8 01       		.byte	0x1
 774 00d9 25       		.byte	0x25
 775 00da 7A000000 		.4byte	0x7a
 776 00de 0A       		.uleb128 0xa
 777 00df 63683100 		.ascii	"ch1\000"
 778 00e3 01       		.byte	0x1
 779 00e4 25       		.byte	0x25
 780 00e5 B8000000 		.4byte	0xb8
 781 00e9 0A       		.uleb128 0xa
 782 00ea 63683200 		.ascii	"ch2\000"
 783 00ee 01       		.byte	0x1
 784 00ef 25       		.byte	0x25
 785 00f0 B8000000 		.4byte	0xb8
 786 00f4 00       		.byte	0
 787 00f5 09       		.uleb128 0x9
 788 00f6 05020000 		.4byte	.LASF16
 789 00fa 01       		.byte	0x1
 790 00fb 7C       		.byte	0x7c
 791 00fc 01       		.byte	0x1
 792 00fd 16010000 		.4byte	0x116
 793 0101 0A       		.uleb128 0xa
 794 0102 6800     		.ascii	"h\000"
 795 0104 01       		.byte	0x1
 796 0105 7C       		.byte	0x7c
 797 0106 16010000 		.4byte	0x116
 798 010a 0A       		.uleb128 0xa
 799 010b 70747200 		.ascii	"ptr\000"
 800 010f 01       		.byte	0x1
 801 0110 7C       		.byte	0x7c
 802 0111 B8000000 		.4byte	0xb8
 803 0115 00       		.byte	0
 804 0116 05       		.uleb128 0x5
 805 0117 04       		.byte	0x4
 806 0118 BE000000 		.4byte	0xbe
ARM GAS  /tmp/ccZ8cUpU.s 			page 16


 807 011c 0B       		.uleb128 0xb
 808 011d 2C010000 		.4byte	.LASF20
 809 0121 01       		.byte	0x1
 810 0122 2A       		.byte	0x2a
 811 0123 85000000 		.4byte	0x85
 812 0127 01       		.byte	0x1
 813 0128 6B010000 		.4byte	0x16b
 814 012c 0A       		.uleb128 0xa
 815 012d 73747200 		.ascii	"str\000"
 816 0131 01       		.byte	0x1
 817 0132 2A       		.byte	0x2a
 818 0133 B8000000 		.4byte	0xb8
 819 0137 0C       		.uleb128 0xc
 820 0138 F2020000 		.4byte	.LASF17
 821 013c 01       		.byte	0x1
 822 013d 2A       		.byte	0x2a
 823 013e 7A000000 		.4byte	0x7a
 824 0142 0C       		.uleb128 0xc
 825 0143 2C030000 		.4byte	.LASF18
 826 0147 01       		.byte	0x1
 827 0148 2A       		.byte	0x2a
 828 0149 7A000000 		.4byte	0x7a
 829 014d 0D       		.uleb128 0xd
 830 014e 6B00     		.ascii	"k\000"
 831 0150 01       		.byte	0x1
 832 0151 2B       		.byte	0x2b
 833 0152 85000000 		.4byte	0x85
 834 0156 0D       		.uleb128 0xd
 835 0157 6900     		.ascii	"i\000"
 836 0159 01       		.byte	0x1
 837 015a 2C       		.byte	0x2c
 838 015b 7A000000 		.4byte	0x7a
 839 015f 0D       		.uleb128 0xd
 840 0160 69647800 		.ascii	"idx\000"
 841 0164 01       		.byte	0x1
 842 0165 2C       		.byte	0x2c
 843 0166 7A000000 		.4byte	0x7a
 844 016a 00       		.byte	0
 845 016b 0E       		.uleb128 0xe
 846 016c 1C010000 		.4byte	0x11c
 847 0170 00000000 		.4byte	.LFB22
 848 0174 50000000 		.4byte	.LFE22-.LFB22
 849 0178 01       		.uleb128 0x1
 850 0179 9C       		.byte	0x9c
 851 017a B2010000 		.4byte	0x1b2
 852 017e 0F       		.uleb128 0xf
 853 017f 2C010000 		.4byte	0x12c
 854 0183 00000000 		.4byte	.LLST0
 855 0187 0F       		.uleb128 0xf
 856 0188 37010000 		.4byte	0x137
 857 018c 5C000000 		.4byte	.LLST1
 858 0190 10       		.uleb128 0x10
 859 0191 4D010000 		.4byte	0x14d
 860 0195 88000000 		.4byte	.LLST2
 861 0199 10       		.uleb128 0x10
 862 019a 56010000 		.4byte	0x156
 863 019e BE000000 		.4byte	.LLST3
ARM GAS  /tmp/ccZ8cUpU.s 			page 17


 864 01a2 10       		.uleb128 0x10
 865 01a3 5F010000 		.4byte	0x15f
 866 01a7 04010000 		.4byte	.LLST4
 867 01ab 11       		.uleb128 0x11
 868 01ac 42010000 		.4byte	0x142
 869 01b0 10       		.byte	0x10
 870 01b1 00       		.byte	0
 871 01b2 12       		.uleb128 0x12
 872 01b3 27000000 		.4byte	.LASF24
 873 01b7 01       		.byte	0x1
 874 01b8 65       		.byte	0x65
 875 01b9 7A000000 		.4byte	0x7a
 876 01bd 00000000 		.4byte	.LFB16
 877 01c1 18000000 		.4byte	.LFE16-.LFB16
 878 01c5 01       		.uleb128 0x1
 879 01c6 9C       		.byte	0x9c
 880 01c7 DF010000 		.4byte	0x1df
 881 01cb 13       		.uleb128 0x13
 882 01cc 08000000 		.4byte	.LVL15
 883 01d0 6D050000 		.4byte	0x56d
 884 01d4 14       		.uleb128 0x14
 885 01d5 01       		.uleb128 0x1
 886 01d6 50       		.byte	0x50
 887 01d7 05       		.uleb128 0x5
 888 01d8 03       		.byte	0x3
 889 01d9 04000000 		.4byte	.LANCHOR0+4
 890 01dd 00       		.byte	0
 891 01de 00       		.byte	0
 892 01df 15       		.uleb128 0x15
 893 01e0 D6000000 		.4byte	.LASF40
 894 01e4 01       		.byte	0x1
 895 01e5 69       		.byte	0x69
 896 01e6 B8000000 		.4byte	0xb8
 897 01ea 00000000 		.4byte	.LFB17
 898 01ee 08000000 		.4byte	.LFE17-.LFB17
 899 01f2 01       		.uleb128 0x1
 900 01f3 9C       		.byte	0x9c
 901 01f4 16       		.uleb128 0x16
 902 01f5 51010000 		.4byte	.LASF41
 903 01f9 01       		.byte	0x1
 904 01fa 6F       		.byte	0x6f
 905 01fb 01       		.byte	0x1
 906 01fc 09       		.uleb128 0x9
 907 01fd 06000000 		.4byte	.LASF19
 908 0201 01       		.byte	0x1
 909 0202 3A       		.byte	0x3a
 910 0203 01       		.byte	0x1
 911 0204 1D020000 		.4byte	0x21d
 912 0208 0D       		.uleb128 0xd
 913 0209 6900     		.ascii	"i\000"
 914 020b 01       		.byte	0x1
 915 020c 3B       		.byte	0x3b
 916 020d 7A000000 		.4byte	0x7a
 917 0211 0D       		.uleb128 0xd
 918 0212 69647800 		.ascii	"idx\000"
 919 0216 01       		.byte	0x1
 920 0217 3C       		.byte	0x3c
ARM GAS  /tmp/ccZ8cUpU.s 			page 18


 921 0218 7A000000 		.4byte	0x7a
 922 021c 00       		.byte	0
 923 021d 17       		.uleb128 0x17
 924 021e E5010000 		.4byte	.LASF42
 925 0222 01       		.byte	0x1
 926 0223 53       		.byte	0x53
 927 0224 01       		.byte	0x1
 928 0225 49020000 		.4byte	0x249
 929 0229 0D       		.uleb128 0xd
 930 022a 6900     		.ascii	"i\000"
 931 022c 01       		.byte	0x1
 932 022d 54       		.byte	0x54
 933 022e 7A000000 		.4byte	0x7a
 934 0232 0D       		.uleb128 0xd
 935 0233 69647800 		.ascii	"idx\000"
 936 0237 01       		.byte	0x1
 937 0238 54       		.byte	0x54
 938 0239 7A000000 		.4byte	0x7a
 939 023d 0D       		.uleb128 0xd
 940 023e 6C656E00 		.ascii	"len\000"
 941 0242 01       		.byte	0x1
 942 0243 54       		.byte	0x54
 943 0244 7A000000 		.4byte	0x7a
 944 0248 00       		.byte	0
 945 0249 0B       		.uleb128 0xb
 946 024a B5000000 		.4byte	.LASF21
 947 024e 01       		.byte	0x1
 948 024f 82       		.byte	0x82
 949 0250 7A000000 		.4byte	0x7a
 950 0254 01       		.byte	0x1
 951 0255 8B020000 		.4byte	0x28b
 952 0259 0A       		.uleb128 0xa
 953 025a 6800     		.ascii	"h\000"
 954 025c 01       		.byte	0x1
 955 025d 82       		.byte	0x82
 956 025e 16010000 		.4byte	0x116
 957 0262 0D       		.uleb128 0xd
 958 0263 6300     		.ascii	"c\000"
 959 0265 01       		.byte	0x1
 960 0266 86       		.byte	0x86
 961 0267 7A000000 		.4byte	0x7a
 962 026b 0D       		.uleb128 0xd
 963 026c 7300     		.ascii	"s\000"
 964 026e 01       		.byte	0x1
 965 026f 86       		.byte	0x86
 966 0270 7A000000 		.4byte	0x7a
 967 0274 18       		.uleb128 0x18
 968 0275 31010000 		.4byte	.LASF22
 969 0279 01       		.byte	0x1
 970 027a 87       		.byte	0x87
 971 027b B8000000 		.4byte	0xb8
 972 027f 18       		.uleb128 0x18
 973 0280 00000000 		.4byte	.LASF23
 974 0284 01       		.byte	0x1
 975 0285 88       		.byte	0x88
 976 0286 7A000000 		.4byte	0x7a
 977 028a 00       		.byte	0
ARM GAS  /tmp/ccZ8cUpU.s 			page 19


 978 028b 12       		.uleb128 0x12
 979 028c 7D000000 		.4byte	.LASF25
 980 0290 01       		.byte	0x1
 981 0291 C3       		.byte	0xc3
 982 0292 7A000000 		.4byte	0x7a
 983 0296 00000000 		.4byte	.LFB21
 984 029a 80010000 		.4byte	.LFE21-.LFB21
 985 029e 01       		.uleb128 0x1
 986 029f 9C       		.byte	0x9c
 987 02a0 5E040000 		.4byte	0x45e
 988 02a4 19       		.uleb128 0x19
 989 02a5 27010000 		.4byte	.LASF26
 990 02a9 01       		.byte	0x1
 991 02aa C7       		.byte	0xc7
 992 02ab BE000000 		.4byte	0xbe
 993 02af 50010000 		.4byte	.LLST5
 994 02b3 1A       		.uleb128 0x1a
 995 02b4 6300     		.ascii	"c\000"
 996 02b6 01       		.byte	0x1
 997 02b7 C8       		.byte	0xc8
 998 02b8 7A000000 		.4byte	0x7a
 999 02bc 01       		.uleb128 0x1
 1000 02bd 53       		.byte	0x53
 1001 02be 1B       		.uleb128 0x1b
 1002 02bf 6900     		.ascii	"i\000"
 1003 02c1 01       		.byte	0x1
 1004 02c2 CA       		.byte	0xca
 1005 02c3 85000000 		.4byte	0x85
 1006 02c7 0A020000 		.4byte	.LLST6
 1007 02cb 1C       		.uleb128 0x1c
 1008 02cc 49020000 		.4byte	0x249
 1009 02d0 0E000000 		.4byte	.LBB22
 1010 02d4 00000000 		.4byte	.Ldebug_ranges0+0
 1011 02d8 01       		.byte	0x1
 1012 02d9 D8       		.byte	0xd8
 1013 02da 14030000 		.4byte	0x314
 1014 02de 0F       		.uleb128 0xf
 1015 02df 59020000 		.4byte	0x259
 1016 02e3 2A020000 		.4byte	.LLST7
 1017 02e7 1D       		.uleb128 0x1d
 1018 02e8 00000000 		.4byte	.Ldebug_ranges0+0
 1019 02ec 10       		.uleb128 0x10
 1020 02ed 62020000 		.4byte	0x262
 1021 02f1 52020000 		.4byte	.LLST8
 1022 02f5 10       		.uleb128 0x10
 1023 02f6 6B020000 		.4byte	0x26b
 1024 02fa 94020000 		.4byte	.LLST9
 1025 02fe 10       		.uleb128 0x10
 1026 02ff 7F020000 		.4byte	0x27f
 1027 0303 D8020000 		.4byte	.LLST10
 1028 0307 1E       		.uleb128 0x1e
 1029 0308 74020000 		.4byte	0x274
 1030 030c 05       		.uleb128 0x5
 1031 030d 03       		.byte	0x3
 1032 030e 00000000 		.4byte	sptr.4598
 1033 0312 00       		.byte	0
 1034 0313 00       		.byte	0
ARM GAS  /tmp/ccZ8cUpU.s 			page 20


 1035 0314 1F       		.uleb128 0x1f
 1036 0315 F5000000 		.4byte	0xf5
 1037 0319 14000000 		.4byte	.LBB27
 1038 031d 04000000 		.4byte	.LBE27-.LBB27
 1039 0321 01       		.byte	0x1
 1040 0322 D5       		.byte	0xd5
 1041 0323 3A030000 		.4byte	0x33a
 1042 0327 0F       		.uleb128 0xf
 1043 0328 0A010000 		.4byte	0x10a
 1044 032c F8020000 		.4byte	.LLST11
 1045 0330 0F       		.uleb128 0xf
 1046 0331 01010000 		.4byte	0x101
 1047 0335 20030000 		.4byte	.LLST12
 1048 0339 00       		.byte	0
 1049 033a 1C       		.uleb128 0x1c
 1050 033b FC010000 		.4byte	0x1fc
 1051 033f 54000000 		.4byte	.LBB32
 1052 0343 28000000 		.4byte	.Ldebug_ranges0+0x28
 1053 0347 01       		.byte	0x1
 1054 0348 CF       		.byte	0xcf
 1055 0349 C0030000 		.4byte	0x3c0
 1056 034d 1D       		.uleb128 0x1d
 1057 034e 28000000 		.4byte	.Ldebug_ranges0+0x28
 1058 0352 10       		.uleb128 0x10
 1059 0353 08020000 		.4byte	0x208
 1060 0357 48030000 		.4byte	.LLST13
 1061 035b 10       		.uleb128 0x10
 1062 035c 11020000 		.4byte	0x211
 1063 0360 88030000 		.4byte	.LLST14
 1064 0364 1F       		.uleb128 0x1f
 1065 0365 C9000000 		.4byte	0xc9
 1066 0369 B6000000 		.4byte	.LBB34
 1067 036d 16000000 		.4byte	.LBE34-.LBB34
 1068 0371 01       		.byte	0x1
 1069 0372 48       		.byte	0x48
 1070 0373 93030000 		.4byte	0x393
 1071 0377 0F       		.uleb128 0xf
 1072 0378 E9000000 		.4byte	0xe9
 1073 037c BA030000 		.4byte	.LLST15
 1074 0380 0F       		.uleb128 0xf
 1075 0381 DE000000 		.4byte	0xde
 1076 0385 DC030000 		.4byte	.LLST16
 1077 0389 0F       		.uleb128 0xf
 1078 038a D5000000 		.4byte	0xd5
 1079 038e FE030000 		.4byte	.LLST17
 1080 0392 00       		.byte	0
 1081 0393 20       		.uleb128 0x20
 1082 0394 C9000000 		.4byte	0xc9
 1083 0398 DC000000 		.4byte	.LBB36
 1084 039c 10000000 		.4byte	.LBE36-.LBB36
 1085 03a0 01       		.byte	0x1
 1086 03a1 4D       		.byte	0x4d
 1087 03a2 0F       		.uleb128 0xf
 1088 03a3 E9000000 		.4byte	0xe9
 1089 03a7 31040000 		.4byte	.LLST18
 1090 03ab 0F       		.uleb128 0xf
 1091 03ac DE000000 		.4byte	0xde
ARM GAS  /tmp/ccZ8cUpU.s 			page 21


 1092 03b0 53040000 		.4byte	.LLST19
 1093 03b4 0F       		.uleb128 0xf
 1094 03b5 D5000000 		.4byte	0xd5
 1095 03b9 75040000 		.4byte	.LLST20
 1096 03bd 00       		.byte	0
 1097 03be 00       		.byte	0
 1098 03bf 00       		.byte	0
 1099 03c0 1C       		.uleb128 0x1c
 1100 03c1 F4010000 		.4byte	0x1f4
 1101 03c5 5C000000 		.4byte	.LBB43
 1102 03c9 60000000 		.4byte	.Ldebug_ranges0+0x60
 1103 03cd 01       		.byte	0x1
 1104 03ce CE       		.byte	0xce
 1105 03cf 05040000 		.4byte	0x405
 1106 03d3 21       		.uleb128 0x21
 1107 03d4 6A000000 		.4byte	.LVL32
 1108 03d8 6B010000 		.4byte	0x16b
 1109 03dc EC030000 		.4byte	0x3ec
 1110 03e0 14       		.uleb128 0x14
 1111 03e1 01       		.uleb128 0x1
 1112 03e2 51       		.byte	0x51
 1113 03e3 01       		.uleb128 0x1
 1114 03e4 34       		.byte	0x34
 1115 03e5 14       		.uleb128 0x14
 1116 03e6 01       		.uleb128 0x1
 1117 03e7 50       		.byte	0x50
 1118 03e8 02       		.uleb128 0x2
 1119 03e9 78       		.byte	0x78
 1120 03ea 00       		.sleb128 0
 1121 03eb 00       		.byte	0
 1122 03ec 13       		.uleb128 0x13
 1123 03ed 76000000 		.4byte	.LVL33
 1124 03f1 6B010000 		.4byte	0x16b
 1125 03f5 14       		.uleb128 0x14
 1126 03f6 01       		.uleb128 0x1
 1127 03f7 51       		.byte	0x51
 1128 03f8 01       		.uleb128 0x1
 1129 03f9 38       		.byte	0x38
 1130 03fa 14       		.uleb128 0x14
 1131 03fb 01       		.uleb128 0x1
 1132 03fc 50       		.byte	0x50
 1133 03fd 05       		.uleb128 0x5
 1134 03fe 03       		.byte	0x3
 1135 03ff 00000000 		.4byte	.LANCHOR6
 1136 0403 00       		.byte	0
 1137 0404 00       		.byte	0
 1138 0405 1C       		.uleb128 0x1c
 1139 0406 1D020000 		.4byte	0x21d
 1140 040a F6000000 		.4byte	.LBB55
 1141 040e 88000000 		.4byte	.Ldebug_ranges0+0x88
 1142 0412 01       		.byte	0x1
 1143 0413 D0       		.byte	0xd0
 1144 0414 4D040000 		.4byte	0x44d
 1145 0418 1D       		.uleb128 0x1d
 1146 0419 88000000 		.4byte	.Ldebug_ranges0+0x88
 1147 041d 10       		.uleb128 0x10
 1148 041e 29020000 		.4byte	0x229
ARM GAS  /tmp/ccZ8cUpU.s 			page 22


 1149 0422 BC040000 		.4byte	.LLST21
 1150 0426 10       		.uleb128 0x10
 1151 0427 32020000 		.4byte	0x232
 1152 042b E6040000 		.4byte	.LLST22
 1153 042f 10       		.uleb128 0x10
 1154 0430 3D020000 		.4byte	0x23d
 1155 0434 06050000 		.4byte	.LLST23
 1156 0438 13       		.uleb128 0x13
 1157 0439 FE000000 		.4byte	.LVL52
 1158 043d 6D050000 		.4byte	0x56d
 1159 0441 14       		.uleb128 0x14
 1160 0442 01       		.uleb128 0x1
 1161 0443 50       		.byte	0x50
 1162 0444 05       		.uleb128 0x5
 1163 0445 03       		.byte	0x3
 1164 0446 04000000 		.4byte	.LANCHOR0+4
 1165 044a 00       		.byte	0
 1166 044b 00       		.byte	0
 1167 044c 00       		.byte	0
 1168 044d 13       		.uleb128 0x13
 1169 044e 5C000000 		.4byte	.LVL31
 1170 0452 E4060000 		.4byte	0x6e4
 1171 0456 14       		.uleb128 0x14
 1172 0457 01       		.uleb128 0x1
 1173 0458 50       		.byte	0x50
 1174 0459 02       		.uleb128 0x2
 1175 045a 77       		.byte	0x77
 1176 045b 00       		.sleb128 0
 1177 045c 00       		.byte	0
 1178 045d 00       		.byte	0
 1179 045e 22       		.uleb128 0x22
 1180 045f 31030000 		.4byte	.LASF27
 1181 0463 01       		.byte	0x1
 1182 0464 1C       		.byte	0x1c
 1183 0465 85000000 		.4byte	0x85
 1184 0469 05       		.uleb128 0x5
 1185 046a 03       		.byte	0x3
 1186 046b 00000000 		.4byte	unique_id
 1187 046f 22       		.uleb128 0x22
 1188 0470 97010000 		.4byte	.LASF28
 1189 0474 01       		.byte	0x1
 1190 0475 1D       		.byte	0x1d
 1191 0476 7A000000 		.4byte	0x7a
 1192 047a 05       		.uleb128 0x5
 1193 047b 03       		.byte	0x3
 1194 047c 00000000 		.4byte	already_unique_id
 1195 0480 22       		.uleb128 0x22
 1196 0481 D9010000 		.4byte	.LASF29
 1197 0485 01       		.byte	0x1
 1198 0486 1E       		.byte	0x1e
 1199 0487 85000000 		.4byte	0x85
 1200 048b 05       		.uleb128 0x5
 1201 048c 03       		.byte	0x3
 1202 048d 00000000 		.4byte	auth
 1203 0491 23       		.uleb128 0x23
 1204 0492 57000000 		.4byte	0x57
 1205 0496 A1040000 		.4byte	0x4a1
ARM GAS  /tmp/ccZ8cUpU.s 			page 23


 1206 049a 24       		.uleb128 0x24
 1207 049b 37000000 		.4byte	0x37
 1208 049f 10       		.byte	0x10
 1209 04a0 00       		.byte	0
 1210 04a1 22       		.uleb128 0x22
 1211 04a2 F7020000 		.4byte	.LASF30
 1212 04a6 01       		.byte	0x1
 1213 04a7 21       		.byte	0x21
 1214 04a8 B2040000 		.4byte	0x4b2
 1215 04ac 05       		.uleb128 0x5
 1216 04ad 03       		.byte	0x3
 1217 04ae 00000000 		.4byte	nybble_chars
 1218 04b2 06       		.uleb128 0x6
 1219 04b3 91040000 		.4byte	0x491
 1220 04b7 23       		.uleb128 0x23
 1221 04b8 5E000000 		.4byte	0x5e
 1222 04bc C8040000 		.4byte	0x4c8
 1223 04c0 25       		.uleb128 0x25
 1224 04c1 37000000 		.4byte	0x37
 1225 04c5 5A01     		.2byte	0x15a
 1226 04c7 00       		.byte	0
 1227 04c8 26       		.uleb128 0x26
 1228 04c9 8E000000 		.4byte	.LASF31
 1229 04cd 04       		.byte	0x4
 1230 04ce 15       		.byte	0x15
 1231 04cf D9040000 		.4byte	0x4d9
 1232 04d3 05       		.uleb128 0x5
 1233 04d4 03       		.byte	0x3
 1234 04d5 00000000 		.4byte	WebSide
 1235 04d9 06       		.uleb128 0x6
 1236 04da B7040000 		.4byte	0x4b7
 1237 04de 23       		.uleb128 0x23
 1238 04df 7A000000 		.4byte	0x7a
 1239 04e3 E9040000 		.4byte	0x4e9
 1240 04e7 27       		.uleb128 0x27
 1241 04e8 00       		.byte	0
 1242 04e9 28       		.uleb128 0x28
 1243 04ea CB010000 		.4byte	.LASF32
 1244 04ee 01       		.byte	0x1
 1245 04ef 17       		.byte	0x17
 1246 04f0 DE040000 		.4byte	0x4de
 1247 04f4 26       		.uleb128 0x26
 1248 04f5 65000000 		.4byte	.LASF33
 1249 04f9 01       		.byte	0x1
 1250 04fa 1A       		.byte	0x1a
 1251 04fb 4C000000 		.4byte	0x4c
 1252 04ff 05       		.uleb128 0x5
 1253 0500 03       		.byte	0x3
 1254 0501 00000000 		.4byte	fw_version
 1255 0505 23       		.uleb128 0x23
 1256 0506 7A000000 		.4byte	0x7a
 1257 050a 15050000 		.4byte	0x515
 1258 050e 24       		.uleb128 0x24
 1259 050f 37000000 		.4byte	0x37
 1260 0513 1C       		.byte	0x1c
 1261 0514 00       		.byte	0
 1262 0515 26       		.uleb128 0x26
ARM GAS  /tmp/ccZ8cUpU.s 			page 24


 1263 0516 1B000000 		.4byte	.LASF34
 1264 051a 01       		.byte	0x1
 1265 051b 1F       		.byte	0x1f
 1266 051c 05050000 		.4byte	0x505
 1267 0520 05       		.uleb128 0x5
 1268 0521 03       		.byte	0x3
 1269 0522 00000000 		.4byte	string_auth
 1270 0526 23       		.uleb128 0x23
 1271 0527 7A000000 		.4byte	0x7a
 1272 052b 36050000 		.4byte	0x536
 1273 052f 24       		.uleb128 0x24
 1274 0530 37000000 		.4byte	0x37
 1275 0534 33       		.byte	0x33
 1276 0535 00       		.byte	0
 1277 0536 26       		.uleb128 0x26
 1278 0537 9E000000 		.4byte	.LASF35
 1279 053b 01       		.byte	0x1
 1280 053c 20       		.byte	0x20
 1281 053d 26050000 		.4byte	0x526
 1282 0541 05       		.uleb128 0x5
 1283 0542 03       		.byte	0x3
 1284 0543 00000000 		.4byte	string_auth_descriptor
 1285 0547 23       		.uleb128 0x23
 1286 0548 7A000000 		.4byte	0x7a
 1287 054c 57050000 		.4byte	0x557
 1288 0550 24       		.uleb128 0x24
 1289 0551 37000000 		.4byte	0x37
 1290 0555 08       		.byte	0x8
 1291 0556 00       		.byte	0
 1292 0557 26       		.uleb128 0x26
 1293 0558 70000000 		.4byte	.LASF36
 1294 055c 01       		.byte	0x1
 1295 055d 6D       		.byte	0x6d
 1296 055e 68050000 		.4byte	0x568
 1297 0562 05       		.uleb128 0x5
 1298 0563 03       		.byte	0x3
 1299 0564 00000000 		.4byte	board_secret
 1300 0568 06       		.uleb128 0x6
 1301 0569 47050000 		.4byte	0x547
 1302 056d 29       		.uleb128 0x29
 1303 056e DE010000 		.4byte	.LASF43
 1304 0572 05       		.byte	0x5
 1305 0573 8F01     		.2byte	0x18f
 1306 0575 25000000 		.4byte	0x25
 1307 0579 83050000 		.4byte	0x583
 1308 057d 2A       		.uleb128 0x2a
 1309 057e 4C000000 		.4byte	0x4c
 1310 0582 00       		.byte	0
 1311 0583 2B       		.uleb128 0x2b
 1312 0584 DE02     		.uleb128 0x15e
 1313 0586 9E       		.byte	0x9e
 1314 0587 DB02     		.uleb128 0x15b
 1315 0589 3C       		.byte	0x3c
 1316 058a 21       		.byte	0x21
 1317 058b 2D       		.byte	0x2d
 1318 058c 2D       		.byte	0x2d
 1319 058d 20       		.byte	0x20
ARM GAS  /tmp/ccZ8cUpU.s 			page 25


 1320 058e 6D       		.byte	0x6d
 1321 058f 62       		.byte	0x62
 1322 0590 65       		.byte	0x65
 1323 0591 64       		.byte	0x64
 1324 0592 20       		.byte	0x20
 1325 0593 4D       		.byte	0x4d
 1326 0594 69       		.byte	0x69
 1327 0595 63       		.byte	0x63
 1328 0596 72       		.byte	0x72
 1329 0597 6F       		.byte	0x6f
 1330 0598 63       		.byte	0x63
 1331 0599 6F       		.byte	0x6f
 1332 059a 6E       		.byte	0x6e
 1333 059b 74       		.byte	0x74
 1334 059c 72       		.byte	0x72
 1335 059d 6F       		.byte	0x6f
 1336 059e 6C       		.byte	0x6c
 1337 059f 6C       		.byte	0x6c
 1338 05a0 65       		.byte	0x65
 1339 05a1 72       		.byte	0x72
 1340 05a2 20       		.byte	0x20
 1341 05a3 57       		.byte	0x57
 1342 05a4 65       		.byte	0x65
 1343 05a5 62       		.byte	0x62
 1344 05a6 73       		.byte	0x73
 1345 05a7 69       		.byte	0x69
 1346 05a8 74       		.byte	0x74
 1347 05a9 65       		.byte	0x65
 1348 05aa 20       		.byte	0x20
 1349 05ab 61       		.byte	0x61
 1350 05ac 6E       		.byte	0x6e
 1351 05ad 64       		.byte	0x64
 1352 05ae 20       		.byte	0x20
 1353 05af 41       		.byte	0x41
 1354 05b0 75       		.byte	0x75
 1355 05b1 74       		.byte	0x74
 1356 05b2 68       		.byte	0x68
 1357 05b3 65       		.byte	0x65
 1358 05b4 6E       		.byte	0x6e
 1359 05b5 74       		.byte	0x74
 1360 05b6 69       		.byte	0x69
 1361 05b7 63       		.byte	0x63
 1362 05b8 61       		.byte	0x61
 1363 05b9 74       		.byte	0x74
 1364 05ba 69       		.byte	0x69
 1365 05bb 6F       		.byte	0x6f
 1366 05bc 6E       		.byte	0x6e
 1367 05bd 20       		.byte	0x20
 1368 05be 53       		.byte	0x53
 1369 05bf 68       		.byte	0x68
 1370 05c0 6F       		.byte	0x6f
 1371 05c1 72       		.byte	0x72
 1372 05c2 74       		.byte	0x74
 1373 05c3 63       		.byte	0x63
 1374 05c4 75       		.byte	0x75
 1375 05c5 74       		.byte	0x74
 1376 05c6 20       		.byte	0x20
ARM GAS  /tmp/ccZ8cUpU.s 			page 26


 1377 05c7 2D       		.byte	0x2d
 1378 05c8 2D       		.byte	0x2d
 1379 05c9 3E       		.byte	0x3e
 1380 05ca 0D       		.byte	0xd
 1381 05cb 0A       		.byte	0xa
 1382 05cc 3C       		.byte	0x3c
 1383 05cd 21       		.byte	0x21
 1384 05ce 2D       		.byte	0x2d
 1385 05cf 2D       		.byte	0x2d
 1386 05d0 20       		.byte	0x20
 1387 05d1 56       		.byte	0x56
 1388 05d2 65       		.byte	0x65
 1389 05d3 72       		.byte	0x72
 1390 05d4 73       		.byte	0x73
 1391 05d5 69       		.byte	0x69
 1392 05d6 6F       		.byte	0x6f
 1393 05d7 6E       		.byte	0x6e
 1394 05d8 3A       		.byte	0x3a
 1395 05d9 20       		.byte	0x20
 1396 05da 30       		.byte	0x30
 1397 05db 32       		.byte	0x32
 1398 05dc 30       		.byte	0x30
 1399 05dd 31       		.byte	0x31
 1400 05de 20       		.byte	0x20
 1401 05df 42       		.byte	0x42
 1402 05e0 75       		.byte	0x75
 1403 05e1 69       		.byte	0x69
 1404 05e2 6C       		.byte	0x6c
 1405 05e3 64       		.byte	0x64
 1406 05e4 3A       		.byte	0x3a
 1407 05e5 20       		.byte	0x20
 1408 05e6 4D       		.byte	0x4d
 1409 05e7 61       		.byte	0x61
 1410 05e8 79       		.byte	0x79
 1411 05e9 20       		.byte	0x20
 1412 05ea 31       		.byte	0x31
 1413 05eb 32       		.byte	0x32
 1414 05ec 20       		.byte	0x20
 1415 05ed 32       		.byte	0x32
 1416 05ee 30       		.byte	0x30
 1417 05ef 31       		.byte	0x31
 1418 05f0 36       		.byte	0x36
 1419 05f1 20       		.byte	0x20
 1420 05f2 30       		.byte	0x30
 1421 05f3 30       		.byte	0x30
 1422 05f4 3A       		.byte	0x3a
 1423 05f5 35       		.byte	0x35
 1424 05f6 30       		.byte	0x30
 1425 05f7 3A       		.byte	0x3a
 1426 05f8 33       		.byte	0x33
 1427 05f9 35       		.byte	0x35
 1428 05fa 20       		.byte	0x20
 1429 05fb 47       		.byte	0x47
 1430 05fc 69       		.byte	0x69
 1431 05fd 74       		.byte	0x74
 1432 05fe 20       		.byte	0x20
 1433 05ff 43       		.byte	0x43
ARM GAS  /tmp/ccZ8cUpU.s 			page 27


 1434 0600 6F       		.byte	0x6f
 1435 0601 6D       		.byte	0x6d
 1436 0602 6D       		.byte	0x6d
 1437 0603 69       		.byte	0x69
 1438 0604 74       		.byte	0x74
 1439 0605 20       		.byte	0x20
 1440 0606 53       		.byte	0x53
 1441 0607 48       		.byte	0x48
 1442 0608 41       		.byte	0x41
 1443 0609 3A       		.byte	0x3a
 1444 060a 20       		.byte	0x20
 1445 060b 35       		.byte	0x35
 1446 060c 65       		.byte	0x65
 1447 060d 36       		.byte	0x36
 1448 060e 36       		.byte	0x36
 1449 060f 62       		.byte	0x62
 1450 0610 63       		.byte	0x63
 1451 0611 65       		.byte	0x65
 1452 0612 66       		.byte	0x66
 1453 0613 32       		.byte	0x32
 1454 0614 38       		.byte	0x38
 1455 0615 30       		.byte	0x30
 1456 0616 62       		.byte	0x62
 1457 0617 36       		.byte	0x36
 1458 0618 32       		.byte	0x32
 1459 0619 63       		.byte	0x63
 1460 061a 31       		.byte	0x31
 1461 061b 30       		.byte	0x30
 1462 061c 32       		.byte	0x32
 1463 061d 30       		.byte	0x30
 1464 061e 39       		.byte	0x39
 1465 061f 34       		.byte	0x34
 1466 0620 33       		.byte	0x33
 1467 0621 32       		.byte	0x32
 1468 0622 38       		.byte	0x38
 1469 0623 38       		.byte	0x38
 1470 0624 38       		.byte	0x38
 1471 0625 35       		.byte	0x35
 1472 0626 62       		.byte	0x62
 1473 0627 36       		.byte	0x36
 1474 0628 31       		.byte	0x31
 1475 0629 38       		.byte	0x38
 1476 062a 31       		.byte	0x31
 1477 062b 62       		.byte	0x62
 1478 062c 62       		.byte	0x62
 1479 062d 36       		.byte	0x36
 1480 062e 37       		.byte	0x37
 1481 062f 33       		.byte	0x33
 1482 0630 65       		.byte	0x65
 1483 0631 63       		.byte	0x63
 1484 0632 37       		.byte	0x37
 1485 0633 2D       		.byte	0x2d
 1486 0634 2D       		.byte	0x2d
 1487 0635 3E       		.byte	0x3e
 1488 0636 0D       		.byte	0xd
 1489 0637 0A       		.byte	0xa
 1490 0638 3C       		.byte	0x3c
ARM GAS  /tmp/ccZ8cUpU.s 			page 28


 1491 0639 68       		.byte	0x68
 1492 063a 74       		.byte	0x74
 1493 063b 6D       		.byte	0x6d
 1494 063c 6C       		.byte	0x6c
 1495 063d 3E       		.byte	0x3e
 1496 063e 0D       		.byte	0xd
 1497 063f 0A       		.byte	0xa
 1498 0640 3C       		.byte	0x3c
 1499 0641 68       		.byte	0x68
 1500 0642 65       		.byte	0x65
 1501 0643 61       		.byte	0x61
 1502 0644 64       		.byte	0x64
 1503 0645 3E       		.byte	0x3e
 1504 0646 0D       		.byte	0xd
 1505 0647 0A       		.byte	0xa
 1506 0648 3C       		.byte	0x3c
 1507 0649 6D       		.byte	0x6d
 1508 064a 65       		.byte	0x65
 1509 064b 74       		.byte	0x74
 1510 064c 61       		.byte	0x61
 1511 064d 20       		.byte	0x20
 1512 064e 68       		.byte	0x68
 1513 064f 74       		.byte	0x74
 1514 0650 74       		.byte	0x74
 1515 0651 70       		.byte	0x70
 1516 0652 2D       		.byte	0x2d
 1517 0653 65       		.byte	0x65
 1518 0654 71       		.byte	0x71
 1519 0655 75       		.byte	0x75
 1520 0656 69       		.byte	0x69
 1521 0657 76       		.byte	0x76
 1522 0658 3D       		.byte	0x3d
 1523 0659 22       		.byte	0x22
 1524 065a 72       		.byte	0x72
 1525 065b 65       		.byte	0x65
 1526 065c 66       		.byte	0x66
 1527 065d 72       		.byte	0x72
 1528 065e 65       		.byte	0x65
 1529 065f 73       		.byte	0x73
 1530 0660 68       		.byte	0x68
 1531 0661 22       		.byte	0x22
 1532 0662 20       		.byte	0x20
 1533 0663 63       		.byte	0x63
 1534 0664 6F       		.byte	0x6f
 1535 0665 6E       		.byte	0x6e
 1536 0666 74       		.byte	0x74
 1537 0667 65       		.byte	0x65
 1538 0668 6E       		.byte	0x6e
 1539 0669 74       		.byte	0x74
 1540 066a 3D       		.byte	0x3d
 1541 066b 22       		.byte	0x22
 1542 066c 30       		.byte	0x30
 1543 066d 3B       		.byte	0x3b
 1544 066e 20       		.byte	0x20
 1545 066f 75       		.byte	0x75
 1546 0670 72       		.byte	0x72
 1547 0671 6C       		.byte	0x6c
ARM GAS  /tmp/ccZ8cUpU.s 			page 29


 1548 0672 3D       		.byte	0x3d
 1549 0673 68       		.byte	0x68
 1550 0674 74       		.byte	0x74
 1551 0675 74       		.byte	0x74
 1552 0676 70       		.byte	0x70
 1553 0677 3A       		.byte	0x3a
 1554 0678 2F       		.byte	0x2f
 1555 0679 2F       		.byte	0x2f
 1556 067a 6D       		.byte	0x6d
 1557 067b 62       		.byte	0x62
 1558 067c 65       		.byte	0x65
 1559 067d 64       		.byte	0x64
 1560 067e 2E       		.byte	0x2e
 1561 067f 6F       		.byte	0x6f
 1562 0680 72       		.byte	0x72
 1563 0681 67       		.byte	0x67
 1564 0682 2F       		.byte	0x2f
 1565 0683 64       		.byte	0x64
 1566 0684 65       		.byte	0x65
 1567 0685 76       		.byte	0x76
 1568 0686 69       		.byte	0x69
 1569 0687 63       		.byte	0x63
 1570 0688 65       		.byte	0x65
 1571 0689 2F       		.byte	0x2f
 1572 068a 3F       		.byte	0x3f
 1573 068b 63       		.byte	0x63
 1574 068c 6F       		.byte	0x6f
 1575 068d 64       		.byte	0x64
 1576 068e 65       		.byte	0x65
 1577 068f 5F       		.byte	0x5f
 1578 0690 62       		.byte	0x62
 1579 0691 6C       		.byte	0x6c
 1580 0692 3D       		.byte	0x3d
 1581 0693 40       		.byte	0x40
 1582 0694 41       		.byte	0x41
 1583 0695 22       		.byte	0x22
 1584 0696 2F       		.byte	0x2f
 1585 0697 3E       		.byte	0x3e
 1586 0698 0D       		.byte	0xd
 1587 0699 0A       		.byte	0xa
 1588 069a 3C       		.byte	0x3c
 1589 069b 74       		.byte	0x74
 1590 069c 69       		.byte	0x69
 1591 069d 74       		.byte	0x74
 1592 069e 6C       		.byte	0x6c
 1593 069f 65       		.byte	0x65
 1594 06a0 3E       		.byte	0x3e
 1595 06a1 6D       		.byte	0x6d
 1596 06a2 62       		.byte	0x62
 1597 06a3 65       		.byte	0x65
 1598 06a4 64       		.byte	0x64
 1599 06a5 20       		.byte	0x20
 1600 06a6 57       		.byte	0x57
 1601 06a7 65       		.byte	0x65
 1602 06a8 62       		.byte	0x62
 1603 06a9 73       		.byte	0x73
 1604 06aa 69       		.byte	0x69
ARM GAS  /tmp/ccZ8cUpU.s 			page 30


 1605 06ab 74       		.byte	0x74
 1606 06ac 65       		.byte	0x65
 1607 06ad 20       		.byte	0x20
 1608 06ae 53       		.byte	0x53
 1609 06af 68       		.byte	0x68
 1610 06b0 6F       		.byte	0x6f
 1611 06b1 72       		.byte	0x72
 1612 06b2 74       		.byte	0x74
 1613 06b3 63       		.byte	0x63
 1614 06b4 75       		.byte	0x75
 1615 06b5 74       		.byte	0x74
 1616 06b6 3C       		.byte	0x3c
 1617 06b7 2F       		.byte	0x2f
 1618 06b8 74       		.byte	0x74
 1619 06b9 69       		.byte	0x69
 1620 06ba 74       		.byte	0x74
 1621 06bb 6C       		.byte	0x6c
 1622 06bc 65       		.byte	0x65
 1623 06bd 3E       		.byte	0x3e
 1624 06be 0D       		.byte	0xd
 1625 06bf 0A       		.byte	0xa
 1626 06c0 3C       		.byte	0x3c
 1627 06c1 2F       		.byte	0x2f
 1628 06c2 68       		.byte	0x68
 1629 06c3 65       		.byte	0x65
 1630 06c4 61       		.byte	0x61
 1631 06c5 64       		.byte	0x64
 1632 06c6 3E       		.byte	0x3e
 1633 06c7 0D       		.byte	0xd
 1634 06c8 0A       		.byte	0xa
 1635 06c9 3C       		.byte	0x3c
 1636 06ca 62       		.byte	0x62
 1637 06cb 6F       		.byte	0x6f
 1638 06cc 64       		.byte	0x64
 1639 06cd 79       		.byte	0x79
 1640 06ce 3E       		.byte	0x3e
 1641 06cf 3C       		.byte	0x3c
 1642 06d0 2F       		.byte	0x2f
 1643 06d1 62       		.byte	0x62
 1644 06d2 6F       		.byte	0x6f
 1645 06d3 64       		.byte	0x64
 1646 06d4 79       		.byte	0x79
 1647 06d5 3E       		.byte	0x3e
 1648 06d6 0D       		.byte	0xd
 1649 06d7 0A       		.byte	0xa
 1650 06d8 3C       		.byte	0x3c
 1651 06d9 2F       		.byte	0x2f
 1652 06da 68       		.byte	0x68
 1653 06db 74       		.byte	0x74
 1654 06dc 6D       		.byte	0x6d
 1655 06dd 6C       		.byte	0x6c
 1656 06de 3E       		.byte	0x3e
 1657 06df 0D       		.byte	0xd
 1658 06e0 0A       		.byte	0xa
 1659 06e1 0D       		.byte	0xd
 1660 06e2 0A       		.byte	0xa
 1661 06e3 00       		.byte	0
ARM GAS  /tmp/ccZ8cUpU.s 			page 31


 1662 06e4 2C       		.uleb128 0x2c
 1663 06e5 A9010000 		.4byte	.LASF44
 1664 06e9 06       		.byte	0x6
 1665 06ea 15       		.byte	0x15
 1666 06eb F5060000 		.4byte	0x6f5
 1667 06ef 2A       		.uleb128 0x2a
 1668 06f0 F5060000 		.4byte	0x6f5
 1669 06f4 00       		.byte	0
 1670 06f5 05       		.uleb128 0x5
 1671 06f6 04       		.byte	0x4
 1672 06f7 85000000 		.4byte	0x85
 1673 06fb 00       		.byte	0
 1674              		.section	.debug_abbrev,"",%progbits
 1675              	.Ldebug_abbrev0:
 1676 0000 01       		.uleb128 0x1
 1677 0001 11       		.uleb128 0x11
 1678 0002 01       		.byte	0x1
 1679 0003 25       		.uleb128 0x25
 1680 0004 0E       		.uleb128 0xe
 1681 0005 13       		.uleb128 0x13
 1682 0006 0B       		.uleb128 0xb
 1683 0007 03       		.uleb128 0x3
 1684 0008 0E       		.uleb128 0xe
 1685 0009 1B       		.uleb128 0x1b
 1686 000a 0E       		.uleb128 0xe
 1687 000b 55       		.uleb128 0x55
 1688 000c 17       		.uleb128 0x17
 1689 000d 11       		.uleb128 0x11
 1690 000e 01       		.uleb128 0x1
 1691 000f 10       		.uleb128 0x10
 1692 0010 17       		.uleb128 0x17
 1693 0011 00       		.byte	0
 1694 0012 00       		.byte	0
 1695 0013 02       		.uleb128 0x2
 1696 0014 16       		.uleb128 0x16
 1697 0015 00       		.byte	0
 1698 0016 03       		.uleb128 0x3
 1699 0017 0E       		.uleb128 0xe
 1700 0018 3A       		.uleb128 0x3a
 1701 0019 0B       		.uleb128 0xb
 1702 001a 3B       		.uleb128 0x3b
 1703 001b 0B       		.uleb128 0xb
 1704 001c 49       		.uleb128 0x49
 1705 001d 13       		.uleb128 0x13
 1706 001e 00       		.byte	0
 1707 001f 00       		.byte	0
 1708 0020 03       		.uleb128 0x3
 1709 0021 24       		.uleb128 0x24
 1710 0022 00       		.byte	0
 1711 0023 0B       		.uleb128 0xb
 1712 0024 0B       		.uleb128 0xb
 1713 0025 3E       		.uleb128 0x3e
 1714 0026 0B       		.uleb128 0xb
 1715 0027 03       		.uleb128 0x3
 1716 0028 0E       		.uleb128 0xe
 1717 0029 00       		.byte	0
 1718 002a 00       		.byte	0
ARM GAS  /tmp/ccZ8cUpU.s 			page 32


 1719 002b 04       		.uleb128 0x4
 1720 002c 24       		.uleb128 0x24
 1721 002d 00       		.byte	0
 1722 002e 0B       		.uleb128 0xb
 1723 002f 0B       		.uleb128 0xb
 1724 0030 3E       		.uleb128 0x3e
 1725 0031 0B       		.uleb128 0xb
 1726 0032 03       		.uleb128 0x3
 1727 0033 08       		.uleb128 0x8
 1728 0034 00       		.byte	0
 1729 0035 00       		.byte	0
 1730 0036 05       		.uleb128 0x5
 1731 0037 0F       		.uleb128 0xf
 1732 0038 00       		.byte	0
 1733 0039 0B       		.uleb128 0xb
 1734 003a 0B       		.uleb128 0xb
 1735 003b 49       		.uleb128 0x49
 1736 003c 13       		.uleb128 0x13
 1737 003d 00       		.byte	0
 1738 003e 00       		.byte	0
 1739 003f 06       		.uleb128 0x6
 1740 0040 26       		.uleb128 0x26
 1741 0041 00       		.byte	0
 1742 0042 49       		.uleb128 0x49
 1743 0043 13       		.uleb128 0x13
 1744 0044 00       		.byte	0
 1745 0045 00       		.byte	0
 1746 0046 07       		.uleb128 0x7
 1747 0047 13       		.uleb128 0x13
 1748 0048 01       		.byte	0x1
 1749 0049 0B       		.uleb128 0xb
 1750 004a 0B       		.uleb128 0xb
 1751 004b 3A       		.uleb128 0x3a
 1752 004c 0B       		.uleb128 0xb
 1753 004d 3B       		.uleb128 0x3b
 1754 004e 0B       		.uleb128 0xb
 1755 004f 01       		.uleb128 0x1
 1756 0050 13       		.uleb128 0x13
 1757 0051 00       		.byte	0
 1758 0052 00       		.byte	0
 1759 0053 08       		.uleb128 0x8
 1760 0054 0D       		.uleb128 0xd
 1761 0055 00       		.byte	0
 1762 0056 03       		.uleb128 0x3
 1763 0057 0E       		.uleb128 0xe
 1764 0058 3A       		.uleb128 0x3a
 1765 0059 0B       		.uleb128 0xb
 1766 005a 3B       		.uleb128 0x3b
 1767 005b 0B       		.uleb128 0xb
 1768 005c 49       		.uleb128 0x49
 1769 005d 13       		.uleb128 0x13
 1770 005e 38       		.uleb128 0x38
 1771 005f 0B       		.uleb128 0xb
 1772 0060 00       		.byte	0
 1773 0061 00       		.byte	0
 1774 0062 09       		.uleb128 0x9
 1775 0063 2E       		.uleb128 0x2e
ARM GAS  /tmp/ccZ8cUpU.s 			page 33


 1776 0064 01       		.byte	0x1
 1777 0065 03       		.uleb128 0x3
 1778 0066 0E       		.uleb128 0xe
 1779 0067 3A       		.uleb128 0x3a
 1780 0068 0B       		.uleb128 0xb
 1781 0069 3B       		.uleb128 0x3b
 1782 006a 0B       		.uleb128 0xb
 1783 006b 27       		.uleb128 0x27
 1784 006c 19       		.uleb128 0x19
 1785 006d 20       		.uleb128 0x20
 1786 006e 0B       		.uleb128 0xb
 1787 006f 01       		.uleb128 0x1
 1788 0070 13       		.uleb128 0x13
 1789 0071 00       		.byte	0
 1790 0072 00       		.byte	0
 1791 0073 0A       		.uleb128 0xa
 1792 0074 05       		.uleb128 0x5
 1793 0075 00       		.byte	0
 1794 0076 03       		.uleb128 0x3
 1795 0077 08       		.uleb128 0x8
 1796 0078 3A       		.uleb128 0x3a
 1797 0079 0B       		.uleb128 0xb
 1798 007a 3B       		.uleb128 0x3b
 1799 007b 0B       		.uleb128 0xb
 1800 007c 49       		.uleb128 0x49
 1801 007d 13       		.uleb128 0x13
 1802 007e 00       		.byte	0
 1803 007f 00       		.byte	0
 1804 0080 0B       		.uleb128 0xb
 1805 0081 2E       		.uleb128 0x2e
 1806 0082 01       		.byte	0x1
 1807 0083 03       		.uleb128 0x3
 1808 0084 0E       		.uleb128 0xe
 1809 0085 3A       		.uleb128 0x3a
 1810 0086 0B       		.uleb128 0xb
 1811 0087 3B       		.uleb128 0x3b
 1812 0088 0B       		.uleb128 0xb
 1813 0089 27       		.uleb128 0x27
 1814 008a 19       		.uleb128 0x19
 1815 008b 49       		.uleb128 0x49
 1816 008c 13       		.uleb128 0x13
 1817 008d 20       		.uleb128 0x20
 1818 008e 0B       		.uleb128 0xb
 1819 008f 01       		.uleb128 0x1
 1820 0090 13       		.uleb128 0x13
 1821 0091 00       		.byte	0
 1822 0092 00       		.byte	0
 1823 0093 0C       		.uleb128 0xc
 1824 0094 05       		.uleb128 0x5
 1825 0095 00       		.byte	0
 1826 0096 03       		.uleb128 0x3
 1827 0097 0E       		.uleb128 0xe
 1828 0098 3A       		.uleb128 0x3a
 1829 0099 0B       		.uleb128 0xb
 1830 009a 3B       		.uleb128 0x3b
 1831 009b 0B       		.uleb128 0xb
 1832 009c 49       		.uleb128 0x49
ARM GAS  /tmp/ccZ8cUpU.s 			page 34


 1833 009d 13       		.uleb128 0x13
 1834 009e 00       		.byte	0
 1835 009f 00       		.byte	0
 1836 00a0 0D       		.uleb128 0xd
 1837 00a1 34       		.uleb128 0x34
 1838 00a2 00       		.byte	0
 1839 00a3 03       		.uleb128 0x3
 1840 00a4 08       		.uleb128 0x8
 1841 00a5 3A       		.uleb128 0x3a
 1842 00a6 0B       		.uleb128 0xb
 1843 00a7 3B       		.uleb128 0x3b
 1844 00a8 0B       		.uleb128 0xb
 1845 00a9 49       		.uleb128 0x49
 1846 00aa 13       		.uleb128 0x13
 1847 00ab 00       		.byte	0
 1848 00ac 00       		.byte	0
 1849 00ad 0E       		.uleb128 0xe
 1850 00ae 2E       		.uleb128 0x2e
 1851 00af 01       		.byte	0x1
 1852 00b0 31       		.uleb128 0x31
 1853 00b1 13       		.uleb128 0x13
 1854 00b2 11       		.uleb128 0x11
 1855 00b3 01       		.uleb128 0x1
 1856 00b4 12       		.uleb128 0x12
 1857 00b5 06       		.uleb128 0x6
 1858 00b6 40       		.uleb128 0x40
 1859 00b7 18       		.uleb128 0x18
 1860 00b8 9742     		.uleb128 0x2117
 1861 00ba 19       		.uleb128 0x19
 1862 00bb 01       		.uleb128 0x1
 1863 00bc 13       		.uleb128 0x13
 1864 00bd 00       		.byte	0
 1865 00be 00       		.byte	0
 1866 00bf 0F       		.uleb128 0xf
 1867 00c0 05       		.uleb128 0x5
 1868 00c1 00       		.byte	0
 1869 00c2 31       		.uleb128 0x31
 1870 00c3 13       		.uleb128 0x13
 1871 00c4 02       		.uleb128 0x2
 1872 00c5 17       		.uleb128 0x17
 1873 00c6 00       		.byte	0
 1874 00c7 00       		.byte	0
 1875 00c8 10       		.uleb128 0x10
 1876 00c9 34       		.uleb128 0x34
 1877 00ca 00       		.byte	0
 1878 00cb 31       		.uleb128 0x31
 1879 00cc 13       		.uleb128 0x13
 1880 00cd 02       		.uleb128 0x2
 1881 00ce 17       		.uleb128 0x17
 1882 00cf 00       		.byte	0
 1883 00d0 00       		.byte	0
 1884 00d1 11       		.uleb128 0x11
 1885 00d2 05       		.uleb128 0x5
 1886 00d3 00       		.byte	0
 1887 00d4 31       		.uleb128 0x31
 1888 00d5 13       		.uleb128 0x13
 1889 00d6 1C       		.uleb128 0x1c
ARM GAS  /tmp/ccZ8cUpU.s 			page 35


 1890 00d7 0B       		.uleb128 0xb
 1891 00d8 00       		.byte	0
 1892 00d9 00       		.byte	0
 1893 00da 12       		.uleb128 0x12
 1894 00db 2E       		.uleb128 0x2e
 1895 00dc 01       		.byte	0x1
 1896 00dd 3F       		.uleb128 0x3f
 1897 00de 19       		.uleb128 0x19
 1898 00df 03       		.uleb128 0x3
 1899 00e0 0E       		.uleb128 0xe
 1900 00e1 3A       		.uleb128 0x3a
 1901 00e2 0B       		.uleb128 0xb
 1902 00e3 3B       		.uleb128 0x3b
 1903 00e4 0B       		.uleb128 0xb
 1904 00e5 27       		.uleb128 0x27
 1905 00e6 19       		.uleb128 0x19
 1906 00e7 49       		.uleb128 0x49
 1907 00e8 13       		.uleb128 0x13
 1908 00e9 11       		.uleb128 0x11
 1909 00ea 01       		.uleb128 0x1
 1910 00eb 12       		.uleb128 0x12
 1911 00ec 06       		.uleb128 0x6
 1912 00ed 40       		.uleb128 0x40
 1913 00ee 18       		.uleb128 0x18
 1914 00ef 9742     		.uleb128 0x2117
 1915 00f1 19       		.uleb128 0x19
 1916 00f2 01       		.uleb128 0x1
 1917 00f3 13       		.uleb128 0x13
 1918 00f4 00       		.byte	0
 1919 00f5 00       		.byte	0
 1920 00f6 13       		.uleb128 0x13
 1921 00f7 898201   		.uleb128 0x4109
 1922 00fa 01       		.byte	0x1
 1923 00fb 11       		.uleb128 0x11
 1924 00fc 01       		.uleb128 0x1
 1925 00fd 31       		.uleb128 0x31
 1926 00fe 13       		.uleb128 0x13
 1927 00ff 00       		.byte	0
 1928 0100 00       		.byte	0
 1929 0101 14       		.uleb128 0x14
 1930 0102 8A8201   		.uleb128 0x410a
 1931 0105 00       		.byte	0
 1932 0106 02       		.uleb128 0x2
 1933 0107 18       		.uleb128 0x18
 1934 0108 9142     		.uleb128 0x2111
 1935 010a 18       		.uleb128 0x18
 1936 010b 00       		.byte	0
 1937 010c 00       		.byte	0
 1938 010d 15       		.uleb128 0x15
 1939 010e 2E       		.uleb128 0x2e
 1940 010f 00       		.byte	0
 1941 0110 3F       		.uleb128 0x3f
 1942 0111 19       		.uleb128 0x19
 1943 0112 03       		.uleb128 0x3
 1944 0113 0E       		.uleb128 0xe
 1945 0114 3A       		.uleb128 0x3a
 1946 0115 0B       		.uleb128 0xb
ARM GAS  /tmp/ccZ8cUpU.s 			page 36


 1947 0116 3B       		.uleb128 0x3b
 1948 0117 0B       		.uleb128 0xb
 1949 0118 27       		.uleb128 0x27
 1950 0119 19       		.uleb128 0x19
 1951 011a 49       		.uleb128 0x49
 1952 011b 13       		.uleb128 0x13
 1953 011c 11       		.uleb128 0x11
 1954 011d 01       		.uleb128 0x1
 1955 011e 12       		.uleb128 0x12
 1956 011f 06       		.uleb128 0x6
 1957 0120 40       		.uleb128 0x40
 1958 0121 18       		.uleb128 0x18
 1959 0122 9742     		.uleb128 0x2117
 1960 0124 19       		.uleb128 0x19
 1961 0125 00       		.byte	0
 1962 0126 00       		.byte	0
 1963 0127 16       		.uleb128 0x16
 1964 0128 2E       		.uleb128 0x2e
 1965 0129 00       		.byte	0
 1966 012a 03       		.uleb128 0x3
 1967 012b 0E       		.uleb128 0xe
 1968 012c 3A       		.uleb128 0x3a
 1969 012d 0B       		.uleb128 0xb
 1970 012e 3B       		.uleb128 0x3b
 1971 012f 0B       		.uleb128 0xb
 1972 0130 20       		.uleb128 0x20
 1973 0131 0B       		.uleb128 0xb
 1974 0132 00       		.byte	0
 1975 0133 00       		.byte	0
 1976 0134 17       		.uleb128 0x17
 1977 0135 2E       		.uleb128 0x2e
 1978 0136 01       		.byte	0x1
 1979 0137 03       		.uleb128 0x3
 1980 0138 0E       		.uleb128 0xe
 1981 0139 3A       		.uleb128 0x3a
 1982 013a 0B       		.uleb128 0xb
 1983 013b 3B       		.uleb128 0x3b
 1984 013c 0B       		.uleb128 0xb
 1985 013d 20       		.uleb128 0x20
 1986 013e 0B       		.uleb128 0xb
 1987 013f 01       		.uleb128 0x1
 1988 0140 13       		.uleb128 0x13
 1989 0141 00       		.byte	0
 1990 0142 00       		.byte	0
 1991 0143 18       		.uleb128 0x18
 1992 0144 34       		.uleb128 0x34
 1993 0145 00       		.byte	0
 1994 0146 03       		.uleb128 0x3
 1995 0147 0E       		.uleb128 0xe
 1996 0148 3A       		.uleb128 0x3a
 1997 0149 0B       		.uleb128 0xb
 1998 014a 3B       		.uleb128 0x3b
 1999 014b 0B       		.uleb128 0xb
 2000 014c 49       		.uleb128 0x49
 2001 014d 13       		.uleb128 0x13
 2002 014e 00       		.byte	0
 2003 014f 00       		.byte	0
ARM GAS  /tmp/ccZ8cUpU.s 			page 37


 2004 0150 19       		.uleb128 0x19
 2005 0151 34       		.uleb128 0x34
 2006 0152 00       		.byte	0
 2007 0153 03       		.uleb128 0x3
 2008 0154 0E       		.uleb128 0xe
 2009 0155 3A       		.uleb128 0x3a
 2010 0156 0B       		.uleb128 0xb
 2011 0157 3B       		.uleb128 0x3b
 2012 0158 0B       		.uleb128 0xb
 2013 0159 49       		.uleb128 0x49
 2014 015a 13       		.uleb128 0x13
 2015 015b 02       		.uleb128 0x2
 2016 015c 17       		.uleb128 0x17
 2017 015d 00       		.byte	0
 2018 015e 00       		.byte	0
 2019 015f 1A       		.uleb128 0x1a
 2020 0160 34       		.uleb128 0x34
 2021 0161 00       		.byte	0
 2022 0162 03       		.uleb128 0x3
 2023 0163 08       		.uleb128 0x8
 2024 0164 3A       		.uleb128 0x3a
 2025 0165 0B       		.uleb128 0xb
 2026 0166 3B       		.uleb128 0x3b
 2027 0167 0B       		.uleb128 0xb
 2028 0168 49       		.uleb128 0x49
 2029 0169 13       		.uleb128 0x13
 2030 016a 02       		.uleb128 0x2
 2031 016b 18       		.uleb128 0x18
 2032 016c 00       		.byte	0
 2033 016d 00       		.byte	0
 2034 016e 1B       		.uleb128 0x1b
 2035 016f 34       		.uleb128 0x34
 2036 0170 00       		.byte	0
 2037 0171 03       		.uleb128 0x3
 2038 0172 08       		.uleb128 0x8
 2039 0173 3A       		.uleb128 0x3a
 2040 0174 0B       		.uleb128 0xb
 2041 0175 3B       		.uleb128 0x3b
 2042 0176 0B       		.uleb128 0xb
 2043 0177 49       		.uleb128 0x49
 2044 0178 13       		.uleb128 0x13
 2045 0179 02       		.uleb128 0x2
 2046 017a 17       		.uleb128 0x17
 2047 017b 00       		.byte	0
 2048 017c 00       		.byte	0
 2049 017d 1C       		.uleb128 0x1c
 2050 017e 1D       		.uleb128 0x1d
 2051 017f 01       		.byte	0x1
 2052 0180 31       		.uleb128 0x31
 2053 0181 13       		.uleb128 0x13
 2054 0182 52       		.uleb128 0x52
 2055 0183 01       		.uleb128 0x1
 2056 0184 55       		.uleb128 0x55
 2057 0185 17       		.uleb128 0x17
 2058 0186 58       		.uleb128 0x58
 2059 0187 0B       		.uleb128 0xb
 2060 0188 59       		.uleb128 0x59
ARM GAS  /tmp/ccZ8cUpU.s 			page 38


 2061 0189 0B       		.uleb128 0xb
 2062 018a 01       		.uleb128 0x1
 2063 018b 13       		.uleb128 0x13
 2064 018c 00       		.byte	0
 2065 018d 00       		.byte	0
 2066 018e 1D       		.uleb128 0x1d
 2067 018f 0B       		.uleb128 0xb
 2068 0190 01       		.byte	0x1
 2069 0191 55       		.uleb128 0x55
 2070 0192 17       		.uleb128 0x17
 2071 0193 00       		.byte	0
 2072 0194 00       		.byte	0
 2073 0195 1E       		.uleb128 0x1e
 2074 0196 34       		.uleb128 0x34
 2075 0197 00       		.byte	0
 2076 0198 31       		.uleb128 0x31
 2077 0199 13       		.uleb128 0x13
 2078 019a 02       		.uleb128 0x2
 2079 019b 18       		.uleb128 0x18
 2080 019c 00       		.byte	0
 2081 019d 00       		.byte	0
 2082 019e 1F       		.uleb128 0x1f
 2083 019f 1D       		.uleb128 0x1d
 2084 01a0 01       		.byte	0x1
 2085 01a1 31       		.uleb128 0x31
 2086 01a2 13       		.uleb128 0x13
 2087 01a3 11       		.uleb128 0x11
 2088 01a4 01       		.uleb128 0x1
 2089 01a5 12       		.uleb128 0x12
 2090 01a6 06       		.uleb128 0x6
 2091 01a7 58       		.uleb128 0x58
 2092 01a8 0B       		.uleb128 0xb
 2093 01a9 59       		.uleb128 0x59
 2094 01aa 0B       		.uleb128 0xb
 2095 01ab 01       		.uleb128 0x1
 2096 01ac 13       		.uleb128 0x13
 2097 01ad 00       		.byte	0
 2098 01ae 00       		.byte	0
 2099 01af 20       		.uleb128 0x20
 2100 01b0 1D       		.uleb128 0x1d
 2101 01b1 01       		.byte	0x1
 2102 01b2 31       		.uleb128 0x31
 2103 01b3 13       		.uleb128 0x13
 2104 01b4 11       		.uleb128 0x11
 2105 01b5 01       		.uleb128 0x1
 2106 01b6 12       		.uleb128 0x12
 2107 01b7 06       		.uleb128 0x6
 2108 01b8 58       		.uleb128 0x58
 2109 01b9 0B       		.uleb128 0xb
 2110 01ba 59       		.uleb128 0x59
 2111 01bb 0B       		.uleb128 0xb
 2112 01bc 00       		.byte	0
 2113 01bd 00       		.byte	0
 2114 01be 21       		.uleb128 0x21
 2115 01bf 898201   		.uleb128 0x4109
 2116 01c2 01       		.byte	0x1
 2117 01c3 11       		.uleb128 0x11
ARM GAS  /tmp/ccZ8cUpU.s 			page 39


 2118 01c4 01       		.uleb128 0x1
 2119 01c5 31       		.uleb128 0x31
 2120 01c6 13       		.uleb128 0x13
 2121 01c7 01       		.uleb128 0x1
 2122 01c8 13       		.uleb128 0x13
 2123 01c9 00       		.byte	0
 2124 01ca 00       		.byte	0
 2125 01cb 22       		.uleb128 0x22
 2126 01cc 34       		.uleb128 0x34
 2127 01cd 00       		.byte	0
 2128 01ce 03       		.uleb128 0x3
 2129 01cf 0E       		.uleb128 0xe
 2130 01d0 3A       		.uleb128 0x3a
 2131 01d1 0B       		.uleb128 0xb
 2132 01d2 3B       		.uleb128 0x3b
 2133 01d3 0B       		.uleb128 0xb
 2134 01d4 49       		.uleb128 0x49
 2135 01d5 13       		.uleb128 0x13
 2136 01d6 02       		.uleb128 0x2
 2137 01d7 18       		.uleb128 0x18
 2138 01d8 00       		.byte	0
 2139 01d9 00       		.byte	0
 2140 01da 23       		.uleb128 0x23
 2141 01db 01       		.uleb128 0x1
 2142 01dc 01       		.byte	0x1
 2143 01dd 49       		.uleb128 0x49
 2144 01de 13       		.uleb128 0x13
 2145 01df 01       		.uleb128 0x1
 2146 01e0 13       		.uleb128 0x13
 2147 01e1 00       		.byte	0
 2148 01e2 00       		.byte	0
 2149 01e3 24       		.uleb128 0x24
 2150 01e4 21       		.uleb128 0x21
 2151 01e5 00       		.byte	0
 2152 01e6 49       		.uleb128 0x49
 2153 01e7 13       		.uleb128 0x13
 2154 01e8 2F       		.uleb128 0x2f
 2155 01e9 0B       		.uleb128 0xb
 2156 01ea 00       		.byte	0
 2157 01eb 00       		.byte	0
 2158 01ec 25       		.uleb128 0x25
 2159 01ed 21       		.uleb128 0x21
 2160 01ee 00       		.byte	0
 2161 01ef 49       		.uleb128 0x49
 2162 01f0 13       		.uleb128 0x13
 2163 01f1 2F       		.uleb128 0x2f
 2164 01f2 05       		.uleb128 0x5
 2165 01f3 00       		.byte	0
 2166 01f4 00       		.byte	0
 2167 01f5 26       		.uleb128 0x26
 2168 01f6 34       		.uleb128 0x34
 2169 01f7 00       		.byte	0
 2170 01f8 03       		.uleb128 0x3
 2171 01f9 0E       		.uleb128 0xe
 2172 01fa 3A       		.uleb128 0x3a
 2173 01fb 0B       		.uleb128 0xb
 2174 01fc 3B       		.uleb128 0x3b
ARM GAS  /tmp/ccZ8cUpU.s 			page 40


 2175 01fd 0B       		.uleb128 0xb
 2176 01fe 49       		.uleb128 0x49
 2177 01ff 13       		.uleb128 0x13
 2178 0200 3F       		.uleb128 0x3f
 2179 0201 19       		.uleb128 0x19
 2180 0202 02       		.uleb128 0x2
 2181 0203 18       		.uleb128 0x18
 2182 0204 00       		.byte	0
 2183 0205 00       		.byte	0
 2184 0206 27       		.uleb128 0x27
 2185 0207 21       		.uleb128 0x21
 2186 0208 00       		.byte	0
 2187 0209 00       		.byte	0
 2188 020a 00       		.byte	0
 2189 020b 28       		.uleb128 0x28
 2190 020c 34       		.uleb128 0x34
 2191 020d 00       		.byte	0
 2192 020e 03       		.uleb128 0x3
 2193 020f 0E       		.uleb128 0xe
 2194 0210 3A       		.uleb128 0x3a
 2195 0211 0B       		.uleb128 0xb
 2196 0212 3B       		.uleb128 0x3b
 2197 0213 0B       		.uleb128 0xb
 2198 0214 49       		.uleb128 0x49
 2199 0215 13       		.uleb128 0x13
 2200 0216 3F       		.uleb128 0x3f
 2201 0217 19       		.uleb128 0x19
 2202 0218 3C       		.uleb128 0x3c
 2203 0219 19       		.uleb128 0x19
 2204 021a 00       		.byte	0
 2205 021b 00       		.byte	0
 2206 021c 29       		.uleb128 0x29
 2207 021d 2E       		.uleb128 0x2e
 2208 021e 01       		.byte	0x1
 2209 021f 3F       		.uleb128 0x3f
 2210 0220 19       		.uleb128 0x19
 2211 0221 03       		.uleb128 0x3
 2212 0222 0E       		.uleb128 0xe
 2213 0223 3A       		.uleb128 0x3a
 2214 0224 0B       		.uleb128 0xb
 2215 0225 3B       		.uleb128 0x3b
 2216 0226 05       		.uleb128 0x5
 2217 0227 27       		.uleb128 0x27
 2218 0228 19       		.uleb128 0x19
 2219 0229 49       		.uleb128 0x49
 2220 022a 13       		.uleb128 0x13
 2221 022b 3C       		.uleb128 0x3c
 2222 022c 19       		.uleb128 0x19
 2223 022d 01       		.uleb128 0x1
 2224 022e 13       		.uleb128 0x13
 2225 022f 00       		.byte	0
 2226 0230 00       		.byte	0
 2227 0231 2A       		.uleb128 0x2a
 2228 0232 05       		.uleb128 0x5
 2229 0233 00       		.byte	0
 2230 0234 49       		.uleb128 0x49
 2231 0235 13       		.uleb128 0x13
ARM GAS  /tmp/ccZ8cUpU.s 			page 41


 2232 0236 00       		.byte	0
 2233 0237 00       		.byte	0
 2234 0238 2B       		.uleb128 0x2b
 2235 0239 36       		.uleb128 0x36
 2236 023a 00       		.byte	0
 2237 023b 02       		.uleb128 0x2
 2238 023c 18       		.uleb128 0x18
 2239 023d 00       		.byte	0
 2240 023e 00       		.byte	0
 2241 023f 2C       		.uleb128 0x2c
 2242 0240 2E       		.uleb128 0x2e
 2243 0241 01       		.byte	0x1
 2244 0242 3F       		.uleb128 0x3f
 2245 0243 19       		.uleb128 0x19
 2246 0244 03       		.uleb128 0x3
 2247 0245 0E       		.uleb128 0xe
 2248 0246 3A       		.uleb128 0x3a
 2249 0247 0B       		.uleb128 0xb
 2250 0248 3B       		.uleb128 0x3b
 2251 0249 0B       		.uleb128 0xb
 2252 024a 27       		.uleb128 0x27
 2253 024b 19       		.uleb128 0x19
 2254 024c 3C       		.uleb128 0x3c
 2255 024d 19       		.uleb128 0x19
 2256 024e 01       		.uleb128 0x1
 2257 024f 13       		.uleb128 0x13
 2258 0250 00       		.byte	0
 2259 0251 00       		.byte	0
 2260 0252 00       		.byte	0
 2261              		.section	.debug_loc,"",%progbits
 2262              	.Ldebug_loc0:
 2263              	.LLST0:
 2264 0000 00000000 		.4byte	.LVL0
 2265 0004 10000000 		.4byte	.LVL2
 2266 0008 0100     		.2byte	0x1
 2267 000a 50       		.byte	0x50
 2268 000b 10000000 		.4byte	.LVL2
 2269 000f 14000000 		.4byte	.LVL3
 2270 0013 0300     		.2byte	0x3
 2271 0015 72       		.byte	0x72
 2272 0016 01       		.sleb128 1
 2273 0017 9F       		.byte	0x9f
 2274 0018 14000000 		.4byte	.LVL3
 2275 001c 3A000000 		.4byte	.LVL7
 2276 0020 0100     		.2byte	0x1
 2277 0022 52       		.byte	0x52
 2278 0023 3A000000 		.4byte	.LVL7
 2279 0027 40000000 		.4byte	.LVL9
 2280 002b 0300     		.2byte	0x3
 2281 002d 72       		.byte	0x72
 2282 002e 01       		.sleb128 1
 2283 002f 9F       		.byte	0x9f
 2284 0030 40000000 		.4byte	.LVL9
 2285 0034 4C000000 		.4byte	.LVL13
 2286 0038 0100     		.2byte	0x1
 2287 003a 52       		.byte	0x52
 2288 003b 4C000000 		.4byte	.LVL13
ARM GAS  /tmp/ccZ8cUpU.s 			page 42


 2289 003f 4E000000 		.4byte	.LVL14
 2290 0043 0100     		.2byte	0x1
 2291 0045 50       		.byte	0x50
 2292 0046 4E000000 		.4byte	.LVL14
 2293 004a 50000000 		.4byte	.LFE22
 2294 004e 0400     		.2byte	0x4
 2295 0050 F3       		.byte	0xf3
 2296 0051 01       		.uleb128 0x1
 2297 0052 50       		.byte	0x50
 2298 0053 9F       		.byte	0x9f
 2299 0054 00000000 		.4byte	0
 2300 0058 00000000 		.4byte	0
 2301              	.LLST1:
 2302 005c 00000000 		.4byte	.LVL0
 2303 0060 06000000 		.4byte	.LVL1
 2304 0064 0100     		.2byte	0x1
 2305 0066 51       		.byte	0x51
 2306 0067 06000000 		.4byte	.LVL1
 2307 006b 4C000000 		.4byte	.LVL13
 2308 006f 0400     		.2byte	0x4
 2309 0071 F3       		.byte	0xf3
 2310 0072 01       		.uleb128 0x1
 2311 0073 51       		.byte	0x51
 2312 0074 9F       		.byte	0x9f
 2313 0075 4C000000 		.4byte	.LVL13
 2314 0079 50000000 		.4byte	.LFE22
 2315 007d 0100     		.2byte	0x1
 2316 007f 51       		.byte	0x51
 2317 0080 00000000 		.4byte	0
 2318 0084 00000000 		.4byte	0
 2319              	.LLST2:
 2320 0088 00000000 		.4byte	.LVL0
 2321 008c 10000000 		.4byte	.LVL2
 2322 0090 0200     		.2byte	0x2
 2323 0092 30       		.byte	0x30
 2324 0093 9F       		.byte	0x9f
 2325 0094 10000000 		.4byte	.LVL2
 2326 0098 34000000 		.4byte	.LVL6
 2327 009c 0100     		.2byte	0x1
 2328 009e 50       		.byte	0x50
 2329 009f 3A000000 		.4byte	.LVL7
 2330 00a3 4C000000 		.4byte	.LVL13
 2331 00a7 0100     		.2byte	0x1
 2332 00a9 50       		.byte	0x50
 2333 00aa 4C000000 		.4byte	.LVL13
 2334 00ae 50000000 		.4byte	.LFE22
 2335 00b2 0200     		.2byte	0x2
 2336 00b4 30       		.byte	0x30
 2337 00b5 9F       		.byte	0x9f
 2338 00b6 00000000 		.4byte	0
 2339 00ba 00000000 		.4byte	0
 2340              	.LLST3:
 2341 00be 00000000 		.4byte	.LVL0
 2342 00c2 10000000 		.4byte	.LVL2
 2343 00c6 0200     		.2byte	0x2
 2344 00c8 30       		.byte	0x30
 2345 00c9 9F       		.byte	0x9f
ARM GAS  /tmp/ccZ8cUpU.s 			page 43


 2346 00ca 10000000 		.4byte	.LVL2
 2347 00ce 14000000 		.4byte	.LVL3
 2348 00d2 0900     		.2byte	0x9
 2349 00d4 72       		.byte	0x72
 2350 00d5 00       		.sleb128 0
 2351 00d6 F3       		.byte	0xf3
 2352 00d7 01       		.uleb128 0x1
 2353 00d8 50       		.byte	0x50
 2354 00d9 31       		.byte	0x31
 2355 00da 1C       		.byte	0x1c
 2356 00db 1C       		.byte	0x1c
 2357 00dc 9F       		.byte	0x9f
 2358 00dd 3A000000 		.4byte	.LVL7
 2359 00e1 40000000 		.4byte	.LVL9
 2360 00e5 0900     		.2byte	0x9
 2361 00e7 72       		.byte	0x72
 2362 00e8 00       		.sleb128 0
 2363 00e9 F3       		.byte	0xf3
 2364 00ea 01       		.uleb128 0x1
 2365 00eb 50       		.byte	0x50
 2366 00ec 31       		.byte	0x31
 2367 00ed 1C       		.byte	0x1c
 2368 00ee 1C       		.byte	0x1c
 2369 00ef 9F       		.byte	0x9f
 2370 00f0 4C000000 		.4byte	.LVL13
 2371 00f4 50000000 		.4byte	.LFE22
 2372 00f8 0200     		.2byte	0x2
 2373 00fa 30       		.byte	0x30
 2374 00fb 9F       		.byte	0x9f
 2375 00fc 00000000 		.4byte	0
 2376 0100 00000000 		.4byte	0
 2377              	.LLST4:
 2378 0104 00000000 		.4byte	.LVL0
 2379 0108 10000000 		.4byte	.LVL2
 2380 010c 0200     		.2byte	0x2
 2381 010e 30       		.byte	0x30
 2382 010f 9F       		.byte	0x9f
 2383 0110 10000000 		.4byte	.LVL2
 2384 0114 2E000000 		.4byte	.LVL4
 2385 0118 0100     		.2byte	0x1
 2386 011a 54       		.byte	0x54
 2387 011b 30000000 		.4byte	.LVL5
 2388 011f 3E000000 		.4byte	.LVL8
 2389 0123 0100     		.2byte	0x1
 2390 0125 54       		.byte	0x54
 2391 0126 40000000 		.4byte	.LVL9
 2392 012a 42000000 		.4byte	.LVL10
 2393 012e 0100     		.2byte	0x1
 2394 0130 54       		.byte	0x54
 2395 0131 46000000 		.4byte	.LVL11
 2396 0135 48000000 		.4byte	.LVL12
 2397 0139 0100     		.2byte	0x1
 2398 013b 54       		.byte	0x54
 2399 013c 4C000000 		.4byte	.LVL13
 2400 0140 50000000 		.4byte	.LFE22
 2401 0144 0200     		.2byte	0x2
 2402 0146 30       		.byte	0x30
ARM GAS  /tmp/ccZ8cUpU.s 			page 44


 2403 0147 9F       		.byte	0x9f
 2404 0148 00000000 		.4byte	0
 2405 014c 00000000 		.4byte	0
 2406              	.LLST5:
 2407 0150 0C000000 		.4byte	.LVL17
 2408 0154 18000000 		.4byte	.LVL19
 2409 0158 0E00     		.2byte	0xe
 2410 015a F2       		.byte	0xf2
 2411 015b 83050000 		.4byte	.Ldebug_info0+1411
 2412 015f 00       		.sleb128 0
 2413 0160 93       		.byte	0x93
 2414 0161 04       		.uleb128 0x4
 2415 0162 30       		.byte	0x30
 2416 0163 9F       		.byte	0x9f
 2417 0164 93       		.byte	0x93
 2418 0165 01       		.uleb128 0x1
 2419 0166 93       		.byte	0x93
 2420 0167 03       		.uleb128 0x3
 2421 0168 18000000 		.4byte	.LVL19
 2422 016c 1E000000 		.4byte	.LVL21
 2423 0170 0800     		.2byte	0x8
 2424 0172 52       		.byte	0x52
 2425 0173 93       		.byte	0x93
 2426 0174 04       		.uleb128 0x4
 2427 0175 51       		.byte	0x51
 2428 0176 93       		.byte	0x93
 2429 0177 01       		.uleb128 0x1
 2430 0178 93       		.byte	0x93
 2431 0179 03       		.uleb128 0x3
 2432 017a 1E000000 		.4byte	.LVL21
 2433 017e 22000000 		.4byte	.LVL22
 2434 0182 0900     		.2byte	0x9
 2435 0184 52       		.byte	0x52
 2436 0185 93       		.byte	0x93
 2437 0186 04       		.uleb128 0x4
 2438 0187 31       		.byte	0x31
 2439 0188 9F       		.byte	0x9f
 2440 0189 93       		.byte	0x93
 2441 018a 01       		.uleb128 0x1
 2442 018b 93       		.byte	0x93
 2443 018c 03       		.uleb128 0x3
 2444 018d 22000000 		.4byte	.LVL22
 2445 0191 2A000000 		.4byte	.LVL24
 2446 0195 0800     		.2byte	0x8
 2447 0197 52       		.byte	0x52
 2448 0198 93       		.byte	0x93
 2449 0199 04       		.uleb128 0x4
 2450 019a 51       		.byte	0x51
 2451 019b 93       		.byte	0x93
 2452 019c 01       		.uleb128 0x1
 2453 019d 93       		.byte	0x93
 2454 019e 03       		.uleb128 0x3
 2455 019f 2A000000 		.4byte	.LVL24
 2456 01a3 38000000 		.4byte	.LVL26
 2457 01a7 0B00     		.2byte	0xb
 2458 01a9 72       		.byte	0x72
 2459 01aa 01       		.sleb128 1
ARM GAS  /tmp/ccZ8cUpU.s 			page 45


 2460 01ab 9F       		.byte	0x9f
 2461 01ac 93       		.byte	0x93
 2462 01ad 04       		.uleb128 0x4
 2463 01ae 30       		.byte	0x30
 2464 01af 9F       		.byte	0x9f
 2465 01b0 93       		.byte	0x93
 2466 01b1 01       		.uleb128 0x1
 2467 01b2 93       		.byte	0x93
 2468 01b3 03       		.uleb128 0x3
 2469 01b4 38000000 		.4byte	.LVL26
 2470 01b8 46000000 		.4byte	.LVL27
 2471 01bc 0900     		.2byte	0x9
 2472 01be 52       		.byte	0x52
 2473 01bf 93       		.byte	0x93
 2474 01c0 04       		.uleb128 0x4
 2475 01c1 30       		.byte	0x30
 2476 01c2 9F       		.byte	0x9f
 2477 01c3 93       		.byte	0x93
 2478 01c4 01       		.uleb128 0x1
 2479 01c5 93       		.byte	0x93
 2480 01c6 03       		.uleb128 0x3
 2481 01c7 46000000 		.4byte	.LVL27
 2482 01cb 48000000 		.4byte	.LVL28
 2483 01cf 0B00     		.2byte	0xb
 2484 01d1 72       		.byte	0x72
 2485 01d2 01       		.sleb128 1
 2486 01d3 9F       		.byte	0x9f
 2487 01d4 93       		.byte	0x93
 2488 01d5 04       		.uleb128 0x4
 2489 01d6 30       		.byte	0x30
 2490 01d7 9F       		.byte	0x9f
 2491 01d8 93       		.byte	0x93
 2492 01d9 01       		.uleb128 0x1
 2493 01da 93       		.byte	0x93
 2494 01db 03       		.uleb128 0x3
 2495 01dc 48000000 		.4byte	.LVL28
 2496 01e0 52000000 		.4byte	.LVL30
 2497 01e4 0900     		.2byte	0x9
 2498 01e6 52       		.byte	0x52
 2499 01e7 93       		.byte	0x93
 2500 01e8 04       		.uleb128 0x4
 2501 01e9 30       		.byte	0x30
 2502 01ea 9F       		.byte	0x9f
 2503 01eb 93       		.byte	0x93
 2504 01ec 01       		.uleb128 0x1
 2505 01ed 93       		.byte	0x93
 2506 01ee 03       		.uleb128 0x3
 2507 01ef 4A010000 		.4byte	.LVL59
 2508 01f3 80010000 		.4byte	.LFE21
 2509 01f7 0900     		.2byte	0x9
 2510 01f9 52       		.byte	0x52
 2511 01fa 93       		.byte	0x93
 2512 01fb 04       		.uleb128 0x4
 2513 01fc 30       		.byte	0x30
 2514 01fd 9F       		.byte	0x9f
 2515 01fe 93       		.byte	0x93
 2516 01ff 01       		.uleb128 0x1
ARM GAS  /tmp/ccZ8cUpU.s 			page 46


 2517 0200 93       		.byte	0x93
 2518 0201 03       		.uleb128 0x3
 2519 0202 00000000 		.4byte	0
 2520 0206 00000000 		.4byte	0
 2521              	.LLST6:
 2522 020a 00000000 		.4byte	.LVL16
 2523 020e 14000000 		.4byte	.LVL18
 2524 0212 0200     		.2byte	0x2
 2525 0214 30       		.byte	0x30
 2526 0215 9F       		.byte	0x9f
 2527 0216 52000000 		.4byte	.LVL30
 2528 021a 4A010000 		.4byte	.LVL59
 2529 021e 0200     		.2byte	0x2
 2530 0220 30       		.byte	0x30
 2531 0221 9F       		.byte	0x9f
 2532 0222 00000000 		.4byte	0
 2533 0226 00000000 		.4byte	0
 2534              	.LLST7:
 2535 022a 14000000 		.4byte	.LVL18
 2536 022e 52000000 		.4byte	.LVL30
 2537 0232 0600     		.2byte	0x6
 2538 0234 F2       		.byte	0xf2
 2539 0235 A4020000 		.4byte	.Ldebug_info0+676
 2540 0239 00       		.sleb128 0
 2541 023a 4A010000 		.4byte	.LVL59
 2542 023e 80010000 		.4byte	.LFE21
 2543 0242 0600     		.2byte	0x6
 2544 0244 F2       		.byte	0xf2
 2545 0245 A4020000 		.4byte	.Ldebug_info0+676
 2546 0249 00       		.sleb128 0
 2547 024a 00000000 		.4byte	0
 2548 024e 00000000 		.4byte	0
 2549              	.LLST8:
 2550 0252 18000000 		.4byte	.LVL19
 2551 0256 1E000000 		.4byte	.LVL21
 2552 025a 0200     		.2byte	0x2
 2553 025c 30       		.byte	0x30
 2554 025d 9F       		.byte	0x9f
 2555 025e 26000000 		.4byte	.LVL23
 2556 0262 2A000000 		.4byte	.LVL24
 2557 0266 0200     		.2byte	0x2
 2558 0268 30       		.byte	0x30
 2559 0269 9F       		.byte	0x9f
 2560 026a 2C000000 		.4byte	.LVL25
 2561 026e 38000000 		.4byte	.LVL26
 2562 0272 0100     		.2byte	0x1
 2563 0274 53       		.byte	0x53
 2564 0275 46000000 		.4byte	.LVL27
 2565 0279 50000000 		.4byte	.LVL29
 2566 027d 0100     		.2byte	0x1
 2567 027f 53       		.byte	0x53
 2568 0280 50000000 		.4byte	.LVL29
 2569 0284 52000000 		.4byte	.LVL30
 2570 0288 0200     		.2byte	0x2
 2571 028a 72       		.byte	0x72
 2572 028b 7E       		.sleb128 -2
 2573 028c 00000000 		.4byte	0
ARM GAS  /tmp/ccZ8cUpU.s 			page 47


 2574 0290 00000000 		.4byte	0
 2575              	.LLST9:
 2576 0294 2A000000 		.4byte	.LVL24
 2577 0298 38000000 		.4byte	.LVL26
 2578 029c 0200     		.2byte	0x2
 2579 029e 72       		.byte	0x72
 2580 029f 01       		.sleb128 1
 2581 02a0 38000000 		.4byte	.LVL26
 2582 02a4 46000000 		.4byte	.LVL27
 2583 02a8 0200     		.2byte	0x2
 2584 02aa 72       		.byte	0x72
 2585 02ab 00       		.sleb128 0
 2586 02ac 46000000 		.4byte	.LVL27
 2587 02b0 48000000 		.4byte	.LVL28
 2588 02b4 0200     		.2byte	0x2
 2589 02b6 72       		.byte	0x72
 2590 02b7 01       		.sleb128 1
 2591 02b8 48000000 		.4byte	.LVL28
 2592 02bc 52000000 		.4byte	.LVL30
 2593 02c0 0200     		.2byte	0x2
 2594 02c2 72       		.byte	0x72
 2595 02c3 7F       		.sleb128 -1
 2596 02c4 4A010000 		.4byte	.LVL59
 2597 02c8 80010000 		.4byte	.LFE21
 2598 02cc 0200     		.2byte	0x2
 2599 02ce 72       		.byte	0x72
 2600 02cf 00       		.sleb128 0
 2601 02d0 00000000 		.4byte	0
 2602 02d4 00000000 		.4byte	0
 2603              	.LLST10:
 2604 02d8 18000000 		.4byte	.LVL19
 2605 02dc 52000000 		.4byte	.LVL30
 2606 02e0 0200     		.2byte	0x2
 2607 02e2 31       		.byte	0x31
 2608 02e3 9F       		.byte	0x9f
 2609 02e4 4A010000 		.4byte	.LVL59
 2610 02e8 80010000 		.4byte	.LFE21
 2611 02ec 0200     		.2byte	0x2
 2612 02ee 31       		.byte	0x31
 2613 02ef 9F       		.byte	0x9f
 2614 02f0 00000000 		.4byte	0
 2615 02f4 00000000 		.4byte	0
 2616              	.LLST11:
 2617 02f8 0C000000 		.4byte	.LVL17
 2618 02fc 52000000 		.4byte	.LVL30
 2619 0300 0600     		.2byte	0x6
 2620 0302 03       		.byte	0x3
 2621 0303 00000000 		.4byte	WebSide
 2622 0307 9F       		.byte	0x9f
 2623 0308 4A010000 		.4byte	.LVL59
 2624 030c 80010000 		.4byte	.LFE21
 2625 0310 0600     		.2byte	0x6
 2626 0312 03       		.byte	0x3
 2627 0313 00000000 		.4byte	WebSide
 2628 0317 9F       		.byte	0x9f
 2629 0318 00000000 		.4byte	0
 2630 031c 00000000 		.4byte	0
ARM GAS  /tmp/ccZ8cUpU.s 			page 48


 2631              	.LLST12:
 2632 0320 0C000000 		.4byte	.LVL17
 2633 0324 52000000 		.4byte	.LVL30
 2634 0328 0600     		.2byte	0x6
 2635 032a F2       		.byte	0xf2
 2636 032b A4020000 		.4byte	.Ldebug_info0+676
 2637 032f 00       		.sleb128 0
 2638 0330 4A010000 		.4byte	.LVL59
 2639 0334 80010000 		.4byte	.LFE21
 2640 0338 0600     		.2byte	0x6
 2641 033a F2       		.byte	0xf2
 2642 033b A4020000 		.4byte	.Ldebug_info0+676
 2643 033f 00       		.sleb128 0
 2644 0340 00000000 		.4byte	0
 2645 0344 00000000 		.4byte	0
 2646              	.LLST13:
 2647 0348 92000000 		.4byte	.LVL34
 2648 034c 94000000 		.4byte	.LVL35
 2649 0350 0200     		.2byte	0x2
 2650 0352 30       		.byte	0x30
 2651 0353 9F       		.byte	0x9f
 2652 0354 94000000 		.4byte	.LVL35
 2653 0358 98000000 		.4byte	.LVL36
 2654 035c 0600     		.2byte	0x6
 2655 035e 72       		.byte	0x72
 2656 035f 00       		.sleb128 0
 2657 0360 78       		.byte	0x78
 2658 0361 7F       		.sleb128 -1
 2659 0362 1C       		.byte	0x1c
 2660 0363 9F       		.byte	0x9f
 2661 0364 9C000000 		.4byte	.LVL37
 2662 0368 A0000000 		.4byte	.LVL38
 2663 036c 0600     		.2byte	0x6
 2664 036e 72       		.byte	0x72
 2665 036f 00       		.sleb128 0
 2666 0370 78       		.byte	0x78
 2667 0371 7F       		.sleb128 -1
 2668 0372 1C       		.byte	0x1c
 2669 0373 9F       		.byte	0x9f
 2670 0374 A0000000 		.4byte	.LVL38
 2671 0378 B0000000 		.4byte	.LVL39
 2672 037c 0200     		.2byte	0x2
 2673 037e 30       		.byte	0x30
 2674 037f 9F       		.byte	0x9f
 2675 0380 00000000 		.4byte	0
 2676 0384 00000000 		.4byte	0
 2677              	.LLST14:
 2678 0388 92000000 		.4byte	.LVL34
 2679 038c 94000000 		.4byte	.LVL35
 2680 0390 0200     		.2byte	0x2
 2681 0392 34       		.byte	0x34
 2682 0393 9F       		.byte	0x9f
 2683 0394 94000000 		.4byte	.LVL35
 2684 0398 98000000 		.4byte	.LVL36
 2685 039c 0800     		.2byte	0x8
 2686 039e 72       		.byte	0x72
 2687 039f 00       		.sleb128 0
ARM GAS  /tmp/ccZ8cUpU.s 			page 49


 2688 03a0 78       		.byte	0x78
 2689 03a1 7F       		.sleb128 -1
 2690 03a2 1C       		.byte	0x1c
 2691 03a3 23       		.byte	0x23
 2692 03a4 05       		.uleb128 0x5
 2693 03a5 9F       		.byte	0x9f
 2694 03a6 F4000000 		.4byte	.LVL49
 2695 03aa 4A010000 		.4byte	.LVL59
 2696 03ae 0200     		.2byte	0x2
 2697 03b0 48       		.byte	0x48
 2698 03b1 9F       		.byte	0x9f
 2699 03b2 00000000 		.4byte	0
 2700 03b6 00000000 		.4byte	0
 2701              	.LLST15:
 2702 03ba B6000000 		.4byte	.LVL40
 2703 03be CC000000 		.4byte	.LVL42
 2704 03c2 0300     		.2byte	0x3
 2705 03c4 71       		.byte	0x71
 2706 03c5 09       		.sleb128 9
 2707 03c6 9F       		.byte	0x9f
 2708 03c7 CC000000 		.4byte	.LVL42
 2709 03cb D6000000 		.4byte	.LVL44
 2710 03cf 0300     		.2byte	0x3
 2711 03d1 71       		.byte	0x71
 2712 03d2 07       		.sleb128 7
 2713 03d3 9F       		.byte	0x9f
 2714 03d4 00000000 		.4byte	0
 2715 03d8 00000000 		.4byte	0
 2716              	.LLST16:
 2717 03dc B6000000 		.4byte	.LVL40
 2718 03e0 CC000000 		.4byte	.LVL42
 2719 03e4 0300     		.2byte	0x3
 2720 03e6 71       		.byte	0x71
 2721 03e7 08       		.sleb128 8
 2722 03e8 9F       		.byte	0x9f
 2723 03e9 CC000000 		.4byte	.LVL42
 2724 03ed D6000000 		.4byte	.LVL44
 2725 03f1 0300     		.2byte	0x3
 2726 03f3 71       		.byte	0x71
 2727 03f4 06       		.sleb128 6
 2728 03f5 9F       		.byte	0x9f
 2729 03f6 00000000 		.4byte	0
 2730 03fa 00000000 		.4byte	0
 2731              	.LLST17:
 2732 03fe B6000000 		.4byte	.LVL40
 2733 0402 BE000000 		.4byte	.LVL41
 2734 0406 0100     		.2byte	0x1
 2735 0408 53       		.byte	0x53
 2736 0409 BE000000 		.4byte	.LVL41
 2737 040d D2000000 		.4byte	.LVL43
 2738 0411 0600     		.2byte	0x6
 2739 0413 77       		.byte	0x77
 2740 0414 00       		.sleb128 0
 2741 0415 7C       		.byte	0x7c
 2742 0416 00       		.sleb128 0
 2743 0417 25       		.byte	0x25
 2744 0418 9F       		.byte	0x9f
ARM GAS  /tmp/ccZ8cUpU.s 			page 50


 2745 0419 D2000000 		.4byte	.LVL43
 2746 041d D6000000 		.4byte	.LVL44
 2747 0421 0600     		.2byte	0x6
 2748 0423 77       		.byte	0x77
 2749 0424 00       		.sleb128 0
 2750 0425 7C       		.byte	0x7c
 2751 0426 08       		.sleb128 8
 2752 0427 25       		.byte	0x25
 2753 0428 9F       		.byte	0x9f
 2754 0429 00000000 		.4byte	0
 2755 042d 00000000 		.4byte	0
 2756              	.LLST18:
 2757 0431 DC000000 		.4byte	.LVL45
 2758 0435 EC000000 		.4byte	.LVL47
 2759 0439 0300     		.2byte	0x3
 2760 043b 72       		.byte	0x72
 2761 043c 11       		.sleb128 17
 2762 043d 9F       		.byte	0x9f
 2763 043e EC000000 		.4byte	.LVL47
 2764 0442 FD000000 		.4byte	.LVL52-1
 2765 0446 0300     		.2byte	0x3
 2766 0448 72       		.byte	0x72
 2767 0449 0F       		.sleb128 15
 2768 044a 9F       		.byte	0x9f
 2769 044b 00000000 		.4byte	0
 2770 044f 00000000 		.4byte	0
 2771              	.LLST19:
 2772 0453 DC000000 		.4byte	.LVL45
 2773 0457 EC000000 		.4byte	.LVL47
 2774 045b 0300     		.2byte	0x3
 2775 045d 72       		.byte	0x72
 2776 045e 10       		.sleb128 16
 2777 045f 9F       		.byte	0x9f
 2778 0460 EC000000 		.4byte	.LVL47
 2779 0464 FD000000 		.4byte	.LVL52-1
 2780 0468 0300     		.2byte	0x3
 2781 046a 72       		.byte	0x72
 2782 046b 0E       		.sleb128 14
 2783 046c 9F       		.byte	0x9f
 2784 046d 00000000 		.4byte	0
 2785 0471 00000000 		.4byte	0
 2786              	.LLST20:
 2787 0475 DC000000 		.4byte	.LVL45
 2788 0479 E2000000 		.4byte	.LVL46
 2789 047d 0100     		.2byte	0x1
 2790 047f 53       		.byte	0x53
 2791 0480 E2000000 		.4byte	.LVL46
 2792 0484 F2000000 		.4byte	.LVL48
 2793 0488 0600     		.2byte	0x6
 2794 048a 74       		.byte	0x74
 2795 048b 00       		.sleb128 0
 2796 048c 71       		.byte	0x71
 2797 048d 00       		.sleb128 0
 2798 048e 25       		.byte	0x25
 2799 048f 9F       		.byte	0x9f
 2800 0490 F2000000 		.4byte	.LVL48
 2801 0494 F6000000 		.4byte	.LVL50
ARM GAS  /tmp/ccZ8cUpU.s 			page 51


 2802 0498 0600     		.2byte	0x6
 2803 049a 74       		.byte	0x74
 2804 049b 00       		.sleb128 0
 2805 049c 71       		.byte	0x71
 2806 049d 08       		.sleb128 8
 2807 049e 25       		.byte	0x25
 2808 049f 9F       		.byte	0x9f
 2809 04a0 F6000000 		.4byte	.LVL50
 2810 04a4 FD000000 		.4byte	.LVL52-1
 2811 04a8 0A00     		.2byte	0xa
 2812 04aa 03       		.byte	0x3
 2813 04ab 00000000 		.4byte	auth
 2814 04af 06       		.byte	0x6
 2815 04b0 71       		.byte	0x71
 2816 04b1 08       		.sleb128 8
 2817 04b2 25       		.byte	0x25
 2818 04b3 9F       		.byte	0x9f
 2819 04b4 00000000 		.4byte	0
 2820 04b8 00000000 		.4byte	0
 2821              	.LLST21:
 2822 04bc 0C010000 		.4byte	.LVL54
 2823 04c0 16010000 		.4byte	.LVL55
 2824 04c4 0200     		.2byte	0x2
 2825 04c6 30       		.byte	0x30
 2826 04c7 9F       		.byte	0x9f
 2827 04c8 16010000 		.4byte	.LVL55
 2828 04cc 26010000 		.4byte	.LVL56
 2829 04d0 0100     		.2byte	0x1
 2830 04d2 53       		.byte	0x53
 2831 04d3 30010000 		.4byte	.LVL57
 2832 04d7 3C010000 		.4byte	.LVL58
 2833 04db 0100     		.2byte	0x1
 2834 04dd 53       		.byte	0x53
 2835 04de 00000000 		.4byte	0
 2836 04e2 00000000 		.4byte	0
 2837              	.LLST22:
 2838 04e6 FA000000 		.4byte	.LVL51
 2839 04ea 0C010000 		.4byte	.LVL54
 2840 04ee 0200     		.2byte	0x2
 2841 04f0 30       		.byte	0x30
 2842 04f1 9F       		.byte	0x9f
 2843 04f2 0C010000 		.4byte	.LVL54
 2844 04f6 3C010000 		.4byte	.LVL58
 2845 04fa 0200     		.2byte	0x2
 2846 04fc 32       		.byte	0x32
 2847 04fd 9F       		.byte	0x9f
 2848 04fe 00000000 		.4byte	0
 2849 0502 00000000 		.4byte	0
 2850              	.LLST23:
 2851 0506 00010000 		.4byte	.LVL53
 2852 050a 16010000 		.4byte	.LVL55
 2853 050e 0100     		.2byte	0x1
 2854 0510 50       		.byte	0x50
 2855 0511 00000000 		.4byte	0
 2856 0515 00000000 		.4byte	0
 2857              		.section	.debug_aranges,"",%progbits
 2858 0000 34000000 		.4byte	0x34
ARM GAS  /tmp/ccZ8cUpU.s 			page 52


 2859 0004 0200     		.2byte	0x2
 2860 0006 00000000 		.4byte	.Ldebug_info0
 2861 000a 04       		.byte	0x4
 2862 000b 00       		.byte	0
 2863 000c 0000     		.2byte	0
 2864 000e 0000     		.2byte	0
 2865 0010 00000000 		.4byte	.LFB22
 2866 0014 50000000 		.4byte	.LFE22-.LFB22
 2867 0018 00000000 		.4byte	.LFB16
 2868 001c 18000000 		.4byte	.LFE16-.LFB16
 2869 0020 00000000 		.4byte	.LFB17
 2870 0024 08000000 		.4byte	.LFE17-.LFB17
 2871 0028 00000000 		.4byte	.LFB21
 2872 002c 80010000 		.4byte	.LFE21-.LFB21
 2873 0030 00000000 		.4byte	0
 2874 0034 00000000 		.4byte	0
 2875              		.section	.debug_ranges,"",%progbits
 2876              	.Ldebug_ranges0:
 2877 0000 0E000000 		.4byte	.LBB22
 2878 0004 14000000 		.4byte	.LBE22
 2879 0008 18000000 		.4byte	.LBB29
 2880 000c 22000000 		.4byte	.LBE29
 2881 0010 26000000 		.4byte	.LBB30
 2882 0014 38000000 		.4byte	.LBE30
 2883 0018 48000000 		.4byte	.LBB31
 2884 001c 52000000 		.4byte	.LBE31
 2885 0020 00000000 		.4byte	0
 2886 0024 00000000 		.4byte	0
 2887 0028 54000000 		.4byte	.LBB32
 2888 002c 56000000 		.4byte	.LBE32
 2889 0030 76000000 		.4byte	.LBB48
 2890 0034 7A000000 		.4byte	.LBE48
 2891 0038 7C000000 		.4byte	.LBB50
 2892 003c 80000000 		.4byte	.LBE50
 2893 0040 82000000 		.4byte	.LBB52
 2894 0044 90000000 		.4byte	.LBE52
 2895 0048 94000000 		.4byte	.LBB54
 2896 004c F6000000 		.4byte	.LBE54
 2897 0050 F8000000 		.4byte	.LBB59
 2898 0054 FA000000 		.4byte	.LBE59
 2899 0058 00000000 		.4byte	0
 2900 005c 00000000 		.4byte	0
 2901 0060 5C000000 		.4byte	.LBB43
 2902 0064 76000000 		.4byte	.LBE43
 2903 0068 7A000000 		.4byte	.LBB49
 2904 006c 7C000000 		.4byte	.LBE49
 2905 0070 80000000 		.4byte	.LBB51
 2906 0074 82000000 		.4byte	.LBE51
 2907 0078 90000000 		.4byte	.LBB53
 2908 007c 94000000 		.4byte	.LBE53
 2909 0080 00000000 		.4byte	0
 2910 0084 00000000 		.4byte	0
 2911 0088 F6000000 		.4byte	.LBB55
 2912 008c F8000000 		.4byte	.LBE55
 2913 0090 FA000000 		.4byte	.LBB60
 2914 0094 42010000 		.4byte	.LBE60
 2915 0098 44010000 		.4byte	.LBB61
ARM GAS  /tmp/ccZ8cUpU.s 			page 53


 2916 009c 46010000 		.4byte	.LBE61
 2917 00a0 00000000 		.4byte	0
 2918 00a4 00000000 		.4byte	0
 2919 00a8 00000000 		.4byte	.LFB22
 2920 00ac 50000000 		.4byte	.LFE22
 2921 00b0 00000000 		.4byte	.LFB16
 2922 00b4 18000000 		.4byte	.LFE16
 2923 00b8 00000000 		.4byte	.LFB17
 2924 00bc 08000000 		.4byte	.LFE17
 2925 00c0 00000000 		.4byte	.LFB21
 2926 00c4 80010000 		.4byte	.LFE21
 2927 00c8 00000000 		.4byte	0
 2928 00cc 00000000 		.4byte	0
 2929              		.section	.debug_line,"",%progbits
 2930              	.Ldebug_line0:
 2931 0000 E2010000 		.section	.debug_str,"MS",%progbits,1
 2931      0200EA00 
 2931      00000201 
 2931      FB0E0D00 
 2931      01010101 
 2932              	.LASF23:
 2933 0000 76616C69 		.ascii	"valid\000"
 2933      6400
 2934              	.LASF19:
 2935 0006 73657475 		.ascii	"setup_string_id_auth\000"
 2935      705F7374 
 2935      72696E67 
 2935      5F69645F 
 2935      61757468 
 2936              	.LASF34:
 2937 001b 73747269 		.ascii	"string_auth\000"
 2937      6E675F61 
 2937      75746800 
 2938              	.LASF24:
 2939 0027 6765745F 		.ascii	"get_len_string_interface\000"
 2939      6C656E5F 
 2939      73747269 
 2939      6E675F69 
 2939      6E746572 
 2940              	.LASF6:
 2941 0040 73686F72 		.ascii	"short int\000"
 2941      7420696E 
 2941      7400
 2942              	.LASF8:
 2943 004a 73697A65 		.ascii	"size_t\000"
 2943      5F7400
 2944              	.LASF1:
 2945 0051 73697A65 		.ascii	"sizetype\000"
 2945      74797065 
 2945      00
 2946              	.LASF13:
 2947 005a 73756273 		.ascii	"substitute\000"
 2947      74697475 
 2947      746500
 2948              	.LASF33:
 2949 0065 66775F76 		.ascii	"fw_version\000"
 2949      65727369 
ARM GAS  /tmp/ccZ8cUpU.s 			page 54


 2949      6F6E00
 2950              	.LASF36:
 2951 0070 626F6172 		.ascii	"board_secret\000"
 2951      645F7365 
 2951      63726574 
 2951      00
 2952              	.LASF25:
 2953 007d 75706461 		.ascii	"update_html_file\000"
 2953      74655F68 
 2953      746D6C5F 
 2953      66696C65 
 2953      00
 2954              	.LASF31:
 2955 008e 57656253 		.ascii	"WebSide\000"
 2955      69646500 
 2956              	.LASF9:
 2957 0096 75696E74 		.ascii	"uint8_t\000"
 2957      385F7400 
 2958              	.LASF35:
 2959 009e 73747269 		.ascii	"string_auth_descriptor\000"
 2959      6E675F61 
 2959      7574685F 
 2959      64657363 
 2959      72697074 
 2960              	.LASF21:
 2961 00b5 6765745F 		.ascii	"get_html_character\000"
 2961      68746D6C 
 2961      5F636861 
 2961      72616374 
 2961      657200
 2962              	.LASF7:
 2963 00c8 6C6F6E67 		.ascii	"long long int\000"
 2963      206C6F6E 
 2963      6720696E 
 2963      7400
 2964              	.LASF40:
 2965 00d6 6765745F 		.ascii	"get_uid_string_interface\000"
 2965      7569645F 
 2965      73747269 
 2965      6E675F69 
 2965      6E746572 
 2966              	.LASF12:
 2967 00ef 7068746D 		.ascii	"phtml\000"
 2967      6C00
 2968              	.LASF38:
 2969 00f5 2E2E2F6E 		.ascii	"../netvcr/opensda/bootloader/Common/src/version.c\000"
 2969      65747663 
 2969      722F6F70 
 2969      656E7364 
 2969      612F626F 
 2970              	.LASF26:
 2971 0127 68746D6C 		.ascii	"html\000"
 2971      00
 2972              	.LASF20:
 2973 012c 61746F69 		.ascii	"atoi\000"
 2973      00
 2974              	.LASF22:
ARM GAS  /tmp/ccZ8cUpU.s 			page 55


 2975 0131 73707472 		.ascii	"sptr\000"
 2975      00
 2976              	.LASF15:
 2977 0136 6765745F 		.ascii	"get_byte_hex\000"
 2977      62797465 
 2977      5F686578 
 2977      00
 2978              	.LASF4:
 2979 0143 756E7369 		.ascii	"unsigned char\000"
 2979      676E6564 
 2979      20636861 
 2979      7200
 2980              	.LASF41:
 2981 0151 636F6D70 		.ascii	"compute_auth\000"
 2981      7574655F 
 2981      61757468 
 2981      00
 2982              	.LASF5:
 2983 015e 7369676E 		.ascii	"signed char\000"
 2983      65642063 
 2983      68617200 
 2984              	.LASF11:
 2985 016a 6C6F6E67 		.ascii	"long long unsigned int\000"
 2985      206C6F6E 
 2985      6720756E 
 2985      7369676E 
 2985      65642069 
 2986              	.LASF10:
 2987 0181 75696E74 		.ascii	"uint32_t\000"
 2987      33325F74 
 2987      00
 2988              	.LASF0:
 2989 018a 756E7369 		.ascii	"unsigned int\000"
 2989      676E6564 
 2989      20696E74 
 2989      00
 2990              	.LASF28:
 2991 0197 616C7265 		.ascii	"already_unique_id\000"
 2991      6164795F 
 2991      756E6971 
 2991      75655F69 
 2991      6400
 2992              	.LASF44:
 2993 01a9 72656164 		.ascii	"read_unique_id\000"
 2993      5F756E69 
 2993      7175655F 
 2993      696400
 2994              	.LASF2:
 2995 01b8 73686F72 		.ascii	"short unsigned int\000"
 2995      7420756E 
 2995      7369676E 
 2995      65642069 
 2995      6E7400
 2996              	.LASF32:
 2997 01cb 426C6F63 		.ascii	"BlockBuf\000"
 2997      6B427566 
 2997      00
ARM GAS  /tmp/ccZ8cUpU.s 			page 56


 2998              	.LASF3:
 2999 01d4 63686172 		.ascii	"char\000"
 2999      00
 3000              	.LASF29:
 3001 01d9 61757468 		.ascii	"auth\000"
 3001      00
 3002              	.LASF43:
 3003 01de 7374726C 		.ascii	"strlen\000"
 3003      656E00
 3004              	.LASF42:
 3005 01e5 73657475 		.ascii	"setup_string_descriptor\000"
 3005      705F7374 
 3005      72696E67 
 3005      5F646573 
 3005      63726970 
 3006              	.LASF14:
 3007 01fd 48544D4C 		.ascii	"HTMLCTX\000"
 3007      43545800 
 3008              	.LASF16:
 3009 0205 696E6974 		.ascii	"init_html\000"
 3009      5F68746D 
 3009      6C00
 3010              	.LASF37:
 3011 020f 474E5520 		.ascii	"GNU C 4.9.2 -mcpu=cortex-m4 -mfloat-abi=soft -mfp16"
 3011      4320342E 
 3011      392E3220 
 3011      2D6D6370 
 3011      753D636F 
 3012 0242 2D666F72 		.ascii	"-format=none -mno-thumb-interwork -mthumb -mfpu=vfp"
 3012      6D61743D 
 3012      6E6F6E65 
 3012      202D6D6E 
 3012      6F2D7468 
 3013 0275 76332D64 		.ascii	"v3-d16 -mtls-dialect=gnu -ggdb -O2 -fomit-frame-poi"
 3013      3136202D 
 3013      6D746C73 
 3013      2D646961 
 3013      6C656374 
 3014 02a8 6E746572 		.ascii	"nter -falign-functions=16 -ffunction-sections -fdat"
 3014      202D6661 
 3014      6C69676E 
 3014      2D66756E 
 3014      6374696F 
 3015 02db 612D7365 		.ascii	"a-sections -fno-common\000"
 3015      6374696F 
 3015      6E73202D 
 3015      666E6F2D 
 3015      636F6D6D 
 3016              	.LASF17:
 3017 02f2 73697A65 		.ascii	"size\000"
 3017      00
 3018              	.LASF30:
 3019 02f7 6E796262 		.ascii	"nybble_chars\000"
 3019      6C655F63 
 3019      68617273 
 3019      00
 3020              	.LASF39:
ARM GAS  /tmp/ccZ8cUpU.s 			page 57


 3021 0304 2F686F6D 		.ascii	"/home/bunnie/code/chibios-netvcr/netvcr\000"
 3021      652F6275 
 3021      6E6E6965 
 3021      2F636F64 
 3021      652F6368 
 3022              	.LASF18:
 3023 032c 62617365 		.ascii	"base\000"
 3023      00
 3024              	.LASF27:
 3025 0331 756E6971 		.ascii	"unique_id\000"
 3025      75655F69 
 3025      6400
 3026              		.ident	"GCC: (Debian 4.9.2-10) 4.9.2"
 3027              		.section	.note.GNU-stack,"",%progbits
ARM GAS  /tmp/ccZ8cUpU.s 			page 58


DEFINED SYMBOLS
                            *ABS*:00000000 version.c
     /tmp/ccZ8cUpU.s:19     .text.atoi.constprop.0:00000000 $t
     /tmp/ccZ8cUpU.s:24     .text.atoi.constprop.0:00000000 atoi.constprop.0
     /tmp/ccZ8cUpU.s:125    .text.get_len_string_interface:00000000 $t
     /tmp/ccZ8cUpU.s:131    .text.get_len_string_interface:00000000 get_len_string_interface
     /tmp/ccZ8cUpU.s:153    .text.get_len_string_interface:00000014 $d
     /tmp/ccZ8cUpU.s:158    .text.get_uid_string_interface:00000000 $t
     /tmp/ccZ8cUpU.s:164    .text.get_uid_string_interface:00000000 get_uid_string_interface
     /tmp/ccZ8cUpU.s:177    .text.get_uid_string_interface:00000004 $d
     /tmp/ccZ8cUpU.s:182    .text.update_html_file:00000000 $t
     /tmp/ccZ8cUpU.s:188    .text.update_html_file:00000000 update_html_file
     /tmp/ccZ8cUpU.s:557    .text.update_html_file:00000150 $d
     /tmp/ccZ8cUpU.s:656    .rodata.board_secret:00000000 board_secret
     /tmp/ccZ8cUpU.s:596    .bss.string_auth_descriptor:00000000 string_auth_descriptor
     /tmp/ccZ8cUpU.s:649    .bss.string_auth:00000000 string_auth
     /tmp/ccZ8cUpU.s:623    .data.fw_version:00000000 fw_version
     /tmp/ccZ8cUpU.s:630    .rodata.WebSide:00000000 WebSide
     /tmp/ccZ8cUpU.s:578    .bss.unique_id:00000000 $d
     /tmp/ccZ8cUpU.s:582    .bss.unique_id:00000000 unique_id
     /tmp/ccZ8cUpU.s:585    .bss.auth:00000000 $d
     /tmp/ccZ8cUpU.s:589    .bss.auth:00000000 auth
     /tmp/ccZ8cUpU.s:592    .bss.string_auth_descriptor:00000000 $d
     /tmp/ccZ8cUpU.s:602    .bss.already_unique_id:00000000 already_unique_id
     /tmp/ccZ8cUpU.s:603    .bss.already_unique_id:00000000 $d
     /tmp/ccZ8cUpU.s:605    .rodata.nybble_chars:00000000 $d
     /tmp/ccZ8cUpU.s:609    .rodata.nybble_chars:00000000 nybble_chars
     /tmp/ccZ8cUpU.s:612    .bss.sptr.4598:00000000 $d
     /tmp/ccZ8cUpU.s:616    .bss.sptr.4598:00000000 sptr.4598
     /tmp/ccZ8cUpU.s:619    .data.fw_version:00000000 $d
     /tmp/ccZ8cUpU.s:626    .rodata.WebSide:00000000 $d
     /tmp/ccZ8cUpU.s:641    .rodata.str1.4:00000000 $d
     /tmp/ccZ8cUpU.s:645    .bss.string_auth:00000000 $d
     /tmp/ccZ8cUpU.s:652    .rodata.board_secret:00000000 $d
                     .debug_frame:00000010 $d
     /tmp/ccZ8cUpU.s:157    .text.get_len_string_interface:00000018 $t
     /tmp/ccZ8cUpU.s:181    .text.get_uid_string_interface:00000008 $t

UNDEFINED SYMBOLS
strlen
read_unique_id
BlockBuf
